   1              	 .syntax unified
   2              	 .cpu cortex-m4
   3              	 .eabi_attribute 27,3
   4              	 .fpu fpv4-sp-d16
   5              	 .eabi_attribute 20,1
   6              	 .eabi_attribute 21,1
   7              	 .eabi_attribute 23,3
   8              	 .eabi_attribute 24,1
   9              	 .eabi_attribute 25,1
  10              	 .eabi_attribute 26,1
  11              	 .eabi_attribute 30,2
  12              	 .eabi_attribute 34,1
  13              	 .eabi_attribute 18,4
  14              	 .thumb
  15              	 .file "DAVE.c"
  16              	 .text
  17              	.Ltext0:
  18              	 .cfi_sections .debug_frame
  19              	 .section .text.DAVE_Init,"ax",%progbits
  20              	 .align 2
  21              	 .global DAVE_Init
  22              	 .thumb
  23              	 .thumb_func
  25              	DAVE_Init:
  26              	.LFB400:
  27              	 .file 1 "../Dave/Generated/DAVE.c"
   1:../Dave/Generated/DAVE.c **** 
   2:../Dave/Generated/DAVE.c **** /**
   3:../Dave/Generated/DAVE.c ****  * @cond
   4:../Dave/Generated/DAVE.c ****  **************************************************************************************************
   5:../Dave/Generated/DAVE.c ****  *
   6:../Dave/Generated/DAVE.c ****  * Copyright (c) 2015, Infineon Technologies AG
   7:../Dave/Generated/DAVE.c ****  * All rights reserved.
   8:../Dave/Generated/DAVE.c ****  *
   9:../Dave/Generated/DAVE.c ****  * Redistribution and use in source and binary forms, with or without modification,are permitted pr
  10:../Dave/Generated/DAVE.c ****  * following conditions are met:
  11:../Dave/Generated/DAVE.c ****  *
  12:../Dave/Generated/DAVE.c ****  *   Redistributions of source code must retain the above copyright notice, this list of conditions
  13:../Dave/Generated/DAVE.c ****  *   disclaimer.
  14:../Dave/Generated/DAVE.c ****  *
  15:../Dave/Generated/DAVE.c ****  *   Redistributions in binary form must reproduce the above copyright notice, this list of conditi
  16:../Dave/Generated/DAVE.c ****  *   following disclaimer in the documentation and/or other materials provided with the distributio
  17:../Dave/Generated/DAVE.c ****  *
  18:../Dave/Generated/DAVE.c ****  *   Neither the name of the copyright holders nor the names of its contributors may be used to end
  19:../Dave/Generated/DAVE.c ****  *   products derived from this software without specific prior written permission.
  20:../Dave/Generated/DAVE.c ****  *
  21:../Dave/Generated/DAVE.c ****  * THIS SOFTWARE IS PROVIDED BY THE COPYRIGHT HOLDERS AND CONTRIBUTORS "AS IS" AND ANY EXPRESS OR I
  22:../Dave/Generated/DAVE.c ****  * INCLUDING, BUT NOT LIMITED TO, THE IMPLIED WARRANTIES OF MERCHANTABILITY AND FITNESS FOR A PARTI
  23:../Dave/Generated/DAVE.c ****  * DISCLAIMED. IN NO EVENT SHALL THE COPYRIGHT HOLDER OR CONTRIBUTORS BE LIABLE  FOR ANY DIRECT, IN
  24:../Dave/Generated/DAVE.c ****  * SPECIAL, EXEMPLARY, OR CONSEQUENTIAL DAMAGES (INCLUDING, BUT NOT LIMITED TO, PROCUREMENT OF SUBS
  25:../Dave/Generated/DAVE.c ****  * SERVICES; LOSS OF USE, DATA, OR PROFITS; OR BUSINESS INTERRUPTION) HOWEVER CAUSED AND ON ANY THE
  26:../Dave/Generated/DAVE.c ****  * WHETHER IN CONTRACT, STRICT LIABILITY,OR TORT (INCLUDING NEGLIGENCE OR OTHERWISE) ARISING IN ANY
  27:../Dave/Generated/DAVE.c ****  * USE OF THIS SOFTWARE, EVEN IF ADVISED OF THE POSSIBILITY OF SUCH DAMAGE.
  28:../Dave/Generated/DAVE.c ****  *
  29:../Dave/Generated/DAVE.c ****  * To improve the quality of the software, users are encouraged to share modifications, enhancement
  30:../Dave/Generated/DAVE.c ****  * with Infineon Technologies AG (dave@infineon.com).
  31:../Dave/Generated/DAVE.c ****  **************************************************************************************************
  32:../Dave/Generated/DAVE.c ****  *
  33:../Dave/Generated/DAVE.c ****  * Change History
  34:../Dave/Generated/DAVE.c ****  * --------------
  35:../Dave/Generated/DAVE.c ****  *
  36:../Dave/Generated/DAVE.c ****  * 2014-06-16:
  37:../Dave/Generated/DAVE.c ****  *     - Initial version<br>
  38:../Dave/Generated/DAVE.c ****  * 2015-08-28:
  39:../Dave/Generated/DAVE.c ****  *     - Added CLOCK_XMC1_Init conditionally
  40:../Dave/Generated/DAVE.c ****  *
  41:../Dave/Generated/DAVE.c ****  * @endcond
  42:../Dave/Generated/DAVE.c ****  *
  43:../Dave/Generated/DAVE.c ****  */
  44:../Dave/Generated/DAVE.c **** 
  45:../Dave/Generated/DAVE.c **** /**************************************************************************************************
  46:../Dave/Generated/DAVE.c ****  * HEADER FILES
  47:../Dave/Generated/DAVE.c ****  **************************************************************************************************
  48:../Dave/Generated/DAVE.c **** #include "DAVE.h"
  49:../Dave/Generated/DAVE.c **** 
  50:../Dave/Generated/DAVE.c **** /**************************************************************************************************
  51:../Dave/Generated/DAVE.c ****  * API IMPLEMENTATION
  52:../Dave/Generated/DAVE.c ****  **************************************************************************************************
  53:../Dave/Generated/DAVE.c **** 
  54:../Dave/Generated/DAVE.c **** /*******************************************************************************
  55:../Dave/Generated/DAVE.c ****  * @brief This function initializes the APPs Init Functions.
  56:../Dave/Generated/DAVE.c ****  *
  57:../Dave/Generated/DAVE.c ****  * @param[in]  None
  58:../Dave/Generated/DAVE.c ****  *
  59:../Dave/Generated/DAVE.c ****  * @return  DAVE_STATUS_t <BR>
  60:../Dave/Generated/DAVE.c ****  ******************************************************************************/
  61:../Dave/Generated/DAVE.c **** DAVE_STATUS_t DAVE_Init(void)
  62:../Dave/Generated/DAVE.c **** {
  28              	 .loc 1 62 0
  29              	 .cfi_startproc
  30              	 
  31              	 
  32              	.LVL0:
  33 0000 08B5     	 push {r3,lr}
  34              	.LCFI0:
  35              	 .cfi_def_cfa_offset 8
  36              	 .cfi_offset 3,-8
  37              	 .cfi_offset 14,-4
  63:../Dave/Generated/DAVE.c ****   DAVE_STATUS_t init_status;
  64:../Dave/Generated/DAVE.c ****   
  65:../Dave/Generated/DAVE.c ****   init_status = DAVE_STATUS_SUCCESS;
  66:../Dave/Generated/DAVE.c ****      /** @Initialization of APPs Init Functions */
  67:../Dave/Generated/DAVE.c ****      init_status = (DAVE_STATUS_t)CLOCK_XMC4_Init(&CLOCK_XMC4_0);
  38              	 .loc 1 67 0
  39 0002 1E48     	 ldr r0,.L15
  40 0004 FFF7FEFF 	 bl CLOCK_XMC4_Init
  41              	.LVL1:
  68:../Dave/Generated/DAVE.c **** 
  69:../Dave/Generated/DAVE.c ****   if (init_status == DAVE_STATUS_SUCCESS)
  42              	 .loc 1 69 0
  43 0008 00B1     	 cbz r0,.L14
  44              	.L11:
  70:../Dave/Generated/DAVE.c ****   {
  71:../Dave/Generated/DAVE.c **** 	 /**  Initialization of DIGITAL_IO APP instance LED1 */
  72:../Dave/Generated/DAVE.c **** 	 init_status = (DAVE_STATUS_t)DIGITAL_IO_Init(&LED1); 
  73:../Dave/Generated/DAVE.c ****    } 
  74:../Dave/Generated/DAVE.c ****   if (init_status == DAVE_STATUS_SUCCESS)
  75:../Dave/Generated/DAVE.c ****   {
  76:../Dave/Generated/DAVE.c **** 	 /**  Initialization of DIGITAL_IO APP instance LED2 */
  77:../Dave/Generated/DAVE.c **** 	 init_status = (DAVE_STATUS_t)DIGITAL_IO_Init(&LED2); 
  78:../Dave/Generated/DAVE.c ****    } 
  79:../Dave/Generated/DAVE.c ****   if (init_status == DAVE_STATUS_SUCCESS)
  80:../Dave/Generated/DAVE.c ****   {
  81:../Dave/Generated/DAVE.c **** 	 /**  Initialization of DIGITAL_IO APP instance ENC_B */
  82:../Dave/Generated/DAVE.c **** 	 init_status = (DAVE_STATUS_t)DIGITAL_IO_Init(&ENC_B); 
  83:../Dave/Generated/DAVE.c ****    } 
  84:../Dave/Generated/DAVE.c ****   if (init_status == DAVE_STATUS_SUCCESS)
  85:../Dave/Generated/DAVE.c ****   {
  86:../Dave/Generated/DAVE.c **** 	 /**  Initialization of DIGITAL_IO APP instance ENC_A */
  87:../Dave/Generated/DAVE.c **** 	 init_status = (DAVE_STATUS_t)DIGITAL_IO_Init(&ENC_A); 
  88:../Dave/Generated/DAVE.c ****    } 
  89:../Dave/Generated/DAVE.c ****   if (init_status == DAVE_STATUS_SUCCESS)
  90:../Dave/Generated/DAVE.c ****   {
  91:../Dave/Generated/DAVE.c **** 	 /**  Initialization of INTERRUPT APP instance ENCODER_INTERRUPT */
  92:../Dave/Generated/DAVE.c **** 	 init_status = (DAVE_STATUS_t)INTERRUPT_Init(&ENCODER_INTERRUPT); 
  93:../Dave/Generated/DAVE.c ****    } 
  94:../Dave/Generated/DAVE.c ****   if (init_status == DAVE_STATUS_SUCCESS)
  95:../Dave/Generated/DAVE.c ****   {
  96:../Dave/Generated/DAVE.c **** 	 /**  Initialization of TIMER APP instance ENCODER_TIMER */
  97:../Dave/Generated/DAVE.c **** 	 init_status = (DAVE_STATUS_t)TIMER_Init(&ENCODER_TIMER); 
  98:../Dave/Generated/DAVE.c ****    } 
  99:../Dave/Generated/DAVE.c ****   if (init_status == DAVE_STATUS_SUCCESS)
 100:../Dave/Generated/DAVE.c ****   {
 101:../Dave/Generated/DAVE.c **** 	 /**  Initialization of GUI_SEGGERLIBRARY APP instance GUI_SEGGERLIBRARY_0 */
 102:../Dave/Generated/DAVE.c **** 	 init_status = (DAVE_STATUS_t)GUI_SEGGERLIBRARY_Init(&GUI_SEGGERLIBRARY_0); 
 103:../Dave/Generated/DAVE.c ****    } 
 104:../Dave/Generated/DAVE.c ****   if (init_status == DAVE_STATUS_SUCCESS)
 105:../Dave/Generated/DAVE.c ****   {
 106:../Dave/Generated/DAVE.c **** 	 /**  Initialization of PWM_CCU8 APP instance PWM_CCU8_0 */
 107:../Dave/Generated/DAVE.c **** 	 init_status = (DAVE_STATUS_t)PWM_CCU8_Init(&PWM_CCU8_0); 
 108:../Dave/Generated/DAVE.c ****    } 
 109:../Dave/Generated/DAVE.c ****   if (init_status == DAVE_STATUS_SUCCESS)
 110:../Dave/Generated/DAVE.c ****   {
 111:../Dave/Generated/DAVE.c **** 	 /**  Initialization of DIGITAL_IO APP instance INH_1 */
 112:../Dave/Generated/DAVE.c **** 	 init_status = (DAVE_STATUS_t)DIGITAL_IO_Init(&INH_1); 
 113:../Dave/Generated/DAVE.c ****    } 
 114:../Dave/Generated/DAVE.c ****   if (init_status == DAVE_STATUS_SUCCESS)
 115:../Dave/Generated/DAVE.c ****   {
 116:../Dave/Generated/DAVE.c **** 	 /**  Initialization of DIGITAL_IO APP instance INH_2 */
 117:../Dave/Generated/DAVE.c **** 	 init_status = (DAVE_STATUS_t)DIGITAL_IO_Init(&INH_2); 
 118:../Dave/Generated/DAVE.c ****    } 
 119:../Dave/Generated/DAVE.c ****   if (init_status == DAVE_STATUS_SUCCESS)
 120:../Dave/Generated/DAVE.c ****   {
 121:../Dave/Generated/DAVE.c **** 	 /**  Initialization of DIGITAL_IO APP instance TEST_PIN */
 122:../Dave/Generated/DAVE.c **** 	 init_status = (DAVE_STATUS_t)DIGITAL_IO_Init(&TEST_PIN); 
 123:../Dave/Generated/DAVE.c ****    }  
 124:../Dave/Generated/DAVE.c ****   return init_status;
 125:../Dave/Generated/DAVE.c **** } /**  End of function DAVE_Init */
  45              	 .loc 1 125 0
  46 000a 08BD     	 pop {r3,pc}
  47              	.L14:
  72:../Dave/Generated/DAVE.c ****    } 
  48              	 .loc 1 72 0
  49 000c 1C48     	 ldr r0,.L15+4
  50              	.LVL2:
  51 000e FFF7FEFF 	 bl DIGITAL_IO_Init
  52              	.LVL3:
  74:../Dave/Generated/DAVE.c ****   {
  53              	 .loc 1 74 0
  54 0012 0028     	 cmp r0,#0
  55 0014 F9D1     	 bne .L11
  77:../Dave/Generated/DAVE.c ****    } 
  56              	 .loc 1 77 0
  57 0016 1B48     	 ldr r0,.L15+8
  58              	.LVL4:
  59 0018 FFF7FEFF 	 bl DIGITAL_IO_Init
  60              	.LVL5:
  79:../Dave/Generated/DAVE.c ****   {
  61              	 .loc 1 79 0
  62 001c 0028     	 cmp r0,#0
  63 001e F4D1     	 bne .L11
  82:../Dave/Generated/DAVE.c ****    } 
  64              	 .loc 1 82 0
  65 0020 1948     	 ldr r0,.L15+12
  66              	.LVL6:
  67 0022 FFF7FEFF 	 bl DIGITAL_IO_Init
  68              	.LVL7:
  84:../Dave/Generated/DAVE.c ****   {
  69              	 .loc 1 84 0
  70 0026 0028     	 cmp r0,#0
  71 0028 EFD1     	 bne .L11
  87:../Dave/Generated/DAVE.c ****    } 
  72              	 .loc 1 87 0
  73 002a 1848     	 ldr r0,.L15+16
  74              	.LVL8:
  75 002c FFF7FEFF 	 bl DIGITAL_IO_Init
  76              	.LVL9:
  89:../Dave/Generated/DAVE.c ****   {
  77              	 .loc 1 89 0
  78 0030 0028     	 cmp r0,#0
  79 0032 EAD1     	 bne .L11
  92:../Dave/Generated/DAVE.c ****    } 
  80              	 .loc 1 92 0
  81 0034 1648     	 ldr r0,.L15+20
  82              	.LVL10:
  83 0036 FFF7FEFF 	 bl INTERRUPT_Init
  84              	.LVL11:
  94:../Dave/Generated/DAVE.c ****   {
  85              	 .loc 1 94 0
  86 003a 0028     	 cmp r0,#0
  87 003c E5D1     	 bne .L11
  97:../Dave/Generated/DAVE.c ****    } 
  88              	 .loc 1 97 0
  89 003e 1548     	 ldr r0,.L15+24
  90              	.LVL12:
  91 0040 FFF7FEFF 	 bl TIMER_Init
  92              	.LVL13:
  99:../Dave/Generated/DAVE.c ****   {
  93              	 .loc 1 99 0
  94 0044 0028     	 cmp r0,#0
  95 0046 E0D1     	 bne .L11
 102:../Dave/Generated/DAVE.c ****    } 
  96              	 .loc 1 102 0
  97 0048 1348     	 ldr r0,.L15+28
  98              	.LVL14:
  99 004a FFF7FEFF 	 bl GUI_SEGGERLIBRARY_Init
 100              	.LVL15:
 104:../Dave/Generated/DAVE.c ****   {
 101              	 .loc 1 104 0
 102 004e 0028     	 cmp r0,#0
 103 0050 DBD1     	 bne .L11
 107:../Dave/Generated/DAVE.c ****    } 
 104              	 .loc 1 107 0
 105 0052 1248     	 ldr r0,.L15+32
 106              	.LVL16:
 107 0054 FFF7FEFF 	 bl PWM_CCU8_Init
 108              	.LVL17:
 109:../Dave/Generated/DAVE.c ****   {
 109              	 .loc 1 109 0
 110 0058 0028     	 cmp r0,#0
 111 005a D6D1     	 bne .L11
 112:../Dave/Generated/DAVE.c ****    } 
 112              	 .loc 1 112 0
 113 005c 1048     	 ldr r0,.L15+36
 114              	.LVL18:
 115 005e FFF7FEFF 	 bl DIGITAL_IO_Init
 116              	.LVL19:
 114:../Dave/Generated/DAVE.c ****   {
 117              	 .loc 1 114 0
 118 0062 0028     	 cmp r0,#0
 119 0064 D1D1     	 bne .L11
 117:../Dave/Generated/DAVE.c ****    } 
 120              	 .loc 1 117 0
 121 0066 0F48     	 ldr r0,.L15+40
 122              	.LVL20:
 123 0068 FFF7FEFF 	 bl DIGITAL_IO_Init
 124              	.LVL21:
 119:../Dave/Generated/DAVE.c ****   {
 125              	 .loc 1 119 0
 126 006c 0028     	 cmp r0,#0
 127 006e CCD1     	 bne .L11
 122:../Dave/Generated/DAVE.c ****    }  
 128              	 .loc 1 122 0
 129 0070 0D48     	 ldr r0,.L15+44
 130              	.LVL22:
 131              	 .loc 1 125 0
 132 0072 BDE80840 	 pop {r3,lr}
 133              	.LCFI1:
 134              	 .cfi_restore 14
 135              	 .cfi_restore 3
 136              	 .cfi_def_cfa_offset 0
 122:../Dave/Generated/DAVE.c ****    }  
 137              	 .loc 1 122 0
 138 0076 FFF7FEBF 	 b DIGITAL_IO_Init
 139              	.LVL23:
 140              	.L16:
 141 007a 00BF     	 .align 2
 142              	.L15:
 143 007c 00000000 	 .word CLOCK_XMC4_0
 144 0080 00000000 	 .word LED1
 145 0084 00000000 	 .word LED2
 146 0088 00000000 	 .word ENC_B
 147 008c 00000000 	 .word ENC_A
 148 0090 00000000 	 .word ENCODER_INTERRUPT
 149 0094 00000000 	 .word ENCODER_TIMER
 150 0098 00000000 	 .word GUI_SEGGERLIBRARY_0
 151 009c 00000000 	 .word PWM_CCU8_0
 152 00a0 00000000 	 .word INH_1
 153 00a4 00000000 	 .word INH_2
 154 00a8 00000000 	 .word TEST_PIN
 155              	 .cfi_endproc
 156              	.LFE400:
 158              	 .text
 159              	.Letext0:
 160              	 .file 2 "c:\\dave 4\\eclipse\\arm-gcc-49\\arm-none-eabi\\include\\machine\\_default_types.h"
 161              	 .file 3 "c:\\dave 4\\eclipse\\arm-gcc-49\\arm-none-eabi\\include\\stdint.h"
 162              	 .file 4 "C:/Workspaces/Dave 4/CTPOT_test1/Libraries/CMSIS/Infineon/XMC4700_series/Include/XMC4700.h"
 163              	 .file 5 "C:/Workspaces/Dave 4/CTPOT_test1/Libraries/XMCLib/inc/xmc_gpio.h"
 164              	 .file 6 "C:/Workspaces/Dave 4/CTPOT_test1/Libraries/XMCLib/inc/xmc4_gpio.h"
 165              	 .file 7 "../Dave/Generated/DIGITAL_IO/digital_io.h"
 166              	 .file 8 "../Dave/Generated/INTERRUPT/interrupt.h"
 167              	 .file 9 "C:/Workspaces/Dave 4/CTPOT_test1/Libraries/XMCLib/inc/xmc4_scu.h"
 168              	 .file 10 "../Dave/Generated/CLOCK_XMC4/clock_xmc4.h"
 169              	 .file 11 "C:/Workspaces/Dave 4/CTPOT_test1/Libraries/XMCLib/inc/xmc_ccu4.h"
 170              	 .file 12 "../Dave/Generated/GLOBAL_CCU4/global_ccu4.h"
 171              	 .file 13 "../Dave/Generated/TIMER/timer.h"
 172              	 .file 14 "C:/Workspaces/Dave 4/CTPOT_test1/Libraries/XMCLib/inc/xmc_usic.h"
 173              	 .file 15 "C:/Workspaces/Dave 4/CTPOT_test1/Libraries/XMCLib/inc/xmc_spi.h"
 174              	 .file 16 "../Dave/Generated/SPI_MASTER/spi_master.h"
 175              	 .file 17 "../Dave/Generated/GUI_SEGGERLIBRARY/gui_seggerlibrary.h"
 176              	 .file 18 "C:/Workspaces/Dave 4/CTPOT_test1/Libraries/XMCLib/inc/xmc_ccu8.h"
 177              	 .file 19 "../Dave/Generated/GLOBAL_CCU8/global_ccu8.h"
 178              	 .file 20 "../Dave/Generated/PWM_CCU8/pwm_ccu8.h"
 179              	 .file 21 "../Dave/Generated/DAVE.h"
 180              	 .file 22 "C:/Workspaces/Dave 4/CTPOT_test1/Libraries/CMSIS/Include/core_cm4.h"
 181              	 .file 23 "C:/Workspaces/Dave 4/CTPOT_test1/Libraries/CMSIS/Infineon/XMC4700_series/Include/system_XMC4700.h"
 182              	 .file 24 "../Dave/Generated/DIGITAL_IO/digital_io_extern.h"
 183              	 .file 25 "../Dave/Generated/INTERRUPT/interrupt_extern.h"
 184              	 .file 26 "../Dave/Generated/CLOCK_XMC4/clock_xmc4_extern.h"
 185              	 .file 27 "../Dave/Generated/TIMER/timer_extern.h"
 186              	 .file 28 "../Dave/Generated/GUI_SEGGERLIBRARY/gui_seggerlibrary_extern.h"
 187              	 .file 29 "../Dave/Generated/PWM_CCU8/pwm_ccu8_extern.h"