
CTPOT_test1.elf:     file format elf32-littlearm

Sections:
Idx Name          Size      VMA       LMA       File off  Algn
  0 .text         00010788  08000000  0c000000  00008000  2**4
                  CONTENTS, ALLOC, LOAD, READONLY, CODE
  1 Stack         00000800  1ffe8000  1ffe8000  00020000  2**0
                  ALLOC
  2 .data         0000019c  1ffe8800  0c010788  00018800  2**2
                  CONTENTS, ALLOC, LOAD, DATA
  3 .bss          0000143c  1ffe89a0  0c010924  000189a0  2**3
                  ALLOC
  4 .no_init      00000014  2003ffc0  2003ffc0  0001ffc0  2**2
                  ALLOC
  5 .debug_frame  000003a4  00000000  00000000  0001899c  2**2
                  CONTENTS, READONLY, DEBUGGING
  6 .build_attributes 00001732  00000000  00000000  00018d40  2**0
                  CONTENTS, READONLY

Disassembly of section .text:

08000000 <__Vectors>:
 8000000:	00 88 fe 1f 01 02 00 08 99 02 00 08 99 02 00 08     ................
 8000010:	99 02 00 08 99 02 00 08 99 02 00 08 00 00 00 00     ................
	...
 800002c:	c1 1f 00 08 99 02 00 08 00 00 00 00 61 20 00 08     ............a ..
 800003c:	d1 20 00 08 99 02 00 08 99 02 00 08 99 02 00 08     . ..............
 800004c:	99 02 00 08 99 02 00 08 99 02 00 08 99 02 00 08     ................
 800005c:	99 02 00 08 99 02 00 08 00 00 00 00 00 00 00 00     ................
 800006c:	00 00 00 00 99 02 00 08 00 00 00 00 99 02 00 08     ................
 800007c:	99 02 00 08 99 02 00 08 99 02 00 08 99 02 00 08     ................
 800008c:	99 02 00 08 99 02 00 08 99 02 00 08 99 02 00 08     ................
 800009c:	99 02 00 08 99 02 00 08 99 02 00 08 99 02 00 08     ................
 80000ac:	99 02 00 08 99 02 00 08 99 02 00 08 99 02 00 08     ................
 80000bc:	99 02 00 08 99 02 00 08 99 02 00 08 99 02 00 08     ................
 80000cc:	99 02 00 08 99 02 00 08 99 02 00 08 99 02 00 08     ................
 80000dc:	99 02 00 08 99 02 00 08 99 02 00 08 99 02 00 08     ................
 80000ec:	99 02 00 08 99 02 00 08 99 02 00 08 99 02 00 08     ................
 80000fc:	99 02 00 08 99 02 00 08 99 02 00 08 99 02 00 08     ................
 800010c:	99 02 00 08 99 02 00 08 99 02 00 08 99 02 00 08     ................
 800011c:	99 02 00 08 99 02 00 08 4d 3b 00 08 99 02 00 08     ........M;......
 800012c:	99 02 00 08 99 02 00 08 99 02 00 08 99 02 00 08     ................
 800013c:	99 02 00 08 99 02 00 08 99 02 00 08 99 02 00 08     ................
 800014c:	99 02 00 08 99 02 00 08 99 02 00 08 99 02 00 08     ................
 800015c:	99 02 00 08 00 00 00 00 00 00 00 00 00 00 00 00     ................
 800016c:	00 00 00 00 99 02 00 08 99 02 00 08 99 02 00 08     ................
 800017c:	99 02 00 08 99 02 00 08 99 02 00 08 99 02 00 08     ................
 800018c:	99 02 00 08 99 02 00 08 99 02 00 08 99 02 00 08     ................
 800019c:	b9 15 00 08 99 02 00 08 c5 15 00 08 99 02 00 08     ................
 80001ac:	99 02 00 08 99 02 00 08 99 02 00 08 99 02 00 08     ................
 80001bc:	99 02 00 08 99 02 00 08 99 02 00 08 99 02 00 08     ................
 80001cc:	99 02 00 08 99 02 00 08 99 02 00 08 99 02 00 08     ................
 80001dc:	00 00 00 00 99 02 00 08 99 02 00 08 99 02 00 08     ................
 80001ec:	99 02 00 08 99 02 00 08 00 00 00 00 99 02 00 08     ................
 80001fc:	00 00 00 00                                         ....

08000200 <Reset_Handler>:
 8000200:	f8df d074 	ldr.w	sp, [pc, #116]	; 8000278 <__zero_table_end__>
 8000204:	481d      	ldr	r0, [pc, #116]	; (800027c <__zero_table_end__+0x4>)
 8000206:	4780      	blx	r0
 8000208:	4c1d      	ldr	r4, [pc, #116]	; (8000280 <__zero_table_end__+0x8>)
 800020a:	4d1e      	ldr	r5, [pc, #120]	; (8000284 <__zero_table_end__+0xc>)
 800020c:	42ac      	cmp	r4, r5
 800020e:	da09      	bge.n	8000224 <Reset_Handler+0x24>
 8000210:	6821      	ldr	r1, [r4, #0]
 8000212:	6862      	ldr	r2, [r4, #4]
 8000214:	68a3      	ldr	r3, [r4, #8]
 8000216:	3b04      	subs	r3, #4
 8000218:	bfa2      	ittt	ge
 800021a:	58c8      	ldrge	r0, [r1, r3]
 800021c:	50d0      	strge	r0, [r2, r3]
 800021e:	e7fa      	bge.n	8000216 <Reset_Handler+0x16>
 8000220:	340c      	adds	r4, #12
 8000222:	e7f3      	b.n	800020c <Reset_Handler+0xc>
 8000224:	4b18      	ldr	r3, [pc, #96]	; (8000288 <__zero_table_end__+0x10>)
 8000226:	4c19      	ldr	r4, [pc, #100]	; (800028c <__zero_table_end__+0x14>)
 8000228:	42a3      	cmp	r3, r4
 800022a:	da08      	bge.n	800023e <Reset_Handler+0x3e>
 800022c:	6819      	ldr	r1, [r3, #0]
 800022e:	685a      	ldr	r2, [r3, #4]
 8000230:	2000      	movs	r0, #0
 8000232:	3a04      	subs	r2, #4
 8000234:	bfa4      	itt	ge
 8000236:	5088      	strge	r0, [r1, r2]
 8000238:	e7fb      	bge.n	8000232 <Reset_Handler+0x32>
 800023a:	3308      	adds	r3, #8
 800023c:	e7f4      	b.n	8000228 <Reset_Handler+0x28>
 800023e:	4814      	ldr	r0, [pc, #80]	; (8000290 <__zero_table_end__+0x18>)
 8000240:	4780      	blx	r0
 8000242:	4814      	ldr	r0, [pc, #80]	; (8000294 <__zero_table_end__+0x1c>)
 8000244:	4780      	blx	r0
	...

08000248 <__copy_table_start__>:
 8000248:	0c010788 	.word	0x0c010788
 800024c:	1ffe8800 	.word	0x1ffe8800
 8000250:	0000019c 	.word	0x0000019c
 8000254:	0c010788 	.word	0x0c010788
 8000258:	1ffe8800 	.word	0x1ffe8800
 800025c:	00000000 	.word	0x00000000

08000260 <__copy_table_end__>:
 8000260:	1ffe89a0 	.word	0x1ffe89a0
 8000264:	0000143c 	.word	0x0000143c
 8000268:	20000000 	.word	0x20000000
 800026c:	00000000 	.word	0x00000000
 8000270:	20000000 	.word	0x20000000
 8000274:	00000000 	.word	0x00000000

08000278 <__zero_table_end__>:
 8000278:	1ffe8800 	.word	0x1ffe8800
 800027c:	08000321 	.word	0x08000321
 8000280:	08000248 	.word	0x08000248
 8000284:	08000260 	.word	0x08000260
 8000288:	08000260 	.word	0x08000260
 800028c:	08000278 	.word	0x08000278
 8000290:	0800da05 	.word	0x0800da05
 8000294:	08004ead 	.word	0x08004ead

08000298 <BusFault_Handler>:
 8000298:	e7fe      	b.n	8000298 <BusFault_Handler>
	...

0800029c <SystemCoreClockUpdate>:
 800029c:	4b1c      	ldr	r3, [pc, #112]	; (8000310 <SystemCoreClockUpdate+0x74>)
 800029e:	68db      	ldr	r3, [r3, #12]
 80002a0:	03d9      	lsls	r1, r3, #15
 80002a2:	b510      	push	{r4, lr}
 80002a4:	d51d      	bpl.n	80002e2 <SystemCoreClockUpdate+0x46>
 80002a6:	4b1b      	ldr	r3, [pc, #108]	; (8000314 <SystemCoreClockUpdate+0x78>)
 80002a8:	68db      	ldr	r3, [r3, #12]
 80002aa:	07da      	lsls	r2, r3, #31
 80002ac:	d52c      	bpl.n	8000308 <SystemCoreClockUpdate+0x6c>
 80002ae:	481a      	ldr	r0, [pc, #104]	; (8000318 <SystemCoreClockUpdate+0x7c>)
 80002b0:	4a18      	ldr	r2, [pc, #96]	; (8000314 <SystemCoreClockUpdate+0x78>)
 80002b2:	6813      	ldr	r3, [r2, #0]
 80002b4:	075b      	lsls	r3, r3, #29
 80002b6:	d416      	bmi.n	80002e6 <SystemCoreClockUpdate+0x4a>
 80002b8:	6893      	ldr	r3, [r2, #8]
 80002ba:	f003 037f 	and.w	r3, r3, #127	; 0x7f
 80002be:	3301      	adds	r3, #1
 80002c0:	fbb0 f3f3 	udiv	r3, r0, r3
 80002c4:	4a12      	ldr	r2, [pc, #72]	; (8000310 <SystemCoreClockUpdate+0x74>)
 80002c6:	4915      	ldr	r1, [pc, #84]	; (800031c <SystemCoreClockUpdate+0x80>)
 80002c8:	68d0      	ldr	r0, [r2, #12]
 80002ca:	6912      	ldr	r2, [r2, #16]
 80002cc:	b2c0      	uxtb	r0, r0
 80002ce:	f002 0201 	and.w	r2, r2, #1
 80002d2:	3001      	adds	r0, #1
 80002d4:	3201      	adds	r2, #1
 80002d6:	fbb3 f0f0 	udiv	r0, r3, r0
 80002da:	fbb0 f0f2 	udiv	r0, r0, r2
 80002de:	6008      	str	r0, [r1, #0]
 80002e0:	bd10      	pop	{r4, pc}
 80002e2:	4b0d      	ldr	r3, [pc, #52]	; (8000318 <SystemCoreClockUpdate+0x7c>)
 80002e4:	e7ee      	b.n	80002c4 <SystemCoreClockUpdate+0x28>
 80002e6:	6891      	ldr	r1, [r2, #8]
 80002e8:	6893      	ldr	r3, [r2, #8]
 80002ea:	6894      	ldr	r4, [r2, #8]
 80002ec:	f3c1 6203 	ubfx	r2, r1, #24, #4
 80002f0:	3201      	adds	r2, #1
 80002f2:	f3c4 4106 	ubfx	r1, r4, #16, #7
 80002f6:	f3c3 2306 	ubfx	r3, r3, #8, #7
 80002fa:	fb01 2202 	mla	r2, r1, r2, r2
 80002fe:	fbb0 f0f2 	udiv	r0, r0, r2
 8000302:	fb03 0300 	mla	r3, r3, r0, r0
 8000306:	e7dd      	b.n	80002c4 <SystemCoreClockUpdate+0x28>
 8000308:	f003 fba0 	bl	8003a4c <OSCHP_GetFrequency>
 800030c:	e7d0      	b.n	80002b0 <SystemCoreClockUpdate+0x14>
 800030e:	bf00      	nop
 8000310:	50004600 	.word	0x50004600
 8000314:	50004710 	.word	0x50004710
 8000318:	016e3600 	.word	0x016e3600
 800031c:	2003ffc0 	.word	0x2003ffc0

08000320 <SystemInit>:
 8000320:	b510      	push	{r4, lr}
 8000322:	f04f 5300 	mov.w	r3, #536870912	; 0x20000000
 8000326:	cb0f      	ldmia	r3, {r0, r1, r2, r3}
 8000328:	4c03      	ldr	r4, [pc, #12]	; (8000338 <SystemInit+0x18>)
 800032a:	e884 000f 	stmia.w	r4, {r0, r1, r2, r3}
 800032e:	f003 fb4f 	bl	80039d0 <SystemCoreSetup>
 8000332:	f003 fb8f 	bl	8003a54 <SystemCoreClockSetup>
 8000336:	bd10      	pop	{r4, pc}
 8000338:	2003ffc4 	.word	0x2003ffc4

0800033c <XMC_GPIO_Init>:
 800033c:	f001 03fc 	and.w	r3, r1, #252	; 0xfc
 8000340:	4403      	add	r3, r0
 8000342:	b5f0      	push	{r4, r5, r6, r7, lr}
 8000344:	f001 0503 	and.w	r5, r1, #3
 8000348:	691e      	ldr	r6, [r3, #16]
 800034a:	4f1c      	ldr	r7, [pc, #112]	; (80003bc <XMC_GPIO_Init+0x80>)
 800034c:	00ed      	lsls	r5, r5, #3
 800034e:	24f8      	movs	r4, #248	; 0xf8
 8000350:	40ac      	lsls	r4, r5
 8000352:	ea26 0404 	bic.w	r4, r6, r4
 8000356:	611c      	str	r4, [r3, #16]
 8000358:	6f46      	ldr	r6, [r0, #116]	; 0x74
 800035a:	ea4f 0e41 	mov.w	lr, r1, lsl #1
 800035e:	2403      	movs	r4, #3
 8000360:	fa04 f40e 	lsl.w	r4, r4, lr
 8000364:	ea26 0404 	bic.w	r4, r6, r4
 8000368:	42b8      	cmp	r0, r7
 800036a:	6744      	str	r4, [r0, #116]	; 0x74
 800036c:	d01d      	beq.n	80003aa <XMC_GPIO_Init+0x6e>
 800036e:	4c14      	ldr	r4, [pc, #80]	; (80003c0 <XMC_GPIO_Init+0x84>)
 8000370:	42a0      	cmp	r0, r4
 8000372:	d01a      	beq.n	80003aa <XMC_GPIO_Init+0x6e>
 8000374:	6857      	ldr	r7, [r2, #4]
 8000376:	7a16      	ldrb	r6, [r2, #8]
 8000378:	08cc      	lsrs	r4, r1, #3
 800037a:	eb00 0484 	add.w	r4, r0, r4, lsl #2
 800037e:	408f      	lsls	r7, r1
 8000380:	6047      	str	r7, [r0, #4]
 8000382:	f001 0107 	and.w	r1, r1, #7
 8000386:	6c27      	ldr	r7, [r4, #64]	; 0x40
 8000388:	0089      	lsls	r1, r1, #2
 800038a:	2007      	movs	r0, #7
 800038c:	4088      	lsls	r0, r1
 800038e:	ea27 0000 	bic.w	r0, r7, r0
 8000392:	6420      	str	r0, [r4, #64]	; 0x40
 8000394:	6c20      	ldr	r0, [r4, #64]	; 0x40
 8000396:	fa06 f101 	lsl.w	r1, r6, r1
 800039a:	4301      	orrs	r1, r0
 800039c:	6421      	str	r1, [r4, #64]	; 0x40
 800039e:	7812      	ldrb	r2, [r2, #0]
 80003a0:	6919      	ldr	r1, [r3, #16]
 80003a2:	40aa      	lsls	r2, r5
 80003a4:	430a      	orrs	r2, r1
 80003a6:	611a      	str	r2, [r3, #16]
 80003a8:	bdf0      	pop	{r4, r5, r6, r7, pc}
 80003aa:	6e04      	ldr	r4, [r0, #96]	; 0x60
 80003ac:	2601      	movs	r6, #1
 80003ae:	fa06 f101 	lsl.w	r1, r6, r1
 80003b2:	ea24 0101 	bic.w	r1, r4, r1
 80003b6:	6601      	str	r1, [r0, #96]	; 0x60
 80003b8:	e7f1      	b.n	800039e <XMC_GPIO_Init+0x62>
 80003ba:	bf00      	nop
 80003bc:	48028e00 	.word	0x48028e00
 80003c0:	48028f00 	.word	0x48028f00

080003c4 <XMC_SCU_RESET_DeassertPeripheralReset>:
 80003c4:	0f03      	lsrs	r3, r0, #28
 80003c6:	eb03 0343 	add.w	r3, r3, r3, lsl #1
 80003ca:	4a03      	ldr	r2, [pc, #12]	; (80003d8 <XMC_SCU_RESET_DeassertPeripheralReset+0x14>)
 80003cc:	f020 4070 	bic.w	r0, r0, #4026531840	; 0xf0000000
 80003d0:	f842 0023 	str.w	r0, [r2, r3, lsl #2]
 80003d4:	4770      	bx	lr
 80003d6:	bf00      	nop
 80003d8:	50004414 	.word	0x50004414

080003dc <XMC_SCU_CLOCK_GetPeripheralClockFrequency>:
 80003dc:	4b03      	ldr	r3, [pc, #12]	; (80003ec <XMC_SCU_CLOCK_GetPeripheralClockFrequency+0x10>)
 80003de:	4a04      	ldr	r2, [pc, #16]	; (80003f0 <XMC_SCU_CLOCK_GetPeripheralClockFrequency+0x14>)
 80003e0:	695b      	ldr	r3, [r3, #20]
 80003e2:	6810      	ldr	r0, [r2, #0]
 80003e4:	f003 0301 	and.w	r3, r3, #1
 80003e8:	40d8      	lsrs	r0, r3
 80003ea:	4770      	bx	lr
 80003ec:	50004600 	.word	0x50004600
 80003f0:	2003ffc0 	.word	0x2003ffc0

080003f4 <XMC_SCU_CLOCK_SetUsbClockSource>:
 80003f4:	4a03      	ldr	r2, [pc, #12]	; (8000404 <XMC_SCU_CLOCK_SetUsbClockSource+0x10>)
 80003f6:	6993      	ldr	r3, [r2, #24]
 80003f8:	f423 3380 	bic.w	r3, r3, #65536	; 0x10000
 80003fc:	4318      	orrs	r0, r3
 80003fe:	6190      	str	r0, [r2, #24]
 8000400:	4770      	bx	lr
 8000402:	bf00      	nop
 8000404:	50004600 	.word	0x50004600

08000408 <XMC_SCU_CLOCK_SetWdtClockSource>:
 8000408:	4a03      	ldr	r2, [pc, #12]	; (8000418 <XMC_SCU_CLOCK_SetWdtClockSource+0x10>)
 800040a:	6a53      	ldr	r3, [r2, #36]	; 0x24
 800040c:	f423 3340 	bic.w	r3, r3, #196608	; 0x30000
 8000410:	4318      	orrs	r0, r3
 8000412:	6250      	str	r0, [r2, #36]	; 0x24
 8000414:	4770      	bx	lr
 8000416:	bf00      	nop
 8000418:	50004600 	.word	0x50004600

0800041c <XMC_SCU_HIB_SetRtcClockSource>:
 800041c:	4a05      	ldr	r2, [pc, #20]	; (8000434 <XMC_SCU_HIB_SetRtcClockSource+0x18>)
 800041e:	f8d2 30c4 	ldr.w	r3, [r2, #196]	; 0xc4
 8000422:	071b      	lsls	r3, r3, #28
 8000424:	d4fb      	bmi.n	800041e <XMC_SCU_HIB_SetRtcClockSource+0x2>
 8000426:	4a04      	ldr	r2, [pc, #16]	; (8000438 <XMC_SCU_HIB_SetRtcClockSource+0x1c>)
 8000428:	68d3      	ldr	r3, [r2, #12]
 800042a:	f023 0340 	bic.w	r3, r3, #64	; 0x40
 800042e:	4318      	orrs	r0, r3
 8000430:	60d0      	str	r0, [r2, #12]
 8000432:	4770      	bx	lr
 8000434:	50004000 	.word	0x50004000
 8000438:	50004300 	.word	0x50004300

0800043c <XMC_SCU_CLOCK_SetUsbClockDivider>:
 800043c:	4a03      	ldr	r2, [pc, #12]	; (800044c <XMC_SCU_CLOCK_SetUsbClockDivider+0x10>)
 800043e:	6993      	ldr	r3, [r2, #24]
 8000440:	3801      	subs	r0, #1
 8000442:	f023 0307 	bic.w	r3, r3, #7
 8000446:	4303      	orrs	r3, r0
 8000448:	6193      	str	r3, [r2, #24]
 800044a:	4770      	bx	lr
 800044c:	50004600 	.word	0x50004600

08000450 <XMC_SCU_CLOCK_SetEbuClockDivider>:
 8000450:	4a03      	ldr	r2, [pc, #12]	; (8000460 <XMC_SCU_CLOCK_SetEbuClockDivider+0x10>)
 8000452:	69d3      	ldr	r3, [r2, #28]
 8000454:	3801      	subs	r0, #1
 8000456:	f023 033f 	bic.w	r3, r3, #63	; 0x3f
 800045a:	4303      	orrs	r3, r0
 800045c:	61d3      	str	r3, [r2, #28]
 800045e:	4770      	bx	lr
 8000460:	50004600 	.word	0x50004600

08000464 <XMC_SCU_CLOCK_SetWdtClockDivider>:
 8000464:	4a03      	ldr	r2, [pc, #12]	; (8000474 <XMC_SCU_CLOCK_SetWdtClockDivider+0x10>)
 8000466:	6a53      	ldr	r3, [r2, #36]	; 0x24
 8000468:	3801      	subs	r0, #1
 800046a:	f023 03ff 	bic.w	r3, r3, #255	; 0xff
 800046e:	4303      	orrs	r3, r0
 8000470:	6253      	str	r3, [r2, #36]	; 0x24
 8000472:	4770      	bx	lr
 8000474:	50004600 	.word	0x50004600

08000478 <XMC_SCU_CLOCK_EnableClock>:
 8000478:	4b01      	ldr	r3, [pc, #4]	; (8000480 <XMC_SCU_CLOCK_EnableClock+0x8>)
 800047a:	6058      	str	r0, [r3, #4]
 800047c:	4770      	bx	lr
 800047e:	bf00      	nop
 8000480:	50004600 	.word	0x50004600

08000484 <XMC_SCU_CLOCK_UngatePeripheralClock>:
 8000484:	0f03      	lsrs	r3, r0, #28
 8000486:	eb03 0343 	add.w	r3, r3, r3, lsl #1
 800048a:	4a03      	ldr	r2, [pc, #12]	; (8000498 <XMC_SCU_CLOCK_UngatePeripheralClock+0x14>)
 800048c:	f020 4070 	bic.w	r0, r0, #4026531840	; 0xf0000000
 8000490:	f842 0023 	str.w	r0, [r2, r3, lsl #2]
 8000494:	4770      	bx	lr
 8000496:	bf00      	nop
 8000498:	50004648 	.word	0x50004648

0800049c <XMC_SCU_CLOCK_StartUsbPll>:
 800049c:	4b0f      	ldr	r3, [pc, #60]	; (80004dc <XMC_SCU_CLOCK_StartUsbPll+0x40>)
 800049e:	695a      	ldr	r2, [r3, #20]
 80004a0:	f042 0201 	orr.w	r2, r2, #1
 80004a4:	615a      	str	r2, [r3, #20]
 80004a6:	695a      	ldr	r2, [r3, #20]
 80004a8:	3801      	subs	r0, #1
 80004aa:	0600      	lsls	r0, r0, #24
 80004ac:	3901      	subs	r1, #1
 80004ae:	f042 0210 	orr.w	r2, r2, #16
 80004b2:	ea40 2001 	orr.w	r0, r0, r1, lsl #8
 80004b6:	615a      	str	r2, [r3, #20]
 80004b8:	6158      	str	r0, [r3, #20]
 80004ba:	695a      	ldr	r2, [r3, #20]
 80004bc:	f042 0240 	orr.w	r2, r2, #64	; 0x40
 80004c0:	615a      	str	r2, [r3, #20]
 80004c2:	695a      	ldr	r2, [r3, #20]
 80004c4:	f022 0210 	bic.w	r2, r2, #16
 80004c8:	615a      	str	r2, [r3, #20]
 80004ca:	695a      	ldr	r2, [r3, #20]
 80004cc:	f442 2280 	orr.w	r2, r2, #262144	; 0x40000
 80004d0:	615a      	str	r2, [r3, #20]
 80004d2:	691a      	ldr	r2, [r3, #16]
 80004d4:	0752      	lsls	r2, r2, #29
 80004d6:	d5fc      	bpl.n	80004d2 <XMC_SCU_CLOCK_StartUsbPll+0x36>
 80004d8:	4770      	bx	lr
 80004da:	bf00      	nop
 80004dc:	50004710 	.word	0x50004710

080004e0 <XMC_SCU_CLOCK_StartSystemPll>:
 80004e0:	b5f0      	push	{r4, r5, r6, r7, lr}
 80004e2:	b083      	sub	sp, #12
 80004e4:	4c64      	ldr	r4, [pc, #400]	; (8000678 <XMC_SCU_CLOCK_StartSystemPll+0x198>)
 80004e6:	9e08      	ldr	r6, [sp, #32]
 80004e8:	b1c0      	cbz	r0, 800051c <XMC_SCU_CLOCK_StartSystemPll+0x3c>
 80004ea:	68e0      	ldr	r0, [r4, #12]
 80004ec:	f440 7080 	orr.w	r0, r0, #256	; 0x100
 80004f0:	f040 0001 	orr.w	r0, r0, #1
 80004f4:	2901      	cmp	r1, #1
 80004f6:	60e0      	str	r0, [r4, #12]
 80004f8:	f000 8086 	beq.w	8000608 <XMC_SCU_CLOCK_StartSystemPll+0x128>
 80004fc:	4a5e      	ldr	r2, [pc, #376]	; (8000678 <XMC_SCU_CLOCK_StartSystemPll+0x198>)
 80004fe:	6893      	ldr	r3, [r2, #8]
 8000500:	3e01      	subs	r6, #1
 8000502:	f023 037f 	bic.w	r3, r3, #127	; 0x7f
 8000506:	431e      	orrs	r6, r3
 8000508:	6096      	str	r6, [r2, #8]
 800050a:	6853      	ldr	r3, [r2, #4]
 800050c:	f043 0301 	orr.w	r3, r3, #1
 8000510:	6053      	str	r3, [r2, #4]
 8000512:	6813      	ldr	r3, [r2, #0]
 8000514:	07db      	lsls	r3, r3, #31
 8000516:	d5fc      	bpl.n	8000512 <XMC_SCU_CLOCK_StartSystemPll+0x32>
 8000518:	b003      	add	sp, #12
 800051a:	bdf0      	pop	{r4, r5, r6, r7, pc}
 800051c:	68e0      	ldr	r0, [r4, #12]
 800051e:	f420 7080 	bic.w	r0, r0, #256	; 0x100
 8000522:	f020 0001 	bic.w	r0, r0, #1
 8000526:	2901      	cmp	r1, #1
 8000528:	60e0      	str	r0, [r4, #12]
 800052a:	d1e7      	bne.n	80004fc <XMC_SCU_CLOCK_StartSystemPll+0x1c>
 800052c:	e88d 000c 	stmia.w	sp, {r2, r3}
 8000530:	f003 fa8c 	bl	8003a4c <OSCHP_GetFrequency>
 8000534:	4d51      	ldr	r5, [pc, #324]	; (800067c <XMC_SCU_CLOCK_StartSystemPll+0x19c>)
 8000536:	fba5 3500 	umull	r3, r5, r5, r0
 800053a:	e89d 000c 	ldmia.w	sp, {r2, r3}
 800053e:	0cad      	lsrs	r5, r5, #18
 8000540:	05ad      	lsls	r5, r5, #22
 8000542:	494d      	ldr	r1, [pc, #308]	; (8000678 <XMC_SCU_CLOCK_StartSystemPll+0x198>)
 8000544:	4c4e      	ldr	r4, [pc, #312]	; (8000680 <XMC_SCU_CLOCK_StartSystemPll+0x1a0>)
 8000546:	684f      	ldr	r7, [r1, #4]
 8000548:	484e      	ldr	r0, [pc, #312]	; (8000684 <XMC_SCU_CLOCK_StartSystemPll+0x1a4>)
 800054a:	f047 0701 	orr.w	r7, r7, #1
 800054e:	604f      	str	r7, [r1, #4]
 8000550:	684f      	ldr	r7, [r1, #4]
 8000552:	f047 0710 	orr.w	r7, r7, #16
 8000556:	604f      	str	r7, [r1, #4]
 8000558:	f8d1 e008 	ldr.w	lr, [r1, #8]
 800055c:	fb03 f505 	mul.w	r5, r3, r5
 8000560:	1e57      	subs	r7, r2, #1
 8000562:	fbb5 f5f2 	udiv	r5, r5, r2
 8000566:	ea0e 0000 	and.w	r0, lr, r0
 800056a:	fba4 4205 	umull	r4, r2, r4, r5
 800056e:	ea40 6007 	orr.w	r0, r0, r7, lsl #24
 8000572:	1e5c      	subs	r4, r3, #1
 8000574:	0e93      	lsrs	r3, r2, #26
 8000576:	ea40 2004 	orr.w	r0, r0, r4, lsl #8
 800057a:	3b01      	subs	r3, #1
 800057c:	ea40 4303 	orr.w	r3, r0, r3, lsl #16
 8000580:	608b      	str	r3, [r1, #8]
 8000582:	684b      	ldr	r3, [r1, #4]
 8000584:	f043 0340 	orr.w	r3, r3, #64	; 0x40
 8000588:	604b      	str	r3, [r1, #4]
 800058a:	684b      	ldr	r3, [r1, #4]
 800058c:	f023 0310 	bic.w	r3, r3, #16
 8000590:	604b      	str	r3, [r1, #4]
 8000592:	684b      	ldr	r3, [r1, #4]
 8000594:	f443 2380 	orr.w	r3, r3, #262144	; 0x40000
 8000598:	604b      	str	r3, [r1, #4]
 800059a:	6808      	ldr	r0, [r1, #0]
 800059c:	4b36      	ldr	r3, [pc, #216]	; (8000678 <XMC_SCU_CLOCK_StartSystemPll+0x198>)
 800059e:	0742      	lsls	r2, r0, #29
 80005a0:	d5fb      	bpl.n	800059a <XMC_SCU_CLOCK_StartSystemPll+0xba>
 80005a2:	685a      	ldr	r2, [r3, #4]
 80005a4:	f022 0201 	bic.w	r2, r2, #1
 80005a8:	605a      	str	r2, [r3, #4]
 80005aa:	4619      	mov	r1, r3
 80005ac:	680b      	ldr	r3, [r1, #0]
 80005ae:	4a32      	ldr	r2, [pc, #200]	; (8000678 <XMC_SCU_CLOCK_StartSystemPll+0x198>)
 80005b0:	f013 0401 	ands.w	r4, r3, #1
 80005b4:	d1fa      	bne.n	80005ac <XMC_SCU_CLOCK_StartSystemPll+0xcc>
 80005b6:	4b34      	ldr	r3, [pc, #208]	; (8000688 <XMC_SCU_CLOCK_StartSystemPll+0x1a8>)
 80005b8:	fba3 1305 	umull	r1, r3, r3, r5
 80005bc:	0edb      	lsrs	r3, r3, #27
 80005be:	429e      	cmp	r6, r3
 80005c0:	d33f      	bcc.n	8000642 <XMC_SCU_CLOCK_StartSystemPll+0x162>
 80005c2:	4f32      	ldr	r7, [pc, #200]	; (800068c <XMC_SCU_CLOCK_StartSystemPll+0x1ac>)
 80005c4:	4b32      	ldr	r3, [pc, #200]	; (8000690 <XMC_SCU_CLOCK_StartSystemPll+0x1b0>)
 80005c6:	086d      	lsrs	r5, r5, #1
 80005c8:	fba3 2305 	umull	r2, r3, r3, r5
 80005cc:	0edb      	lsrs	r3, r3, #27
 80005ce:	429e      	cmp	r6, r3
 80005d0:	d31d      	bcc.n	800060e <XMC_SCU_CLOCK_StartSystemPll+0x12e>
 80005d2:	4a29      	ldr	r2, [pc, #164]	; (8000678 <XMC_SCU_CLOCK_StartSystemPll+0x198>)
 80005d4:	6893      	ldr	r3, [r2, #8]
 80005d6:	3e01      	subs	r6, #1
 80005d8:	f423 03fe 	bic.w	r3, r3, #8323072	; 0x7f0000
 80005dc:	ea43 4606 	orr.w	r6, r3, r6, lsl #16
 80005e0:	6096      	str	r6, [r2, #8]
 80005e2:	f7ff fe5b 	bl	800029c <SystemCoreClockUpdate>
 80005e6:	683b      	ldr	r3, [r7, #0]
 80005e8:	4a24      	ldr	r2, [pc, #144]	; (800067c <XMC_SCU_CLOCK_StartSystemPll+0x19c>)
 80005ea:	fba2 3203 	umull	r3, r2, r2, r3
 80005ee:	0c92      	lsrs	r2, r2, #18
 80005f0:	2332      	movs	r3, #50	; 0x32
 80005f2:	fb03 f202 	mul.w	r2, r3, r2
 80005f6:	2300      	movs	r3, #0
 80005f8:	2a00      	cmp	r2, #0
 80005fa:	d08d      	beq.n	8000518 <XMC_SCU_CLOCK_StartSystemPll+0x38>
 80005fc:	bf00      	nop
 80005fe:	3301      	adds	r3, #1
 8000600:	4293      	cmp	r3, r2
 8000602:	d1fb      	bne.n	80005fc <XMC_SCU_CLOCK_StartSystemPll+0x11c>
 8000604:	b003      	add	sp, #12
 8000606:	bdf0      	pop	{r4, r5, r6, r7, pc}
 8000608:	f04f 65c0 	mov.w	r5, #100663296	; 0x6000000
 800060c:	e799      	b.n	8000542 <XMC_SCU_CLOCK_StartSystemPll+0x62>
 800060e:	491a      	ldr	r1, [pc, #104]	; (8000678 <XMC_SCU_CLOCK_StartSystemPll+0x198>)
 8000610:	688a      	ldr	r2, [r1, #8]
 8000612:	3b01      	subs	r3, #1
 8000614:	f422 02fe 	bic.w	r2, r2, #8323072	; 0x7f0000
 8000618:	ea42 4303 	orr.w	r3, r2, r3, lsl #16
 800061c:	608b      	str	r3, [r1, #8]
 800061e:	f7ff fe3d 	bl	800029c <SystemCoreClockUpdate>
 8000622:	683b      	ldr	r3, [r7, #0]
 8000624:	4a15      	ldr	r2, [pc, #84]	; (800067c <XMC_SCU_CLOCK_StartSystemPll+0x19c>)
 8000626:	fba2 3203 	umull	r3, r2, r2, r3
 800062a:	0c92      	lsrs	r2, r2, #18
 800062c:	2332      	movs	r3, #50	; 0x32
 800062e:	fb03 f202 	mul.w	r2, r3, r2
 8000632:	2a00      	cmp	r2, #0
 8000634:	d0cd      	beq.n	80005d2 <XMC_SCU_CLOCK_StartSystemPll+0xf2>
 8000636:	2300      	movs	r3, #0
 8000638:	bf00      	nop
 800063a:	3301      	adds	r3, #1
 800063c:	4293      	cmp	r3, r2
 800063e:	d1fb      	bne.n	8000638 <XMC_SCU_CLOCK_StartSystemPll+0x158>
 8000640:	e7c7      	b.n	80005d2 <XMC_SCU_CLOCK_StartSystemPll+0xf2>
 8000642:	6891      	ldr	r1, [r2, #8]
 8000644:	4f11      	ldr	r7, [pc, #68]	; (800068c <XMC_SCU_CLOCK_StartSystemPll+0x1ac>)
 8000646:	f421 01fe 	bic.w	r1, r1, #8323072	; 0x7f0000
 800064a:	3b01      	subs	r3, #1
 800064c:	ea41 4303 	orr.w	r3, r1, r3, lsl #16
 8000650:	6093      	str	r3, [r2, #8]
 8000652:	f7ff fe23 	bl	800029c <SystemCoreClockUpdate>
 8000656:	683b      	ldr	r3, [r7, #0]
 8000658:	4a08      	ldr	r2, [pc, #32]	; (800067c <XMC_SCU_CLOCK_StartSystemPll+0x19c>)
 800065a:	fba2 3203 	umull	r3, r2, r2, r3
 800065e:	0c92      	lsrs	r2, r2, #18
 8000660:	2332      	movs	r3, #50	; 0x32
 8000662:	fb03 f202 	mul.w	r2, r3, r2
 8000666:	2a00      	cmp	r2, #0
 8000668:	d0ac      	beq.n	80005c4 <XMC_SCU_CLOCK_StartSystemPll+0xe4>
 800066a:	4623      	mov	r3, r4
 800066c:	bf00      	nop
 800066e:	3301      	adds	r3, #1
 8000670:	4293      	cmp	r3, r2
 8000672:	d1fb      	bne.n	800066c <XMC_SCU_CLOCK_StartSystemPll+0x18c>
 8000674:	e7a6      	b.n	80005c4 <XMC_SCU_CLOCK_StartSystemPll+0xe4>
 8000676:	bf00      	nop
 8000678:	50004710 	.word	0x50004710
 800067c:	431bde83 	.word	0x431bde83
 8000680:	aaaaaaab 	.word	0xaaaaaaab
 8000684:	f08080ff 	.word	0xf08080ff
 8000688:	88888889 	.word	0x88888889
 800068c:	2003ffc0 	.word	0x2003ffc0
 8000690:	b60b60b7 	.word	0xb60b60b7

08000694 <XMC_SCU_CLOCK_Init>:
 8000694:	4977      	ldr	r1, [pc, #476]	; (8000874 <XMC_SCU_CLOCK_Init+0x1e0>)
 8000696:	4a78      	ldr	r2, [pc, #480]	; (8000878 <XMC_SCU_CLOCK_Init+0x1e4>)
 8000698:	68cb      	ldr	r3, [r1, #12]
 800069a:	b5f0      	push	{r4, r5, r6, r7, lr}
 800069c:	f423 3380 	bic.w	r3, r3, #65536	; 0x10000
 80006a0:	60cb      	str	r3, [r1, #12]
 80006a2:	6813      	ldr	r3, [r2, #0]
 80006a4:	4605      	mov	r5, r0
 80006a6:	07d8      	lsls	r0, r3, #31
 80006a8:	b083      	sub	sp, #12
 80006aa:	d404      	bmi.n	80006b6 <XMC_SCU_CLOCK_Init+0x22>
 80006ac:	2301      	movs	r3, #1
 80006ae:	6053      	str	r3, [r2, #4]
 80006b0:	6813      	ldr	r3, [r2, #0]
 80006b2:	07db      	lsls	r3, r3, #31
 80006b4:	d5fc      	bpl.n	80006b0 <XMC_SCU_CLOCK_Init+0x1c>
 80006b6:	4a71      	ldr	r2, [pc, #452]	; (800087c <XMC_SCU_CLOCK_Init+0x1e8>)
 80006b8:	6813      	ldr	r3, [r2, #0]
 80006ba:	0599      	lsls	r1, r3, #22
 80006bc:	d505      	bpl.n	80006ca <XMC_SCU_CLOCK_Init+0x36>
 80006be:	f44f 7300 	mov.w	r3, #512	; 0x200
 80006c2:	6093      	str	r3, [r2, #8]
 80006c4:	6813      	ldr	r3, [r2, #0]
 80006c6:	059f      	lsls	r7, r3, #22
 80006c8:	d4fc      	bmi.n	80006c4 <XMC_SCU_CLOCK_Init+0x30>
 80006ca:	79eb      	ldrb	r3, [r5, #7]
 80006cc:	2b00      	cmp	r3, #0
 80006ce:	f040 8091 	bne.w	80007f4 <XMC_SCU_CLOCK_Init+0x160>
 80006d2:	7a68      	ldrb	r0, [r5, #9]
 80006d4:	4a6a      	ldr	r2, [pc, #424]	; (8000880 <XMC_SCU_CLOCK_Init+0x1ec>)
 80006d6:	f8d2 30c4 	ldr.w	r3, [r2, #196]	; 0xc4
 80006da:	071b      	lsls	r3, r3, #28
 80006dc:	d4fb      	bmi.n	80006d6 <XMC_SCU_CLOCK_Init+0x42>
 80006de:	4969      	ldr	r1, [pc, #420]	; (8000884 <XMC_SCU_CLOCK_Init+0x1f0>)
 80006e0:	4b67      	ldr	r3, [pc, #412]	; (8000880 <XMC_SCU_CLOCK_Init+0x1ec>)
 80006e2:	68ca      	ldr	r2, [r1, #12]
 80006e4:	f022 0280 	bic.w	r2, r2, #128	; 0x80
 80006e8:	4302      	orrs	r2, r0
 80006ea:	60ca      	str	r2, [r1, #12]
 80006ec:	f8d3 40c4 	ldr.w	r4, [r3, #196]	; 0xc4
 80006f0:	2c00      	cmp	r4, #0
 80006f2:	d1fb      	bne.n	80006ec <XMC_SCU_CLOCK_Init+0x58>
 80006f4:	4a64      	ldr	r2, [pc, #400]	; (8000888 <XMC_SCU_CLOCK_Init+0x1f4>)
 80006f6:	7a29      	ldrb	r1, [r5, #8]
 80006f8:	6853      	ldr	r3, [r2, #4]
 80006fa:	2901      	cmp	r1, #1
 80006fc:	f443 1380 	orr.w	r3, r3, #1048576	; 0x100000
 8000700:	6053      	str	r3, [r2, #4]
 8000702:	f000 809d 	beq.w	8000840 <XMC_SCU_CLOCK_Init+0x1ac>
 8000706:	4e61      	ldr	r6, [pc, #388]	; (800088c <XMC_SCU_CLOCK_Init+0x1f8>)
 8000708:	f7ff fdc8 	bl	800029c <SystemCoreClockUpdate>
 800070c:	6833      	ldr	r3, [r6, #0]
 800070e:	4a60      	ldr	r2, [pc, #384]	; (8000890 <XMC_SCU_CLOCK_Init+0x1fc>)
 8000710:	fba2 3203 	umull	r3, r2, r2, r3
 8000714:	0c92      	lsrs	r2, r2, #18
 8000716:	2364      	movs	r3, #100	; 0x64
 8000718:	fb03 f202 	mul.w	r2, r3, r2
 800071c:	b122      	cbz	r2, 8000728 <XMC_SCU_CLOCK_Init+0x94>
 800071e:	2300      	movs	r3, #0
 8000720:	bf00      	nop
 8000722:	3301      	adds	r3, #1
 8000724:	4293      	cmp	r3, r2
 8000726:	d1fb      	bne.n	8000720 <XMC_SCU_CLOCK_Init+0x8c>
 8000728:	4b52      	ldr	r3, [pc, #328]	; (8000874 <XMC_SCU_CLOCK_Init+0x1e0>)
 800072a:	7c2c      	ldrb	r4, [r5, #16]
 800072c:	68da      	ldr	r2, [r3, #12]
 800072e:	79a8      	ldrb	r0, [r5, #6]
 8000730:	f022 01ff 	bic.w	r1, r2, #255	; 0xff
 8000734:	1e62      	subs	r2, r4, #1
 8000736:	430a      	orrs	r2, r1
 8000738:	60da      	str	r2, [r3, #12]
 800073a:	691a      	ldr	r2, [r3, #16]
 800073c:	7c6c      	ldrb	r4, [r5, #17]
 800073e:	f022 0101 	bic.w	r1, r2, #1
 8000742:	1e62      	subs	r2, r4, #1
 8000744:	430a      	orrs	r2, r1
 8000746:	611a      	str	r2, [r3, #16]
 8000748:	6a1a      	ldr	r2, [r3, #32]
 800074a:	7cac      	ldrb	r4, [r5, #18]
 800074c:	f022 0101 	bic.w	r1, r2, #1
 8000750:	1e62      	subs	r2, r4, #1
 8000752:	430a      	orrs	r2, r1
 8000754:	621a      	str	r2, [r3, #32]
 8000756:	695a      	ldr	r2, [r3, #20]
 8000758:	7cec      	ldrb	r4, [r5, #19]
 800075a:	f022 0101 	bic.w	r1, r2, #1
 800075e:	1e62      	subs	r2, r4, #1
 8000760:	430a      	orrs	r2, r1
 8000762:	615a      	str	r2, [r3, #20]
 8000764:	bb28      	cbnz	r0, 80007b2 <XMC_SCU_CLOCK_Init+0x11e>
 8000766:	78e9      	ldrb	r1, [r5, #3]
 8000768:	b9a1      	cbnz	r1, 8000794 <XMC_SCU_CLOCK_Init+0x100>
 800076a:	4a47      	ldr	r2, [pc, #284]	; (8000888 <XMC_SCU_CLOCK_Init+0x1f4>)
 800076c:	6853      	ldr	r3, [r2, #4]
 800076e:	f443 3380 	orr.w	r3, r3, #65536	; 0x10000
 8000772:	f043 0302 	orr.w	r3, r3, #2
 8000776:	6053      	str	r3, [r2, #4]
 8000778:	68eb      	ldr	r3, [r5, #12]
 800077a:	f5b3 3f80 	cmp.w	r3, #65536	; 0x10000
 800077e:	d104      	bne.n	800078a <XMC_SCU_CLOCK_Init+0xf6>
 8000780:	4a3c      	ldr	r2, [pc, #240]	; (8000874 <XMC_SCU_CLOCK_Init+0x1e0>)
 8000782:	68d3      	ldr	r3, [r2, #12]
 8000784:	f443 3380 	orr.w	r3, r3, #65536	; 0x10000
 8000788:	60d3      	str	r3, [r2, #12]
 800078a:	b003      	add	sp, #12
 800078c:	e8bd 40f0 	ldmia.w	sp!, {r4, r5, r6, r7, lr}
 8000790:	f7ff bd84 	b.w	800029c <SystemCoreClockUpdate>
 8000794:	4a3c      	ldr	r2, [pc, #240]	; (8000888 <XMC_SCU_CLOCK_Init+0x1f4>)
 8000796:	88a8      	ldrh	r0, [r5, #4]
 8000798:	6853      	ldr	r3, [r2, #4]
 800079a:	f423 3380 	bic.w	r3, r3, #65536	; 0x10000
 800079e:	f023 0302 	bic.w	r3, r3, #2
 80007a2:	6053      	str	r3, [r2, #4]
 80007a4:	78ac      	ldrb	r4, [r5, #2]
 80007a6:	786a      	ldrb	r2, [r5, #1]
 80007a8:	782b      	ldrb	r3, [r5, #0]
 80007aa:	9400      	str	r4, [sp, #0]
 80007ac:	f7ff fe98 	bl	80004e0 <XMC_SCU_CLOCK_StartSystemPll>
 80007b0:	e7e2      	b.n	8000778 <XMC_SCU_CLOCK_Init+0xe4>
 80007b2:	4c35      	ldr	r4, [pc, #212]	; (8000888 <XMC_SCU_CLOCK_Init+0x1f4>)
 80007b4:	4f37      	ldr	r7, [pc, #220]	; (8000894 <XMC_SCU_CLOCK_Init+0x200>)
 80007b6:	6863      	ldr	r3, [r4, #4]
 80007b8:	f423 3380 	bic.w	r3, r3, #65536	; 0x10000
 80007bc:	6063      	str	r3, [r4, #4]
 80007be:	687e      	ldr	r6, [r7, #4]
 80007c0:	f003 f944 	bl	8003a4c <OSCHP_GetFrequency>
 80007c4:	4a34      	ldr	r2, [pc, #208]	; (8000898 <XMC_SCU_CLOCK_Init+0x204>)
 80007c6:	fba2 3200 	umull	r3, r2, r2, r0
 80007ca:	0d12      	lsrs	r2, r2, #20
 80007cc:	f426 2370 	bic.w	r3, r6, #983040	; 0xf0000
 80007d0:	3a01      	subs	r2, #1
 80007d2:	f023 0330 	bic.w	r3, r3, #48	; 0x30
 80007d6:	ea43 4302 	orr.w	r3, r3, r2, lsl #16
 80007da:	607b      	str	r3, [r7, #4]
 80007dc:	6863      	ldr	r3, [r4, #4]
 80007de:	f423 3300 	bic.w	r3, r3, #131072	; 0x20000
 80007e2:	6063      	str	r3, [r4, #4]
 80007e4:	4622      	mov	r2, r4
 80007e6:	6813      	ldr	r3, [r2, #0]
 80007e8:	f403 7360 	and.w	r3, r3, #896	; 0x380
 80007ec:	f5b3 7f60 	cmp.w	r3, #896	; 0x380
 80007f0:	d1f9      	bne.n	80007e6 <XMC_SCU_CLOCK_Init+0x152>
 80007f2:	e7b8      	b.n	8000766 <XMC_SCU_CLOCK_Init+0xd2>
 80007f4:	4a22      	ldr	r2, [pc, #136]	; (8000880 <XMC_SCU_CLOCK_Init+0x1ec>)
 80007f6:	f8d2 30c4 	ldr.w	r3, [r2, #196]	; 0xc4
 80007fa:	061e      	lsls	r6, r3, #24
 80007fc:	d4fb      	bmi.n	80007f6 <XMC_SCU_CLOCK_Init+0x162>
 80007fe:	4921      	ldr	r1, [pc, #132]	; (8000884 <XMC_SCU_CLOCK_Init+0x1f0>)
 8000800:	4a1f      	ldr	r2, [pc, #124]	; (8000880 <XMC_SCU_CLOCK_Init+0x1ec>)
 8000802:	69cb      	ldr	r3, [r1, #28]
 8000804:	f023 0330 	bic.w	r3, r3, #48	; 0x30
 8000808:	61cb      	str	r3, [r1, #28]
 800080a:	f8d2 30c4 	ldr.w	r3, [r2, #196]	; 0xc4
 800080e:	071c      	lsls	r4, r3, #28
 8000810:	d4fb      	bmi.n	800080a <XMC_SCU_CLOCK_Init+0x176>
 8000812:	491c      	ldr	r1, [pc, #112]	; (8000884 <XMC_SCU_CLOCK_Init+0x1f0>)
 8000814:	4a1a      	ldr	r2, [pc, #104]	; (8000880 <XMC_SCU_CLOCK_Init+0x1ec>)
 8000816:	68cb      	ldr	r3, [r1, #12]
 8000818:	f043 0308 	orr.w	r3, r3, #8
 800081c:	60cb      	str	r3, [r1, #12]
 800081e:	f8d2 30c4 	ldr.w	r3, [r2, #196]	; 0xc4
 8000822:	0758      	lsls	r0, r3, #29
 8000824:	d4fb      	bmi.n	800081e <XMC_SCU_CLOCK_Init+0x18a>
 8000826:	4b17      	ldr	r3, [pc, #92]	; (8000884 <XMC_SCU_CLOCK_Init+0x1f0>)
 8000828:	4a15      	ldr	r2, [pc, #84]	; (8000880 <XMC_SCU_CLOCK_Init+0x1ec>)
 800082a:	2108      	movs	r1, #8
 800082c:	6099      	str	r1, [r3, #8]
 800082e:	f8d2 30c4 	ldr.w	r3, [r2, #196]	; 0xc4
 8000832:	2b00      	cmp	r3, #0
 8000834:	d1fb      	bne.n	800082e <XMC_SCU_CLOCK_Init+0x19a>
 8000836:	4a13      	ldr	r2, [pc, #76]	; (8000884 <XMC_SCU_CLOCK_Init+0x1f0>)
 8000838:	6813      	ldr	r3, [r2, #0]
 800083a:	0719      	lsls	r1, r3, #28
 800083c:	d4fc      	bmi.n	8000838 <XMC_SCU_CLOCK_Init+0x1a4>
 800083e:	e748      	b.n	80006d2 <XMC_SCU_CLOCK_Init+0x3e>
 8000840:	6853      	ldr	r3, [r2, #4]
 8000842:	4e12      	ldr	r6, [pc, #72]	; (800088c <XMC_SCU_CLOCK_Init+0x1f8>)
 8000844:	f423 1380 	bic.w	r3, r3, #1048576	; 0x100000
 8000848:	6053      	str	r3, [r2, #4]
 800084a:	f7ff fd27 	bl	800029c <SystemCoreClockUpdate>
 800084e:	4a10      	ldr	r2, [pc, #64]	; (8000890 <XMC_SCU_CLOCK_Init+0x1fc>)
 8000850:	6833      	ldr	r3, [r6, #0]
 8000852:	fba2 2303 	umull	r2, r3, r2, r3
 8000856:	0c9a      	lsrs	r2, r3, #18
 8000858:	2364      	movs	r3, #100	; 0x64
 800085a:	fb03 f302 	mul.w	r3, r3, r2
 800085e:	b11b      	cbz	r3, 8000868 <XMC_SCU_CLOCK_Init+0x1d4>
 8000860:	bf00      	nop
 8000862:	3401      	adds	r4, #1
 8000864:	429c      	cmp	r4, r3
 8000866:	d1fb      	bne.n	8000860 <XMC_SCU_CLOCK_Init+0x1cc>
 8000868:	4a07      	ldr	r2, [pc, #28]	; (8000888 <XMC_SCU_CLOCK_Init+0x1f4>)
 800086a:	6853      	ldr	r3, [r2, #4]
 800086c:	f443 2300 	orr.w	r3, r3, #524288	; 0x80000
 8000870:	6053      	str	r3, [r2, #4]
 8000872:	e749      	b.n	8000708 <XMC_SCU_CLOCK_Init+0x74>
 8000874:	50004600 	.word	0x50004600
 8000878:	50004200 	.word	0x50004200
 800087c:	50004400 	.word	0x50004400
 8000880:	50004000 	.word	0x50004000
 8000884:	50004300 	.word	0x50004300
 8000888:	50004710 	.word	0x50004710
 800088c:	2003ffc0 	.word	0x2003ffc0
 8000890:	431bde83 	.word	0x431bde83
 8000894:	50004700 	.word	0x50004700
 8000898:	6b5fca6b 	.word	0x6b5fca6b

0800089c <XMC_CCU4_Init>:
 800089c:	b538      	push	{r3, r4, r5, lr}
 800089e:	4604      	mov	r4, r0
 80008a0:	2010      	movs	r0, #16
 80008a2:	460d      	mov	r5, r1
 80008a4:	f7ff fde8 	bl	8000478 <XMC_SCU_CLOCK_EnableClock>
 80008a8:	4b19      	ldr	r3, [pc, #100]	; (8000910 <XMC_CCU4_Init+0x74>)
 80008aa:	429c      	cmp	r4, r3
 80008ac:	d01a      	beq.n	80008e4 <XMC_CCU4_Init+0x48>
 80008ae:	4b19      	ldr	r3, [pc, #100]	; (8000914 <XMC_CCU4_Init+0x78>)
 80008b0:	429c      	cmp	r4, r3
 80008b2:	d01e      	beq.n	80008f2 <XMC_CCU4_Init+0x56>
 80008b4:	4b18      	ldr	r3, [pc, #96]	; (8000918 <XMC_CCU4_Init+0x7c>)
 80008b6:	429c      	cmp	r4, r3
 80008b8:	d022      	beq.n	8000900 <XMC_CCU4_Init+0x64>
 80008ba:	4b18      	ldr	r3, [pc, #96]	; (800091c <XMC_CCU4_Init+0x80>)
 80008bc:	429c      	cmp	r4, r3
 80008be:	d00a      	beq.n	80008d6 <XMC_CCU4_Init+0x3a>
 80008c0:	68e3      	ldr	r3, [r4, #12]
 80008c2:	f443 7380 	orr.w	r3, r3, #256	; 0x100
 80008c6:	60e3      	str	r3, [r4, #12]
 80008c8:	6821      	ldr	r1, [r4, #0]
 80008ca:	f421 4140 	bic.w	r1, r1, #49152	; 0xc000
 80008ce:	ea41 3185 	orr.w	r1, r1, r5, lsl #14
 80008d2:	6021      	str	r1, [r4, #0]
 80008d4:	bd38      	pop	{r3, r4, r5, pc}
 80008d6:	4812      	ldr	r0, [pc, #72]	; (8000920 <XMC_CCU4_Init+0x84>)
 80008d8:	f7ff fdd4 	bl	8000484 <XMC_SCU_CLOCK_UngatePeripheralClock>
 80008dc:	4810      	ldr	r0, [pc, #64]	; (8000920 <XMC_CCU4_Init+0x84>)
 80008de:	f7ff fd71 	bl	80003c4 <XMC_SCU_RESET_DeassertPeripheralReset>
 80008e2:	e7ed      	b.n	80008c0 <XMC_CCU4_Init+0x24>
 80008e4:	2004      	movs	r0, #4
 80008e6:	f7ff fdcd 	bl	8000484 <XMC_SCU_CLOCK_UngatePeripheralClock>
 80008ea:	2004      	movs	r0, #4
 80008ec:	f7ff fd6a 	bl	80003c4 <XMC_SCU_RESET_DeassertPeripheralReset>
 80008f0:	e7e6      	b.n	80008c0 <XMC_CCU4_Init+0x24>
 80008f2:	2008      	movs	r0, #8
 80008f4:	f7ff fdc6 	bl	8000484 <XMC_SCU_CLOCK_UngatePeripheralClock>
 80008f8:	2008      	movs	r0, #8
 80008fa:	f7ff fd63 	bl	80003c4 <XMC_SCU_RESET_DeassertPeripheralReset>
 80008fe:	e7df      	b.n	80008c0 <XMC_CCU4_Init+0x24>
 8000900:	2010      	movs	r0, #16
 8000902:	f7ff fdbf 	bl	8000484 <XMC_SCU_CLOCK_UngatePeripheralClock>
 8000906:	2010      	movs	r0, #16
 8000908:	f7ff fd5c 	bl	80003c4 <XMC_SCU_RESET_DeassertPeripheralReset>
 800090c:	e7d8      	b.n	80008c0 <XMC_CCU4_Init+0x24>
 800090e:	bf00      	nop
 8000910:	4000c000 	.word	0x4000c000
 8000914:	40010000 	.word	0x40010000
 8000918:	40014000 	.word	0x40014000
 800091c:	48004000 	.word	0x48004000
 8000920:	10000001 	.word	0x10000001

08000924 <XMC_CCU4_SLICE_CompareInit>:
 8000924:	b470      	push	{r4, r5, r6}
 8000926:	794b      	ldrb	r3, [r1, #5]
 8000928:	790e      	ldrb	r6, [r1, #4]
 800092a:	6809      	ldr	r1, [r1, #0]
 800092c:	6141      	str	r1, [r0, #20]
 800092e:	461c      	mov	r4, r3
 8000930:	461d      	mov	r5, r3
 8000932:	4632      	mov	r2, r6
 8000934:	f3c3 1340 	ubfx	r3, r3, #5, #1
 8000938:	f006 060f 	and.w	r6, r6, #15
 800093c:	f005 050f 	and.w	r5, r5, #15
 8000940:	f3c4 1100 	ubfx	r1, r4, #4, #1
 8000944:	051b      	lsls	r3, r3, #20
 8000946:	0912      	lsrs	r2, r2, #4
 8000948:	6043      	str	r3, [r0, #4]
 800094a:	6246      	str	r6, [r0, #36]	; 0x24
 800094c:	6205      	str	r5, [r0, #32]
 800094e:	6181      	str	r1, [r0, #24]
 8000950:	bc70      	pop	{r4, r5, r6}
 8000952:	62c2      	str	r2, [r0, #44]	; 0x2c
 8000954:	4770      	bx	lr
 8000956:	bf00      	nop

08000958 <XMC_CCU4_SLICE_SetInterruptNode>:
 8000958:	2909      	cmp	r1, #9
 800095a:	b430      	push	{r4, r5}
 800095c:	f8d0 40a8 	ldr.w	r4, [r0, #168]	; 0xa8
 8000960:	d80d      	bhi.n	800097e <XMC_CCU4_SLICE_SetInterruptNode+0x26>
 8000962:	4b09      	ldr	r3, [pc, #36]	; (8000988 <XMC_CCU4_SLICE_SetInterruptNode+0x30>)
 8000964:	4d09      	ldr	r5, [pc, #36]	; (800098c <XMC_CCU4_SLICE_SetInterruptNode+0x34>)
 8000966:	f853 3021 	ldr.w	r3, [r3, r1, lsl #2]
 800096a:	f855 1021 	ldr.w	r1, [r5, r1, lsl #2]
 800096e:	43db      	mvns	r3, r3
 8000970:	4023      	ands	r3, r4
 8000972:	408a      	lsls	r2, r1
 8000974:	431a      	orrs	r2, r3
 8000976:	f8c0 20a8 	str.w	r2, [r0, #168]	; 0xa8
 800097a:	bc30      	pop	{r4, r5}
 800097c:	4770      	bx	lr
 800097e:	210c      	movs	r1, #12
 8000980:	f46f 5340 	mvn.w	r3, #12288	; 0x3000
 8000984:	e7f4      	b.n	8000970 <XMC_CCU4_SLICE_SetInterruptNode+0x18>
 8000986:	bf00      	nop
 8000988:	0800e2c8 	.word	0x0800e2c8
 800098c:	0800e2a0 	.word	0x0800e2a0

08000990 <XMC_CCU8_Init>:
 8000990:	b538      	push	{r3, r4, r5, lr}
 8000992:	4604      	mov	r4, r0
 8000994:	2010      	movs	r0, #16
 8000996:	460d      	mov	r5, r1
 8000998:	f7ff fd6e 	bl	8000478 <XMC_SCU_CLOCK_EnableClock>
 800099c:	4b10      	ldr	r3, [pc, #64]	; (80009e0 <XMC_CCU8_Init+0x50>)
 800099e:	429c      	cmp	r4, r3
 80009a0:	d016      	beq.n	80009d0 <XMC_CCU8_Init+0x40>
 80009a2:	4b10      	ldr	r3, [pc, #64]	; (80009e4 <XMC_CCU8_Init+0x54>)
 80009a4:	429c      	cmp	r4, r3
 80009a6:	d00a      	beq.n	80009be <XMC_CCU8_Init+0x2e>
 80009a8:	68e3      	ldr	r3, [r4, #12]
 80009aa:	f443 7380 	orr.w	r3, r3, #256	; 0x100
 80009ae:	60e3      	str	r3, [r4, #12]
 80009b0:	6823      	ldr	r3, [r4, #0]
 80009b2:	f423 4340 	bic.w	r3, r3, #49152	; 0xc000
 80009b6:	ea43 3185 	orr.w	r1, r3, r5, lsl #14
 80009ba:	6021      	str	r1, [r4, #0]
 80009bc:	bd38      	pop	{r3, r4, r5, pc}
 80009be:	f44f 7080 	mov.w	r0, #256	; 0x100
 80009c2:	f7ff fd5f 	bl	8000484 <XMC_SCU_CLOCK_UngatePeripheralClock>
 80009c6:	f44f 7080 	mov.w	r0, #256	; 0x100
 80009ca:	f7ff fcfb 	bl	80003c4 <XMC_SCU_RESET_DeassertPeripheralReset>
 80009ce:	e7eb      	b.n	80009a8 <XMC_CCU8_Init+0x18>
 80009d0:	2080      	movs	r0, #128	; 0x80
 80009d2:	f7ff fd57 	bl	8000484 <XMC_SCU_CLOCK_UngatePeripheralClock>
 80009d6:	2080      	movs	r0, #128	; 0x80
 80009d8:	f7ff fcf4 	bl	80003c4 <XMC_SCU_RESET_DeassertPeripheralReset>
 80009dc:	e7e4      	b.n	80009a8 <XMC_CCU8_Init+0x18>
 80009de:	bf00      	nop
 80009e0:	40020000 	.word	0x40020000
 80009e4:	40024000 	.word	0x40024000

080009e8 <XMC_CCU8_SLICE_CompareInit>:
 80009e8:	7b4b      	ldrb	r3, [r1, #13]
 80009ea:	b470      	push	{r4, r5, r6}
 80009ec:	7b0d      	ldrb	r5, [r1, #12]
 80009ee:	2601      	movs	r6, #1
 80009f0:	6106      	str	r6, [r0, #16]
 80009f2:	462c      	mov	r4, r5
 80009f4:	461a      	mov	r2, r3
 80009f6:	f3c3 1300 	ubfx	r3, r3, #4, #1
 80009fa:	680e      	ldr	r6, [r1, #0]
 80009fc:	6146      	str	r6, [r0, #20]
 80009fe:	051b      	lsls	r3, r3, #20
 8000a00:	f005 050f 	and.w	r5, r5, #15
 8000a04:	0924      	lsrs	r4, r4, #4
 8000a06:	f002 020f 	and.w	r2, r2, #15
 8000a0a:	6043      	str	r3, [r0, #4]
 8000a0c:	6245      	str	r5, [r0, #36]	; 0x24
 8000a0e:	62c4      	str	r4, [r0, #44]	; 0x2c
 8000a10:	6202      	str	r2, [r0, #32]
 8000a12:	684b      	ldr	r3, [r1, #4]
 8000a14:	6183      	str	r3, [r0, #24]
 8000a16:	688b      	ldr	r3, [r1, #8]
 8000a18:	f083 0314 	eor.w	r3, r3, #20
 8000a1c:	6483      	str	r3, [r0, #72]	; 0x48
 8000a1e:	bc70      	pop	{r4, r5, r6}
 8000a20:	4770      	bx	lr
 8000a22:	bf00      	nop

08000a24 <XMC_CCU8_SetMultiChannelShadowTransferMode>:
 8000a24:	6802      	ldr	r2, [r0, #0]
 8000a26:	b28b      	uxth	r3, r1
 8000a28:	ea22 4111 	bic.w	r1, r2, r1, lsr #16
 8000a2c:	4319      	orrs	r1, r3
 8000a2e:	6001      	str	r1, [r0, #0]
 8000a30:	4770      	bx	lr
 8000a32:	bf00      	nop

08000a34 <XMC_CCU8_SLICE_StartConfig>:
 8000a34:	6843      	ldr	r3, [r0, #4]
 8000a36:	f023 0303 	bic.w	r3, r3, #3
 8000a3a:	4319      	orrs	r1, r3
 8000a3c:	6041      	str	r1, [r0, #4]
 8000a3e:	6943      	ldr	r3, [r0, #20]
 8000a40:	2a01      	cmp	r2, #1
 8000a42:	bf0c      	ite	eq
 8000a44:	f443 6380 	orreq.w	r3, r3, #1024	; 0x400
 8000a48:	f423 6380 	bicne.w	r3, r3, #1024	; 0x400
 8000a4c:	6143      	str	r3, [r0, #20]
 8000a4e:	4770      	bx	lr

08000a50 <XMC_CCU8_SLICE_StopConfig>:
 8000a50:	6843      	ldr	r3, [r0, #4]
 8000a52:	f023 030c 	bic.w	r3, r3, #12
 8000a56:	ea43 0181 	orr.w	r1, r3, r1, lsl #2
 8000a5a:	6041      	str	r1, [r0, #4]
 8000a5c:	6943      	ldr	r3, [r0, #20]
 8000a5e:	f423 7340 	bic.w	r3, r3, #768	; 0x300
 8000a62:	ea43 2202 	orr.w	r2, r3, r2, lsl #8
 8000a66:	6142      	str	r2, [r0, #20]
 8000a68:	4770      	bx	lr
 8000a6a:	bf00      	nop

08000a6c <XMC_CCU8_SLICE_LoadConfig>:
 8000a6c:	6843      	ldr	r3, [r0, #4]
 8000a6e:	f423 5340 	bic.w	r3, r3, #12288	; 0x3000
 8000a72:	ea43 3101 	orr.w	r1, r3, r1, lsl #12
 8000a76:	6041      	str	r1, [r0, #4]
 8000a78:	4770      	bx	lr
 8000a7a:	bf00      	nop

08000a7c <XMC_CCU8_SLICE_LoadSelector>:
 8000a7c:	6943      	ldr	r3, [r0, #20]
 8000a7e:	f023 0380 	bic.w	r3, r3, #128	; 0x80
 8000a82:	ea43 11c1 	orr.w	r1, r3, r1, lsl #7
 8000a86:	6141      	str	r1, [r0, #20]
 8000a88:	4770      	bx	lr
 8000a8a:	bf00      	nop

08000a8c <XMC_CCU8_SLICE_ModulationConfig>:
 8000a8c:	b430      	push	{r4, r5}
 8000a8e:	6844      	ldr	r4, [r0, #4]
 8000a90:	f89d 5008 	ldrb.w	r5, [sp, #8]
 8000a94:	f424 2440 	bic.w	r4, r4, #786432	; 0xc0000
 8000a98:	ea44 4181 	orr.w	r1, r4, r1, lsl #18
 8000a9c:	6041      	str	r1, [r0, #4]
 8000a9e:	6941      	ldr	r1, [r0, #20]
 8000aa0:	2a01      	cmp	r2, #1
 8000aa2:	bf0c      	ite	eq
 8000aa4:	f041 7180 	orreq.w	r1, r1, #16777216	; 0x1000000
 8000aa8:	f021 7180 	bicne.w	r1, r1, #16777216	; 0x1000000
 8000aac:	b945      	cbnz	r5, 8000ac0 <XMC_CCU8_SLICE_ModulationConfig+0x34>
 8000aae:	f421 0100 	bic.w	r1, r1, #8388608	; 0x800000
 8000ab2:	f021 51c0 	bic.w	r1, r1, #402653184	; 0x18000000
 8000ab6:	ea41 63c3 	orr.w	r3, r1, r3, lsl #27
 8000aba:	6143      	str	r3, [r0, #20]
 8000abc:	bc30      	pop	{r4, r5}
 8000abe:	4770      	bx	lr
 8000ac0:	f441 0100 	orr.w	r1, r1, #8388608	; 0x800000
 8000ac4:	e7f5      	b.n	8000ab2 <XMC_CCU8_SLICE_ModulationConfig+0x26>
 8000ac6:	bf00      	nop

08000ac8 <XMC_CCU8_SLICE_CountConfig>:
 8000ac8:	6843      	ldr	r3, [r0, #4]
 8000aca:	f423 4340 	bic.w	r3, r3, #49152	; 0xc000
 8000ace:	ea43 3181 	orr.w	r1, r3, r1, lsl #14
 8000ad2:	6041      	str	r1, [r0, #4]
 8000ad4:	4770      	bx	lr
 8000ad6:	bf00      	nop

08000ad8 <XMC_CCU8_SLICE_GateConfig>:
 8000ad8:	6843      	ldr	r3, [r0, #4]
 8000ada:	f423 7340 	bic.w	r3, r3, #768	; 0x300
 8000ade:	ea43 2101 	orr.w	r1, r3, r1, lsl #8
 8000ae2:	6041      	str	r1, [r0, #4]
 8000ae4:	4770      	bx	lr
 8000ae6:	bf00      	nop

08000ae8 <XMC_CCU8_SLICE_DirectionConfig>:
 8000ae8:	6843      	ldr	r3, [r0, #4]
 8000aea:	f423 6340 	bic.w	r3, r3, #3072	; 0xc00
 8000aee:	ea43 2181 	orr.w	r1, r3, r1, lsl #10
 8000af2:	6041      	str	r1, [r0, #4]
 8000af4:	4770      	bx	lr
 8000af6:	bf00      	nop

08000af8 <XMC_CCU8_SLICE_StatusBitOverrideConfig>:
 8000af8:	6843      	ldr	r3, [r0, #4]
 8000afa:	f443 3380 	orr.w	r3, r3, #65536	; 0x10000
 8000afe:	6043      	str	r3, [r0, #4]
 8000b00:	4770      	bx	lr
 8000b02:	bf00      	nop

08000b04 <XMC_CCU8_SLICE_TrapConfig>:
 8000b04:	6843      	ldr	r3, [r0, #4]
 8000b06:	f443 3300 	orr.w	r3, r3, #131072	; 0x20000
 8000b0a:	6043      	str	r3, [r0, #4]
 8000b0c:	6943      	ldr	r3, [r0, #20]
 8000b0e:	b14a      	cbz	r2, 8000b24 <XMC_CCU8_SLICE_TrapConfig+0x20>
 8000b10:	f443 1300 	orr.w	r3, r3, #2097152	; 0x200000
 8000b14:	2901      	cmp	r1, #1
 8000b16:	bf0c      	ite	eq
 8000b18:	f443 0380 	orreq.w	r3, r3, #4194304	; 0x400000
 8000b1c:	f423 0380 	bicne.w	r3, r3, #4194304	; 0x400000
 8000b20:	6143      	str	r3, [r0, #20]
 8000b22:	4770      	bx	lr
 8000b24:	f423 1300 	bic.w	r3, r3, #2097152	; 0x200000
 8000b28:	e7f4      	b.n	8000b14 <XMC_CCU8_SLICE_TrapConfig+0x10>
 8000b2a:	bf00      	nop

08000b2c <XMC_CCU8_SLICE_ConfigureStatusBitOverrideEvent>:
 8000b2c:	b5f0      	push	{r4, r5, r6, r7, lr}
 8000b2e:	6803      	ldr	r3, [r0, #0]
 8000b30:	784e      	ldrb	r6, [r1, #1]
 8000b32:	f891 e002 	ldrb.w	lr, [r1, #2]
 8000b36:	78cf      	ldrb	r7, [r1, #3]
 8000b38:	780d      	ldrb	r5, [r1, #0]
 8000b3a:	7851      	ldrb	r1, [r2, #1]
 8000b3c:	f892 c002 	ldrb.w	ip, [r2, #2]
 8000b40:	7814      	ldrb	r4, [r2, #0]
 8000b42:	f423 2340 	bic.w	r3, r3, #786432	; 0xc0000
 8000b46:	ea43 4686 	orr.w	r6, r3, r6, lsl #18
 8000b4a:	f426 1640 	bic.w	r6, r6, #3145728	; 0x300000
 8000b4e:	ea46 5101 	orr.w	r1, r6, r1, lsl #20
 8000b52:	f421 0100 	bic.w	r1, r1, #8388608	; 0x800000
 8000b56:	ea41 51ce 	orr.w	r1, r1, lr, lsl #23
 8000b5a:	f021 7180 	bic.w	r1, r1, #16777216	; 0x1000000
 8000b5e:	78d3      	ldrb	r3, [r2, #3]
 8000b60:	ea41 620c 	orr.w	r2, r1, ip, lsl #24
 8000b64:	f022 52c0 	bic.w	r2, r2, #402653184	; 0x18000000
 8000b68:	ea42 62c7 	orr.w	r2, r2, r7, lsl #27
 8000b6c:	f022 42c0 	bic.w	r2, r2, #1610612736	; 0x60000000
 8000b70:	ea42 7243 	orr.w	r2, r2, r3, lsl #29
 8000b74:	f022 02f0 	bic.w	r2, r2, #240	; 0xf0
 8000b78:	ea42 1305 	orr.w	r3, r2, r5, lsl #4
 8000b7c:	f423 6370 	bic.w	r3, r3, #3840	; 0xf00
 8000b80:	ea43 2304 	orr.w	r3, r3, r4, lsl #8
 8000b84:	6003      	str	r3, [r0, #0]
 8000b86:	bdf0      	pop	{r4, r5, r6, r7, pc}

08000b88 <XMC_CCU8_SLICE_ConfigureEvent>:
 8000b88:	1e4b      	subs	r3, r1, #1
 8000b8a:	e92d 43f0 	stmdb	sp!, {r4, r5, r6, r7, r8, r9, lr}
 8000b8e:	b2db      	uxtb	r3, r3
 8000b90:	ea4f 0843 	mov.w	r8, r3, lsl #1
 8000b94:	fa5f f888 	uxtb.w	r8, r8
 8000b98:	f108 0910 	add.w	r9, r8, #16
 8000b9c:	6807      	ldr	r7, [r0, #0]
 8000b9e:	f892 c001 	ldrb.w	ip, [r2, #1]
 8000ba2:	7896      	ldrb	r6, [r2, #2]
 8000ba4:	78d4      	ldrb	r4, [r2, #3]
 8000ba6:	f892 e000 	ldrb.w	lr, [r2]
 8000baa:	fa5f f989 	uxtb.w	r9, r9
 8000bae:	2503      	movs	r5, #3
 8000bb0:	fa05 f209 	lsl.w	r2, r5, r9
 8000bb4:	3115      	adds	r1, #21
 8000bb6:	b2c9      	uxtb	r1, r1
 8000bb8:	ea27 0202 	bic.w	r2, r7, r2
 8000bbc:	fa0c fc09 	lsl.w	ip, ip, r9
 8000bc0:	2701      	movs	r7, #1
 8000bc2:	ea42 0c0c 	orr.w	ip, r2, ip
 8000bc6:	408f      	lsls	r7, r1
 8000bc8:	f108 0819 	add.w	r8, r8, #25
 8000bcc:	fa5f f288 	uxtb.w	r2, r8
 8000bd0:	408e      	lsls	r6, r1
 8000bd2:	ea2c 0707 	bic.w	r7, ip, r7
 8000bd6:	0099      	lsls	r1, r3, #2
 8000bd8:	4095      	lsls	r5, r2
 8000bda:	433e      	orrs	r6, r7
 8000bdc:	b2c9      	uxtb	r1, r1
 8000bde:	ea26 0505 	bic.w	r5, r6, r5
 8000be2:	fa04 f202 	lsl.w	r2, r4, r2
 8000be6:	230f      	movs	r3, #15
 8000be8:	432a      	orrs	r2, r5
 8000bea:	408b      	lsls	r3, r1
 8000bec:	fa0e fe01 	lsl.w	lr, lr, r1
 8000bf0:	ea22 0303 	bic.w	r3, r2, r3
 8000bf4:	ea43 030e 	orr.w	r3, r3, lr
 8000bf8:	6003      	str	r3, [r0, #0]
 8000bfa:	e8bd 83f0 	ldmia.w	sp!, {r4, r5, r6, r7, r8, r9, pc}
 8000bfe:	bf00      	nop

08000c00 <XMC_CCU8_SLICE_SetTimerPeriodMatch>:
 8000c00:	6341      	str	r1, [r0, #52]	; 0x34
 8000c02:	4770      	bx	lr

08000c04 <XMC_CCU8_SLICE_SetTimerCompareMatch>:
 8000c04:	b109      	cbz	r1, 8000c0a <XMC_CCU8_SLICE_SetTimerCompareMatch+0x6>
 8000c06:	6442      	str	r2, [r0, #68]	; 0x44
 8000c08:	4770      	bx	lr
 8000c0a:	63c2      	str	r2, [r0, #60]	; 0x3c
 8000c0c:	4770      	bx	lr
 8000c0e:	bf00      	nop

08000c10 <XMC_CCU8_SLICE_SetInterruptNode>:
 8000c10:	2909      	cmp	r1, #9
 8000c12:	b430      	push	{r4, r5}
 8000c14:	f8d0 40a8 	ldr.w	r4, [r0, #168]	; 0xa8
 8000c18:	d80d      	bhi.n	8000c36 <XMC_CCU8_SLICE_SetInterruptNode+0x26>
 8000c1a:	4b09      	ldr	r3, [pc, #36]	; (8000c40 <XMC_CCU8_SLICE_SetInterruptNode+0x30>)
 8000c1c:	4d09      	ldr	r5, [pc, #36]	; (8000c44 <XMC_CCU8_SLICE_SetInterruptNode+0x34>)
 8000c1e:	f853 3021 	ldr.w	r3, [r3, r1, lsl #2]
 8000c22:	f855 1021 	ldr.w	r1, [r5, r1, lsl #2]
 8000c26:	43db      	mvns	r3, r3
 8000c28:	4023      	ands	r3, r4
 8000c2a:	408a      	lsls	r2, r1
 8000c2c:	431a      	orrs	r2, r3
 8000c2e:	f8c0 20a8 	str.w	r2, [r0, #168]	; 0xa8
 8000c32:	bc30      	pop	{r4, r5}
 8000c34:	4770      	bx	lr
 8000c36:	210c      	movs	r1, #12
 8000c38:	f46f 5340 	mvn.w	r3, #12288	; 0x3000
 8000c3c:	e7f4      	b.n	8000c28 <XMC_CCU8_SLICE_SetInterruptNode+0x18>
 8000c3e:	bf00      	nop
 8000c40:	0800e2f0 	.word	0x0800e2f0
 8000c44:	0800e318 	.word	0x0800e318

08000c48 <XMC_CCU8_SLICE_DeadTimeInit>:
 8000c48:	684b      	ldr	r3, [r1, #4]
 8000c4a:	6503      	str	r3, [r0, #80]	; 0x50
 8000c4c:	688b      	ldr	r3, [r1, #8]
 8000c4e:	6543      	str	r3, [r0, #84]	; 0x54
 8000c50:	680b      	ldr	r3, [r1, #0]
 8000c52:	64c3      	str	r3, [r0, #76]	; 0x4c
 8000c54:	4770      	bx	lr
 8000c56:	bf00      	nop

08000c58 <XMC_GPIO_SetHardwareControl>:
 8000c58:	b410      	push	{r4}
 8000c5a:	0049      	lsls	r1, r1, #1
 8000c5c:	6f44      	ldr	r4, [r0, #116]	; 0x74
 8000c5e:	2303      	movs	r3, #3
 8000c60:	408b      	lsls	r3, r1
 8000c62:	ea24 0303 	bic.w	r3, r4, r3
 8000c66:	6743      	str	r3, [r0, #116]	; 0x74
 8000c68:	6f43      	ldr	r3, [r0, #116]	; 0x74
 8000c6a:	f85d 4b04 	ldr.w	r4, [sp], #4
 8000c6e:	408a      	lsls	r2, r1
 8000c70:	4313      	orrs	r3, r2
 8000c72:	6743      	str	r3, [r0, #116]	; 0x74
 8000c74:	4770      	bx	lr
 8000c76:	bf00      	nop

08000c78 <XMC_SPI_CH_Init>:
 8000c78:	b538      	push	{r3, r4, r5, lr}
 8000c7a:	460d      	mov	r5, r1
 8000c7c:	4604      	mov	r4, r0
 8000c7e:	f000 f869 	bl	8000d54 <XMC_USIC_CH_Enable>
 8000c82:	792b      	ldrb	r3, [r5, #4]
 8000c84:	b153      	cbz	r3, 8000c9c <XMC_SPI_CH_Init+0x24>
 8000c86:	4b0e      	ldr	r3, [pc, #56]	; (8000cc0 <XMC_SPI_CH_Init+0x48>)
 8000c88:	6363      	str	r3, [r4, #52]	; 0x34
 8000c8a:	f44f 63a2 	mov.w	r3, #1296	; 0x510
 8000c8e:	63a3      	str	r3, [r4, #56]	; 0x38
 8000c90:	88eb      	ldrh	r3, [r5, #6]
 8000c92:	f04f 32ff 	mov.w	r2, #4294967295
 8000c96:	64e2      	str	r2, [r4, #76]	; 0x4c
 8000c98:	6423      	str	r3, [r4, #64]	; 0x40
 8000c9a:	bd38      	pop	{r3, r4, r5, pc}
 8000c9c:	2202      	movs	r2, #2
 8000c9e:	4620      	mov	r0, r4
 8000ca0:	6829      	ldr	r1, [r5, #0]
 8000ca2:	f000 f899 	bl	8000dd8 <XMC_USIC_CH_SetBaudrate>
 8000ca6:	792b      	ldrb	r3, [r5, #4]
 8000ca8:	4a05      	ldr	r2, [pc, #20]	; (8000cc0 <XMC_SPI_CH_Init+0x48>)
 8000caa:	6362      	str	r2, [r4, #52]	; 0x34
 8000cac:	f44f 62a2 	mov.w	r2, #1296	; 0x510
 8000cb0:	63a2      	str	r2, [r4, #56]	; 0x38
 8000cb2:	2b00      	cmp	r3, #0
 8000cb4:	d1ec      	bne.n	8000c90 <XMC_SPI_CH_Init+0x18>
 8000cb6:	796b      	ldrb	r3, [r5, #5]
 8000cb8:	f043 030b 	orr.w	r3, r3, #11
 8000cbc:	63e3      	str	r3, [r4, #60]	; 0x3c
 8000cbe:	e7e7      	b.n	8000c90 <XMC_SPI_CH_Init+0x18>
 8000cc0:	073f0102 	.word	0x073f0102

08000cc4 <XMC_SPI_CH_EnableSlaveSelect>:
 8000cc4:	6bc3      	ldr	r3, [r0, #60]	; 0x3c
 8000cc6:	f423 037f 	bic.w	r3, r3, #16711680	; 0xff0000
 8000cca:	63c3      	str	r3, [r0, #60]	; 0x3c
 8000ccc:	6bc3      	ldr	r3, [r0, #60]	; 0x3c
 8000cce:	4319      	orrs	r1, r3
 8000cd0:	63c1      	str	r1, [r0, #60]	; 0x3c
 8000cd2:	4770      	bx	lr

08000cd4 <XMC_SPI_CH_DisableSlaveSelect>:
 8000cd4:	6cc3      	ldr	r3, [r0, #76]	; 0x4c
 8000cd6:	f043 0301 	orr.w	r3, r3, #1
 8000cda:	64c3      	str	r3, [r0, #76]	; 0x4c
 8000cdc:	6bc3      	ldr	r3, [r0, #60]	; 0x3c
 8000cde:	f423 037f 	bic.w	r3, r3, #16711680	; 0xff0000
 8000ce2:	63c3      	str	r3, [r0, #60]	; 0x3c
 8000ce4:	4770      	bx	lr
 8000ce6:	bf00      	nop

08000ce8 <XMC_SPI_CH_Transmit>:
 8000ce8:	6c03      	ldr	r3, [r0, #64]	; 0x40
 8000cea:	b430      	push	{r4, r5}
 8000cec:	0195      	lsls	r5, r2, #6
 8000cee:	f023 04c0 	bic.w	r4, r3, #192	; 0xc0
 8000cf2:	b2eb      	uxtb	r3, r5
 8000cf4:	4323      	orrs	r3, r4
 8000cf6:	6403      	str	r3, [r0, #64]	; 0x40
 8000cf8:	f8d0 3108 	ldr.w	r3, [r0, #264]	; 0x108
 8000cfc:	f013 6fe0 	tst.w	r3, #117440512	; 0x7000000
 8000d00:	d004      	beq.n	8000d0c <XMC_SPI_CH_Transmit+0x24>
 8000d02:	3260      	adds	r2, #96	; 0x60
 8000d04:	bc30      	pop	{r4, r5}
 8000d06:	f840 1022 	str.w	r1, [r0, r2, lsl #2]
 8000d0a:	4770      	bx	lr
 8000d0c:	6b83      	ldr	r3, [r0, #56]	; 0x38
 8000d0e:	061b      	lsls	r3, r3, #24
 8000d10:	d4fc      	bmi.n	8000d0c <XMC_SPI_CH_Transmit+0x24>
 8000d12:	6cc3      	ldr	r3, [r0, #76]	; 0x4c
 8000d14:	3220      	adds	r2, #32
 8000d16:	f443 5300 	orr.w	r3, r3, #8192	; 0x2000
 8000d1a:	64c3      	str	r3, [r0, #76]	; 0x4c
 8000d1c:	bc30      	pop	{r4, r5}
 8000d1e:	f840 1022 	str.w	r1, [r0, r2, lsl #2]
 8000d22:	4770      	bx	lr

08000d24 <XMC_SPI_CH_GetReceivedData>:
 8000d24:	f8d0 310c 	ldr.w	r3, [r0, #268]	; 0x10c
 8000d28:	f013 6fe0 	tst.w	r3, #117440512	; 0x7000000
 8000d2c:	bf0c      	ite	eq
 8000d2e:	6d40      	ldreq	r0, [r0, #84]	; 0x54
 8000d30:	f8d0 011c 	ldrne.w	r0, [r0, #284]	; 0x11c
 8000d34:	b280      	uxth	r0, r0
 8000d36:	4770      	bx	lr

08000d38 <XMC_SPI_CH_DisableEvent>:
 8000d38:	6c03      	ldr	r3, [r0, #64]	; 0x40
 8000d3a:	f401 32fe 	and.w	r2, r1, #130048	; 0x1fc00
 8000d3e:	ea23 0302 	bic.w	r3, r3, r2
 8000d42:	6403      	str	r3, [r0, #64]	; 0x40
 8000d44:	6bc3      	ldr	r3, [r0, #60]	; 0x3c
 8000d46:	0349      	lsls	r1, r1, #13
 8000d48:	b289      	uxth	r1, r1
 8000d4a:	ea23 0101 	bic.w	r1, r3, r1
 8000d4e:	63c1      	str	r1, [r0, #60]	; 0x3c
 8000d50:	4770      	bx	lr
 8000d52:	bf00      	nop

08000d54 <XMC_USIC_CH_Enable>:
 8000d54:	4b1b      	ldr	r3, [pc, #108]	; (8000dc4 <XMC_USIC_CH_Enable+0x70>)
 8000d56:	4298      	cmp	r0, r3
 8000d58:	b510      	push	{r4, lr}
 8000d5a:	4604      	mov	r4, r0
 8000d5c:	d01b      	beq.n	8000d96 <XMC_USIC_CH_Enable+0x42>
 8000d5e:	f503 7300 	add.w	r3, r3, #512	; 0x200
 8000d62:	4298      	cmp	r0, r3
 8000d64:	d017      	beq.n	8000d96 <XMC_USIC_CH_Enable+0x42>
 8000d66:	4b18      	ldr	r3, [pc, #96]	; (8000dc8 <XMC_USIC_CH_Enable+0x74>)
 8000d68:	4298      	cmp	r0, r3
 8000d6a:	d024      	beq.n	8000db6 <XMC_USIC_CH_Enable+0x62>
 8000d6c:	f503 7300 	add.w	r3, r3, #512	; 0x200
 8000d70:	4298      	cmp	r0, r3
 8000d72:	d020      	beq.n	8000db6 <XMC_USIC_CH_Enable+0x62>
 8000d74:	4b15      	ldr	r3, [pc, #84]	; (8000dcc <XMC_USIC_CH_Enable+0x78>)
 8000d76:	4298      	cmp	r0, r3
 8000d78:	d016      	beq.n	8000da8 <XMC_USIC_CH_Enable+0x54>
 8000d7a:	f503 7300 	add.w	r3, r3, #512	; 0x200
 8000d7e:	4298      	cmp	r0, r3
 8000d80:	d012      	beq.n	8000da8 <XMC_USIC_CH_Enable+0x54>
 8000d82:	2303      	movs	r3, #3
 8000d84:	60e3      	str	r3, [r4, #12]
 8000d86:	68e3      	ldr	r3, [r4, #12]
 8000d88:	07db      	lsls	r3, r3, #31
 8000d8a:	d5fc      	bpl.n	8000d86 <XMC_USIC_CH_Enable+0x32>
 8000d8c:	6c23      	ldr	r3, [r4, #64]	; 0x40
 8000d8e:	f023 030f 	bic.w	r3, r3, #15
 8000d92:	6423      	str	r3, [r4, #64]	; 0x40
 8000d94:	bd10      	pop	{r4, pc}
 8000d96:	f44f 6000 	mov.w	r0, #2048	; 0x800
 8000d9a:	f7ff fb73 	bl	8000484 <XMC_SCU_CLOCK_UngatePeripheralClock>
 8000d9e:	f44f 6000 	mov.w	r0, #2048	; 0x800
 8000da2:	f7ff fb0f 	bl	80003c4 <XMC_SCU_RESET_DeassertPeripheralReset>
 8000da6:	e7ec      	b.n	8000d82 <XMC_USIC_CH_Enable+0x2e>
 8000da8:	4809      	ldr	r0, [pc, #36]	; (8000dd0 <XMC_USIC_CH_Enable+0x7c>)
 8000daa:	f7ff fb6b 	bl	8000484 <XMC_SCU_CLOCK_UngatePeripheralClock>
 8000dae:	4808      	ldr	r0, [pc, #32]	; (8000dd0 <XMC_USIC_CH_Enable+0x7c>)
 8000db0:	f7ff fb08 	bl	80003c4 <XMC_SCU_RESET_DeassertPeripheralReset>
 8000db4:	e7e5      	b.n	8000d82 <XMC_USIC_CH_Enable+0x2e>
 8000db6:	4807      	ldr	r0, [pc, #28]	; (8000dd4 <XMC_USIC_CH_Enable+0x80>)
 8000db8:	f7ff fb64 	bl	8000484 <XMC_SCU_CLOCK_UngatePeripheralClock>
 8000dbc:	4805      	ldr	r0, [pc, #20]	; (8000dd4 <XMC_USIC_CH_Enable+0x80>)
 8000dbe:	f7ff fb01 	bl	80003c4 <XMC_SCU_RESET_DeassertPeripheralReset>
 8000dc2:	e7de      	b.n	8000d82 <XMC_USIC_CH_Enable+0x2e>
 8000dc4:	40030000 	.word	0x40030000
 8000dc8:	48020000 	.word	0x48020000
 8000dcc:	48024000 	.word	0x48024000
 8000dd0:	10000100 	.word	0x10000100
 8000dd4:	10000080 	.word	0x10000080

08000dd8 <XMC_USIC_CH_SetBaudrate>:
 8000dd8:	2963      	cmp	r1, #99	; 0x63
 8000dda:	d900      	bls.n	8000dde <XMC_USIC_CH_SetBaudrate+0x6>
 8000ddc:	b90a      	cbnz	r2, 8000de2 <XMC_USIC_CH_SetBaudrate+0xa>
 8000dde:	2001      	movs	r0, #1
 8000de0:	4770      	bx	lr
 8000de2:	e92d 41f0 	stmdb	sp!, {r4, r5, r6, r7, r8, lr}
 8000de6:	4617      	mov	r7, r2
 8000de8:	460c      	mov	r4, r1
 8000dea:	4606      	mov	r6, r0
 8000dec:	f7ff faf6 	bl	80003dc <XMC_SCU_CLOCK_GetPeripheralClockFrequency>
 8000df0:	4d18      	ldr	r5, [pc, #96]	; (8000e54 <XMC_USIC_CH_SetBaudrate+0x7c>)
 8000df2:	fba5 3200 	umull	r3, r2, r5, r0
 8000df6:	fba5 3504 	umull	r3, r5, r5, r4
 8000dfa:	0952      	lsrs	r2, r2, #5
 8000dfc:	096d      	lsrs	r5, r5, #5
 8000dfe:	f240 3eff 	movw	lr, #1023	; 0x3ff
 8000e02:	f04f 0c01 	mov.w	ip, #1
 8000e06:	fb07 f505 	mul.w	r5, r7, r5
 8000e0a:	ebc2 2182 	rsb	r1, r2, r2, lsl #10
 8000e0e:	4670      	mov	r0, lr
 8000e10:	46e0      	mov	r8, ip
 8000e12:	fbb1 f3f5 	udiv	r3, r1, r5
 8000e16:	0a9c      	lsrs	r4, r3, #10
 8000e18:	f5b4 6f80 	cmp.w	r4, #1024	; 0x400
 8000e1c:	f3c3 0309 	ubfx	r3, r3, #0, #10
 8000e20:	eba1 0102 	sub.w	r1, r1, r2
 8000e24:	d204      	bcs.n	8000e30 <XMC_USIC_CH_SetBaudrate+0x58>
 8000e26:	4573      	cmp	r3, lr
 8000e28:	d202      	bcs.n	8000e30 <XMC_USIC_CH_SetBaudrate+0x58>
 8000e2a:	469e      	mov	lr, r3
 8000e2c:	46a4      	mov	ip, r4
 8000e2e:	4680      	mov	r8, r0
 8000e30:	3801      	subs	r0, #1
 8000e32:	d1ee      	bne.n	8000e12 <XMC_USIC_CH_SetBaudrate+0x3a>
 8000e34:	f448 4300 	orr.w	r3, r8, #32768	; 0x8000
 8000e38:	6133      	str	r3, [r6, #16]
 8000e3a:	6972      	ldr	r2, [r6, #20]
 8000e3c:	4b06      	ldr	r3, [pc, #24]	; (8000e58 <XMC_USIC_CH_SetBaudrate+0x80>)
 8000e3e:	3f01      	subs	r7, #1
 8000e40:	4013      	ands	r3, r2
 8000e42:	f10c 3cff 	add.w	ip, ip, #4294967295
 8000e46:	ea43 2387 	orr.w	r3, r3, r7, lsl #10
 8000e4a:	ea43 430c 	orr.w	r3, r3, ip, lsl #16
 8000e4e:	6173      	str	r3, [r6, #20]
 8000e50:	e8bd 81f0 	ldmia.w	sp!, {r4, r5, r6, r7, r8, pc}
 8000e54:	51eb851f 	.word	0x51eb851f
 8000e58:	fc0080ef 	.word	0xfc0080ef

08000e5c <XMC_USIC_CH_TXFIFO_Configure>:
 8000e5c:	b430      	push	{r4, r5}
 8000e5e:	f8d0 5108 	ldr.w	r5, [r0, #264]	; 0x108
 8000e62:	4c08      	ldr	r4, [pc, #32]	; (8000e84 <XMC_USIC_CH_TXFIFO_Configure+0x28>)
 8000e64:	f025 65e0 	bic.w	r5, r5, #117440512	; 0x7000000
 8000e68:	f8c0 5108 	str.w	r5, [r0, #264]	; 0x108
 8000e6c:	f8d0 5108 	ldr.w	r5, [r0, #264]	; 0x108
 8000e70:	402c      	ands	r4, r5
 8000e72:	4321      	orrs	r1, r4
 8000e74:	ea41 6202 	orr.w	r2, r1, r2, lsl #24
 8000e78:	ea42 2303 	orr.w	r3, r2, r3, lsl #8
 8000e7c:	f8c0 3108 	str.w	r3, [r0, #264]	; 0x108
 8000e80:	bc30      	pop	{r4, r5}
 8000e82:	4770      	bx	lr
 8000e84:	f8ffc0c0 	.word	0xf8ffc0c0

08000e88 <XMC_USIC_CH_RXFIFO_Configure>:
 8000e88:	b430      	push	{r4, r5}
 8000e8a:	f8d0 510c 	ldr.w	r5, [r0, #268]	; 0x10c
 8000e8e:	4c09      	ldr	r4, [pc, #36]	; (8000eb4 <XMC_USIC_CH_RXFIFO_Configure+0x2c>)
 8000e90:	f025 65e0 	bic.w	r5, r5, #117440512	; 0x7000000
 8000e94:	f8c0 510c 	str.w	r5, [r0, #268]	; 0x10c
 8000e98:	f8d0 510c 	ldr.w	r5, [r0, #268]	; 0x10c
 8000e9c:	402c      	ands	r4, r5
 8000e9e:	f044 5480 	orr.w	r4, r4, #268435456	; 0x10000000
 8000ea2:	4321      	orrs	r1, r4
 8000ea4:	ea41 6202 	orr.w	r2, r1, r2, lsl #24
 8000ea8:	ea42 2303 	orr.w	r3, r2, r3, lsl #8
 8000eac:	f8c0 310c 	str.w	r3, [r0, #268]	; 0x10c
 8000eb0:	bc30      	pop	{r4, r5}
 8000eb2:	4770      	bx	lr
 8000eb4:	efffc0c0 	.word	0xefffc0c0

08000eb8 <XMC_USIC_CH_RXFIFO_SetSizeTriggerLimit>:
 8000eb8:	f8d0 310c 	ldr.w	r3, [r0, #268]	; 0x10c
 8000ebc:	f023 63e0 	bic.w	r3, r3, #117440512	; 0x7000000
 8000ec0:	f8c0 310c 	str.w	r3, [r0, #268]	; 0x10c
 8000ec4:	f8d0 310c 	ldr.w	r3, [r0, #268]	; 0x10c
 8000ec8:	0609      	lsls	r1, r1, #24
 8000eca:	ea41 2202 	orr.w	r2, r1, r2, lsl #8
 8000ece:	f423 537c 	bic.w	r3, r3, #16128	; 0x3f00
 8000ed2:	4313      	orrs	r3, r2
 8000ed4:	f8c0 310c 	str.w	r3, [r0, #268]	; 0x10c
 8000ed8:	4770      	bx	lr
 8000eda:	bf00      	nop

08000edc <XMC_USIC_CH_SetInterruptNodePointer>:
 8000edc:	b410      	push	{r4}
 8000ede:	6983      	ldr	r3, [r0, #24]
 8000ee0:	2407      	movs	r4, #7
 8000ee2:	408c      	lsls	r4, r1
 8000ee4:	ea23 0304 	bic.w	r3, r3, r4
 8000ee8:	408a      	lsls	r2, r1
 8000eea:	431a      	orrs	r2, r3
 8000eec:	6182      	str	r2, [r0, #24]
 8000eee:	f85d 4b04 	ldr.w	r4, [sp], #4
 8000ef2:	4770      	bx	lr

08000ef4 <XMC_USIC_CH_TXFIFO_SetInterruptNodePointer>:
 8000ef4:	b410      	push	{r4}
 8000ef6:	f8d0 3108 	ldr.w	r3, [r0, #264]	; 0x108
 8000efa:	2407      	movs	r4, #7
 8000efc:	408c      	lsls	r4, r1
 8000efe:	ea23 0304 	bic.w	r3, r3, r4
 8000f02:	408a      	lsls	r2, r1
 8000f04:	431a      	orrs	r2, r3
 8000f06:	f8c0 2108 	str.w	r2, [r0, #264]	; 0x108
 8000f0a:	f85d 4b04 	ldr.w	r4, [sp], #4
 8000f0e:	4770      	bx	lr

08000f10 <XMC_USIC_CH_RXFIFO_SetInterruptNodePointer>:
 8000f10:	b410      	push	{r4}
 8000f12:	f8d0 310c 	ldr.w	r3, [r0, #268]	; 0x10c
 8000f16:	2407      	movs	r4, #7
 8000f18:	408c      	lsls	r4, r1
 8000f1a:	ea23 0304 	bic.w	r3, r3, r4
 8000f1e:	408a      	lsls	r2, r1
 8000f20:	431a      	orrs	r2, r3
 8000f22:	f8c0 210c 	str.w	r2, [r0, #268]	; 0x10c
 8000f26:	f85d 4b04 	ldr.w	r4, [sp], #4
 8000f2a:	4770      	bx	lr

08000f2c <_sbrk>:
 8000f2c:	4a0c      	ldr	r2, [pc, #48]	; (8000f60 <_sbrk+0x34>)
 8000f2e:	b508      	push	{r3, lr}
 8000f30:	6813      	ldr	r3, [r2, #0]
 8000f32:	b18b      	cbz	r3, 8000f58 <_sbrk+0x2c>
 8000f34:	3003      	adds	r0, #3
 8000f36:	f020 0003 	bic.w	r0, r0, #3
 8000f3a:	490a      	ldr	r1, [pc, #40]	; (8000f64 <_sbrk+0x38>)
 8000f3c:	4418      	add	r0, r3
 8000f3e:	4288      	cmp	r0, r1
 8000f40:	d202      	bcs.n	8000f48 <_sbrk+0x1c>
 8000f42:	6010      	str	r0, [r2, #0]
 8000f44:	4618      	mov	r0, r3
 8000f46:	bd08      	pop	{r3, pc}
 8000f48:	f00c fd56 	bl	800d9f8 <__errno>
 8000f4c:	230c      	movs	r3, #12
 8000f4e:	6003      	str	r3, [r0, #0]
 8000f50:	f04f 33ff 	mov.w	r3, #4294967295
 8000f54:	4618      	mov	r0, r3
 8000f56:	bd08      	pop	{r3, pc}
 8000f58:	4b03      	ldr	r3, [pc, #12]	; (8000f68 <_sbrk+0x3c>)
 8000f5a:	6013      	str	r3, [r2, #0]
 8000f5c:	e7ea      	b.n	8000f34 <_sbrk+0x8>
 8000f5e:	bf00      	nop
 8000f60:	1ffe8a58 	.word	0x1ffe8a58
 8000f64:	2003ffc0 	.word	0x2003ffc0
 8000f68:	20000000 	.word	0x20000000

08000f6c <_init>:
 8000f6c:	4770      	bx	lr
 8000f6e:	bf00      	nop

08000f70 <TIMER_Init>:
 8000f70:	b5f8      	push	{r3, r4, r5, r6, r7, lr}
 8000f72:	f890 3026 	ldrb.w	r3, [r0, #38]	; 0x26
 8000f76:	2b00      	cmp	r3, #0
 8000f78:	d12f      	bne.n	8000fda <TIMER_Init+0x6a>
 8000f7a:	f890 6021 	ldrb.w	r6, [r0, #33]	; 0x21
 8000f7e:	b116      	cbz	r6, 8000f86 <TIMER_Init+0x16>
 8000f80:	461d      	mov	r5, r3
 8000f82:	4628      	mov	r0, r5
 8000f84:	bdf8      	pop	{r3, r4, r5, r6, r7, pc}
 8000f86:	4604      	mov	r4, r0
 8000f88:	6900      	ldr	r0, [r0, #16]
 8000f8a:	f000 ff55 	bl	8001e38 <GLOBAL_CCU4_Init>
 8000f8e:	6923      	ldr	r3, [r4, #16]
 8000f90:	f894 e018 	ldrb.w	lr, [r4, #24]
 8000f94:	689f      	ldr	r7, [r3, #8]
 8000f96:	69e1      	ldr	r1, [r4, #28]
 8000f98:	68fa      	ldr	r2, [r7, #12]
 8000f9a:	2301      	movs	r3, #1
 8000f9c:	fa03 f30e 	lsl.w	r3, r3, lr
 8000fa0:	4313      	orrs	r3, r2
 8000fa2:	4605      	mov	r5, r0
 8000fa4:	6960      	ldr	r0, [r4, #20]
 8000fa6:	60fb      	str	r3, [r7, #12]
 8000fa8:	f7ff fcbc 	bl	8000924 <XMC_CCU4_SLICE_CompareInit>
 8000fac:	6923      	ldr	r3, [r4, #16]
 8000fae:	6960      	ldr	r0, [r4, #20]
 8000fb0:	689a      	ldr	r2, [r3, #8]
 8000fb2:	f894 3025 	ldrb.w	r3, [r4, #37]	; 0x25
 8000fb6:	8c67      	ldrh	r7, [r4, #34]	; 0x22
 8000fb8:	68e1      	ldr	r1, [r4, #12]
 8000fba:	6347      	str	r7, [r0, #52]	; 0x34
 8000fbc:	63c6      	str	r6, [r0, #60]	; 0x3c
 8000fbe:	6111      	str	r1, [r2, #16]
 8000fc0:	b973      	cbnz	r3, 8000fe0 <TIMER_Init+0x70>
 8000fc2:	f894 2024 	ldrb.w	r2, [r4, #36]	; 0x24
 8000fc6:	2102      	movs	r1, #2
 8000fc8:	2301      	movs	r3, #1
 8000fca:	6101      	str	r1, [r0, #16]
 8000fcc:	f884 3026 	strb.w	r3, [r4, #38]	; 0x26
 8000fd0:	2a00      	cmp	r2, #0
 8000fd2:	d0d6      	beq.n	8000f82 <TIMER_Init+0x12>
 8000fd4:	60c3      	str	r3, [r0, #12]
 8000fd6:	4628      	mov	r0, r5
 8000fd8:	bdf8      	pop	{r3, r4, r5, r6, r7, pc}
 8000fda:	2500      	movs	r5, #0
 8000fdc:	4628      	mov	r0, r5
 8000fde:	bdf8      	pop	{r3, r4, r5, r6, r7, pc}
 8000fe0:	4631      	mov	r1, r6
 8000fe2:	f894 2020 	ldrb.w	r2, [r4, #32]
 8000fe6:	f7ff fcb7 	bl	8000958 <XMC_CCU4_SLICE_SetInterruptNode>
 8000fea:	6960      	ldr	r0, [r4, #20]
 8000fec:	f8d0 30a4 	ldr.w	r3, [r0, #164]	; 0xa4
 8000ff0:	f043 0301 	orr.w	r3, r3, #1
 8000ff4:	f8c0 30a4 	str.w	r3, [r0, #164]	; 0xa4
 8000ff8:	e7e3      	b.n	8000fc2 <TIMER_Init+0x52>
 8000ffa:	bf00      	nop

08000ffc <SPI_MASTER_lReceiveIRQ>:
 8000ffc:	b5f8      	push	{r3, r4, r5, r6, r7, lr}
 8000ffe:	4604      	mov	r4, r0
 8001000:	2000      	movs	r0, #0
 8001002:	68a5      	ldr	r5, [r4, #8]
 8001004:	6862      	ldr	r2, [r4, #4]
 8001006:	682b      	ldr	r3, [r5, #0]
 8001008:	f892 207d 	ldrb.w	r2, [r2, #125]	; 0x7d
 800100c:	6826      	ldr	r6, [r4, #0]
 800100e:	6128      	str	r0, [r5, #16]
 8001010:	2b08      	cmp	r3, #8
 8001012:	bf94      	ite	ls
 8001014:	2300      	movls	r3, #0
 8001016:	2301      	movhi	r3, #1
 8001018:	4099      	lsls	r1, r3
 800101a:	60e9      	str	r1, [r5, #12]
 800101c:	b302      	cbz	r2, 8001060 <SPI_MASTER_lReceiveIRQ+0x64>
 800101e:	f44f 4380 	mov.w	r3, #16384	; 0x4000
 8001022:	f8c6 3118 	str.w	r3, [r6, #280]	; 0x118
 8001026:	4630      	mov	r0, r6
 8001028:	f7ff fe7c 	bl	8000d24 <XMC_SPI_CH_GetReceivedData>
 800102c:	4630      	mov	r0, r6
 800102e:	f7ff fe79 	bl	8000d24 <XMC_SPI_CH_GetReceivedData>
 8001032:	6863      	ldr	r3, [r4, #4]
 8001034:	68e8      	ldr	r0, [r5, #12]
 8001036:	f893 107d 	ldrb.w	r1, [r3, #125]	; 0x7d
 800103a:	b329      	cbz	r1, 8001088 <SPI_MASTER_lReceiveIRQ+0x8c>
 800103c:	b320      	cbz	r0, 8001088 <SPI_MASTER_lReceiveIRQ+0x8c>
 800103e:	68a3      	ldr	r3, [r4, #8]
 8001040:	681b      	ldr	r3, [r3, #0]
 8001042:	2201      	movs	r2, #1
 8001044:	408a      	lsls	r2, r1
 8001046:	2b08      	cmp	r3, #8
 8001048:	bf88      	it	hi
 800104a:	0840      	lsrhi	r0, r0, #1
 800104c:	0852      	lsrs	r2, r2, #1
 800104e:	4282      	cmp	r2, r0
 8001050:	bf88      	it	hi
 8001052:	f100 32ff 	addhi.w	r2, r0, #4294967295
 8001056:	6820      	ldr	r0, [r4, #0]
 8001058:	f7ff ff2e 	bl	8000eb8 <XMC_USIC_CH_RXFIFO_SetSizeTriggerLimit>
 800105c:	6861      	ldr	r1, [r4, #4]
 800105e:	e014      	b.n	800108a <SPI_MASTER_lReceiveIRQ+0x8e>
 8001060:	4630      	mov	r0, r6
 8001062:	f7ff fe5f 	bl	8000d24 <XMC_SPI_CH_GetReceivedData>
 8001066:	4630      	mov	r0, r6
 8001068:	f7ff fe5c 	bl	8000d24 <XMC_SPI_CH_GetReceivedData>
 800106c:	6823      	ldr	r3, [r4, #0]
 800106e:	6861      	ldr	r1, [r4, #4]
 8001070:	6c1a      	ldr	r2, [r3, #64]	; 0x40
 8001072:	69ae      	ldr	r6, [r5, #24]
 8001074:	6868      	ldr	r0, [r5, #4]
 8001076:	f442 4240 	orr.w	r2, r2, #49152	; 0xc000
 800107a:	641a      	str	r2, [r3, #64]	; 0x40
 800107c:	461a      	mov	r2, r3
 800107e:	f891 3084 	ldrb.w	r3, [r1, #132]	; 0x84
 8001082:	b183      	cbz	r3, 80010a6 <SPI_MASTER_lReceiveIRQ+0xaa>
 8001084:	2001      	movs	r0, #1
 8001086:	bdf8      	pop	{r3, r4, r5, r6, r7, pc}
 8001088:	4619      	mov	r1, r3
 800108a:	6823      	ldr	r3, [r4, #0]
 800108c:	69ae      	ldr	r6, [r5, #24]
 800108e:	f8d3 210c 	ldr.w	r2, [r3, #268]	; 0x10c
 8001092:	6868      	ldr	r0, [r5, #4]
 8001094:	f042 42c0 	orr.w	r2, r2, #1610612736	; 0x60000000
 8001098:	f8c3 210c 	str.w	r2, [r3, #268]	; 0x10c
 800109c:	461a      	mov	r2, r3
 800109e:	f891 3084 	ldrb.w	r3, [r1, #132]	; 0x84
 80010a2:	2b00      	cmp	r3, #0
 80010a4:	d1ee      	bne.n	8001084 <SPI_MASTER_lReceiveIRQ+0x88>
 80010a6:	68a4      	ldr	r4, [r4, #8]
 80010a8:	b106      	cbz	r6, 80010ac <SPI_MASTER_lReceiveIRQ+0xb0>
 80010aa:	b908      	cbnz	r0, 80010b0 <SPI_MASTER_lReceiveIRQ+0xb4>
 80010ac:	2003      	movs	r0, #3
 80010ae:	bdf8      	pop	{r3, r4, r5, r6, r7, pc}
 80010b0:	f894 3020 	ldrb.w	r3, [r4, #32]
 80010b4:	f003 05ff 	and.w	r5, r3, #255	; 0xff
 80010b8:	b10b      	cbz	r3, 80010be <SPI_MASTER_lReceiveIRQ+0xc2>
 80010ba:	2002      	movs	r0, #2
 80010bc:	bdf8      	pop	{r3, r4, r5, r6, r7, pc}
 80010be:	6823      	ldr	r3, [r4, #0]
 80010c0:	f891 707c 	ldrb.w	r7, [r1, #124]	; 0x7c
 80010c4:	60a5      	str	r5, [r4, #8]
 80010c6:	2b08      	cmp	r3, #8
 80010c8:	bf94      	ite	ls
 80010ca:	2300      	movls	r3, #0
 80010cc:	2301      	movhi	r3, #1
 80010ce:	4098      	lsls	r0, r3
 80010d0:	2301      	movs	r3, #1
 80010d2:	61a6      	str	r6, [r4, #24]
 80010d4:	6060      	str	r0, [r4, #4]
 80010d6:	f884 3020 	strb.w	r3, [r4, #32]
 80010da:	b1d7      	cbz	r7, 8001112 <SPI_MASTER_lReceiveIRQ+0x116>
 80010dc:	f44f 4300 	mov.w	r3, #32768	; 0x8000
 80010e0:	f8c2 3118 	str.w	r3, [r2, #280]	; 0x118
 80010e4:	f8d2 3108 	ldr.w	r3, [r2, #264]	; 0x108
 80010e8:	f043 4380 	orr.w	r3, r3, #1073741824	; 0x40000000
 80010ec:	f8c2 3108 	str.w	r3, [r2, #264]	; 0x108
 80010f0:	7f20      	ldrb	r0, [r4, #28]
 80010f2:	6c13      	ldr	r3, [r2, #64]	; 0x40
 80010f4:	f891 4089 	ldrb.w	r4, [r1, #137]	; 0x89
 80010f8:	0181      	lsls	r1, r0, #6
 80010fa:	b2c9      	uxtb	r1, r1
 80010fc:	f44f 3080 	mov.w	r0, #65536	; 0x10000
 8001100:	f023 03c0 	bic.w	r3, r3, #192	; 0xc0
 8001104:	430b      	orrs	r3, r1
 8001106:	fa00 f104 	lsl.w	r1, r0, r4
 800110a:	6413      	str	r3, [r2, #64]	; 0x40
 800110c:	2000      	movs	r0, #0
 800110e:	6691      	str	r1, [r2, #104]	; 0x68
 8001110:	bdf8      	pop	{r3, r4, r5, r6, r7, pc}
 8001112:	6c13      	ldr	r3, [r2, #64]	; 0x40
 8001114:	f443 5300 	orr.w	r3, r3, #8192	; 0x2000
 8001118:	6413      	str	r3, [r2, #64]	; 0x40
 800111a:	e7e9      	b.n	80010f0 <SPI_MASTER_lReceiveIRQ+0xf4>

0800111c <SPI_MASTER_Init>:
 800111c:	6843      	ldr	r3, [r0, #4]
 800111e:	685b      	ldr	r3, [r3, #4]
 8001120:	4718      	bx	r3
 8001122:	bf00      	nop

08001124 <SPI_MASTER_Receive>:
 8001124:	b470      	push	{r4, r5, r6}
 8001126:	6844      	ldr	r4, [r0, #4]
 8001128:	f894 4085 	ldrb.w	r4, [r4, #133]	; 0x85
 800112c:	b114      	cbz	r4, 8001134 <SPI_MASTER_Receive+0x10>
 800112e:	2001      	movs	r0, #1
 8001130:	bc70      	pop	{r4, r5, r6}
 8001132:	4770      	bx	lr
 8001134:	6883      	ldr	r3, [r0, #8]
 8001136:	b101      	cbz	r1, 800113a <SPI_MASTER_Receive+0x16>
 8001138:	b912      	cbnz	r2, 8001140 <SPI_MASTER_Receive+0x1c>
 800113a:	2003      	movs	r0, #3
 800113c:	bc70      	pop	{r4, r5, r6}
 800113e:	4770      	bx	lr
 8001140:	7fdc      	ldrb	r4, [r3, #31]
 8001142:	b10c      	cbz	r4, 8001148 <SPI_MASTER_Receive+0x24>
 8001144:	2002      	movs	r0, #2
 8001146:	e7f3      	b.n	8001130 <SPI_MASTER_Receive+0xc>
 8001148:	f893 4020 	ldrb.w	r4, [r3, #32]
 800114c:	f004 05ff 	and.w	r5, r4, #255	; 0xff
 8001150:	2c00      	cmp	r4, #0
 8001152:	d1f7      	bne.n	8001144 <SPI_MASTER_Receive+0x20>
 8001154:	2401      	movs	r4, #1
 8001156:	4e06      	ldr	r6, [pc, #24]	; (8001170 <SPI_MASTER_Receive+0x4c>)
 8001158:	77dc      	strb	r4, [r3, #31]
 800115a:	6159      	str	r1, [r3, #20]
 800115c:	f883 4021 	strb.w	r4, [r3, #33]	; 0x21
 8001160:	619e      	str	r6, [r3, #24]
 8001162:	f883 5022 	strb.w	r5, [r3, #34]	; 0x22
 8001166:	605a      	str	r2, [r3, #4]
 8001168:	4611      	mov	r1, r2
 800116a:	bc70      	pop	{r4, r5, r6}
 800116c:	f7ff bf46 	b.w	8000ffc <SPI_MASTER_lReceiveIRQ>
 8001170:	1ffe8840 	.word	0x1ffe8840

08001174 <SPI_MASTER_lTransmitHandler>:
 8001174:	6883      	ldr	r3, [r0, #8]
 8001176:	6819      	ldr	r1, [r3, #0]
 8001178:	689a      	ldr	r2, [r3, #8]
 800117a:	b470      	push	{r4, r5, r6}
 800117c:	685c      	ldr	r4, [r3, #4]
 800117e:	2909      	cmp	r1, #9
 8001180:	bf34      	ite	cc
 8001182:	2501      	movcc	r5, #1
 8001184:	2502      	movcs	r5, #2
 8001186:	42a2      	cmp	r2, r4
 8001188:	d22b      	bcs.n	80011e2 <SPI_MASTER_lTransmitHandler+0x6e>
 800118a:	6842      	ldr	r2, [r0, #4]
 800118c:	f892 207c 	ldrb.w	r2, [r2, #124]	; 0x7c
 8001190:	2a00      	cmp	r2, #0
 8001192:	d040      	beq.n	8001216 <SPI_MASTER_lTransmitHandler+0xa2>
 8001194:	6801      	ldr	r1, [r0, #0]
 8001196:	f8d1 2114 	ldr.w	r2, [r1, #276]	; 0x114
 800119a:	04d2      	lsls	r2, r2, #19
 800119c:	d44c      	bmi.n	8001238 <SPI_MASTER_lTransmitHandler+0xc4>
 800119e:	689a      	ldr	r2, [r3, #8]
 80011a0:	4294      	cmp	r4, r2
 80011a2:	d949      	bls.n	8001238 <SPI_MASTER_lTransmitHandler+0xc4>
 80011a4:	2d02      	cmp	r5, #2
 80011a6:	d058      	beq.n	800125a <SPI_MASTER_lTransmitHandler+0xe6>
 80011a8:	f64f 75ff 	movw	r5, #65535	; 0xffff
 80011ac:	e010      	b.n	80011d0 <SPI_MASTER_lTransmitHandler+0x5c>
 80011ae:	6898      	ldr	r0, [r3, #8]
 80011b0:	7f1a      	ldrb	r2, [r3, #28]
 80011b2:	699e      	ldr	r6, [r3, #24]
 80011b4:	3260      	adds	r2, #96	; 0x60
 80011b6:	5c30      	ldrb	r0, [r6, r0]
 80011b8:	f841 0022 	str.w	r0, [r1, r2, lsl #2]
 80011bc:	689a      	ldr	r2, [r3, #8]
 80011be:	3201      	adds	r2, #1
 80011c0:	609a      	str	r2, [r3, #8]
 80011c2:	f8d1 2114 	ldr.w	r2, [r1, #276]	; 0x114
 80011c6:	04d6      	lsls	r6, r2, #19
 80011c8:	d436      	bmi.n	8001238 <SPI_MASTER_lTransmitHandler+0xc4>
 80011ca:	689a      	ldr	r2, [r3, #8]
 80011cc:	4294      	cmp	r4, r2
 80011ce:	d933      	bls.n	8001238 <SPI_MASTER_lTransmitHandler+0xc4>
 80011d0:	f893 2021 	ldrb.w	r2, [r3, #33]	; 0x21
 80011d4:	2a00      	cmp	r2, #0
 80011d6:	d0ea      	beq.n	80011ae <SPI_MASTER_lTransmitHandler+0x3a>
 80011d8:	7f1a      	ldrb	r2, [r3, #28]
 80011da:	3260      	adds	r2, #96	; 0x60
 80011dc:	f841 5022 	str.w	r5, [r1, r2, lsl #2]
 80011e0:	e7ec      	b.n	80011bc <SPI_MASTER_lTransmitHandler+0x48>
 80011e2:	6801      	ldr	r1, [r0, #0]
 80011e4:	f8d1 2114 	ldr.w	r2, [r1, #276]	; 0x114
 80011e8:	0514      	lsls	r4, r2, #20
 80011ea:	d525      	bpl.n	8001238 <SPI_MASTER_lTransmitHandler+0xc4>
 80011ec:	6840      	ldr	r0, [r0, #4]
 80011ee:	f890 207c 	ldrb.w	r2, [r0, #124]	; 0x7c
 80011f2:	bb1a      	cbnz	r2, 800123c <SPI_MASTER_lTransmitHandler+0xc8>
 80011f4:	6c0a      	ldr	r2, [r1, #64]	; 0x40
 80011f6:	f422 5200 	bic.w	r2, r2, #8192	; 0x2000
 80011fa:	640a      	str	r2, [r1, #64]	; 0x40
 80011fc:	6b8a      	ldr	r2, [r1, #56]	; 0x38
 80011fe:	0612      	lsls	r2, r2, #24
 8001200:	d4fc      	bmi.n	80011fc <SPI_MASTER_lTransmitHandler+0x88>
 8001202:	6f01      	ldr	r1, [r0, #112]	; 0x70
 8001204:	2200      	movs	r2, #0
 8001206:	f883 2020 	strb.w	r2, [r3, #32]
 800120a:	619a      	str	r2, [r3, #24]
 800120c:	b1a1      	cbz	r1, 8001238 <SPI_MASTER_lTransmitHandler+0xc4>
 800120e:	7fdb      	ldrb	r3, [r3, #31]
 8001210:	b993      	cbnz	r3, 8001238 <SPI_MASTER_lTransmitHandler+0xc4>
 8001212:	bc70      	pop	{r4, r5, r6}
 8001214:	4708      	bx	r1
 8001216:	f893 2021 	ldrb.w	r2, [r3, #33]	; 0x21
 800121a:	b9b2      	cbnz	r2, 800124a <SPI_MASTER_lTransmitHandler+0xd6>
 800121c:	689a      	ldr	r2, [r3, #8]
 800121e:	6999      	ldr	r1, [r3, #24]
 8001220:	2d02      	cmp	r5, #2
 8001222:	bf0c      	ite	eq
 8001224:	5a8c      	ldrheq	r4, [r1, r2]
 8001226:	5c8c      	ldrbne	r4, [r1, r2]
 8001228:	7f1a      	ldrb	r2, [r3, #28]
 800122a:	6801      	ldr	r1, [r0, #0]
 800122c:	3220      	adds	r2, #32
 800122e:	f841 4022 	str.w	r4, [r1, r2, lsl #2]
 8001232:	689a      	ldr	r2, [r3, #8]
 8001234:	4415      	add	r5, r2
 8001236:	609d      	str	r5, [r3, #8]
 8001238:	bc70      	pop	{r4, r5, r6}
 800123a:	4770      	bx	lr
 800123c:	f8d1 2108 	ldr.w	r2, [r1, #264]	; 0x108
 8001240:	f022 4280 	bic.w	r2, r2, #1073741824	; 0x40000000
 8001244:	f8c1 2108 	str.w	r2, [r1, #264]	; 0x108
 8001248:	e7d8      	b.n	80011fc <SPI_MASTER_lTransmitHandler+0x88>
 800124a:	7f1a      	ldrb	r2, [r3, #28]
 800124c:	6801      	ldr	r1, [r0, #0]
 800124e:	3220      	adds	r2, #32
 8001250:	f64f 70ff 	movw	r0, #65535	; 0xffff
 8001254:	f841 0022 	str.w	r0, [r1, r2, lsl #2]
 8001258:	e7eb      	b.n	8001232 <SPI_MASTER_lTransmitHandler+0xbe>
 800125a:	f64f 70ff 	movw	r0, #65535	; 0xffff
 800125e:	e010      	b.n	8001282 <SPI_MASTER_lTransmitHandler+0x10e>
 8001260:	689d      	ldr	r5, [r3, #8]
 8001262:	7f1a      	ldrb	r2, [r3, #28]
 8001264:	699e      	ldr	r6, [r3, #24]
 8001266:	3260      	adds	r2, #96	; 0x60
 8001268:	5b75      	ldrh	r5, [r6, r5]
 800126a:	f841 5022 	str.w	r5, [r1, r2, lsl #2]
 800126e:	689a      	ldr	r2, [r3, #8]
 8001270:	3202      	adds	r2, #2
 8001272:	609a      	str	r2, [r3, #8]
 8001274:	f8d1 2114 	ldr.w	r2, [r1, #276]	; 0x114
 8001278:	04d5      	lsls	r5, r2, #19
 800127a:	d4dd      	bmi.n	8001238 <SPI_MASTER_lTransmitHandler+0xc4>
 800127c:	689a      	ldr	r2, [r3, #8]
 800127e:	4294      	cmp	r4, r2
 8001280:	d9da      	bls.n	8001238 <SPI_MASTER_lTransmitHandler+0xc4>
 8001282:	f893 2021 	ldrb.w	r2, [r3, #33]	; 0x21
 8001286:	2a00      	cmp	r2, #0
 8001288:	d0ea      	beq.n	8001260 <SPI_MASTER_lTransmitHandler+0xec>
 800128a:	7f1a      	ldrb	r2, [r3, #28]
 800128c:	3260      	adds	r2, #96	; 0x60
 800128e:	f841 0022 	str.w	r0, [r1, r2, lsl #2]
 8001292:	e7ec      	b.n	800126e <SPI_MASTER_lTransmitHandler+0xfa>

08001294 <SPI_MASTER_lReceiveHandler>:
 8001294:	b570      	push	{r4, r5, r6, lr}
 8001296:	6884      	ldr	r4, [r0, #8]
 8001298:	6823      	ldr	r3, [r4, #0]
 800129a:	2b08      	cmp	r3, #8
 800129c:	4605      	mov	r5, r0
 800129e:	d91c      	bls.n	80012da <SPI_MASTER_lReceiveHandler+0x46>
 80012a0:	6843      	ldr	r3, [r0, #4]
 80012a2:	f893 307d 	ldrb.w	r3, [r3, #125]	; 0x7d
 80012a6:	2b00      	cmp	r3, #0
 80012a8:	d159      	bne.n	800135e <SPI_MASTER_lReceiveHandler+0xca>
 80012aa:	6828      	ldr	r0, [r5, #0]
 80012ac:	6d03      	ldr	r3, [r0, #80]	; 0x50
 80012ae:	0499      	lsls	r1, r3, #18
 80012b0:	f04f 0602 	mov.w	r6, #2
 80012b4:	d51c      	bpl.n	80012f0 <SPI_MASTER_lReceiveHandler+0x5c>
 80012b6:	6922      	ldr	r2, [r4, #16]
 80012b8:	68e3      	ldr	r3, [r4, #12]
 80012ba:	429a      	cmp	r2, r3
 80012bc:	d219      	bcs.n	80012f2 <SPI_MASTER_lReceiveHandler+0x5e>
 80012be:	f7ff fd31 	bl	8000d24 <XMC_SPI_CH_GetReceivedData>
 80012c2:	6923      	ldr	r3, [r4, #16]
 80012c4:	6962      	ldr	r2, [r4, #20]
 80012c6:	2e02      	cmp	r6, #2
 80012c8:	54d0      	strb	r0, [r2, r3]
 80012ca:	f000 80b3 	beq.w	8001434 <SPI_MASTER_lReceiveHandler+0x1a0>
 80012ce:	6922      	ldr	r2, [r4, #16]
 80012d0:	6828      	ldr	r0, [r5, #0]
 80012d2:	68e3      	ldr	r3, [r4, #12]
 80012d4:	4432      	add	r2, r6
 80012d6:	6122      	str	r2, [r4, #16]
 80012d8:	e00b      	b.n	80012f2 <SPI_MASTER_lReceiveHandler+0x5e>
 80012da:	6843      	ldr	r3, [r0, #4]
 80012dc:	f893 307d 	ldrb.w	r3, [r3, #125]	; 0x7d
 80012e0:	2b00      	cmp	r3, #0
 80012e2:	d159      	bne.n	8001398 <SPI_MASTER_lReceiveHandler+0x104>
 80012e4:	6828      	ldr	r0, [r5, #0]
 80012e6:	6d03      	ldr	r3, [r0, #80]	; 0x50
 80012e8:	0499      	lsls	r1, r3, #18
 80012ea:	f04f 0601 	mov.w	r6, #1
 80012ee:	d4e2      	bmi.n	80012b6 <SPI_MASTER_lReceiveHandler+0x22>
 80012f0:	68e3      	ldr	r3, [r4, #12]
 80012f2:	6d02      	ldr	r2, [r0, #80]	; 0x50
 80012f4:	0452      	lsls	r2, r2, #17
 80012f6:	d502      	bpl.n	80012fe <SPI_MASTER_lReceiveHandler+0x6a>
 80012f8:	6922      	ldr	r2, [r4, #16]
 80012fa:	429a      	cmp	r2, r3
 80012fc:	d323      	bcc.n	8001346 <SPI_MASTER_lReceiveHandler+0xb2>
 80012fe:	6922      	ldr	r2, [r4, #16]
 8001300:	429a      	cmp	r2, r3
 8001302:	d000      	beq.n	8001306 <SPI_MASTER_lReceiveHandler+0x72>
 8001304:	bd70      	pop	{r4, r5, r6, pc}
 8001306:	686b      	ldr	r3, [r5, #4]
 8001308:	f893 207d 	ldrb.w	r2, [r3, #125]	; 0x7d
 800130c:	b1a2      	cbz	r2, 8001338 <SPI_MASTER_lReceiveHandler+0xa4>
 800130e:	6829      	ldr	r1, [r5, #0]
 8001310:	f8d1 210c 	ldr.w	r2, [r1, #268]	; 0x10c
 8001314:	f022 42c0 	bic.w	r2, r2, #1610612736	; 0x60000000
 8001318:	f8c1 210c 	str.w	r2, [r1, #268]	; 0x10c
 800131c:	6f5a      	ldr	r2, [r3, #116]	; 0x74
 800131e:	2101      	movs	r1, #1
 8001320:	2300      	movs	r3, #0
 8001322:	77e3      	strb	r3, [r4, #31]
 8001324:	6163      	str	r3, [r4, #20]
 8001326:	f884 3021 	strb.w	r3, [r4, #33]	; 0x21
 800132a:	f884 1022 	strb.w	r1, [r4, #34]	; 0x22
 800132e:	2a00      	cmp	r2, #0
 8001330:	d0e8      	beq.n	8001304 <SPI_MASTER_lReceiveHandler+0x70>
 8001332:	e8bd 4070 	ldmia.w	sp!, {r4, r5, r6, lr}
 8001336:	4710      	bx	r2
 8001338:	6828      	ldr	r0, [r5, #0]
 800133a:	f44f 4140 	mov.w	r1, #49152	; 0xc000
 800133e:	f7ff fcfb 	bl	8000d38 <XMC_SPI_CH_DisableEvent>
 8001342:	686b      	ldr	r3, [r5, #4]
 8001344:	e7ea      	b.n	800131c <SPI_MASTER_lReceiveHandler+0x88>
 8001346:	f7ff fced 	bl	8000d24 <XMC_SPI_CH_GetReceivedData>
 800134a:	6923      	ldr	r3, [r4, #16]
 800134c:	6962      	ldr	r2, [r4, #20]
 800134e:	2e02      	cmp	r6, #2
 8001350:	54d0      	strb	r0, [r2, r3]
 8001352:	d075      	beq.n	8001440 <SPI_MASTER_lReceiveHandler+0x1ac>
 8001354:	6922      	ldr	r2, [r4, #16]
 8001356:	68e3      	ldr	r3, [r4, #12]
 8001358:	4416      	add	r6, r2
 800135a:	6126      	str	r6, [r4, #16]
 800135c:	e7cf      	b.n	80012fe <SPI_MASTER_lReceiveHandler+0x6a>
 800135e:	68e3      	ldr	r3, [r4, #12]
 8001360:	6828      	ldr	r0, [r5, #0]
 8001362:	e002      	b.n	800136a <SPI_MASTER_lReceiveHandler+0xd6>
 8001364:	6922      	ldr	r2, [r4, #16]
 8001366:	429a      	cmp	r2, r3
 8001368:	d030      	beq.n	80013cc <SPI_MASTER_lReceiveHandler+0x138>
 800136a:	f8d0 2114 	ldr.w	r2, [r0, #276]	; 0x114
 800136e:	0716      	lsls	r6, r2, #28
 8001370:	d43d      	bmi.n	80013ee <SPI_MASTER_lReceiveHandler+0x15a>
 8001372:	6922      	ldr	r2, [r4, #16]
 8001374:	429a      	cmp	r2, r3
 8001376:	d2f5      	bcs.n	8001364 <SPI_MASTER_lReceiveHandler+0xd0>
 8001378:	f7ff fcd4 	bl	8000d24 <XMC_SPI_CH_GetReceivedData>
 800137c:	6923      	ldr	r3, [r4, #16]
 800137e:	6962      	ldr	r2, [r4, #20]
 8001380:	54d0      	strb	r0, [r2, r3]
 8001382:	6923      	ldr	r3, [r4, #16]
 8001384:	6962      	ldr	r2, [r4, #20]
 8001386:	4413      	add	r3, r2
 8001388:	0a00      	lsrs	r0, r0, #8
 800138a:	7058      	strb	r0, [r3, #1]
 800138c:	6922      	ldr	r2, [r4, #16]
 800138e:	6828      	ldr	r0, [r5, #0]
 8001390:	68e3      	ldr	r3, [r4, #12]
 8001392:	3202      	adds	r2, #2
 8001394:	6122      	str	r2, [r4, #16]
 8001396:	e7e5      	b.n	8001364 <SPI_MASTER_lReceiveHandler+0xd0>
 8001398:	68e3      	ldr	r3, [r4, #12]
 800139a:	6828      	ldr	r0, [r5, #0]
 800139c:	e002      	b.n	80013a4 <SPI_MASTER_lReceiveHandler+0x110>
 800139e:	6922      	ldr	r2, [r4, #16]
 80013a0:	429a      	cmp	r2, r3
 80013a2:	d013      	beq.n	80013cc <SPI_MASTER_lReceiveHandler+0x138>
 80013a4:	f8d0 2114 	ldr.w	r2, [r0, #276]	; 0x114
 80013a8:	0712      	lsls	r2, r2, #28
 80013aa:	d420      	bmi.n	80013ee <SPI_MASTER_lReceiveHandler+0x15a>
 80013ac:	6922      	ldr	r2, [r4, #16]
 80013ae:	429a      	cmp	r2, r3
 80013b0:	d2f5      	bcs.n	800139e <SPI_MASTER_lReceiveHandler+0x10a>
 80013b2:	f7ff fcb7 	bl	8000d24 <XMC_SPI_CH_GetReceivedData>
 80013b6:	6923      	ldr	r3, [r4, #16]
 80013b8:	6962      	ldr	r2, [r4, #20]
 80013ba:	54d0      	strb	r0, [r2, r3]
 80013bc:	6922      	ldr	r2, [r4, #16]
 80013be:	6828      	ldr	r0, [r5, #0]
 80013c0:	68e3      	ldr	r3, [r4, #12]
 80013c2:	3201      	adds	r2, #1
 80013c4:	6122      	str	r2, [r4, #16]
 80013c6:	6922      	ldr	r2, [r4, #16]
 80013c8:	429a      	cmp	r2, r3
 80013ca:	d1eb      	bne.n	80013a4 <SPI_MASTER_lReceiveHandler+0x110>
 80013cc:	2100      	movs	r1, #0
 80013ce:	77e1      	strb	r1, [r4, #31]
 80013d0:	686a      	ldr	r2, [r5, #4]
 80013d2:	f884 1021 	strb.w	r1, [r4, #33]	; 0x21
 80013d6:	f8d0 110c 	ldr.w	r1, [r0, #268]	; 0x10c
 80013da:	6f56      	ldr	r6, [r2, #116]	; 0x74
 80013dc:	f021 41c0 	bic.w	r1, r1, #1610612736	; 0x60000000
 80013e0:	f8c0 110c 	str.w	r1, [r0, #268]	; 0x10c
 80013e4:	b126      	cbz	r6, 80013f0 <SPI_MASTER_lReceiveHandler+0x15c>
 80013e6:	47b0      	blx	r6
 80013e8:	68e3      	ldr	r3, [r4, #12]
 80013ea:	686a      	ldr	r2, [r5, #4]
 80013ec:	e000      	b.n	80013f0 <SPI_MASTER_lReceiveHandler+0x15c>
 80013ee:	686a      	ldr	r2, [r5, #4]
 80013f0:	f892 107d 	ldrb.w	r1, [r2, #125]	; 0x7d
 80013f4:	6922      	ldr	r2, [r4, #16]
 80013f6:	1e4e      	subs	r6, r1, #1
 80013f8:	2001      	movs	r0, #1
 80013fa:	fa00 f606 	lsl.w	r6, r0, r6
 80013fe:	1a9a      	subs	r2, r3, r2
 8001400:	42b2      	cmp	r2, r6
 8001402:	f63f af7f 	bhi.w	8001304 <SPI_MASTER_lReceiveHandler+0x70>
 8001406:	6922      	ldr	r2, [r4, #16]
 8001408:	2900      	cmp	r1, #0
 800140a:	f43f af7b 	beq.w	8001304 <SPI_MASTER_lReceiveHandler+0x70>
 800140e:	1a9b      	subs	r3, r3, r2
 8001410:	f43f af78 	beq.w	8001304 <SPI_MASTER_lReceiveHandler+0x70>
 8001414:	68aa      	ldr	r2, [r5, #8]
 8001416:	6812      	ldr	r2, [r2, #0]
 8001418:	4088      	lsls	r0, r1
 800141a:	2a08      	cmp	r2, #8
 800141c:	bf88      	it	hi
 800141e:	085b      	lsrhi	r3, r3, #1
 8001420:	0842      	lsrs	r2, r0, #1
 8001422:	429a      	cmp	r2, r3
 8001424:	6828      	ldr	r0, [r5, #0]
 8001426:	bf88      	it	hi
 8001428:	f103 32ff 	addhi.w	r2, r3, #4294967295
 800142c:	e8bd 4070 	ldmia.w	sp!, {r4, r5, r6, lr}
 8001430:	f7ff bd42 	b.w	8000eb8 <XMC_USIC_CH_RXFIFO_SetSizeTriggerLimit>
 8001434:	6923      	ldr	r3, [r4, #16]
 8001436:	6962      	ldr	r2, [r4, #20]
 8001438:	4413      	add	r3, r2
 800143a:	0a00      	lsrs	r0, r0, #8
 800143c:	7058      	strb	r0, [r3, #1]
 800143e:	e746      	b.n	80012ce <SPI_MASTER_lReceiveHandler+0x3a>
 8001440:	6923      	ldr	r3, [r4, #16]
 8001442:	6962      	ldr	r2, [r4, #20]
 8001444:	4413      	add	r3, r2
 8001446:	0a00      	lsrs	r0, r0, #8
 8001448:	7058      	strb	r0, [r3, #1]
 800144a:	e783      	b.n	8001354 <SPI_MASTER_lReceiveHandler+0xc0>

0800144c <SPI_MASTER_1_lInit>:
 800144c:	b510      	push	{r4, lr}
 800144e:	4c50      	ldr	r4, [pc, #320]	; (8001590 <SPI_MASTER_1_lInit+0x144>)
 8001450:	4950      	ldr	r1, [pc, #320]	; (8001594 <SPI_MASTER_1_lInit+0x148>)
 8001452:	4620      	mov	r0, r4
 8001454:	f7ff fc10 	bl	8000c78 <XMC_SPI_CH_Init>
 8001458:	6b63      	ldr	r3, [r4, #52]	; 0x34
 800145a:	484f      	ldr	r0, [pc, #316]	; (8001598 <SPI_MASTER_1_lInit+0x14c>)
 800145c:	4a4f      	ldr	r2, [pc, #316]	; (800159c <SPI_MASTER_1_lInit+0x150>)
 800145e:	f043 0301 	orr.w	r3, r3, #1
 8001462:	6363      	str	r3, [r4, #52]	; 0x34
 8001464:	6b63      	ldr	r3, [r4, #52]	; 0x34
 8001466:	f023 6370 	bic.w	r3, r3, #251658240	; 0xf000000
 800146a:	f043 63e0 	orr.w	r3, r3, #117440512	; 0x7000000
 800146e:	6363      	str	r3, [r4, #52]	; 0x34
 8001470:	6b63      	ldr	r3, [r4, #52]	; 0x34
 8001472:	f443 137c 	orr.w	r3, r3, #4128768	; 0x3f0000
 8001476:	6363      	str	r3, [r4, #52]	; 0x34
 8001478:	6963      	ldr	r3, [r4, #20]
 800147a:	f023 4350 	bic.w	r3, r3, #3489660928	; 0xd0000000
 800147e:	f043 4300 	orr.w	r3, r3, #2147483648	; 0x80000000
 8001482:	6163      	str	r3, [r4, #20]
 8001484:	6963      	ldr	r3, [r4, #20]
 8001486:	f423 43fe 	bic.w	r3, r3, #32512	; 0x7f00
 800148a:	f443 63a0 	orr.w	r3, r3, #1280	; 0x500
 800148e:	6163      	str	r3, [r4, #20]
 8001490:	2103      	movs	r1, #3
 8001492:	f7fe ff53 	bl	800033c <XMC_GPIO_Init>
 8001496:	69e3      	ldr	r3, [r4, #28]
 8001498:	4841      	ldr	r0, [pc, #260]	; (80015a0 <SPI_MASTER_1_lInit+0x154>)
 800149a:	4a42      	ldr	r2, [pc, #264]	; (80015a4 <SPI_MASTER_1_lInit+0x158>)
 800149c:	f023 0350 	bic.w	r3, r3, #80	; 0x50
 80014a0:	f043 0310 	orr.w	r3, r3, #16
 80014a4:	61e3      	str	r3, [r4, #28]
 80014a6:	69e3      	ldr	r3, [r4, #28]
 80014a8:	f023 0307 	bic.w	r3, r3, #7
 80014ac:	f043 0302 	orr.w	r3, r3, #2
 80014b0:	61e3      	str	r3, [r4, #28]
 80014b2:	6c23      	ldr	r3, [r4, #64]	; 0x40
 80014b4:	f023 030f 	bic.w	r3, r3, #15
 80014b8:	f043 0301 	orr.w	r3, r3, #1
 80014bc:	6423      	str	r3, [r4, #64]	; 0x40
 80014be:	210d      	movs	r1, #13
 80014c0:	f7fe ff3c 	bl	800033c <XMC_GPIO_Init>
 80014c4:	4834      	ldr	r0, [pc, #208]	; (8001598 <SPI_MASTER_1_lInit+0x14c>)
 80014c6:	4a38      	ldr	r2, [pc, #224]	; (80015a8 <SPI_MASTER_1_lInit+0x15c>)
 80014c8:	2102      	movs	r1, #2
 80014ca:	f7fe ff37 	bl	800033c <XMC_GPIO_Init>
 80014ce:	4a37      	ldr	r2, [pc, #220]	; (80015ac <SPI_MASTER_1_lInit+0x160>)
 80014d0:	4833      	ldr	r0, [pc, #204]	; (80015a0 <SPI_MASTER_1_lInit+0x154>)
 80014d2:	210b      	movs	r1, #11
 80014d4:	f7fe ff32 	bl	800033c <XMC_GPIO_Init>
 80014d8:	4620      	mov	r0, r4
 80014da:	f44f 2180 	mov.w	r1, #262144	; 0x40000
 80014de:	f7ff fbf1 	bl	8000cc4 <XMC_SPI_CH_EnableSlaveSelect>
 80014e2:	4620      	mov	r0, r4
 80014e4:	2110      	movs	r1, #16
 80014e6:	2200      	movs	r2, #0
 80014e8:	f7ff fcf8 	bl	8000edc <XMC_USIC_CH_SetInterruptNodePointer>
 80014ec:	2301      	movs	r3, #1
 80014ee:	4620      	mov	r0, r4
 80014f0:	2110      	movs	r1, #16
 80014f2:	2204      	movs	r2, #4
 80014f4:	f7ff fcb2 	bl	8000e5c <XMC_USIC_CH_TXFIFO_Configure>
 80014f8:	4620      	mov	r0, r4
 80014fa:	2110      	movs	r1, #16
 80014fc:	2203      	movs	r2, #3
 80014fe:	f7ff fcf9 	bl	8000ef4 <XMC_USIC_CH_TXFIFO_SetInterruptNodePointer>
 8001502:	2100      	movs	r1, #0
 8001504:	460b      	mov	r3, r1
 8001506:	4620      	mov	r0, r4
 8001508:	2204      	movs	r2, #4
 800150a:	f7ff fcbd 	bl	8000e88 <XMC_USIC_CH_RXFIFO_Configure>
 800150e:	4620      	mov	r0, r4
 8001510:	2110      	movs	r1, #16
 8001512:	2205      	movs	r2, #5
 8001514:	f7ff fcfc 	bl	8000f10 <XMC_USIC_CH_RXFIFO_SetInterruptNodePointer>
 8001518:	2113      	movs	r1, #19
 800151a:	4620      	mov	r0, r4
 800151c:	2205      	movs	r2, #5
 800151e:	f7ff fcf7 	bl	8000f10 <XMC_USIC_CH_RXFIFO_SetInterruptNodePointer>
 8001522:	4b23      	ldr	r3, [pc, #140]	; (80015b0 <SPI_MASTER_1_lInit+0x164>)
 8001524:	68db      	ldr	r3, [r3, #12]
 8001526:	f3c3 2302 	ubfx	r3, r3, #8, #3
 800152a:	f1c3 0107 	rsb	r1, r3, #7
 800152e:	2906      	cmp	r1, #6
 8001530:	bf28      	it	cs
 8001532:	2106      	movcs	r1, #6
 8001534:	b33b      	cbz	r3, 8001586 <SPI_MASTER_1_lInit+0x13a>
 8001536:	1e5a      	subs	r2, r3, #1
 8001538:	2301      	movs	r3, #1
 800153a:	408b      	lsls	r3, r1
 800153c:	3b01      	subs	r3, #1
 800153e:	4093      	lsls	r3, r2
 8001540:	009b      	lsls	r3, r3, #2
 8001542:	4a1c      	ldr	r2, [pc, #112]	; (80015b4 <SPI_MASTER_1_lInit+0x168>)
 8001544:	491a      	ldr	r1, [pc, #104]	; (80015b0 <SPI_MASTER_1_lInit+0x164>)
 8001546:	b2db      	uxtb	r3, r3
 8001548:	f44f 0000 	mov.w	r0, #8388608	; 0x800000
 800154c:	f882 3357 	strb.w	r3, [r2, #855]	; 0x357
 8001550:	6090      	str	r0, [r2, #8]
 8001552:	68cb      	ldr	r3, [r1, #12]
 8001554:	f3c3 2302 	ubfx	r3, r3, #8, #3
 8001558:	f1c3 0107 	rsb	r1, r3, #7
 800155c:	2906      	cmp	r1, #6
 800155e:	bf28      	it	cs
 8001560:	2106      	movcs	r1, #6
 8001562:	b193      	cbz	r3, 800158a <SPI_MASTER_1_lInit+0x13e>
 8001564:	1e5a      	subs	r2, r3, #1
 8001566:	2301      	movs	r3, #1
 8001568:	408b      	lsls	r3, r1
 800156a:	3b01      	subs	r3, #1
 800156c:	f003 033e 	and.w	r3, r3, #62	; 0x3e
 8001570:	4093      	lsls	r3, r2
 8001572:	009b      	lsls	r3, r3, #2
 8001574:	4a0f      	ldr	r2, [pc, #60]	; (80015b4 <SPI_MASTER_1_lInit+0x168>)
 8001576:	b2db      	uxtb	r3, r3
 8001578:	f04f 7100 	mov.w	r1, #33554432	; 0x2000000
 800157c:	f882 3359 	strb.w	r3, [r2, #857]	; 0x359
 8001580:	2000      	movs	r0, #0
 8001582:	6091      	str	r1, [r2, #8]
 8001584:	bd10      	pop	{r4, pc}
 8001586:	461a      	mov	r2, r3
 8001588:	e7d6      	b.n	8001538 <SPI_MASTER_1_lInit+0xec>
 800158a:	461a      	mov	r2, r3
 800158c:	e7eb      	b.n	8001566 <SPI_MASTER_1_lInit+0x11a>
 800158e:	bf00      	nop
 8001590:	40030200 	.word	0x40030200
 8001594:	1ffe8888 	.word	0x1ffe8888
 8001598:	48028600 	.word	0x48028600
 800159c:	1ffe8a64 	.word	0x1ffe8a64
 80015a0:	48028300 	.word	0x48028300
 80015a4:	1ffe8874 	.word	0x1ffe8874
 80015a8:	0800e364 	.word	0x0800e364
 80015ac:	0800e348 	.word	0x0800e348
 80015b0:	e000ed00 	.word	0xe000ed00
 80015b4:	e000e100 	.word	0xe000e100

080015b8 <USIC0_3_IRQHandler>:
 80015b8:	4801      	ldr	r0, [pc, #4]	; (80015c0 <USIC0_3_IRQHandler+0x8>)
 80015ba:	f7ff bddb 	b.w	8001174 <SPI_MASTER_lTransmitHandler>
 80015be:	bf00      	nop
 80015c0:	1ffe8844 	.word	0x1ffe8844

080015c4 <USIC0_5_IRQHandler>:
 80015c4:	4801      	ldr	r0, [pc, #4]	; (80015cc <USIC0_5_IRQHandler+0x8>)
 80015c6:	f7ff be65 	b.w	8001294 <SPI_MASTER_lReceiveHandler>
 80015ca:	bf00      	nop
 80015cc:	1ffe8844 	.word	0x1ffe8844

080015d0 <PWM_CCU8_Init>:
 80015d0:	b5f0      	push	{r4, r5, r6, r7, lr}
 80015d2:	7f05      	ldrb	r5, [r0, #28]
 80015d4:	b083      	sub	sp, #12
 80015d6:	b115      	cbz	r5, 80015de <PWM_CCU8_Init+0xe>
 80015d8:	2002      	movs	r0, #2
 80015da:	b003      	add	sp, #12
 80015dc:	bdf0      	pop	{r4, r5, r6, r7, pc}
 80015de:	6803      	ldr	r3, [r0, #0]
 80015e0:	4604      	mov	r4, r0
 80015e2:	f8d3 008c 	ldr.w	r0, [r3, #140]	; 0x8c
 80015e6:	f000 fc13 	bl	8001e10 <GLOBAL_CCU8_Init>
 80015ea:	4606      	mov	r6, r0
 80015ec:	b118      	cbz	r0, 80015f6 <PWM_CCU8_Init+0x26>
 80015ee:	2001      	movs	r0, #1
 80015f0:	7725      	strb	r5, [r4, #28]
 80015f2:	b003      	add	sp, #12
 80015f4:	bdf0      	pop	{r4, r5, r6, r7, pc}
 80015f6:	6823      	ldr	r3, [r4, #0]
 80015f8:	68a0      	ldr	r0, [r4, #8]
 80015fa:	6c99      	ldr	r1, [r3, #72]	; 0x48
 80015fc:	f7ff f9f4 	bl	80009e8 <XMC_CCU8_SLICE_CompareInit>
 8001600:	6823      	ldr	r3, [r4, #0]
 8001602:	68a0      	ldr	r0, [r4, #8]
 8001604:	8859      	ldrh	r1, [r3, #2]
 8001606:	f7ff fafb 	bl	8000c00 <XMC_CCU8_SLICE_SetTimerPeriodMatch>
 800160a:	6823      	ldr	r3, [r4, #0]
 800160c:	68a0      	ldr	r0, [r4, #8]
 800160e:	889a      	ldrh	r2, [r3, #4]
 8001610:	4631      	mov	r1, r6
 8001612:	f7ff faf7 	bl	8000c04 <XMC_CCU8_SLICE_SetTimerCompareMatch>
 8001616:	6823      	ldr	r3, [r4, #0]
 8001618:	68a0      	ldr	r0, [r4, #8]
 800161a:	88da      	ldrh	r2, [r3, #6]
 800161c:	2101      	movs	r1, #1
 800161e:	f7ff faf1 	bl	8000c04 <XMC_CCU8_SLICE_SetTimerCompareMatch>
 8001622:	6822      	ldr	r2, [r4, #0]
 8001624:	6c93      	ldr	r3, [r2, #72]	; 0x48
 8001626:	78db      	ldrb	r3, [r3, #3]
 8001628:	f013 0f06 	tst.w	r3, #6
 800162c:	f040 8166 	bne.w	80018fc <PWM_CCU8_Init+0x32c>
 8001630:	68a0      	ldr	r0, [r4, #8]
 8001632:	f892 5044 	ldrb.w	r5, [r2, #68]	; 0x44
 8001636:	f8d0 30b4 	ldr.w	r3, [r0, #180]	; 0xb4
 800163a:	6c11      	ldr	r1, [r2, #64]	; 0x40
 800163c:	6866      	ldr	r6, [r4, #4]
 800163e:	f8d4 e010 	ldr.w	lr, [r4, #16]
 8001642:	6967      	ldr	r7, [r4, #20]
 8001644:	006d      	lsls	r5, r5, #1
 8001646:	f023 020c 	bic.w	r2, r3, #12
 800164a:	f005 0306 	and.w	r3, r5, #6
 800164e:	4313      	orrs	r3, r2
 8001650:	f8c0 30b4 	str.w	r3, [r0, #180]	; 0xb4
 8001654:	f8c6 e010 	str.w	lr, [r6, #16]
 8001658:	6137      	str	r7, [r6, #16]
 800165a:	f7ff faf5 	bl	8000c48 <XMC_CCU8_SLICE_DeadTimeInit>
 800165e:	6823      	ldr	r3, [r4, #0]
 8001660:	68a0      	ldr	r0, [r4, #8]
 8001662:	69da      	ldr	r2, [r3, #28]
 8001664:	2101      	movs	r1, #1
 8001666:	f7ff fa8f 	bl	8000b88 <XMC_CCU8_SLICE_ConfigureEvent>
 800166a:	6823      	ldr	r3, [r4, #0]
 800166c:	68a0      	ldr	r0, [r4, #8]
 800166e:	6a1a      	ldr	r2, [r3, #32]
 8001670:	2102      	movs	r1, #2
 8001672:	f7ff fa89 	bl	8000b88 <XMC_CCU8_SLICE_ConfigureEvent>
 8001676:	6823      	ldr	r3, [r4, #0]
 8001678:	68a0      	ldr	r0, [r4, #8]
 800167a:	6a5a      	ldr	r2, [r3, #36]	; 0x24
 800167c:	2103      	movs	r1, #3
 800167e:	f7ff fa83 	bl	8000b88 <XMC_CCU8_SLICE_ConfigureEvent>
 8001682:	6823      	ldr	r3, [r4, #0]
 8001684:	f893 1028 	ldrb.w	r1, [r3, #40]	; 0x28
 8001688:	2900      	cmp	r1, #0
 800168a:	f040 8130 	bne.w	80018ee <PWM_CCU8_Init+0x31e>
 800168e:	f893 102a 	ldrb.w	r1, [r3, #42]	; 0x2a
 8001692:	2900      	cmp	r1, #0
 8001694:	f040 8124 	bne.w	80018e0 <PWM_CCU8_Init+0x310>
 8001698:	f893 102c 	ldrb.w	r1, [r3, #44]	; 0x2c
 800169c:	2900      	cmp	r1, #0
 800169e:	f040 811a 	bne.w	80018d6 <PWM_CCU8_Init+0x306>
 80016a2:	f893 102d 	ldrb.w	r1, [r3, #45]	; 0x2d
 80016a6:	2900      	cmp	r1, #0
 80016a8:	f040 8110 	bne.w	80018cc <PWM_CCU8_Init+0x2fc>
 80016ac:	f893 102e 	ldrb.w	r1, [r3, #46]	; 0x2e
 80016b0:	2900      	cmp	r1, #0
 80016b2:	f040 8106 	bne.w	80018c2 <PWM_CCU8_Init+0x2f2>
 80016b6:	f893 102f 	ldrb.w	r1, [r3, #47]	; 0x2f
 80016ba:	2900      	cmp	r1, #0
 80016bc:	f040 80f6 	bne.w	80018ac <PWM_CCU8_Init+0x2dc>
 80016c0:	f893 1031 	ldrb.w	r1, [r3, #49]	; 0x31
 80016c4:	2900      	cmp	r1, #0
 80016c6:	f040 80e6 	bne.w	8001896 <PWM_CCU8_Init+0x2c6>
 80016ca:	f893 2037 	ldrb.w	r2, [r3, #55]	; 0x37
 80016ce:	68a0      	ldr	r0, [r4, #8]
 80016d0:	2a03      	cmp	r2, #3
 80016d2:	f000 8119 	beq.w	8001908 <PWM_CCU8_Init+0x338>
 80016d6:	8e9a      	ldrh	r2, [r3, #52]	; 0x34
 80016d8:	b142      	cbz	r2, 80016ec <PWM_CCU8_Init+0x11c>
 80016da:	6a19      	ldr	r1, [r3, #32]
 80016dc:	6a5a      	ldr	r2, [r3, #36]	; 0x24
 80016de:	f7ff fa25 	bl	8000b2c <XMC_CCU8_SLICE_ConfigureStatusBitOverrideEvent>
 80016e2:	68a0      	ldr	r0, [r4, #8]
 80016e4:	f7ff fa08 	bl	8000af8 <XMC_CCU8_SLICE_StatusBitOverrideConfig>
 80016e8:	6823      	ldr	r3, [r4, #0]
 80016ea:	68a0      	ldr	r0, [r4, #8]
 80016ec:	7c5a      	ldrb	r2, [r3, #17]
 80016ee:	2100      	movs	r1, #0
 80016f0:	f7ff fa8e 	bl	8000c10 <XMC_CCU8_SLICE_SetInterruptNode>
 80016f4:	6823      	ldr	r3, [r4, #0]
 80016f6:	68a0      	ldr	r0, [r4, #8]
 80016f8:	7c9a      	ldrb	r2, [r3, #18]
 80016fa:	2102      	movs	r1, #2
 80016fc:	f7ff fa88 	bl	8000c10 <XMC_CCU8_SLICE_SetInterruptNode>
 8001700:	6823      	ldr	r3, [r4, #0]
 8001702:	68a0      	ldr	r0, [r4, #8]
 8001704:	7cda      	ldrb	r2, [r3, #19]
 8001706:	2103      	movs	r1, #3
 8001708:	f7ff fa82 	bl	8000c10 <XMC_CCU8_SLICE_SetInterruptNode>
 800170c:	6823      	ldr	r3, [r4, #0]
 800170e:	68a0      	ldr	r0, [r4, #8]
 8001710:	7d1a      	ldrb	r2, [r3, #20]
 8001712:	2104      	movs	r1, #4
 8001714:	f7ff fa7c 	bl	8000c10 <XMC_CCU8_SLICE_SetInterruptNode>
 8001718:	6823      	ldr	r3, [r4, #0]
 800171a:	68a0      	ldr	r0, [r4, #8]
 800171c:	7d5a      	ldrb	r2, [r3, #21]
 800171e:	2105      	movs	r1, #5
 8001720:	f7ff fa76 	bl	8000c10 <XMC_CCU8_SLICE_SetInterruptNode>
 8001724:	6823      	ldr	r3, [r4, #0]
 8001726:	68a0      	ldr	r0, [r4, #8]
 8001728:	7d9a      	ldrb	r2, [r3, #22]
 800172a:	2101      	movs	r1, #1
 800172c:	f7ff fa70 	bl	8000c10 <XMC_CCU8_SLICE_SetInterruptNode>
 8001730:	6823      	ldr	r3, [r4, #0]
 8001732:	68a0      	ldr	r0, [r4, #8]
 8001734:	7dda      	ldrb	r2, [r3, #23]
 8001736:	2108      	movs	r1, #8
 8001738:	f7ff fa6a 	bl	8000c10 <XMC_CCU8_SLICE_SetInterruptNode>
 800173c:	6823      	ldr	r3, [r4, #0]
 800173e:	68a0      	ldr	r0, [r4, #8]
 8001740:	7e1a      	ldrb	r2, [r3, #24]
 8001742:	2109      	movs	r1, #9
 8001744:	f7ff fa64 	bl	8000c10 <XMC_CCU8_SLICE_SetInterruptNode>
 8001748:	6823      	ldr	r3, [r4, #0]
 800174a:	68a0      	ldr	r0, [r4, #8]
 800174c:	7e5a      	ldrb	r2, [r3, #25]
 800174e:	210a      	movs	r1, #10
 8001750:	f7ff fa5e 	bl	8000c10 <XMC_CCU8_SLICE_SetInterruptNode>
 8001754:	6823      	ldr	r3, [r4, #0]
 8001756:	7a1a      	ldrb	r2, [r3, #8]
 8001758:	b132      	cbz	r2, 8001768 <PWM_CCU8_Init+0x198>
 800175a:	68a1      	ldr	r1, [r4, #8]
 800175c:	f8d1 20a4 	ldr.w	r2, [r1, #164]	; 0xa4
 8001760:	f042 0201 	orr.w	r2, r2, #1
 8001764:	f8c1 20a4 	str.w	r2, [r1, #164]	; 0xa4
 8001768:	7a5a      	ldrb	r2, [r3, #9]
 800176a:	b132      	cbz	r2, 800177a <PWM_CCU8_Init+0x1aa>
 800176c:	68a1      	ldr	r1, [r4, #8]
 800176e:	f8d1 20a4 	ldr.w	r2, [r1, #164]	; 0xa4
 8001772:	f042 0204 	orr.w	r2, r2, #4
 8001776:	f8c1 20a4 	str.w	r2, [r1, #164]	; 0xa4
 800177a:	7a9a      	ldrb	r2, [r3, #10]
 800177c:	b132      	cbz	r2, 800178c <PWM_CCU8_Init+0x1bc>
 800177e:	68a1      	ldr	r1, [r4, #8]
 8001780:	f8d1 20a4 	ldr.w	r2, [r1, #164]	; 0xa4
 8001784:	f042 0208 	orr.w	r2, r2, #8
 8001788:	f8c1 20a4 	str.w	r2, [r1, #164]	; 0xa4
 800178c:	7ada      	ldrb	r2, [r3, #11]
 800178e:	b132      	cbz	r2, 800179e <PWM_CCU8_Init+0x1ce>
 8001790:	68a1      	ldr	r1, [r4, #8]
 8001792:	f8d1 20a4 	ldr.w	r2, [r1, #164]	; 0xa4
 8001796:	f042 0210 	orr.w	r2, r2, #16
 800179a:	f8c1 20a4 	str.w	r2, [r1, #164]	; 0xa4
 800179e:	7b1a      	ldrb	r2, [r3, #12]
 80017a0:	b132      	cbz	r2, 80017b0 <PWM_CCU8_Init+0x1e0>
 80017a2:	68a1      	ldr	r1, [r4, #8]
 80017a4:	f8d1 20a4 	ldr.w	r2, [r1, #164]	; 0xa4
 80017a8:	f042 0220 	orr.w	r2, r2, #32
 80017ac:	f8c1 20a4 	str.w	r2, [r1, #164]	; 0xa4
 80017b0:	7b5a      	ldrb	r2, [r3, #13]
 80017b2:	b132      	cbz	r2, 80017c2 <PWM_CCU8_Init+0x1f2>
 80017b4:	68a1      	ldr	r1, [r4, #8]
 80017b6:	f8d1 20a4 	ldr.w	r2, [r1, #164]	; 0xa4
 80017ba:	f042 0202 	orr.w	r2, r2, #2
 80017be:	f8c1 20a4 	str.w	r2, [r1, #164]	; 0xa4
 80017c2:	7b9a      	ldrb	r2, [r3, #14]
 80017c4:	b132      	cbz	r2, 80017d4 <PWM_CCU8_Init+0x204>
 80017c6:	68a1      	ldr	r1, [r4, #8]
 80017c8:	f8d1 20a4 	ldr.w	r2, [r1, #164]	; 0xa4
 80017cc:	f442 7280 	orr.w	r2, r2, #256	; 0x100
 80017d0:	f8c1 20a4 	str.w	r2, [r1, #164]	; 0xa4
 80017d4:	7bda      	ldrb	r2, [r3, #15]
 80017d6:	b132      	cbz	r2, 80017e6 <PWM_CCU8_Init+0x216>
 80017d8:	68a1      	ldr	r1, [r4, #8]
 80017da:	f8d1 20a4 	ldr.w	r2, [r1, #164]	; 0xa4
 80017de:	f442 7200 	orr.w	r2, r2, #512	; 0x200
 80017e2:	f8c1 20a4 	str.w	r2, [r1, #164]	; 0xa4
 80017e6:	7c1a      	ldrb	r2, [r3, #16]
 80017e8:	b132      	cbz	r2, 80017f8 <PWM_CCU8_Init+0x228>
 80017ea:	68a1      	ldr	r1, [r4, #8]
 80017ec:	f8d1 20a4 	ldr.w	r2, [r1, #164]	; 0xa4
 80017f0:	f442 6280 	orr.w	r2, r2, #1024	; 0x400
 80017f4:	f8c1 20a4 	str.w	r2, [r1, #164]	; 0xa4
 80017f8:	f893 204c 	ldrb.w	r2, [r3, #76]	; 0x4c
 80017fc:	2a00      	cmp	r2, #0
 80017fe:	d142      	bne.n	8001886 <PWM_CCU8_Init+0x2b6>
 8001800:	461d      	mov	r5, r3
 8001802:	f895 305c 	ldrb.w	r3, [r5, #92]	; 0x5c
 8001806:	2b00      	cmp	r3, #0
 8001808:	d135      	bne.n	8001876 <PWM_CCU8_Init+0x2a6>
 800180a:	f895 306c 	ldrb.w	r3, [r5, #108]	; 0x6c
 800180e:	bb53      	cbnz	r3, 8001866 <PWM_CCU8_Init+0x296>
 8001810:	f895 307c 	ldrb.w	r3, [r5, #124]	; 0x7c
 8001814:	b143      	cbz	r3, 8001828 <PWM_CCU8_Init+0x258>
 8001816:	f8d5 0080 	ldr.w	r0, [r5, #128]	; 0x80
 800181a:	f895 1084 	ldrb.w	r1, [r5, #132]	; 0x84
 800181e:	f8d5 2088 	ldr.w	r2, [r5, #136]	; 0x88
 8001822:	f7fe fd8b 	bl	800033c <XMC_GPIO_Init>
 8001826:	6825      	ldr	r5, [r4, #0]
 8001828:	6caa      	ldr	r2, [r5, #72]	; 0x48
 800182a:	f8d5 308c 	ldr.w	r3, [r5, #140]	; 0x8c
 800182e:	7b12      	ldrb	r2, [r2, #12]
 8001830:	681b      	ldr	r3, [r3, #0]
 8001832:	7828      	ldrb	r0, [r5, #0]
 8001834:	f002 020f 	and.w	r2, r2, #15
 8001838:	40d3      	lsrs	r3, r2
 800183a:	2201      	movs	r2, #1
 800183c:	6223      	str	r3, [r4, #32]
 800183e:	7722      	strb	r2, [r4, #28]
 8001840:	2800      	cmp	r0, #0
 8001842:	f43f aeca 	beq.w	80015da <PWM_CCU8_Init+0xa>
 8001846:	6861      	ldr	r1, [r4, #4]
 8001848:	7b66      	ldrb	r6, [r4, #13]
 800184a:	68cb      	ldr	r3, [r1, #12]
 800184c:	f895 0028 	ldrb.w	r0, [r5, #40]	; 0x28
 8001850:	fa02 f506 	lsl.w	r5, r2, r6
 8001854:	432b      	orrs	r3, r5
 8001856:	60cb      	str	r3, [r1, #12]
 8001858:	b908      	cbnz	r0, 800185e <PWM_CCU8_Init+0x28e>
 800185a:	68a3      	ldr	r3, [r4, #8]
 800185c:	60da      	str	r2, [r3, #12]
 800185e:	2302      	movs	r3, #2
 8001860:	7723      	strb	r3, [r4, #28]
 8001862:	2000      	movs	r0, #0
 8001864:	e6b9      	b.n	80015da <PWM_CCU8_Init+0xa>
 8001866:	6f28      	ldr	r0, [r5, #112]	; 0x70
 8001868:	f895 1074 	ldrb.w	r1, [r5, #116]	; 0x74
 800186c:	6faa      	ldr	r2, [r5, #120]	; 0x78
 800186e:	f7fe fd65 	bl	800033c <XMC_GPIO_Init>
 8001872:	6825      	ldr	r5, [r4, #0]
 8001874:	e7cc      	b.n	8001810 <PWM_CCU8_Init+0x240>
 8001876:	6e28      	ldr	r0, [r5, #96]	; 0x60
 8001878:	f895 1064 	ldrb.w	r1, [r5, #100]	; 0x64
 800187c:	6eaa      	ldr	r2, [r5, #104]	; 0x68
 800187e:	f7fe fd5d 	bl	800033c <XMC_GPIO_Init>
 8001882:	6825      	ldr	r5, [r4, #0]
 8001884:	e7c1      	b.n	800180a <PWM_CCU8_Init+0x23a>
 8001886:	6d18      	ldr	r0, [r3, #80]	; 0x50
 8001888:	f893 1054 	ldrb.w	r1, [r3, #84]	; 0x54
 800188c:	6d9a      	ldr	r2, [r3, #88]	; 0x58
 800188e:	f7fe fd55 	bl	800033c <XMC_GPIO_Init>
 8001892:	6825      	ldr	r5, [r4, #0]
 8001894:	e7b5      	b.n	8001802 <PWM_CCU8_Init+0x232>
 8001896:	f893 2032 	ldrb.w	r2, [r3, #50]	; 0x32
 800189a:	f893 3033 	ldrb.w	r3, [r3, #51]	; 0x33
 800189e:	68a0      	ldr	r0, [r4, #8]
 80018a0:	9300      	str	r3, [sp, #0]
 80018a2:	2303      	movs	r3, #3
 80018a4:	f7ff f8f2 	bl	8000a8c <XMC_CCU8_SLICE_ModulationConfig>
 80018a8:	6823      	ldr	r3, [r4, #0]
 80018aa:	e70e      	b.n	80016ca <PWM_CCU8_Init+0xfa>
 80018ac:	68a0      	ldr	r0, [r4, #8]
 80018ae:	f7ff f8dd 	bl	8000a6c <XMC_CCU8_SLICE_LoadConfig>
 80018b2:	6823      	ldr	r3, [r4, #0]
 80018b4:	68a0      	ldr	r0, [r4, #8]
 80018b6:	f893 1030 	ldrb.w	r1, [r3, #48]	; 0x30
 80018ba:	f7ff f8df 	bl	8000a7c <XMC_CCU8_SLICE_LoadSelector>
 80018be:	6823      	ldr	r3, [r4, #0]
 80018c0:	e6fe      	b.n	80016c0 <PWM_CCU8_Init+0xf0>
 80018c2:	68a0      	ldr	r0, [r4, #8]
 80018c4:	f7ff f900 	bl	8000ac8 <XMC_CCU8_SLICE_CountConfig>
 80018c8:	6823      	ldr	r3, [r4, #0]
 80018ca:	e6f4      	b.n	80016b6 <PWM_CCU8_Init+0xe6>
 80018cc:	68a0      	ldr	r0, [r4, #8]
 80018ce:	f7ff f903 	bl	8000ad8 <XMC_CCU8_SLICE_GateConfig>
 80018d2:	6823      	ldr	r3, [r4, #0]
 80018d4:	e6ea      	b.n	80016ac <PWM_CCU8_Init+0xdc>
 80018d6:	68a0      	ldr	r0, [r4, #8]
 80018d8:	f7ff f906 	bl	8000ae8 <XMC_CCU8_SLICE_DirectionConfig>
 80018dc:	6823      	ldr	r3, [r4, #0]
 80018de:	e6e0      	b.n	80016a2 <PWM_CCU8_Init+0xd2>
 80018e0:	f893 202b 	ldrb.w	r2, [r3, #43]	; 0x2b
 80018e4:	68a0      	ldr	r0, [r4, #8]
 80018e6:	f7ff f8b3 	bl	8000a50 <XMC_CCU8_SLICE_StopConfig>
 80018ea:	6823      	ldr	r3, [r4, #0]
 80018ec:	e6d4      	b.n	8001698 <PWM_CCU8_Init+0xc8>
 80018ee:	f893 2029 	ldrb.w	r2, [r3, #41]	; 0x29
 80018f2:	68a0      	ldr	r0, [r4, #8]
 80018f4:	f7ff f89e 	bl	8000a34 <XMC_CCU8_SLICE_StartConfig>
 80018f8:	6823      	ldr	r3, [r4, #0]
 80018fa:	e6c8      	b.n	800168e <PWM_CCU8_Init+0xbe>
 80018fc:	6bd1      	ldr	r1, [r2, #60]	; 0x3c
 80018fe:	6860      	ldr	r0, [r4, #4]
 8001900:	f7ff f890 	bl	8000a24 <XMC_CCU8_SetMultiChannelShadowTransferMode>
 8001904:	6822      	ldr	r2, [r4, #0]
 8001906:	e693      	b.n	8001630 <PWM_CCU8_Init+0x60>
 8001908:	f893 2038 	ldrb.w	r2, [r3, #56]	; 0x38
 800190c:	f893 1039 	ldrb.w	r1, [r3, #57]	; 0x39
 8001910:	f7ff f8f8 	bl	8000b04 <XMC_CCU8_SLICE_TrapConfig>
 8001914:	6823      	ldr	r3, [r4, #0]
 8001916:	68a0      	ldr	r0, [r4, #8]
 8001918:	f893 2036 	ldrb.w	r2, [r3, #54]	; 0x36
 800191c:	2a00      	cmp	r2, #0
 800191e:	f43f aeda 	beq.w	80016d6 <PWM_CCU8_Init+0x106>
 8001922:	6942      	ldr	r2, [r0, #20]
 8001924:	f442 12f0 	orr.w	r2, r2, #1966080	; 0x1e0000
 8001928:	6142      	str	r2, [r0, #20]
 800192a:	e6d4      	b.n	80016d6 <PWM_CCU8_Init+0x106>

0800192c <PWM_CCU8_Start>:
 800192c:	7f03      	ldrb	r3, [r0, #28]
 800192e:	f003 03fd 	and.w	r3, r3, #253	; 0xfd
 8001932:	2b01      	cmp	r3, #1
 8001934:	d001      	beq.n	800193a <PWM_CCU8_Start+0xe>
 8001936:	2001      	movs	r0, #1
 8001938:	4770      	bx	lr
 800193a:	b430      	push	{r4, r5}
 800193c:	6841      	ldr	r1, [r0, #4]
 800193e:	7b45      	ldrb	r5, [r0, #13]
 8001940:	6804      	ldr	r4, [r0, #0]
 8001942:	68ca      	ldr	r2, [r1, #12]
 8001944:	f894 4028 	ldrb.w	r4, [r4, #40]	; 0x28
 8001948:	fa03 f505 	lsl.w	r5, r3, r5
 800194c:	432a      	orrs	r2, r5
 800194e:	60ca      	str	r2, [r1, #12]
 8001950:	b90c      	cbnz	r4, 8001956 <PWM_CCU8_Start+0x2a>
 8001952:	6882      	ldr	r2, [r0, #8]
 8001954:	60d3      	str	r3, [r2, #12]
 8001956:	2302      	movs	r3, #2
 8001958:	7703      	strb	r3, [r0, #28]
 800195a:	bc30      	pop	{r4, r5}
 800195c:	2000      	movs	r0, #0
 800195e:	4770      	bx	lr

08001960 <PWM_CCU8_SetDutyCycleSymmetric>:
 8001960:	b5f8      	push	{r3, r4, r5, r6, r7, lr}
 8001962:	7f03      	ldrb	r3, [r0, #28]
 8001964:	b11b      	cbz	r3, 800196e <PWM_CCU8_SetDutyCycleSymmetric+0xe>
 8001966:	f242 7310 	movw	r3, #10000	; 0x2710
 800196a:	429a      	cmp	r2, r3
 800196c:	d901      	bls.n	8001972 <PWM_CCU8_SetDutyCycleSymmetric+0x12>
 800196e:	2001      	movs	r0, #1
 8001970:	bdf8      	pop	{r3, r4, r5, r6, r7, pc}
 8001972:	4604      	mov	r4, r0
 8001974:	6880      	ldr	r0, [r0, #8]
 8001976:	4f0d      	ldr	r7, [pc, #52]	; (80019ac <PWM_CCU8_SetDutyCycleSymmetric+0x4c>)
 8001978:	4615      	mov	r5, r2
 800197a:	6b02      	ldr	r2, [r0, #48]	; 0x30
 800197c:	f5c5 531c 	rsb	r3, r5, #9984	; 0x2700
 8001980:	b292      	uxth	r2, r2
 8001982:	3310      	adds	r3, #16
 8001984:	fb02 3303 	mla	r3, r2, r3, r3
 8001988:	fba7 3203 	umull	r3, r2, r7, r3
 800198c:	f3c2 324f 	ubfx	r2, r2, #13, #16
 8001990:	460e      	mov	r6, r1
 8001992:	f7ff f937 	bl	8000c04 <XMC_CCU8_SLICE_SetTimerCompareMatch>
 8001996:	6863      	ldr	r3, [r4, #4]
 8001998:	6922      	ldr	r2, [r4, #16]
 800199a:	611a      	str	r2, [r3, #16]
 800199c:	b116      	cbz	r6, 80019a4 <PWM_CCU8_SetDutyCycleSymmetric+0x44>
 800199e:	62a5      	str	r5, [r4, #40]	; 0x28
 80019a0:	2000      	movs	r0, #0
 80019a2:	bdf8      	pop	{r3, r4, r5, r6, r7, pc}
 80019a4:	6265      	str	r5, [r4, #36]	; 0x24
 80019a6:	4630      	mov	r0, r6
 80019a8:	bdf8      	pop	{r3, r4, r5, r6, r7, pc}
 80019aa:	bf00      	nop
 80019ac:	d1b71759 	.word	0xd1b71759

080019b0 <INTERRUPT_Init>:
 80019b0:	4b20      	ldr	r3, [pc, #128]	; (8001a34 <INTERRUPT_Init+0x84>)
 80019b2:	b4f0      	push	{r4, r5, r6, r7}
 80019b4:	68db      	ldr	r3, [r3, #12]
 80019b6:	7804      	ldrb	r4, [r0, #0]
 80019b8:	7841      	ldrb	r1, [r0, #1]
 80019ba:	7887      	ldrb	r7, [r0, #2]
 80019bc:	f3c3 2302 	ubfx	r3, r3, #8, #3
 80019c0:	f1c3 0507 	rsb	r5, r3, #7
 80019c4:	2d06      	cmp	r5, #6
 80019c6:	bf28      	it	cs
 80019c8:	2506      	movcs	r5, #6
 80019ca:	b34b      	cbz	r3, 8001a20 <INTERRUPT_Init+0x70>
 80019cc:	1e5e      	subs	r6, r3, #1
 80019ce:	2201      	movs	r2, #1
 80019d0:	40b2      	lsls	r2, r6
 80019d2:	3a01      	subs	r2, #1
 80019d4:	ea02 0307 	and.w	r3, r2, r7
 80019d8:	2201      	movs	r2, #1
 80019da:	40aa      	lsls	r2, r5
 80019dc:	3a01      	subs	r2, #1
 80019de:	400a      	ands	r2, r1
 80019e0:	b261      	sxtb	r1, r4
 80019e2:	40b2      	lsls	r2, r6
 80019e4:	2900      	cmp	r1, #0
 80019e6:	ea43 0302 	orr.w	r3, r3, r2
 80019ea:	db1b      	blt.n	8001a24 <INTERRUPT_Init+0x74>
 80019ec:	f101 4260 	add.w	r2, r1, #3758096384	; 0xe0000000
 80019f0:	f502 4261 	add.w	r2, r2, #57600	; 0xe100
 80019f4:	009b      	lsls	r3, r3, #2
 80019f6:	b2db      	uxtb	r3, r3
 80019f8:	f882 3300 	strb.w	r3, [r2, #768]	; 0x300
 80019fc:	78c3      	ldrb	r3, [r0, #3]
 80019fe:	b163      	cbz	r3, 8001a1a <INTERRUPT_Init+0x6a>
 8001a00:	7802      	ldrb	r2, [r0, #0]
 8001a02:	b253      	sxtb	r3, r2
 8001a04:	2b00      	cmp	r3, #0
 8001a06:	db08      	blt.n	8001a1a <INTERRUPT_Init+0x6a>
 8001a08:	f002 021f 	and.w	r2, r2, #31
 8001a0c:	095b      	lsrs	r3, r3, #5
 8001a0e:	2101      	movs	r1, #1
 8001a10:	4809      	ldr	r0, [pc, #36]	; (8001a38 <INTERRUPT_Init+0x88>)
 8001a12:	fa01 f202 	lsl.w	r2, r1, r2
 8001a16:	f840 2023 	str.w	r2, [r0, r3, lsl #2]
 8001a1a:	2000      	movs	r0, #0
 8001a1c:	bcf0      	pop	{r4, r5, r6, r7}
 8001a1e:	4770      	bx	lr
 8001a20:	461e      	mov	r6, r3
 8001a22:	e7d9      	b.n	80019d8 <INTERRUPT_Init+0x28>
 8001a24:	4a05      	ldr	r2, [pc, #20]	; (8001a3c <INTERRUPT_Init+0x8c>)
 8001a26:	f004 040f 	and.w	r4, r4, #15
 8001a2a:	009b      	lsls	r3, r3, #2
 8001a2c:	4422      	add	r2, r4
 8001a2e:	b2db      	uxtb	r3, r3
 8001a30:	7613      	strb	r3, [r2, #24]
 8001a32:	e7e3      	b.n	80019fc <INTERRUPT_Init+0x4c>
 8001a34:	e000ed00 	.word	0xe000ed00
 8001a38:	e000e100 	.word	0xe000e100
 8001a3c:	e000ecfc 	.word	0xe000ecfc

08001a40 <GUI_X_Config>:
 8001a40:	b508      	push	{r3, lr}
 8001a42:	4806      	ldr	r0, [pc, #24]	; (8001a5c <GUI_X_Config+0x1c>)
 8001a44:	f44f 5180 	mov.w	r1, #4096	; 0x1000
 8001a48:	f007 f822 	bl	8008a90 <GUI_ALLOC_AssignMemory>
 8001a4c:	2080      	movs	r0, #128	; 0x80
 8001a4e:	f007 f829 	bl	8008aa4 <GUI_ALLOC_SetAvBlockSize>
 8001a52:	4803      	ldr	r0, [pc, #12]	; (8001a60 <GUI_X_Config+0x20>)
 8001a54:	e8bd 4008 	ldmia.w	sp!, {r3, lr}
 8001a58:	f005 bc96 	b.w	8007388 <GUI_SetDefaultFont>
 8001a5c:	1ffe8a78 	.word	0x1ffe8a78
 8001a60:	0800e62c 	.word	0x0800e62c

08001a64 <GUI_X_Init>:
 8001a64:	4770      	bx	lr
 8001a66:	bf00      	nop

08001a68 <LCD_X_Config>:
 8001a68:	b5f0      	push	{r4, r5, r6, r7, lr}
 8001a6a:	2100      	movs	r1, #0
 8001a6c:	b0a1      	sub	sp, #132	; 0x84
 8001a6e:	460c      	mov	r4, r1
 8001a70:	a806      	add	r0, sp, #24
 8001a72:	2268      	movs	r2, #104	; 0x68
 8001a74:	f00c f822 	bl	800dabc <memset>
 8001a78:	4623      	mov	r3, r4
 8001a7a:	4622      	mov	r2, r4
 8001a7c:	4917      	ldr	r1, [pc, #92]	; (8001adc <LCD_X_Config+0x74>)
 8001a7e:	4818      	ldr	r0, [pc, #96]	; (8001ae0 <LCD_X_Config+0x78>)
 8001a80:	9401      	str	r4, [sp, #4]
 8001a82:	9402      	str	r4, [sp, #8]
 8001a84:	9403      	str	r4, [sp, #12]
 8001a86:	9404      	str	r4, [sp, #16]
 8001a88:	9405      	str	r4, [sp, #20]
 8001a8a:	f005 fc2f 	bl	80072ec <GUI_DEVICE_CreateAndLink>
 8001a8e:	21a0      	movs	r1, #160	; 0xa0
 8001a90:	4605      	mov	r5, r0
 8001a92:	2280      	movs	r2, #128	; 0x80
 8001a94:	4620      	mov	r0, r4
 8001a96:	f005 f9ed 	bl	8006e74 <LCD_SetSizeEx>
 8001a9a:	4620      	mov	r0, r4
 8001a9c:	21a0      	movs	r1, #160	; 0xa0
 8001a9e:	2280      	movs	r2, #128	; 0x80
 8001aa0:	f005 f9d0 	bl	8006e44 <LCD_SetVSizeEx>
 8001aa4:	4f0f      	ldr	r7, [pc, #60]	; (8001ae4 <LCD_X_Config+0x7c>)
 8001aa6:	f8df c04c 	ldr.w	ip, [pc, #76]	; 8001af4 <LCD_X_Config+0x8c>
 8001aaa:	f8df e04c 	ldr.w	lr, [pc, #76]	; 8001af8 <LCD_X_Config+0x90>
 8001aae:	4a0e      	ldr	r2, [pc, #56]	; (8001ae8 <LCD_X_Config+0x80>)
 8001ab0:	4e0e      	ldr	r6, [pc, #56]	; (8001aec <LCD_X_Config+0x84>)
 8001ab2:	4b0f      	ldr	r3, [pc, #60]	; (8001af0 <LCD_X_Config+0x88>)
 8001ab4:	f8cd c018 	str.w	ip, [sp, #24]
 8001ab8:	a906      	add	r1, sp, #24
 8001aba:	4628      	mov	r0, r5
 8001abc:	f8cd e01c 	str.w	lr, [sp, #28]
 8001ac0:	9709      	str	r7, [sp, #36]	; 0x24
 8001ac2:	960d      	str	r6, [sp, #52]	; 0x34
 8001ac4:	f005 f98e 	bl	8006de4 <GUIDRV_FlexColor_SetFunc>
 8001ac8:	2360      	movs	r3, #96	; 0x60
 8001aca:	4628      	mov	r0, r5
 8001acc:	a901      	add	r1, sp, #4
 8001ace:	9403      	str	r4, [sp, #12]
 8001ad0:	f8ad 3010 	strh.w	r3, [sp, #16]
 8001ad4:	f005 f952 	bl	8006d7c <GUIDRV_FlexColor_Config>
 8001ad8:	b021      	add	sp, #132	; 0x84
 8001ada:	bdf0      	pop	{r4, r5, r6, r7, pc}
 8001adc:	0800f8a8 	.word	0x0800f8a8
 8001ae0:	0800f86c 	.word	0x0800f86c
 8001ae4:	08001d99 	.word	0x08001d99
 8001ae8:	08005279 	.word	0x08005279
 8001aec:	08001ded 	.word	0x08001ded
 8001af0:	0800666d 	.word	0x0800666d
 8001af4:	08001d05 	.word	0x08001d05
 8001af8:	08001d51 	.word	0x08001d51

08001afc <LCD_X_DisplayDriver>:
 8001afc:	2901      	cmp	r1, #1
 8001afe:	f040 80e8 	bne.w	8001cd2 <LCD_X_DisplayDriver+0x1d6>
 8001b02:	b510      	push	{r4, lr}
 8001b04:	2006      	movs	r0, #6
 8001b06:	460c      	mov	r4, r1
 8001b08:	f000 f8fc 	bl	8001d04 <GUI_SEGGERLIBRARY_WriteCmdByte>
 8001b0c:	2000      	movs	r0, #0
 8001b0e:	f000 f91f 	bl	8001d50 <GUI_SEGGERLIBRARY_WriteDataByte>
 8001b12:	2005      	movs	r0, #5
 8001b14:	f000 f8f6 	bl	8001d04 <GUI_SEGGERLIBRARY_WriteCmdByte>
 8001b18:	2000      	movs	r0, #0
 8001b1a:	f000 f919 	bl	8001d50 <GUI_SEGGERLIBRARY_WriteDataByte>
 8001b1e:	2004      	movs	r0, #4
 8001b20:	f000 f8f0 	bl	8001d04 <GUI_SEGGERLIBRARY_WriteCmdByte>
 8001b24:	2003      	movs	r0, #3
 8001b26:	f000 f913 	bl	8001d50 <GUI_SEGGERLIBRARY_WriteDataByte>
 8001b2a:	2004      	movs	r0, #4
 8001b2c:	f000 f8ea 	bl	8001d04 <GUI_SEGGERLIBRARY_WriteCmdByte>
 8001b30:	2000      	movs	r0, #0
 8001b32:	f000 f90d 	bl	8001d50 <GUI_SEGGERLIBRARY_WriteDataByte>
 8001b36:	203b      	movs	r0, #59	; 0x3b
 8001b38:	f000 f8e4 	bl	8001d04 <GUI_SEGGERLIBRARY_WriteCmdByte>
 8001b3c:	2000      	movs	r0, #0
 8001b3e:	f000 f907 	bl	8001d50 <GUI_SEGGERLIBRARY_WriteDataByte>
 8001b42:	2002      	movs	r0, #2
 8001b44:	f000 f8de 	bl	8001d04 <GUI_SEGGERLIBRARY_WriteCmdByte>
 8001b48:	4620      	mov	r0, r4
 8001b4a:	f000 f901 	bl	8001d50 <GUI_SEGGERLIBRARY_WriteDataByte>
 8001b4e:	2003      	movs	r0, #3
 8001b50:	f000 f8d8 	bl	8001d04 <GUI_SEGGERLIBRARY_WriteCmdByte>
 8001b54:	2090      	movs	r0, #144	; 0x90
 8001b56:	f000 f8fb 	bl	8001d50 <GUI_SEGGERLIBRARY_WriteDataByte>
 8001b5a:	2080      	movs	r0, #128	; 0x80
 8001b5c:	f000 f8d2 	bl	8001d04 <GUI_SEGGERLIBRARY_WriteCmdByte>
 8001b60:	2000      	movs	r0, #0
 8001b62:	f000 f8f5 	bl	8001d50 <GUI_SEGGERLIBRARY_WriteDataByte>
 8001b66:	2008      	movs	r0, #8
 8001b68:	f000 f8cc 	bl	8001d04 <GUI_SEGGERLIBRARY_WriteCmdByte>
 8001b6c:	4620      	mov	r0, r4
 8001b6e:	f000 f8ef 	bl	8001d50 <GUI_SEGGERLIBRARY_WriteDataByte>
 8001b72:	2009      	movs	r0, #9
 8001b74:	f000 f8c6 	bl	8001d04 <GUI_SEGGERLIBRARY_WriteCmdByte>
 8001b78:	4620      	mov	r0, r4
 8001b7a:	f000 f8e9 	bl	8001d50 <GUI_SEGGERLIBRARY_WriteDataByte>
 8001b7e:	200a      	movs	r0, #10
 8001b80:	f000 f8c0 	bl	8001d04 <GUI_SEGGERLIBRARY_WriteCmdByte>
 8001b84:	4620      	mov	r0, r4
 8001b86:	f000 f8e3 	bl	8001d50 <GUI_SEGGERLIBRARY_WriteDataByte>
 8001b8a:	200b      	movs	r0, #11
 8001b8c:	f000 f8ba 	bl	8001d04 <GUI_SEGGERLIBRARY_WriteCmdByte>
 8001b90:	200a      	movs	r0, #10
 8001b92:	f000 f8dd 	bl	8001d50 <GUI_SEGGERLIBRARY_WriteDataByte>
 8001b96:	200c      	movs	r0, #12
 8001b98:	f000 f8b4 	bl	8001d04 <GUI_SEGGERLIBRARY_WriteCmdByte>
 8001b9c:	200a      	movs	r0, #10
 8001b9e:	f000 f8d7 	bl	8001d50 <GUI_SEGGERLIBRARY_WriteDataByte>
 8001ba2:	200d      	movs	r0, #13
 8001ba4:	f000 f8ae 	bl	8001d04 <GUI_SEGGERLIBRARY_WriteCmdByte>
 8001ba8:	200a      	movs	r0, #10
 8001baa:	f000 f8d1 	bl	8001d50 <GUI_SEGGERLIBRARY_WriteDataByte>
 8001bae:	2010      	movs	r0, #16
 8001bb0:	f000 f8a8 	bl	8001d04 <GUI_SEGGERLIBRARY_WriteCmdByte>
 8001bb4:	2046      	movs	r0, #70	; 0x46
 8001bb6:	f000 f8cb 	bl	8001d50 <GUI_SEGGERLIBRARY_WriteDataByte>
 8001bba:	2011      	movs	r0, #17
 8001bbc:	f000 f8a2 	bl	8001d04 <GUI_SEGGERLIBRARY_WriteCmdByte>
 8001bc0:	2038      	movs	r0, #56	; 0x38
 8001bc2:	f000 f8c5 	bl	8001d50 <GUI_SEGGERLIBRARY_WriteDataByte>
 8001bc6:	2012      	movs	r0, #18
 8001bc8:	f000 f89c 	bl	8001d04 <GUI_SEGGERLIBRARY_WriteCmdByte>
 8001bcc:	203a      	movs	r0, #58	; 0x3a
 8001bce:	f000 f8bf 	bl	8001d50 <GUI_SEGGERLIBRARY_WriteDataByte>
 8001bd2:	2013      	movs	r0, #19
 8001bd4:	f000 f896 	bl	8001d04 <GUI_SEGGERLIBRARY_WriteCmdByte>
 8001bd8:	2000      	movs	r0, #0
 8001bda:	f000 f8b9 	bl	8001d50 <GUI_SEGGERLIBRARY_WriteDataByte>
 8001bde:	2014      	movs	r0, #20
 8001be0:	f000 f890 	bl	8001d04 <GUI_SEGGERLIBRARY_WriteCmdByte>
 8001be4:	2031      	movs	r0, #49	; 0x31
 8001be6:	f000 f8b3 	bl	8001d50 <GUI_SEGGERLIBRARY_WriteDataByte>
 8001bea:	200f      	movs	r0, #15
 8001bec:	f000 f88a 	bl	8001d04 <GUI_SEGGERLIBRARY_WriteCmdByte>
 8001bf0:	2000      	movs	r0, #0
 8001bf2:	f000 f8ad 	bl	8001d50 <GUI_SEGGERLIBRARY_WriteDataByte>
 8001bf6:	2016      	movs	r0, #22
 8001bf8:	f000 f884 	bl	8001d04 <GUI_SEGGERLIBRARY_WriteCmdByte>
 8001bfc:	2066      	movs	r0, #102	; 0x66
 8001bfe:	f000 f8a7 	bl	8001d50 <GUI_SEGGERLIBRARY_WriteDataByte>
 8001c02:	2017      	movs	r0, #23
 8001c04:	f000 f87e 	bl	8001d04 <GUI_SEGGERLIBRARY_WriteCmdByte>
 8001c08:	2000      	movs	r0, #0
 8001c0a:	f000 f8a1 	bl	8001d50 <GUI_SEGGERLIBRARY_WriteDataByte>
 8001c0e:	2018      	movs	r0, #24
 8001c10:	f000 f878 	bl	8001d04 <GUI_SEGGERLIBRARY_WriteCmdByte>
 8001c14:	209f      	movs	r0, #159	; 0x9f
 8001c16:	f000 f89b 	bl	8001d50 <GUI_SEGGERLIBRARY_WriteDataByte>
 8001c1a:	2019      	movs	r0, #25
 8001c1c:	f000 f872 	bl	8001d04 <GUI_SEGGERLIBRARY_WriteCmdByte>
 8001c20:	2000      	movs	r0, #0
 8001c22:	f000 f895 	bl	8001d50 <GUI_SEGGERLIBRARY_WriteDataByte>
 8001c26:	201a      	movs	r0, #26
 8001c28:	f000 f86c 	bl	8001d04 <GUI_SEGGERLIBRARY_WriteCmdByte>
 8001c2c:	207f      	movs	r0, #127	; 0x7f
 8001c2e:	f000 f88f 	bl	8001d50 <GUI_SEGGERLIBRARY_WriteDataByte>
 8001c32:	2020      	movs	r0, #32
 8001c34:	f000 f866 	bl	8001d04 <GUI_SEGGERLIBRARY_WriteCmdByte>
 8001c38:	2000      	movs	r0, #0
 8001c3a:	f000 f889 	bl	8001d50 <GUI_SEGGERLIBRARY_WriteDataByte>
 8001c3e:	2021      	movs	r0, #33	; 0x21
 8001c40:	f000 f860 	bl	8001d04 <GUI_SEGGERLIBRARY_WriteCmdByte>
 8001c44:	2000      	movs	r0, #0
 8001c46:	f000 f883 	bl	8001d50 <GUI_SEGGERLIBRARY_WriteDataByte>
 8001c4a:	2028      	movs	r0, #40	; 0x28
 8001c4c:	f000 f85a 	bl	8001d04 <GUI_SEGGERLIBRARY_WriteCmdByte>
 8001c50:	207f      	movs	r0, #127	; 0x7f
 8001c52:	f000 f87d 	bl	8001d50 <GUI_SEGGERLIBRARY_WriteDataByte>
 8001c56:	2029      	movs	r0, #41	; 0x29
 8001c58:	f000 f854 	bl	8001d04 <GUI_SEGGERLIBRARY_WriteCmdByte>
 8001c5c:	2000      	movs	r0, #0
 8001c5e:	f000 f877 	bl	8001d50 <GUI_SEGGERLIBRARY_WriteDataByte>
 8001c62:	202e      	movs	r0, #46	; 0x2e
 8001c64:	f000 f84e 	bl	8001d04 <GUI_SEGGERLIBRARY_WriteCmdByte>
 8001c68:	2000      	movs	r0, #0
 8001c6a:	f000 f871 	bl	8001d50 <GUI_SEGGERLIBRARY_WriteDataByte>
 8001c6e:	202f      	movs	r0, #47	; 0x2f
 8001c70:	f000 f848 	bl	8001d04 <GUI_SEGGERLIBRARY_WriteCmdByte>
 8001c74:	2000      	movs	r0, #0
 8001c76:	f000 f86b 	bl	8001d50 <GUI_SEGGERLIBRARY_WriteDataByte>
 8001c7a:	2031      	movs	r0, #49	; 0x31
 8001c7c:	f000 f842 	bl	8001d04 <GUI_SEGGERLIBRARY_WriteCmdByte>
 8001c80:	2000      	movs	r0, #0
 8001c82:	f000 f865 	bl	8001d50 <GUI_SEGGERLIBRARY_WriteDataByte>
 8001c86:	2032      	movs	r0, #50	; 0x32
 8001c88:	f000 f83c 	bl	8001d04 <GUI_SEGGERLIBRARY_WriteCmdByte>
 8001c8c:	2000      	movs	r0, #0
 8001c8e:	f000 f85f 	bl	8001d50 <GUI_SEGGERLIBRARY_WriteDataByte>
 8001c92:	2033      	movs	r0, #51	; 0x33
 8001c94:	f000 f836 	bl	8001d04 <GUI_SEGGERLIBRARY_WriteCmdByte>
 8001c98:	2000      	movs	r0, #0
 8001c9a:	f000 f859 	bl	8001d50 <GUI_SEGGERLIBRARY_WriteDataByte>
 8001c9e:	2034      	movs	r0, #52	; 0x34
 8001ca0:	f000 f830 	bl	8001d04 <GUI_SEGGERLIBRARY_WriteCmdByte>
 8001ca4:	209f      	movs	r0, #159	; 0x9f
 8001ca6:	f000 f853 	bl	8001d50 <GUI_SEGGERLIBRARY_WriteDataByte>
 8001caa:	2035      	movs	r0, #53	; 0x35
 8001cac:	f000 f82a 	bl	8001d04 <GUI_SEGGERLIBRARY_WriteCmdByte>
 8001cb0:	2000      	movs	r0, #0
 8001cb2:	f000 f84d 	bl	8001d50 <GUI_SEGGERLIBRARY_WriteDataByte>
 8001cb6:	2036      	movs	r0, #54	; 0x36
 8001cb8:	f000 f824 	bl	8001d04 <GUI_SEGGERLIBRARY_WriteCmdByte>
 8001cbc:	207f      	movs	r0, #127	; 0x7f
 8001cbe:	f000 f847 	bl	8001d50 <GUI_SEGGERLIBRARY_WriteDataByte>
 8001cc2:	2006      	movs	r0, #6
 8001cc4:	f000 f81e 	bl	8001d04 <GUI_SEGGERLIBRARY_WriteCmdByte>
 8001cc8:	4620      	mov	r0, r4
 8001cca:	f000 f841 	bl	8001d50 <GUI_SEGGERLIBRARY_WriteDataByte>
 8001cce:	2000      	movs	r0, #0
 8001cd0:	bd10      	pop	{r4, pc}
 8001cd2:	f04f 30ff 	mov.w	r0, #4294967295
 8001cd6:	4770      	bx	lr

08001cd8 <GUI_SEGGERLIBRARY_Init>:
 8001cd8:	b538      	push	{r3, r4, r5, lr}
 8001cda:	4605      	mov	r5, r0
 8001cdc:	6800      	ldr	r0, [r0, #0]
 8001cde:	f7ff fa1d 	bl	800111c <SPI_MASTER_Init>
 8001ce2:	4604      	mov	r4, r0
 8001ce4:	b130      	cbz	r0, 8001cf4 <GUI_SEGGERLIBRARY_Init+0x1c>
 8001ce6:	2401      	movs	r4, #1
 8001ce8:	7a2b      	ldrb	r3, [r5, #8]
 8001cea:	b10b      	cbz	r3, 8001cf0 <GUI_SEGGERLIBRARY_Init+0x18>
 8001cec:	f005 fb6a 	bl	80073c4 <GUI_Init>
 8001cf0:	4620      	mov	r0, r4
 8001cf2:	bd38      	pop	{r3, r4, r5, pc}
 8001cf4:	686b      	ldr	r3, [r5, #4]
 8001cf6:	6858      	ldr	r0, [r3, #4]
 8001cf8:	7a19      	ldrb	r1, [r3, #8]
 8001cfa:	681a      	ldr	r2, [r3, #0]
 8001cfc:	f7fe fb1e 	bl	800033c <XMC_GPIO_Init>
 8001d00:	e7f2      	b.n	8001ce8 <GUI_SEGGERLIBRARY_Init+0x10>
 8001d02:	bf00      	nop

08001d04 <GUI_SEGGERLIBRARY_WriteCmdByte>:
 8001d04:	b538      	push	{r3, r4, r5, lr}
 8001d06:	4c10      	ldr	r4, [pc, #64]	; (8001d48 <GUI_SEGGERLIBRARY_WriteCmdByte+0x44>)
 8001d08:	4b10      	ldr	r3, [pc, #64]	; (8001d4c <GUI_SEGGERLIBRARY_WriteCmdByte+0x48>)
 8001d0a:	6862      	ldr	r2, [r4, #4]
 8001d0c:	7a1d      	ldrb	r5, [r3, #8]
 8001d0e:	6d11      	ldr	r1, [r2, #80]	; 0x50
 8001d10:	685a      	ldr	r2, [r3, #4]
 8001d12:	6909      	ldr	r1, [r1, #16]
 8001d14:	f44f 3380 	mov.w	r3, #65536	; 0x10000
 8001d18:	40ab      	lsls	r3, r5
 8001d1a:	6053      	str	r3, [r2, #4]
 8001d1c:	4605      	mov	r5, r0
 8001d1e:	6820      	ldr	r0, [r4, #0]
 8001d20:	f7fe ffd0 	bl	8000cc4 <XMC_SPI_CH_EnableSlaveSelect>
 8001d24:	6820      	ldr	r0, [r4, #0]
 8001d26:	6cc3      	ldr	r3, [r0, #76]	; 0x4c
 8001d28:	f443 5380 	orr.w	r3, r3, #4096	; 0x1000
 8001d2c:	64c3      	str	r3, [r0, #76]	; 0x4c
 8001d2e:	4629      	mov	r1, r5
 8001d30:	2200      	movs	r2, #0
 8001d32:	f7fe ffd9 	bl	8000ce8 <XMC_SPI_CH_Transmit>
 8001d36:	6820      	ldr	r0, [r4, #0]
 8001d38:	6c83      	ldr	r3, [r0, #72]	; 0x48
 8001d3a:	04db      	lsls	r3, r3, #19
 8001d3c:	d5fc      	bpl.n	8001d38 <GUI_SEGGERLIBRARY_WriteCmdByte+0x34>
 8001d3e:	e8bd 4038 	ldmia.w	sp!, {r3, r4, r5, lr}
 8001d42:	f7fe bfc7 	b.w	8000cd4 <XMC_SPI_CH_DisableSlaveSelect>
 8001d46:	bf00      	nop
 8001d48:	1ffe8844 	.word	0x1ffe8844
 8001d4c:	0800e4e8 	.word	0x0800e4e8

08001d50 <GUI_SEGGERLIBRARY_WriteDataByte>:
 8001d50:	b538      	push	{r3, r4, r5, lr}
 8001d52:	4c0f      	ldr	r4, [pc, #60]	; (8001d90 <GUI_SEGGERLIBRARY_WriteDataByte+0x40>)
 8001d54:	4b0f      	ldr	r3, [pc, #60]	; (8001d94 <GUI_SEGGERLIBRARY_WriteDataByte+0x44>)
 8001d56:	6862      	ldr	r2, [r4, #4]
 8001d58:	7a1d      	ldrb	r5, [r3, #8]
 8001d5a:	6d11      	ldr	r1, [r2, #80]	; 0x50
 8001d5c:	685a      	ldr	r2, [r3, #4]
 8001d5e:	6909      	ldr	r1, [r1, #16]
 8001d60:	2301      	movs	r3, #1
 8001d62:	40ab      	lsls	r3, r5
 8001d64:	6053      	str	r3, [r2, #4]
 8001d66:	4605      	mov	r5, r0
 8001d68:	6820      	ldr	r0, [r4, #0]
 8001d6a:	f7fe ffab 	bl	8000cc4 <XMC_SPI_CH_EnableSlaveSelect>
 8001d6e:	6820      	ldr	r0, [r4, #0]
 8001d70:	6cc3      	ldr	r3, [r0, #76]	; 0x4c
 8001d72:	f443 5380 	orr.w	r3, r3, #4096	; 0x1000
 8001d76:	64c3      	str	r3, [r0, #76]	; 0x4c
 8001d78:	4629      	mov	r1, r5
 8001d7a:	2200      	movs	r2, #0
 8001d7c:	f7fe ffb4 	bl	8000ce8 <XMC_SPI_CH_Transmit>
 8001d80:	6820      	ldr	r0, [r4, #0]
 8001d82:	6c83      	ldr	r3, [r0, #72]	; 0x48
 8001d84:	04db      	lsls	r3, r3, #19
 8001d86:	d5fc      	bpl.n	8001d82 <GUI_SEGGERLIBRARY_WriteDataByte+0x32>
 8001d88:	e8bd 4038 	ldmia.w	sp!, {r3, r4, r5, lr}
 8001d8c:	f7fe bfa2 	b.w	8000cd4 <XMC_SPI_CH_DisableSlaveSelect>
 8001d90:	1ffe8844 	.word	0x1ffe8844
 8001d94:	0800e4e8 	.word	0x0800e4e8

08001d98 <GUI_SEGGERLIBRARY_WriteMultipleBytes>:
 8001d98:	b5f8      	push	{r3, r4, r5, r6, r7, lr}
 8001d9a:	4e12      	ldr	r6, [pc, #72]	; (8001de4 <GUI_SEGGERLIBRARY_WriteMultipleBytes+0x4c>)
 8001d9c:	4b12      	ldr	r3, [pc, #72]	; (8001de8 <GUI_SEGGERLIBRARY_WriteMultipleBytes+0x50>)
 8001d9e:	6872      	ldr	r2, [r6, #4]
 8001da0:	7a1c      	ldrb	r4, [r3, #8]
 8001da2:	6d17      	ldr	r7, [r2, #80]	; 0x50
 8001da4:	685a      	ldr	r2, [r3, #4]
 8001da6:	2301      	movs	r3, #1
 8001da8:	40a3      	lsls	r3, r4
 8001daa:	4605      	mov	r5, r0
 8001dac:	460c      	mov	r4, r1
 8001dae:	6830      	ldr	r0, [r6, #0]
 8001db0:	6053      	str	r3, [r2, #4]
 8001db2:	6939      	ldr	r1, [r7, #16]
 8001db4:	f7fe ff86 	bl	8000cc4 <XMC_SPI_CH_EnableSlaveSelect>
 8001db8:	6830      	ldr	r0, [r6, #0]
 8001dba:	3d01      	subs	r5, #1
 8001dbc:	6cc3      	ldr	r3, [r0, #76]	; 0x4c
 8001dbe:	f815 1f01 	ldrb.w	r1, [r5, #1]!
 8001dc2:	f443 5380 	orr.w	r3, r3, #4096	; 0x1000
 8001dc6:	64c3      	str	r3, [r0, #76]	; 0x4c
 8001dc8:	2200      	movs	r2, #0
 8001dca:	f7fe ff8d 	bl	8000ce8 <XMC_SPI_CH_Transmit>
 8001dce:	6830      	ldr	r0, [r6, #0]
 8001dd0:	6c83      	ldr	r3, [r0, #72]	; 0x48
 8001dd2:	04db      	lsls	r3, r3, #19
 8001dd4:	d5fc      	bpl.n	8001dd0 <GUI_SEGGERLIBRARY_WriteMultipleBytes+0x38>
 8001dd6:	3c01      	subs	r4, #1
 8001dd8:	d1f0      	bne.n	8001dbc <GUI_SEGGERLIBRARY_WriteMultipleBytes+0x24>
 8001dda:	e8bd 40f8 	ldmia.w	sp!, {r3, r4, r5, r6, r7, lr}
 8001dde:	f7fe bf79 	b.w	8000cd4 <XMC_SPI_CH_DisableSlaveSelect>
 8001de2:	bf00      	nop
 8001de4:	1ffe8844 	.word	0x1ffe8844
 8001de8:	0800e4e8 	.word	0x0800e4e8

08001dec <GUI_SEGGERLIBRARY_ReadMultipleBytes>:
 8001dec:	b430      	push	{r4, r5}
 8001dee:	4b06      	ldr	r3, [pc, #24]	; (8001e08 <GUI_SEGGERLIBRARY_ReadMultipleBytes+0x1c>)
 8001df0:	7a1d      	ldrb	r5, [r3, #8]
 8001df2:	685c      	ldr	r4, [r3, #4]
 8001df4:	2301      	movs	r3, #1
 8001df6:	40ab      	lsls	r3, r5
 8001df8:	460a      	mov	r2, r1
 8001dfa:	6063      	str	r3, [r4, #4]
 8001dfc:	4601      	mov	r1, r0
 8001dfe:	bc30      	pop	{r4, r5}
 8001e00:	4802      	ldr	r0, [pc, #8]	; (8001e0c <GUI_SEGGERLIBRARY_ReadMultipleBytes+0x20>)
 8001e02:	f7ff b98f 	b.w	8001124 <SPI_MASTER_Receive>
 8001e06:	bf00      	nop
 8001e08:	0800e4e8 	.word	0x0800e4e8
 8001e0c:	1ffe8844 	.word	0x1ffe8844

08001e10 <GLOBAL_CCU8_Init>:
 8001e10:	7b43      	ldrb	r3, [r0, #13]
 8001e12:	b10b      	cbz	r3, 8001e18 <GLOBAL_CCU8_Init+0x8>
 8001e14:	2000      	movs	r0, #0
 8001e16:	4770      	bx	lr
 8001e18:	b510      	push	{r4, lr}
 8001e1a:	4604      	mov	r4, r0
 8001e1c:	6880      	ldr	r0, [r0, #8]
 8001e1e:	7b21      	ldrb	r1, [r4, #12]
 8001e20:	f7fe fdb6 	bl	8000990 <XMC_CCU8_Init>
 8001e24:	68a2      	ldr	r2, [r4, #8]
 8001e26:	68d3      	ldr	r3, [r2, #12]
 8001e28:	2101      	movs	r1, #1
 8001e2a:	f443 7380 	orr.w	r3, r3, #256	; 0x100
 8001e2e:	60d3      	str	r3, [r2, #12]
 8001e30:	2000      	movs	r0, #0
 8001e32:	7361      	strb	r1, [r4, #13]
 8001e34:	bd10      	pop	{r4, pc}
 8001e36:	bf00      	nop

08001e38 <GLOBAL_CCU4_Init>:
 8001e38:	7b43      	ldrb	r3, [r0, #13]
 8001e3a:	b10b      	cbz	r3, 8001e40 <GLOBAL_CCU4_Init+0x8>
 8001e3c:	2000      	movs	r0, #0
 8001e3e:	4770      	bx	lr
 8001e40:	b510      	push	{r4, lr}
 8001e42:	4604      	mov	r4, r0
 8001e44:	6880      	ldr	r0, [r0, #8]
 8001e46:	7b21      	ldrb	r1, [r4, #12]
 8001e48:	f7fe fd28 	bl	800089c <XMC_CCU4_Init>
 8001e4c:	68a2      	ldr	r2, [r4, #8]
 8001e4e:	68d3      	ldr	r3, [r2, #12]
 8001e50:	2101      	movs	r1, #1
 8001e52:	f443 7380 	orr.w	r3, r3, #256	; 0x100
 8001e56:	60d3      	str	r3, [r2, #12]
 8001e58:	2000      	movs	r0, #0
 8001e5a:	7361      	strb	r1, [r4, #13]
 8001e5c:	bd10      	pop	{r4, pc}
 8001e5e:	bf00      	nop

08001e60 <pvPortMalloc>:
 8001e60:	b510      	push	{r4, lr}
 8001e62:	4604      	mov	r4, r0
 8001e64:	f000 ff8e 	bl	8002d84 <vTaskSuspendAll>
 8001e68:	4620      	mov	r0, r4
 8001e6a:	f00b fdf1 	bl	800da50 <malloc>
 8001e6e:	4604      	mov	r4, r0
 8001e70:	f001 f834 	bl	8002edc <xTaskResumeAll>
 8001e74:	4620      	mov	r0, r4
 8001e76:	bd10      	pop	{r4, pc}

08001e78 <vPortFree>:
 8001e78:	b150      	cbz	r0, 8001e90 <vPortFree+0x18>
 8001e7a:	b510      	push	{r4, lr}
 8001e7c:	4604      	mov	r4, r0
 8001e7e:	f000 ff81 	bl	8002d84 <vTaskSuspendAll>
 8001e82:	4620      	mov	r0, r4
 8001e84:	f00b fdec 	bl	800da60 <free>
 8001e88:	e8bd 4010 	ldmia.w	sp!, {r4, lr}
 8001e8c:	f001 b826 	b.w	8002edc <xTaskResumeAll>
 8001e90:	4770      	bx	lr
 8001e92:	bf00      	nop

08001e94 <vListInitialise>:
 8001e94:	f100 0308 	add.w	r3, r0, #8
 8001e98:	f04f 31ff 	mov.w	r1, #4294967295
 8001e9c:	2200      	movs	r2, #0
 8001e9e:	6081      	str	r1, [r0, #8]
 8001ea0:	e880 000c 	stmia.w	r0, {r2, r3}
 8001ea4:	60c3      	str	r3, [r0, #12]
 8001ea6:	6103      	str	r3, [r0, #16]
 8001ea8:	4770      	bx	lr
 8001eaa:	bf00      	nop

08001eac <vListInitialiseItem>:
 8001eac:	2300      	movs	r3, #0
 8001eae:	6103      	str	r3, [r0, #16]
 8001eb0:	4770      	bx	lr
 8001eb2:	bf00      	nop

08001eb4 <vListInsertEnd>:
 8001eb4:	e890 000c 	ldmia.w	r0, {r2, r3}
 8001eb8:	b410      	push	{r4}
 8001eba:	689c      	ldr	r4, [r3, #8]
 8001ebc:	608c      	str	r4, [r1, #8]
 8001ebe:	689c      	ldr	r4, [r3, #8]
 8001ec0:	604b      	str	r3, [r1, #4]
 8001ec2:	3201      	adds	r2, #1
 8001ec4:	6061      	str	r1, [r4, #4]
 8001ec6:	6099      	str	r1, [r3, #8]
 8001ec8:	f85d 4b04 	ldr.w	r4, [sp], #4
 8001ecc:	6108      	str	r0, [r1, #16]
 8001ece:	6002      	str	r2, [r0, #0]
 8001ed0:	4770      	bx	lr
 8001ed2:	bf00      	nop

08001ed4 <vListInsert>:
 8001ed4:	b430      	push	{r4, r5}
 8001ed6:	680d      	ldr	r5, [r1, #0]
 8001ed8:	1c6b      	adds	r3, r5, #1
 8001eda:	d011      	beq.n	8001f00 <vListInsert+0x2c>
 8001edc:	f100 0208 	add.w	r2, r0, #8
 8001ee0:	e000      	b.n	8001ee4 <vListInsert+0x10>
 8001ee2:	461a      	mov	r2, r3
 8001ee4:	6853      	ldr	r3, [r2, #4]
 8001ee6:	681c      	ldr	r4, [r3, #0]
 8001ee8:	42a5      	cmp	r5, r4
 8001eea:	d2fa      	bcs.n	8001ee2 <vListInsert+0xe>
 8001eec:	6804      	ldr	r4, [r0, #0]
 8001eee:	604b      	str	r3, [r1, #4]
 8001ef0:	3401      	adds	r4, #1
 8001ef2:	6099      	str	r1, [r3, #8]
 8001ef4:	608a      	str	r2, [r1, #8]
 8001ef6:	6051      	str	r1, [r2, #4]
 8001ef8:	6108      	str	r0, [r1, #16]
 8001efa:	6004      	str	r4, [r0, #0]
 8001efc:	bc30      	pop	{r4, r5}
 8001efe:	4770      	bx	lr
 8001f00:	6902      	ldr	r2, [r0, #16]
 8001f02:	6853      	ldr	r3, [r2, #4]
 8001f04:	e7f2      	b.n	8001eec <vListInsert+0x18>
 8001f06:	bf00      	nop

08001f08 <uxListRemove>:
 8001f08:	6843      	ldr	r3, [r0, #4]
 8001f0a:	6881      	ldr	r1, [r0, #8]
 8001f0c:	6902      	ldr	r2, [r0, #16]
 8001f0e:	b410      	push	{r4}
 8001f10:	6099      	str	r1, [r3, #8]
 8001f12:	6881      	ldr	r1, [r0, #8]
 8001f14:	6854      	ldr	r4, [r2, #4]
 8001f16:	604b      	str	r3, [r1, #4]
 8001f18:	6813      	ldr	r3, [r2, #0]
 8001f1a:	4284      	cmp	r4, r0
 8001f1c:	bf08      	it	eq
 8001f1e:	6051      	streq	r1, [r2, #4]
 8001f20:	3b01      	subs	r3, #1
 8001f22:	2100      	movs	r1, #0
 8001f24:	6101      	str	r1, [r0, #16]
 8001f26:	f85d 4b04 	ldr.w	r4, [sp], #4
 8001f2a:	6013      	str	r3, [r2, #0]
 8001f2c:	4618      	mov	r0, r3
 8001f2e:	4770      	bx	lr

08001f30 <prvTaskExitError>:
 8001f30:	4b0a      	ldr	r3, [pc, #40]	; (8001f5c <prvTaskExitError+0x2c>)
 8001f32:	681b      	ldr	r3, [r3, #0]
 8001f34:	3301      	adds	r3, #1
 8001f36:	d008      	beq.n	8001f4a <prvTaskExitError+0x1a>
 8001f38:	f04f 03fc 	mov.w	r3, #252	; 0xfc
 8001f3c:	f383 8811 	msr	BASEPRI, r3
 8001f40:	f3bf 8f6f 	isb	sy
 8001f44:	f3bf 8f4f 	dsb	sy
 8001f48:	e7fe      	b.n	8001f48 <prvTaskExitError+0x18>
 8001f4a:	f04f 03fc 	mov.w	r3, #252	; 0xfc
 8001f4e:	f383 8811 	msr	BASEPRI, r3
 8001f52:	f3bf 8f6f 	isb	sy
 8001f56:	f3bf 8f4f 	dsb	sy
 8001f5a:	e7fe      	b.n	8001f5a <prvTaskExitError+0x2a>
 8001f5c:	1ffe88f0 	.word	0x1ffe88f0

08001f60 <prvPortStartFirstTask>:
 8001f60:	4806      	ldr	r0, [pc, #24]	; (8001f7c <prvPortStartFirstTask+0x1c>)
 8001f62:	6800      	ldr	r0, [r0, #0]
 8001f64:	6800      	ldr	r0, [r0, #0]
 8001f66:	f380 8808 	msr	MSP, r0
 8001f6a:	b662      	cpsie	i
 8001f6c:	b661      	cpsie	f
 8001f6e:	f3bf 8f4f 	dsb	sy
 8001f72:	f3bf 8f6f 	isb	sy
 8001f76:	df00      	svc	0
 8001f78:	bf00      	nop
 8001f7a:	0000      	.short	0x0000
 8001f7c:	e000ed08 	.word	0xe000ed08

08001f80 <vPortEnableVFP>:
 8001f80:	f8df 000c 	ldr.w	r0, [pc, #12]	; 8001f90 <vPortEnableVFP+0x10>
 8001f84:	6801      	ldr	r1, [r0, #0]
 8001f86:	f441 0170 	orr.w	r1, r1, #15728640	; 0xf00000
 8001f8a:	6001      	str	r1, [r0, #0]
 8001f8c:	4770      	bx	lr
 8001f8e:	0000      	.short	0x0000
 8001f90:	e000ed88 	.word	0xe000ed88

08001f94 <pxPortInitialiseStack>:
 8001f94:	b430      	push	{r4, r5}
 8001f96:	f021 0101 	bic.w	r1, r1, #1
 8001f9a:	f04f 7580 	mov.w	r5, #16777216	; 0x1000000
 8001f9e:	4c07      	ldr	r4, [pc, #28]	; (8001fbc <pxPortInitialiseStack+0x28>)
 8001fa0:	f840 4c0c 	str.w	r4, [r0, #-12]
 8001fa4:	f06f 0302 	mvn.w	r3, #2
 8001fa8:	f840 2c20 	str.w	r2, [r0, #-32]
 8001fac:	e900 0022 	stmdb	r0, {r1, r5}
 8001fb0:	f840 3c24 	str.w	r3, [r0, #-36]
 8001fb4:	bc30      	pop	{r4, r5}
 8001fb6:	3844      	subs	r0, #68	; 0x44
 8001fb8:	4770      	bx	lr
 8001fba:	bf00      	nop
 8001fbc:	08001f31 	.word	0x08001f31

08001fc0 <SVC_Handler>:
 8001fc0:	4b07      	ldr	r3, [pc, #28]	; (8001fe0 <pxCurrentTCBConst2>)
 8001fc2:	6819      	ldr	r1, [r3, #0]
 8001fc4:	6808      	ldr	r0, [r1, #0]
 8001fc6:	e8b0 4ff0 	ldmia.w	r0!, {r4, r5, r6, r7, r8, r9, sl, fp, lr}
 8001fca:	f380 8809 	msr	PSP, r0
 8001fce:	f3bf 8f6f 	isb	sy
 8001fd2:	f04f 0000 	mov.w	r0, #0
 8001fd6:	f380 8811 	msr	BASEPRI, r0
 8001fda:	4770      	bx	lr
 8001fdc:	f3af 8000 	nop.w

08001fe0 <pxCurrentTCBConst2>:
 8001fe0:	1ffe9b24 	.word	0x1ffe9b24
 8001fe4:	f3af 8000 	nop.w
 8001fe8:	f3af 8000 	nop.w
 8001fec:	f3af 8000 	nop.w

08001ff0 <vPortEnterCritical>:
 8001ff0:	f04f 03fc 	mov.w	r3, #252	; 0xfc
 8001ff4:	f383 8811 	msr	BASEPRI, r3
 8001ff8:	f3bf 8f6f 	isb	sy
 8001ffc:	f3bf 8f4f 	dsb	sy
 8002000:	4a0a      	ldr	r2, [pc, #40]	; (800202c <vPortEnterCritical+0x3c>)
 8002002:	6813      	ldr	r3, [r2, #0]
 8002004:	3301      	adds	r3, #1
 8002006:	2b01      	cmp	r3, #1
 8002008:	6013      	str	r3, [r2, #0]
 800200a:	d000      	beq.n	800200e <vPortEnterCritical+0x1e>
 800200c:	4770      	bx	lr
 800200e:	4b08      	ldr	r3, [pc, #32]	; (8002030 <vPortEnterCritical+0x40>)
 8002010:	681b      	ldr	r3, [r3, #0]
 8002012:	f013 0fff 	tst.w	r3, #255	; 0xff
 8002016:	d0f9      	beq.n	800200c <vPortEnterCritical+0x1c>
 8002018:	f04f 03fc 	mov.w	r3, #252	; 0xfc
 800201c:	f383 8811 	msr	BASEPRI, r3
 8002020:	f3bf 8f6f 	isb	sy
 8002024:	f3bf 8f4f 	dsb	sy
 8002028:	e7fe      	b.n	8002028 <vPortEnterCritical+0x38>
 800202a:	bf00      	nop
 800202c:	1ffe88f0 	.word	0x1ffe88f0
 8002030:	e000ed04 	.word	0xe000ed04

08002034 <vPortExitCritical>:
 8002034:	4a08      	ldr	r2, [pc, #32]	; (8002058 <vPortExitCritical+0x24>)
 8002036:	6813      	ldr	r3, [r2, #0]
 8002038:	b943      	cbnz	r3, 800204c <vPortExitCritical+0x18>
 800203a:	f04f 03fc 	mov.w	r3, #252	; 0xfc
 800203e:	f383 8811 	msr	BASEPRI, r3
 8002042:	f3bf 8f6f 	isb	sy
 8002046:	f3bf 8f4f 	dsb	sy
 800204a:	e7fe      	b.n	800204a <vPortExitCritical+0x16>
 800204c:	3b01      	subs	r3, #1
 800204e:	6013      	str	r3, [r2, #0]
 8002050:	b90b      	cbnz	r3, 8002056 <vPortExitCritical+0x22>
 8002052:	f383 8811 	msr	BASEPRI, r3
 8002056:	4770      	bx	lr
 8002058:	1ffe88f0 	.word	0x1ffe88f0
 800205c:	00000000 	.word	0x00000000

08002060 <PendSV_Handler>:
 8002060:	f3ef 8009 	mrs	r0, PSP
 8002064:	f3bf 8f6f 	isb	sy
 8002068:	4b15      	ldr	r3, [pc, #84]	; (80020c0 <pxCurrentTCBConst>)
 800206a:	681a      	ldr	r2, [r3, #0]
 800206c:	f01e 0f10 	tst.w	lr, #16
 8002070:	bf08      	it	eq
 8002072:	ed20 8a10 	vstmdbeq	r0!, {s16-s31}
 8002076:	e920 4ff0 	stmdb	r0!, {r4, r5, r6, r7, r8, r9, sl, fp, lr}
 800207a:	6010      	str	r0, [r2, #0]
 800207c:	f84d 3d04 	str.w	r3, [sp, #-4]!
 8002080:	f04f 00fc 	mov.w	r0, #252	; 0xfc
 8002084:	f380 8811 	msr	BASEPRI, r0
 8002088:	f3bf 8f4f 	dsb	sy
 800208c:	f3bf 8f6f 	isb	sy
 8002090:	f001 f83a 	bl	8003108 <vTaskSwitchContext>
 8002094:	f04f 0000 	mov.w	r0, #0
 8002098:	f380 8811 	msr	BASEPRI, r0
 800209c:	bc08      	pop	{r3}
 800209e:	6819      	ldr	r1, [r3, #0]
 80020a0:	6808      	ldr	r0, [r1, #0]
 80020a2:	e8b0 4ff0 	ldmia.w	r0!, {r4, r5, r6, r7, r8, r9, sl, fp, lr}
 80020a6:	f01e 0f10 	tst.w	lr, #16
 80020aa:	bf08      	it	eq
 80020ac:	ecb0 8a10 	vldmiaeq	r0!, {s16-s31}
 80020b0:	f380 8809 	msr	PSP, r0
 80020b4:	f3bf 8f6f 	isb	sy
 80020b8:	4770      	bx	lr
 80020ba:	bf00      	nop
 80020bc:	f3af 8000 	nop.w

080020c0 <pxCurrentTCBConst>:
 80020c0:	1ffe9b24 	.word	0x1ffe9b24
 80020c4:	f3af 8000 	nop.w
 80020c8:	f3af 8000 	nop.w
 80020cc:	f3af 8000 	nop.w

080020d0 <SysTick_Handler>:
 80020d0:	b508      	push	{r3, lr}
 80020d2:	f04f 03fc 	mov.w	r3, #252	; 0xfc
 80020d6:	f383 8811 	msr	BASEPRI, r3
 80020da:	f3bf 8f6f 	isb	sy
 80020de:	f3bf 8f4f 	dsb	sy
 80020e2:	f000 fe5d 	bl	8002da0 <xTaskIncrementTick>
 80020e6:	b118      	cbz	r0, 80020f0 <SysTick_Handler+0x20>
 80020e8:	4b03      	ldr	r3, [pc, #12]	; (80020f8 <SysTick_Handler+0x28>)
 80020ea:	f04f 5280 	mov.w	r2, #268435456	; 0x10000000
 80020ee:	601a      	str	r2, [r3, #0]
 80020f0:	2300      	movs	r3, #0
 80020f2:	f383 8811 	msr	BASEPRI, r3
 80020f6:	bd08      	pop	{r3, pc}
 80020f8:	e000ed04 	.word	0xe000ed04

080020fc <vPortSetupTimerInterrupt>:
 80020fc:	4b06      	ldr	r3, [pc, #24]	; (8002118 <vPortSetupTimerInterrupt+0x1c>)
 80020fe:	4907      	ldr	r1, [pc, #28]	; (800211c <vPortSetupTimerInterrupt+0x20>)
 8002100:	681b      	ldr	r3, [r3, #0]
 8002102:	4807      	ldr	r0, [pc, #28]	; (8002120 <vPortSetupTimerInterrupt+0x24>)
 8002104:	4a07      	ldr	r2, [pc, #28]	; (8002124 <vPortSetupTimerInterrupt+0x28>)
 8002106:	fba1 1303 	umull	r1, r3, r1, r3
 800210a:	099b      	lsrs	r3, r3, #6
 800210c:	3b01      	subs	r3, #1
 800210e:	2107      	movs	r1, #7
 8002110:	6003      	str	r3, [r0, #0]
 8002112:	6011      	str	r1, [r2, #0]
 8002114:	4770      	bx	lr
 8002116:	bf00      	nop
 8002118:	2003ffc0 	.word	0x2003ffc0
 800211c:	10624dd3 	.word	0x10624dd3
 8002120:	e000e014 	.word	0xe000e014
 8002124:	e000e010 	.word	0xe000e010

08002128 <xPortStartScheduler>:
 8002128:	4b31      	ldr	r3, [pc, #196]	; (80021f0 <xPortStartScheduler+0xc8>)
 800212a:	4a32      	ldr	r2, [pc, #200]	; (80021f4 <xPortStartScheduler+0xcc>)
 800212c:	6819      	ldr	r1, [r3, #0]
 800212e:	4291      	cmp	r1, r2
 8002130:	d04c      	beq.n	80021cc <xPortStartScheduler+0xa4>
 8002132:	681a      	ldr	r2, [r3, #0]
 8002134:	4b30      	ldr	r3, [pc, #192]	; (80021f8 <xPortStartScheduler+0xd0>)
 8002136:	429a      	cmp	r2, r3
 8002138:	d051      	beq.n	80021de <xPortStartScheduler+0xb6>
 800213a:	b510      	push	{r4, lr}
 800213c:	4b2f      	ldr	r3, [pc, #188]	; (80021fc <xPortStartScheduler+0xd4>)
 800213e:	4c30      	ldr	r4, [pc, #192]	; (8002200 <xPortStartScheduler+0xd8>)
 8002140:	781a      	ldrb	r2, [r3, #0]
 8002142:	4830      	ldr	r0, [pc, #192]	; (8002204 <xPortStartScheduler+0xdc>)
 8002144:	b082      	sub	sp, #8
 8002146:	b2d2      	uxtb	r2, r2
 8002148:	21ff      	movs	r1, #255	; 0xff
 800214a:	9201      	str	r2, [sp, #4]
 800214c:	7019      	strb	r1, [r3, #0]
 800214e:	781b      	ldrb	r3, [r3, #0]
 8002150:	b2db      	uxtb	r3, r3
 8002152:	f88d 3003 	strb.w	r3, [sp, #3]
 8002156:	f89d 2003 	ldrb.w	r2, [sp, #3]
 800215a:	f89d 1003 	ldrb.w	r1, [sp, #3]
 800215e:	f002 02fc 	and.w	r2, r2, #252	; 0xfc
 8002162:	2307      	movs	r3, #7
 8002164:	0609      	lsls	r1, r1, #24
 8002166:	7022      	strb	r2, [r4, #0]
 8002168:	6003      	str	r3, [r0, #0]
 800216a:	d50e      	bpl.n	800218a <xPortStartScheduler+0x62>
 800216c:	2306      	movs	r3, #6
 800216e:	e000      	b.n	8002172 <xPortStartScheduler+0x4a>
 8002170:	460b      	mov	r3, r1
 8002172:	f89d 2003 	ldrb.w	r2, [sp, #3]
 8002176:	0052      	lsls	r2, r2, #1
 8002178:	b2d2      	uxtb	r2, r2
 800217a:	f88d 2003 	strb.w	r2, [sp, #3]
 800217e:	f89d 2003 	ldrb.w	r2, [sp, #3]
 8002182:	0612      	lsls	r2, r2, #24
 8002184:	f103 31ff 	add.w	r1, r3, #4294967295
 8002188:	d4f2      	bmi.n	8002170 <xPortStartScheduler+0x48>
 800218a:	9901      	ldr	r1, [sp, #4]
 800218c:	4c1b      	ldr	r4, [pc, #108]	; (80021fc <xPortStartScheduler+0xd4>)
 800218e:	4a1e      	ldr	r2, [pc, #120]	; (8002208 <xPortStartScheduler+0xe0>)
 8002190:	021b      	lsls	r3, r3, #8
 8002192:	b2c9      	uxtb	r1, r1
 8002194:	f403 63e0 	and.w	r3, r3, #1792	; 0x700
 8002198:	6003      	str	r3, [r0, #0]
 800219a:	7021      	strb	r1, [r4, #0]
 800219c:	6813      	ldr	r3, [r2, #0]
 800219e:	f443 037c 	orr.w	r3, r3, #16515072	; 0xfc0000
 80021a2:	6013      	str	r3, [r2, #0]
 80021a4:	6813      	ldr	r3, [r2, #0]
 80021a6:	f043 437c 	orr.w	r3, r3, #4227858432	; 0xfc000000
 80021aa:	6013      	str	r3, [r2, #0]
 80021ac:	f7ff ffa6 	bl	80020fc <vPortSetupTimerInterrupt>
 80021b0:	4b16      	ldr	r3, [pc, #88]	; (800220c <xPortStartScheduler+0xe4>)
 80021b2:	2200      	movs	r2, #0
 80021b4:	601a      	str	r2, [r3, #0]
 80021b6:	f7ff fee3 	bl	8001f80 <vPortEnableVFP>
 80021ba:	4a15      	ldr	r2, [pc, #84]	; (8002210 <xPortStartScheduler+0xe8>)
 80021bc:	6813      	ldr	r3, [r2, #0]
 80021be:	f043 4340 	orr.w	r3, r3, #3221225472	; 0xc0000000
 80021c2:	6013      	str	r3, [r2, #0]
 80021c4:	f7ff fecc 	bl	8001f60 <prvPortStartFirstTask>
 80021c8:	f7ff feb2 	bl	8001f30 <prvTaskExitError>
 80021cc:	f04f 03fc 	mov.w	r3, #252	; 0xfc
 80021d0:	f383 8811 	msr	BASEPRI, r3
 80021d4:	f3bf 8f6f 	isb	sy
 80021d8:	f3bf 8f4f 	dsb	sy
 80021dc:	e7fe      	b.n	80021dc <xPortStartScheduler+0xb4>
 80021de:	f04f 03fc 	mov.w	r3, #252	; 0xfc
 80021e2:	f383 8811 	msr	BASEPRI, r3
 80021e6:	f3bf 8f6f 	isb	sy
 80021ea:	f3bf 8f4f 	dsb	sy
 80021ee:	e7fe      	b.n	80021ee <xPortStartScheduler+0xc6>
 80021f0:	e000ed00 	.word	0xe000ed00
 80021f4:	410fc271 	.word	0x410fc271
 80021f8:	410fc270 	.word	0x410fc270
 80021fc:	e000e400 	.word	0xe000e400
 8002200:	1ffe9a78 	.word	0x1ffe9a78
 8002204:	1ffe9a7c 	.word	0x1ffe9a7c
 8002208:	e000ed20 	.word	0xe000ed20
 800220c:	1ffe88f0 	.word	0x1ffe88f0
 8002210:	e000ef34 	.word	0xe000ef34

08002214 <vPortValidateInterruptPriority>:
 8002214:	f3ef 8305 	mrs	r3, IPSR
 8002218:	2b0f      	cmp	r3, #15
 800221a:	d90e      	bls.n	800223a <vPortValidateInterruptPriority+0x26>
 800221c:	4910      	ldr	r1, [pc, #64]	; (8002260 <vPortValidateInterruptPriority+0x4c>)
 800221e:	4a11      	ldr	r2, [pc, #68]	; (8002264 <vPortValidateInterruptPriority+0x50>)
 8002220:	5c5b      	ldrb	r3, [r3, r1]
 8002222:	7812      	ldrb	r2, [r2, #0]
 8002224:	429a      	cmp	r2, r3
 8002226:	d908      	bls.n	800223a <vPortValidateInterruptPriority+0x26>
 8002228:	f04f 03fc 	mov.w	r3, #252	; 0xfc
 800222c:	f383 8811 	msr	BASEPRI, r3
 8002230:	f3bf 8f6f 	isb	sy
 8002234:	f3bf 8f4f 	dsb	sy
 8002238:	e7fe      	b.n	8002238 <vPortValidateInterruptPriority+0x24>
 800223a:	4b0b      	ldr	r3, [pc, #44]	; (8002268 <vPortValidateInterruptPriority+0x54>)
 800223c:	4a0b      	ldr	r2, [pc, #44]	; (800226c <vPortValidateInterruptPriority+0x58>)
 800223e:	681b      	ldr	r3, [r3, #0]
 8002240:	6812      	ldr	r2, [r2, #0]
 8002242:	f403 63e0 	and.w	r3, r3, #1792	; 0x700
 8002246:	4293      	cmp	r3, r2
 8002248:	d908      	bls.n	800225c <vPortValidateInterruptPriority+0x48>
 800224a:	f04f 03fc 	mov.w	r3, #252	; 0xfc
 800224e:	f383 8811 	msr	BASEPRI, r3
 8002252:	f3bf 8f6f 	isb	sy
 8002256:	f3bf 8f4f 	dsb	sy
 800225a:	e7fe      	b.n	800225a <vPortValidateInterruptPriority+0x46>
 800225c:	4770      	bx	lr
 800225e:	bf00      	nop
 8002260:	e000e3f0 	.word	0xe000e3f0
 8002264:	1ffe9a78 	.word	0x1ffe9a78
 8002268:	e000ed0c 	.word	0xe000ed0c
 800226c:	1ffe9a7c 	.word	0x1ffe9a7c

08002270 <prvCopyDataToQueue>:
 8002270:	b570      	push	{r4, r5, r6, lr}
 8002272:	4616      	mov	r6, r2
 8002274:	6c02      	ldr	r2, [r0, #64]	; 0x40
 8002276:	6b85      	ldr	r5, [r0, #56]	; 0x38
 8002278:	4604      	mov	r4, r0
 800227a:	b932      	cbnz	r2, 800228a <prvCopyDataToQueue+0x1a>
 800227c:	6806      	ldr	r6, [r0, #0]
 800227e:	bb3e      	cbnz	r6, 80022d0 <prvCopyDataToQueue+0x60>
 8002280:	6840      	ldr	r0, [r0, #4]
 8002282:	f001 f93f 	bl	8003504 <xTaskPriorityDisinherit>
 8002286:	6066      	str	r6, [r4, #4]
 8002288:	e029      	b.n	80022de <prvCopyDataToQueue+0x6e>
 800228a:	b96e      	cbnz	r6, 80022a8 <prvCopyDataToQueue+0x38>
 800228c:	6880      	ldr	r0, [r0, #8]
 800228e:	f00b fbef 	bl	800da70 <memcpy>
 8002292:	68a1      	ldr	r1, [r4, #8]
 8002294:	6c23      	ldr	r3, [r4, #64]	; 0x40
 8002296:	6862      	ldr	r2, [r4, #4]
 8002298:	440b      	add	r3, r1
 800229a:	4293      	cmp	r3, r2
 800229c:	60a3      	str	r3, [r4, #8]
 800229e:	d319      	bcc.n	80022d4 <prvCopyDataToQueue+0x64>
 80022a0:	6823      	ldr	r3, [r4, #0]
 80022a2:	60a3      	str	r3, [r4, #8]
 80022a4:	4630      	mov	r0, r6
 80022a6:	e01a      	b.n	80022de <prvCopyDataToQueue+0x6e>
 80022a8:	68c0      	ldr	r0, [r0, #12]
 80022aa:	f00b fbe1 	bl	800da70 <memcpy>
 80022ae:	6c23      	ldr	r3, [r4, #64]	; 0x40
 80022b0:	68e2      	ldr	r2, [r4, #12]
 80022b2:	6821      	ldr	r1, [r4, #0]
 80022b4:	425b      	negs	r3, r3
 80022b6:	441a      	add	r2, r3
 80022b8:	428a      	cmp	r2, r1
 80022ba:	60e2      	str	r2, [r4, #12]
 80022bc:	d202      	bcs.n	80022c4 <prvCopyDataToQueue+0x54>
 80022be:	6862      	ldr	r2, [r4, #4]
 80022c0:	4413      	add	r3, r2
 80022c2:	60e3      	str	r3, [r4, #12]
 80022c4:	2e02      	cmp	r6, #2
 80022c6:	d107      	bne.n	80022d8 <prvCopyDataToQueue+0x68>
 80022c8:	b145      	cbz	r5, 80022dc <prvCopyDataToQueue+0x6c>
 80022ca:	3d01      	subs	r5, #1
 80022cc:	2000      	movs	r0, #0
 80022ce:	e006      	b.n	80022de <prvCopyDataToQueue+0x6e>
 80022d0:	4610      	mov	r0, r2
 80022d2:	e004      	b.n	80022de <prvCopyDataToQueue+0x6e>
 80022d4:	4630      	mov	r0, r6
 80022d6:	e002      	b.n	80022de <prvCopyDataToQueue+0x6e>
 80022d8:	2000      	movs	r0, #0
 80022da:	e000      	b.n	80022de <prvCopyDataToQueue+0x6e>
 80022dc:	4628      	mov	r0, r5
 80022de:	3501      	adds	r5, #1
 80022e0:	63a5      	str	r5, [r4, #56]	; 0x38
 80022e2:	bd70      	pop	{r4, r5, r6, pc}

080022e4 <prvCopyDataFromQueue>:
 80022e4:	6c02      	ldr	r2, [r0, #64]	; 0x40
 80022e6:	4603      	mov	r3, r0
 80022e8:	b17a      	cbz	r2, 800230a <prvCopyDataFromQueue+0x26>
 80022ea:	b410      	push	{r4}
 80022ec:	68c4      	ldr	r4, [r0, #12]
 80022ee:	6840      	ldr	r0, [r0, #4]
 80022f0:	4414      	add	r4, r2
 80022f2:	4284      	cmp	r4, r0
 80022f4:	bf28      	it	cs
 80022f6:	6818      	ldrcs	r0, [r3, #0]
 80022f8:	60dc      	str	r4, [r3, #12]
 80022fa:	bf28      	it	cs
 80022fc:	60d8      	strcs	r0, [r3, #12]
 80022fe:	f85d 4b04 	ldr.w	r4, [sp], #4
 8002302:	4608      	mov	r0, r1
 8002304:	68d9      	ldr	r1, [r3, #12]
 8002306:	f00b bbb3 	b.w	800da70 <memcpy>
 800230a:	4770      	bx	lr

0800230c <prvNotifyQueueSetContainer.part.0>:
 800230c:	f04f 03fc 	mov.w	r3, #252	; 0xfc
 8002310:	f383 8811 	msr	BASEPRI, r3
 8002314:	f3bf 8f6f 	isb	sy
 8002318:	f3bf 8f4f 	dsb	sy
 800231c:	e7fe      	b.n	800231c <prvNotifyQueueSetContainer.part.0+0x10>
 800231e:	bf00      	nop

08002320 <prvNotifyQueueSetContainer>:
 8002320:	b570      	push	{r4, r5, r6, lr}
 8002322:	6c84      	ldr	r4, [r0, #72]	; 0x48
 8002324:	b082      	sub	sp, #8
 8002326:	9001      	str	r0, [sp, #4]
 8002328:	b1a4      	cbz	r4, 8002354 <prvNotifyQueueSetContainer+0x34>
 800232a:	460a      	mov	r2, r1
 800232c:	6be3      	ldr	r3, [r4, #60]	; 0x3c
 800232e:	6ba1      	ldr	r1, [r4, #56]	; 0x38
 8002330:	4299      	cmp	r1, r3
 8002332:	d308      	bcc.n	8002346 <prvNotifyQueueSetContainer+0x26>
 8002334:	f04f 03fc 	mov.w	r3, #252	; 0xfc
 8002338:	f383 8811 	msr	BASEPRI, r3
 800233c:	f3bf 8f6f 	isb	sy
 8002340:	f3bf 8f4f 	dsb	sy
 8002344:	e7fe      	b.n	8002344 <prvNotifyQueueSetContainer+0x24>
 8002346:	6ba1      	ldr	r1, [r4, #56]	; 0x38
 8002348:	428b      	cmp	r3, r1
 800234a:	d805      	bhi.n	8002358 <prvNotifyQueueSetContainer+0x38>
 800234c:	2600      	movs	r6, #0
 800234e:	4630      	mov	r0, r6
 8002350:	b002      	add	sp, #8
 8002352:	bd70      	pop	{r4, r5, r6, pc}
 8002354:	f7ff ffda 	bl	800230c <prvNotifyQueueSetContainer.part.0>
 8002358:	f894 5045 	ldrb.w	r5, [r4, #69]	; 0x45
 800235c:	4620      	mov	r0, r4
 800235e:	a901      	add	r1, sp, #4
 8002360:	f7ff ff86 	bl	8002270 <prvCopyDataToQueue>
 8002364:	b2ed      	uxtb	r5, r5
 8002366:	2dff      	cmp	r5, #255	; 0xff
 8002368:	4606      	mov	r6, r0
 800236a:	d006      	beq.n	800237a <prvNotifyQueueSetContainer+0x5a>
 800236c:	1c6b      	adds	r3, r5, #1
 800236e:	b2db      	uxtb	r3, r3
 8002370:	4630      	mov	r0, r6
 8002372:	f884 3045 	strb.w	r3, [r4, #69]	; 0x45
 8002376:	b002      	add	sp, #8
 8002378:	bd70      	pop	{r4, r5, r6, pc}
 800237a:	6a63      	ldr	r3, [r4, #36]	; 0x24
 800237c:	2b00      	cmp	r3, #0
 800237e:	d0e6      	beq.n	800234e <prvNotifyQueueSetContainer+0x2e>
 8002380:	f104 0024 	add.w	r0, r4, #36	; 0x24
 8002384:	f000 ffb0 	bl	80032e8 <xTaskRemoveFromEventList>
 8002388:	2800      	cmp	r0, #0
 800238a:	bf18      	it	ne
 800238c:	2601      	movne	r6, #1
 800238e:	4630      	mov	r0, r6
 8002390:	b002      	add	sp, #8
 8002392:	bd70      	pop	{r4, r5, r6, pc}

08002394 <prvUnlockQueue>:
 8002394:	e92d 43f0 	stmdb	sp!, {r4, r5, r6, r7, r8, r9, lr}
 8002398:	4604      	mov	r4, r0
 800239a:	b083      	sub	sp, #12
 800239c:	f7ff fe28 	bl	8001ff0 <vPortEnterCritical>
 80023a0:	f894 7045 	ldrb.w	r7, [r4, #69]	; 0x45
 80023a4:	b2ff      	uxtb	r7, r7
 80023a6:	b27b      	sxtb	r3, r7
 80023a8:	2b00      	cmp	r3, #0
 80023aa:	bfc8      	it	gt
 80023ac:	f104 0824 	addgt.w	r8, r4, #36	; 0x24
 80023b0:	dd18      	ble.n	80023e4 <prvUnlockQueue+0x50>
 80023b2:	6ca5      	ldr	r5, [r4, #72]	; 0x48
 80023b4:	2d00      	cmp	r5, #0
 80023b6:	d03c      	beq.n	8002432 <prvUnlockQueue+0x9e>
 80023b8:	6baa      	ldr	r2, [r5, #56]	; 0x38
 80023ba:	6beb      	ldr	r3, [r5, #60]	; 0x3c
 80023bc:	9401      	str	r4, [sp, #4]
 80023be:	429a      	cmp	r2, r3
 80023c0:	d308      	bcc.n	80023d4 <prvUnlockQueue+0x40>
 80023c2:	f04f 03fc 	mov.w	r3, #252	; 0xfc
 80023c6:	f383 8811 	msr	BASEPRI, r3
 80023ca:	f3bf 8f6f 	isb	sy
 80023ce:	f3bf 8f4f 	dsb	sy
 80023d2:	e7fe      	b.n	80023d2 <prvUnlockQueue+0x3e>
 80023d4:	6baa      	ldr	r2, [r5, #56]	; 0x38
 80023d6:	4293      	cmp	r3, r2
 80023d8:	d836      	bhi.n	8002448 <prvUnlockQueue+0xb4>
 80023da:	1e7b      	subs	r3, r7, #1
 80023dc:	b2db      	uxtb	r3, r3
 80023de:	b2df      	uxtb	r7, r3
 80023e0:	2b00      	cmp	r3, #0
 80023e2:	d1e6      	bne.n	80023b2 <prvUnlockQueue+0x1e>
 80023e4:	23ff      	movs	r3, #255	; 0xff
 80023e6:	f884 3045 	strb.w	r3, [r4, #69]	; 0x45
 80023ea:	f7ff fe23 	bl	8002034 <vPortExitCritical>
 80023ee:	f7ff fdff 	bl	8001ff0 <vPortEnterCritical>
 80023f2:	f894 5044 	ldrb.w	r5, [r4, #68]	; 0x44
 80023f6:	b2ed      	uxtb	r5, r5
 80023f8:	b26b      	sxtb	r3, r5
 80023fa:	2b00      	cmp	r3, #0
 80023fc:	dd11      	ble.n	8002422 <prvUnlockQueue+0x8e>
 80023fe:	6923      	ldr	r3, [r4, #16]
 8002400:	b17b      	cbz	r3, 8002422 <prvUnlockQueue+0x8e>
 8002402:	f104 0610 	add.w	r6, r4, #16
 8002406:	e001      	b.n	800240c <prvUnlockQueue+0x78>
 8002408:	6923      	ldr	r3, [r4, #16]
 800240a:	b153      	cbz	r3, 8002422 <prvUnlockQueue+0x8e>
 800240c:	4630      	mov	r0, r6
 800240e:	f000 ff6b 	bl	80032e8 <xTaskRemoveFromEventList>
 8002412:	b108      	cbz	r0, 8002418 <prvUnlockQueue+0x84>
 8002414:	f001 f812 	bl	800343c <vTaskMissedYield>
 8002418:	3d01      	subs	r5, #1
 800241a:	b2eb      	uxtb	r3, r5
 800241c:	b2dd      	uxtb	r5, r3
 800241e:	2b00      	cmp	r3, #0
 8002420:	d1f2      	bne.n	8002408 <prvUnlockQueue+0x74>
 8002422:	23ff      	movs	r3, #255	; 0xff
 8002424:	f884 3044 	strb.w	r3, [r4, #68]	; 0x44
 8002428:	f7ff fe04 	bl	8002034 <vPortExitCritical>
 800242c:	b003      	add	sp, #12
 800242e:	e8bd 83f0 	ldmia.w	sp!, {r4, r5, r6, r7, r8, r9, pc}
 8002432:	6a63      	ldr	r3, [r4, #36]	; 0x24
 8002434:	2b00      	cmp	r3, #0
 8002436:	d0d5      	beq.n	80023e4 <prvUnlockQueue+0x50>
 8002438:	4640      	mov	r0, r8
 800243a:	f000 ff55 	bl	80032e8 <xTaskRemoveFromEventList>
 800243e:	2800      	cmp	r0, #0
 8002440:	d0cb      	beq.n	80023da <prvUnlockQueue+0x46>
 8002442:	f000 fffb 	bl	800343c <vTaskMissedYield>
 8002446:	e7c8      	b.n	80023da <prvUnlockQueue+0x46>
 8002448:	f895 6045 	ldrb.w	r6, [r5, #69]	; 0x45
 800244c:	4628      	mov	r0, r5
 800244e:	a901      	add	r1, sp, #4
 8002450:	2200      	movs	r2, #0
 8002452:	f7ff ff0d 	bl	8002270 <prvCopyDataToQueue>
 8002456:	b2f6      	uxtb	r6, r6
 8002458:	2eff      	cmp	r6, #255	; 0xff
 800245a:	4681      	mov	r9, r0
 800245c:	d007      	beq.n	800246e <prvUnlockQueue+0xda>
 800245e:	1c73      	adds	r3, r6, #1
 8002460:	b2db      	uxtb	r3, r3
 8002462:	f885 3045 	strb.w	r3, [r5, #69]	; 0x45
 8002466:	f1b9 0f00 	cmp.w	r9, #0
 800246a:	d1ea      	bne.n	8002442 <prvUnlockQueue+0xae>
 800246c:	e7b5      	b.n	80023da <prvUnlockQueue+0x46>
 800246e:	6a6b      	ldr	r3, [r5, #36]	; 0x24
 8002470:	2b00      	cmp	r3, #0
 8002472:	d0f8      	beq.n	8002466 <prvUnlockQueue+0xd2>
 8002474:	f105 0024 	add.w	r0, r5, #36	; 0x24
 8002478:	f000 ff36 	bl	80032e8 <xTaskRemoveFromEventList>
 800247c:	2800      	cmp	r0, #0
 800247e:	d0f2      	beq.n	8002466 <prvUnlockQueue+0xd2>
 8002480:	e7df      	b.n	8002442 <prvUnlockQueue+0xae>
 8002482:	bf00      	nop

08002484 <xQueueGenericCreate>:
 8002484:	b5f8      	push	{r3, r4, r5, r6, r7, lr}
 8002486:	4606      	mov	r6, r0
 8002488:	b940      	cbnz	r0, 800249c <xQueueGenericCreate+0x18>
 800248a:	f04f 03fc 	mov.w	r3, #252	; 0xfc
 800248e:	f383 8811 	msr	BASEPRI, r3
 8002492:	f3bf 8f6f 	isb	sy
 8002496:	f3bf 8f4f 	dsb	sy
 800249a:	e7fe      	b.n	800249a <xQueueGenericCreate+0x16>
 800249c:	460f      	mov	r7, r1
 800249e:	4615      	mov	r5, r2
 80024a0:	b151      	cbz	r1, 80024b8 <xQueueGenericCreate+0x34>
 80024a2:	fb01 f000 	mul.w	r0, r1, r0
 80024a6:	3054      	adds	r0, #84	; 0x54
 80024a8:	f7ff fcda 	bl	8001e60 <pvPortMalloc>
 80024ac:	4604      	mov	r4, r0
 80024ae:	f100 0354 	add.w	r3, r0, #84	; 0x54
 80024b2:	b938      	cbnz	r0, 80024c4 <xQueueGenericCreate+0x40>
 80024b4:	4620      	mov	r0, r4
 80024b6:	bdf8      	pop	{r3, r4, r5, r6, r7, pc}
 80024b8:	2054      	movs	r0, #84	; 0x54
 80024ba:	f7ff fcd1 	bl	8001e60 <pvPortMalloc>
 80024be:	4604      	mov	r4, r0
 80024c0:	4603      	mov	r3, r0
 80024c2:	b318      	cbz	r0, 800250c <xQueueGenericCreate+0x88>
 80024c4:	6023      	str	r3, [r4, #0]
 80024c6:	63e6      	str	r6, [r4, #60]	; 0x3c
 80024c8:	6427      	str	r7, [r4, #64]	; 0x40
 80024ca:	f7ff fd91 	bl	8001ff0 <vPortEnterCritical>
 80024ce:	6c22      	ldr	r2, [r4, #64]	; 0x40
 80024d0:	6be3      	ldr	r3, [r4, #60]	; 0x3c
 80024d2:	6821      	ldr	r1, [r4, #0]
 80024d4:	60a1      	str	r1, [r4, #8]
 80024d6:	fb03 f302 	mul.w	r3, r3, r2
 80024da:	1a9a      	subs	r2, r3, r2
 80024dc:	440a      	add	r2, r1
 80024de:	440b      	add	r3, r1
 80024e0:	2600      	movs	r6, #0
 80024e2:	21ff      	movs	r1, #255	; 0xff
 80024e4:	60e2      	str	r2, [r4, #12]
 80024e6:	6063      	str	r3, [r4, #4]
 80024e8:	63a6      	str	r6, [r4, #56]	; 0x38
 80024ea:	f104 0010 	add.w	r0, r4, #16
 80024ee:	f884 1044 	strb.w	r1, [r4, #68]	; 0x44
 80024f2:	f884 1045 	strb.w	r1, [r4, #69]	; 0x45
 80024f6:	f7ff fccd 	bl	8001e94 <vListInitialise>
 80024fa:	f104 0024 	add.w	r0, r4, #36	; 0x24
 80024fe:	f7ff fcc9 	bl	8001e94 <vListInitialise>
 8002502:	f7ff fd97 	bl	8002034 <vPortExitCritical>
 8002506:	64a6      	str	r6, [r4, #72]	; 0x48
 8002508:	f884 5050 	strb.w	r5, [r4, #80]	; 0x50
 800250c:	4620      	mov	r0, r4
 800250e:	bdf8      	pop	{r3, r4, r5, r6, r7, pc}

08002510 <xQueueGenericSend>:
 8002510:	e92d 47f0 	stmdb	sp!, {r4, r5, r6, r7, r8, r9, sl, lr}
 8002514:	b084      	sub	sp, #16
 8002516:	9201      	str	r2, [sp, #4]
 8002518:	2800      	cmp	r0, #0
 800251a:	f000 80be 	beq.w	800269a <xQueueGenericSend+0x18a>
 800251e:	2900      	cmp	r1, #0
 8002520:	f000 80ae 	beq.w	8002680 <xQueueGenericSend+0x170>
 8002524:	2b02      	cmp	r3, #2
 8002526:	f000 809e 	beq.w	8002666 <xQueueGenericSend+0x156>
 800252a:	4604      	mov	r4, r0
 800252c:	461e      	mov	r6, r3
 800252e:	4688      	mov	r8, r1
 8002530:	f000 ff8a 	bl	8003448 <xTaskGetSchedulerState>
 8002534:	b950      	cbnz	r0, 800254c <xQueueGenericSend+0x3c>
 8002536:	9f01      	ldr	r7, [sp, #4]
 8002538:	b14f      	cbz	r7, 800254e <xQueueGenericSend+0x3e>
 800253a:	f04f 03fc 	mov.w	r3, #252	; 0xfc
 800253e:	f383 8811 	msr	BASEPRI, r3
 8002542:	f3bf 8f6f 	isb	sy
 8002546:	f3bf 8f4f 	dsb	sy
 800254a:	e7fe      	b.n	800254a <xQueueGenericSend+0x3a>
 800254c:	2700      	movs	r7, #0
 800254e:	f7ff fd4f 	bl	8001ff0 <vPortEnterCritical>
 8002552:	6ba2      	ldr	r2, [r4, #56]	; 0x38
 8002554:	6be3      	ldr	r3, [r4, #60]	; 0x3c
 8002556:	f8df a154 	ldr.w	sl, [pc, #340]	; 80026ac <xQueueGenericSend+0x19c>
 800255a:	429a      	cmp	r2, r3
 800255c:	f04f 0900 	mov.w	r9, #0
 8002560:	d24a      	bcs.n	80025f8 <xQueueGenericSend+0xe8>
 8002562:	4641      	mov	r1, r8
 8002564:	4620      	mov	r0, r4
 8002566:	4632      	mov	r2, r6
 8002568:	f7ff fe82 	bl	8002270 <prvCopyDataToQueue>
 800256c:	6ca3      	ldr	r3, [r4, #72]	; 0x48
 800256e:	2b00      	cmp	r3, #0
 8002570:	d066      	beq.n	8002640 <xQueueGenericSend+0x130>
 8002572:	4620      	mov	r0, r4
 8002574:	4631      	mov	r1, r6
 8002576:	f7ff fed3 	bl	8002320 <prvNotifyQueueSetContainer>
 800257a:	b138      	cbz	r0, 800258c <xQueueGenericSend+0x7c>
 800257c:	4b4b      	ldr	r3, [pc, #300]	; (80026ac <xQueueGenericSend+0x19c>)
 800257e:	f04f 5280 	mov.w	r2, #268435456	; 0x10000000
 8002582:	601a      	str	r2, [r3, #0]
 8002584:	f3bf 8f4f 	dsb	sy
 8002588:	f3bf 8f6f 	isb	sy
 800258c:	f7ff fd52 	bl	8002034 <vPortExitCritical>
 8002590:	2001      	movs	r0, #1
 8002592:	e052      	b.n	800263a <xQueueGenericSend+0x12a>
 8002594:	a802      	add	r0, sp, #8
 8002596:	f000 feeb 	bl	8003370 <vTaskSetTimeOutState>
 800259a:	f7ff fd4b 	bl	8002034 <vPortExitCritical>
 800259e:	f000 fbf1 	bl	8002d84 <vTaskSuspendAll>
 80025a2:	f7ff fd25 	bl	8001ff0 <vPortEnterCritical>
 80025a6:	f894 3044 	ldrb.w	r3, [r4, #68]	; 0x44
 80025aa:	2bff      	cmp	r3, #255	; 0xff
 80025ac:	bf08      	it	eq
 80025ae:	f884 9044 	strbeq.w	r9, [r4, #68]	; 0x44
 80025b2:	f894 3045 	ldrb.w	r3, [r4, #69]	; 0x45
 80025b6:	2bff      	cmp	r3, #255	; 0xff
 80025b8:	bf08      	it	eq
 80025ba:	f884 9045 	strbeq.w	r9, [r4, #69]	; 0x45
 80025be:	f7ff fd39 	bl	8002034 <vPortExitCritical>
 80025c2:	a802      	add	r0, sp, #8
 80025c4:	a901      	add	r1, sp, #4
 80025c6:	f000 fee9 	bl	800339c <xTaskCheckForTimeOut>
 80025ca:	2800      	cmp	r0, #0
 80025cc:	d13d      	bne.n	800264a <xQueueGenericSend+0x13a>
 80025ce:	f7ff fd0f 	bl	8001ff0 <vPortEnterCritical>
 80025d2:	6ba2      	ldr	r2, [r4, #56]	; 0x38
 80025d4:	6be3      	ldr	r3, [r4, #60]	; 0x3c
 80025d6:	429a      	cmp	r2, r3
 80025d8:	d015      	beq.n	8002606 <xQueueGenericSend+0xf6>
 80025da:	f7ff fd2b 	bl	8002034 <vPortExitCritical>
 80025de:	4620      	mov	r0, r4
 80025e0:	f7ff fed8 	bl	8002394 <prvUnlockQueue>
 80025e4:	f000 fc7a 	bl	8002edc <xTaskResumeAll>
 80025e8:	f7ff fd02 	bl	8001ff0 <vPortEnterCritical>
 80025ec:	6ba2      	ldr	r2, [r4, #56]	; 0x38
 80025ee:	6be3      	ldr	r3, [r4, #60]	; 0x3c
 80025f0:	429a      	cmp	r2, r3
 80025f2:	f04f 0701 	mov.w	r7, #1
 80025f6:	d3b4      	bcc.n	8002562 <xQueueGenericSend+0x52>
 80025f8:	2e02      	cmp	r6, #2
 80025fa:	d0b2      	beq.n	8002562 <xQueueGenericSend+0x52>
 80025fc:	9d01      	ldr	r5, [sp, #4]
 80025fe:	b1cd      	cbz	r5, 8002634 <xQueueGenericSend+0x124>
 8002600:	2f00      	cmp	r7, #0
 8002602:	d1ca      	bne.n	800259a <xQueueGenericSend+0x8a>
 8002604:	e7c6      	b.n	8002594 <xQueueGenericSend+0x84>
 8002606:	f7ff fd15 	bl	8002034 <vPortExitCritical>
 800260a:	f104 0010 	add.w	r0, r4, #16
 800260e:	9901      	ldr	r1, [sp, #4]
 8002610:	f000 fdb2 	bl	8003178 <vTaskPlaceOnEventList>
 8002614:	4620      	mov	r0, r4
 8002616:	f7ff febd 	bl	8002394 <prvUnlockQueue>
 800261a:	f000 fc5f 	bl	8002edc <xTaskResumeAll>
 800261e:	2800      	cmp	r0, #0
 8002620:	d1e2      	bne.n	80025e8 <xQueueGenericSend+0xd8>
 8002622:	f04f 5380 	mov.w	r3, #268435456	; 0x10000000
 8002626:	f8ca 3000 	str.w	r3, [sl]
 800262a:	f3bf 8f4f 	dsb	sy
 800262e:	f3bf 8f6f 	isb	sy
 8002632:	e7d9      	b.n	80025e8 <xQueueGenericSend+0xd8>
 8002634:	f7ff fcfe 	bl	8002034 <vPortExitCritical>
 8002638:	4628      	mov	r0, r5
 800263a:	b004      	add	sp, #16
 800263c:	e8bd 87f0 	ldmia.w	sp!, {r4, r5, r6, r7, r8, r9, sl, pc}
 8002640:	6a63      	ldr	r3, [r4, #36]	; 0x24
 8002642:	b94b      	cbnz	r3, 8002658 <xQueueGenericSend+0x148>
 8002644:	2800      	cmp	r0, #0
 8002646:	d199      	bne.n	800257c <xQueueGenericSend+0x6c>
 8002648:	e7a0      	b.n	800258c <xQueueGenericSend+0x7c>
 800264a:	4620      	mov	r0, r4
 800264c:	f7ff fea2 	bl	8002394 <prvUnlockQueue>
 8002650:	f000 fc44 	bl	8002edc <xTaskResumeAll>
 8002654:	2000      	movs	r0, #0
 8002656:	e7f0      	b.n	800263a <xQueueGenericSend+0x12a>
 8002658:	f104 0024 	add.w	r0, r4, #36	; 0x24
 800265c:	f000 fe44 	bl	80032e8 <xTaskRemoveFromEventList>
 8002660:	2800      	cmp	r0, #0
 8002662:	d18b      	bne.n	800257c <xQueueGenericSend+0x6c>
 8002664:	e792      	b.n	800258c <xQueueGenericSend+0x7c>
 8002666:	6bc2      	ldr	r2, [r0, #60]	; 0x3c
 8002668:	2a01      	cmp	r2, #1
 800266a:	f43f af5e 	beq.w	800252a <xQueueGenericSend+0x1a>
 800266e:	f04f 03fc 	mov.w	r3, #252	; 0xfc
 8002672:	f383 8811 	msr	BASEPRI, r3
 8002676:	f3bf 8f6f 	isb	sy
 800267a:	f3bf 8f4f 	dsb	sy
 800267e:	e7fe      	b.n	800267e <xQueueGenericSend+0x16e>
 8002680:	6c02      	ldr	r2, [r0, #64]	; 0x40
 8002682:	2a00      	cmp	r2, #0
 8002684:	f43f af4e 	beq.w	8002524 <xQueueGenericSend+0x14>
 8002688:	f04f 03fc 	mov.w	r3, #252	; 0xfc
 800268c:	f383 8811 	msr	BASEPRI, r3
 8002690:	f3bf 8f6f 	isb	sy
 8002694:	f3bf 8f4f 	dsb	sy
 8002698:	e7fe      	b.n	8002698 <xQueueGenericSend+0x188>
 800269a:	f04f 03fc 	mov.w	r3, #252	; 0xfc
 800269e:	f383 8811 	msr	BASEPRI, r3
 80026a2:	f3bf 8f6f 	isb	sy
 80026a6:	f3bf 8f4f 	dsb	sy
 80026aa:	e7fe      	b.n	80026aa <xQueueGenericSend+0x19a>
 80026ac:	e000ed04 	.word	0xe000ed04

080026b0 <xQueueGenericSendFromISR>:
 80026b0:	e92d 43f8 	stmdb	sp!, {r3, r4, r5, r6, r7, r8, r9, lr}
 80026b4:	b1f0      	cbz	r0, 80026f4 <xQueueGenericSendFromISR+0x44>
 80026b6:	2900      	cmp	r1, #0
 80026b8:	d041      	beq.n	800273e <xQueueGenericSendFromISR+0x8e>
 80026ba:	2b02      	cmp	r3, #2
 80026bc:	d033      	beq.n	8002726 <xQueueGenericSendFromISR+0x76>
 80026be:	4604      	mov	r4, r0
 80026c0:	461f      	mov	r7, r3
 80026c2:	4690      	mov	r8, r2
 80026c4:	4689      	mov	r9, r1
 80026c6:	f7ff fda5 	bl	8002214 <vPortValidateInterruptPriority>
 80026ca:	f3ef 8611 	mrs	r6, BASEPRI
 80026ce:	f04f 03fc 	mov.w	r3, #252	; 0xfc
 80026d2:	f383 8811 	msr	BASEPRI, r3
 80026d6:	f3bf 8f6f 	isb	sy
 80026da:	f3bf 8f4f 	dsb	sy
 80026de:	6ba2      	ldr	r2, [r4, #56]	; 0x38
 80026e0:	6be3      	ldr	r3, [r4, #60]	; 0x3c
 80026e2:	429a      	cmp	r2, r3
 80026e4:	d30f      	bcc.n	8002706 <xQueueGenericSendFromISR+0x56>
 80026e6:	2f02      	cmp	r7, #2
 80026e8:	d00d      	beq.n	8002706 <xQueueGenericSendFromISR+0x56>
 80026ea:	2000      	movs	r0, #0
 80026ec:	f386 8811 	msr	BASEPRI, r6
 80026f0:	e8bd 83f8 	ldmia.w	sp!, {r3, r4, r5, r6, r7, r8, r9, pc}
 80026f4:	f04f 03fc 	mov.w	r3, #252	; 0xfc
 80026f8:	f383 8811 	msr	BASEPRI, r3
 80026fc:	f3bf 8f6f 	isb	sy
 8002700:	f3bf 8f4f 	dsb	sy
 8002704:	e7fe      	b.n	8002704 <xQueueGenericSendFromISR+0x54>
 8002706:	f894 5045 	ldrb.w	r5, [r4, #69]	; 0x45
 800270a:	4649      	mov	r1, r9
 800270c:	b2ed      	uxtb	r5, r5
 800270e:	4620      	mov	r0, r4
 8002710:	463a      	mov	r2, r7
 8002712:	f7ff fdad 	bl	8002270 <prvCopyDataToQueue>
 8002716:	2dff      	cmp	r5, #255	; 0xff
 8002718:	d01d      	beq.n	8002756 <xQueueGenericSendFromISR+0xa6>
 800271a:	1c6b      	adds	r3, r5, #1
 800271c:	b2db      	uxtb	r3, r3
 800271e:	f884 3045 	strb.w	r3, [r4, #69]	; 0x45
 8002722:	2001      	movs	r0, #1
 8002724:	e7e2      	b.n	80026ec <xQueueGenericSendFromISR+0x3c>
 8002726:	6bc4      	ldr	r4, [r0, #60]	; 0x3c
 8002728:	2c01      	cmp	r4, #1
 800272a:	d0c8      	beq.n	80026be <xQueueGenericSendFromISR+0xe>
 800272c:	f04f 03fc 	mov.w	r3, #252	; 0xfc
 8002730:	f383 8811 	msr	BASEPRI, r3
 8002734:	f3bf 8f6f 	isb	sy
 8002738:	f3bf 8f4f 	dsb	sy
 800273c:	e7fe      	b.n	800273c <xQueueGenericSendFromISR+0x8c>
 800273e:	6c04      	ldr	r4, [r0, #64]	; 0x40
 8002740:	2c00      	cmp	r4, #0
 8002742:	d0ba      	beq.n	80026ba <xQueueGenericSendFromISR+0xa>
 8002744:	f04f 03fc 	mov.w	r3, #252	; 0xfc
 8002748:	f383 8811 	msr	BASEPRI, r3
 800274c:	f3bf 8f6f 	isb	sy
 8002750:	f3bf 8f4f 	dsb	sy
 8002754:	e7fe      	b.n	8002754 <xQueueGenericSendFromISR+0xa4>
 8002756:	6ca3      	ldr	r3, [r4, #72]	; 0x48
 8002758:	b163      	cbz	r3, 8002774 <xQueueGenericSendFromISR+0xc4>
 800275a:	4620      	mov	r0, r4
 800275c:	4639      	mov	r1, r7
 800275e:	f7ff fddf 	bl	8002320 <prvNotifyQueueSetContainer>
 8002762:	2800      	cmp	r0, #0
 8002764:	d0dd      	beq.n	8002722 <xQueueGenericSendFromISR+0x72>
 8002766:	f1b8 0f00 	cmp.w	r8, #0
 800276a:	d0da      	beq.n	8002722 <xQueueGenericSendFromISR+0x72>
 800276c:	2001      	movs	r0, #1
 800276e:	f8c8 0000 	str.w	r0, [r8]
 8002772:	e7bb      	b.n	80026ec <xQueueGenericSendFromISR+0x3c>
 8002774:	6a63      	ldr	r3, [r4, #36]	; 0x24
 8002776:	2b00      	cmp	r3, #0
 8002778:	d0d3      	beq.n	8002722 <xQueueGenericSendFromISR+0x72>
 800277a:	f104 0024 	add.w	r0, r4, #36	; 0x24
 800277e:	f000 fdb3 	bl	80032e8 <xTaskRemoveFromEventList>
 8002782:	2800      	cmp	r0, #0
 8002784:	d1ef      	bne.n	8002766 <xQueueGenericSendFromISR+0xb6>
 8002786:	e7cc      	b.n	8002722 <xQueueGenericSendFromISR+0x72>

08002788 <xQueueGenericReceive>:
 8002788:	e92d 47f0 	stmdb	sp!, {r4, r5, r6, r7, r8, r9, sl, lr}
 800278c:	b084      	sub	sp, #16
 800278e:	9201      	str	r2, [sp, #4]
 8002790:	2800      	cmp	r0, #0
 8002792:	f000 80c4 	beq.w	800291e <xQueueGenericReceive+0x196>
 8002796:	2900      	cmp	r1, #0
 8002798:	f000 808c 	beq.w	80028b4 <xQueueGenericReceive+0x12c>
 800279c:	4604      	mov	r4, r0
 800279e:	4698      	mov	r8, r3
 80027a0:	460f      	mov	r7, r1
 80027a2:	f000 fe51 	bl	8003448 <xTaskGetSchedulerState>
 80027a6:	b950      	cbnz	r0, 80027be <xQueueGenericReceive+0x36>
 80027a8:	9d01      	ldr	r5, [sp, #4]
 80027aa:	b14d      	cbz	r5, 80027c0 <xQueueGenericReceive+0x38>
 80027ac:	f04f 03fc 	mov.w	r3, #252	; 0xfc
 80027b0:	f383 8811 	msr	BASEPRI, r3
 80027b4:	f3bf 8f6f 	isb	sy
 80027b8:	f3bf 8f4f 	dsb	sy
 80027bc:	e7fe      	b.n	80027bc <xQueueGenericReceive+0x34>
 80027be:	2500      	movs	r5, #0
 80027c0:	f7ff fc16 	bl	8001ff0 <vPortEnterCritical>
 80027c4:	6ba6      	ldr	r6, [r4, #56]	; 0x38
 80027c6:	f8df a168 	ldr.w	sl, [pc, #360]	; 8002930 <xQueueGenericReceive+0x1a8>
 80027ca:	f04f 0900 	mov.w	r9, #0
 80027ce:	2e00      	cmp	r6, #0
 80027d0:	d144      	bne.n	800285c <xQueueGenericReceive+0xd4>
 80027d2:	9b01      	ldr	r3, [sp, #4]
 80027d4:	2b00      	cmp	r3, #0
 80027d6:	f000 8082 	beq.w	80028de <xQueueGenericReceive+0x156>
 80027da:	b915      	cbnz	r5, 80027e2 <xQueueGenericReceive+0x5a>
 80027dc:	a802      	add	r0, sp, #8
 80027de:	f000 fdc7 	bl	8003370 <vTaskSetTimeOutState>
 80027e2:	f7ff fc27 	bl	8002034 <vPortExitCritical>
 80027e6:	f000 facd 	bl	8002d84 <vTaskSuspendAll>
 80027ea:	f7ff fc01 	bl	8001ff0 <vPortEnterCritical>
 80027ee:	f894 3044 	ldrb.w	r3, [r4, #68]	; 0x44
 80027f2:	2bff      	cmp	r3, #255	; 0xff
 80027f4:	bf08      	it	eq
 80027f6:	f884 9044 	strbeq.w	r9, [r4, #68]	; 0x44
 80027fa:	f894 3045 	ldrb.w	r3, [r4, #69]	; 0x45
 80027fe:	2bff      	cmp	r3, #255	; 0xff
 8002800:	bf08      	it	eq
 8002802:	f884 9045 	strbeq.w	r9, [r4, #69]	; 0x45
 8002806:	f7ff fc15 	bl	8002034 <vPortExitCritical>
 800280a:	a802      	add	r0, sp, #8
 800280c:	a901      	add	r1, sp, #4
 800280e:	f000 fdc5 	bl	800339c <xTaskCheckForTimeOut>
 8002812:	2800      	cmp	r0, #0
 8002814:	d141      	bne.n	800289a <xQueueGenericReceive+0x112>
 8002816:	f7ff fbeb 	bl	8001ff0 <vPortEnterCritical>
 800281a:	6ba3      	ldr	r3, [r4, #56]	; 0x38
 800281c:	2b00      	cmp	r3, #0
 800281e:	d133      	bne.n	8002888 <xQueueGenericReceive+0x100>
 8002820:	f7ff fc08 	bl	8002034 <vPortExitCritical>
 8002824:	6823      	ldr	r3, [r4, #0]
 8002826:	2b00      	cmp	r3, #0
 8002828:	d051      	beq.n	80028ce <xQueueGenericReceive+0x146>
 800282a:	f104 0024 	add.w	r0, r4, #36	; 0x24
 800282e:	9901      	ldr	r1, [sp, #4]
 8002830:	f000 fca2 	bl	8003178 <vTaskPlaceOnEventList>
 8002834:	4620      	mov	r0, r4
 8002836:	f7ff fdad 	bl	8002394 <prvUnlockQueue>
 800283a:	f000 fb4f 	bl	8002edc <xTaskResumeAll>
 800283e:	b938      	cbnz	r0, 8002850 <xQueueGenericReceive+0xc8>
 8002840:	f04f 5380 	mov.w	r3, #268435456	; 0x10000000
 8002844:	f8ca 3000 	str.w	r3, [sl]
 8002848:	f3bf 8f4f 	dsb	sy
 800284c:	f3bf 8f6f 	isb	sy
 8002850:	2501      	movs	r5, #1
 8002852:	f7ff fbcd 	bl	8001ff0 <vPortEnterCritical>
 8002856:	6ba6      	ldr	r6, [r4, #56]	; 0x38
 8002858:	2e00      	cmp	r6, #0
 800285a:	d0ba      	beq.n	80027d2 <xQueueGenericReceive+0x4a>
 800285c:	4639      	mov	r1, r7
 800285e:	4620      	mov	r0, r4
 8002860:	68e5      	ldr	r5, [r4, #12]
 8002862:	f7ff fd3f 	bl	80022e4 <prvCopyDataFromQueue>
 8002866:	f1b8 0f00 	cmp.w	r8, #0
 800286a:	d13e      	bne.n	80028ea <xQueueGenericReceive+0x162>
 800286c:	6823      	ldr	r3, [r4, #0]
 800286e:	3e01      	subs	r6, #1
 8002870:	63a6      	str	r6, [r4, #56]	; 0x38
 8002872:	b913      	cbnz	r3, 800287a <xQueueGenericReceive+0xf2>
 8002874:	f000 fea0 	bl	80035b8 <pvTaskIncrementMutexHeldCount>
 8002878:	6060      	str	r0, [r4, #4]
 800287a:	6923      	ldr	r3, [r4, #16]
 800287c:	2b00      	cmp	r3, #0
 800287e:	d147      	bne.n	8002910 <xQueueGenericReceive+0x188>
 8002880:	f7ff fbd8 	bl	8002034 <vPortExitCritical>
 8002884:	2001      	movs	r0, #1
 8002886:	e02d      	b.n	80028e4 <xQueueGenericReceive+0x15c>
 8002888:	f7ff fbd4 	bl	8002034 <vPortExitCritical>
 800288c:	4620      	mov	r0, r4
 800288e:	f7ff fd81 	bl	8002394 <prvUnlockQueue>
 8002892:	2501      	movs	r5, #1
 8002894:	f000 fb22 	bl	8002edc <xTaskResumeAll>
 8002898:	e7db      	b.n	8002852 <xQueueGenericReceive+0xca>
 800289a:	4620      	mov	r0, r4
 800289c:	f7ff fd7a 	bl	8002394 <prvUnlockQueue>
 80028a0:	f000 fb1c 	bl	8002edc <xTaskResumeAll>
 80028a4:	f7ff fba4 	bl	8001ff0 <vPortEnterCritical>
 80028a8:	6ba3      	ldr	r3, [r4, #56]	; 0x38
 80028aa:	b1c3      	cbz	r3, 80028de <xQueueGenericReceive+0x156>
 80028ac:	f7ff fbc2 	bl	8002034 <vPortExitCritical>
 80028b0:	2501      	movs	r5, #1
 80028b2:	e7ce      	b.n	8002852 <xQueueGenericReceive+0xca>
 80028b4:	6c02      	ldr	r2, [r0, #64]	; 0x40
 80028b6:	2a00      	cmp	r2, #0
 80028b8:	f43f af70 	beq.w	800279c <xQueueGenericReceive+0x14>
 80028bc:	f04f 03fc 	mov.w	r3, #252	; 0xfc
 80028c0:	f383 8811 	msr	BASEPRI, r3
 80028c4:	f3bf 8f6f 	isb	sy
 80028c8:	f3bf 8f4f 	dsb	sy
 80028cc:	e7fe      	b.n	80028cc <xQueueGenericReceive+0x144>
 80028ce:	f7ff fb8f 	bl	8001ff0 <vPortEnterCritical>
 80028d2:	6860      	ldr	r0, [r4, #4]
 80028d4:	f000 fdc8 	bl	8003468 <vTaskPriorityInherit>
 80028d8:	f7ff fbac 	bl	8002034 <vPortExitCritical>
 80028dc:	e7a5      	b.n	800282a <xQueueGenericReceive+0xa2>
 80028de:	f7ff fba9 	bl	8002034 <vPortExitCritical>
 80028e2:	2000      	movs	r0, #0
 80028e4:	b004      	add	sp, #16
 80028e6:	e8bd 87f0 	ldmia.w	sp!, {r4, r5, r6, r7, r8, r9, sl, pc}
 80028ea:	6a63      	ldr	r3, [r4, #36]	; 0x24
 80028ec:	60e5      	str	r5, [r4, #12]
 80028ee:	2b00      	cmp	r3, #0
 80028f0:	d0c6      	beq.n	8002880 <xQueueGenericReceive+0xf8>
 80028f2:	f104 0024 	add.w	r0, r4, #36	; 0x24
 80028f6:	f000 fcf7 	bl	80032e8 <xTaskRemoveFromEventList>
 80028fa:	2800      	cmp	r0, #0
 80028fc:	d0c0      	beq.n	8002880 <xQueueGenericReceive+0xf8>
 80028fe:	4b0c      	ldr	r3, [pc, #48]	; (8002930 <xQueueGenericReceive+0x1a8>)
 8002900:	f04f 5280 	mov.w	r2, #268435456	; 0x10000000
 8002904:	601a      	str	r2, [r3, #0]
 8002906:	f3bf 8f4f 	dsb	sy
 800290a:	f3bf 8f6f 	isb	sy
 800290e:	e7b7      	b.n	8002880 <xQueueGenericReceive+0xf8>
 8002910:	f104 0010 	add.w	r0, r4, #16
 8002914:	f000 fce8 	bl	80032e8 <xTaskRemoveFromEventList>
 8002918:	2800      	cmp	r0, #0
 800291a:	d1f0      	bne.n	80028fe <xQueueGenericReceive+0x176>
 800291c:	e7b0      	b.n	8002880 <xQueueGenericReceive+0xf8>
 800291e:	f04f 03fc 	mov.w	r3, #252	; 0xfc
 8002922:	f383 8811 	msr	BASEPRI, r3
 8002926:	f3bf 8f6f 	isb	sy
 800292a:	f3bf 8f4f 	dsb	sy
 800292e:	e7fe      	b.n	800292e <xQueueGenericReceive+0x1a6>
 8002930:	e000ed04 	.word	0xe000ed04

08002934 <vQueueAddToRegistry>:
 8002934:	4b14      	ldr	r3, [pc, #80]	; (8002988 <vQueueAddToRegistry+0x54>)
 8002936:	681a      	ldr	r2, [r3, #0]
 8002938:	b410      	push	{r4}
 800293a:	b18a      	cbz	r2, 8002960 <vQueueAddToRegistry+0x2c>
 800293c:	689a      	ldr	r2, [r3, #8]
 800293e:	b1ba      	cbz	r2, 8002970 <vQueueAddToRegistry+0x3c>
 8002940:	691a      	ldr	r2, [r3, #16]
 8002942:	b1ba      	cbz	r2, 8002974 <vQueueAddToRegistry+0x40>
 8002944:	699a      	ldr	r2, [r3, #24]
 8002946:	b1ba      	cbz	r2, 8002978 <vQueueAddToRegistry+0x44>
 8002948:	6a1a      	ldr	r2, [r3, #32]
 800294a:	b1ba      	cbz	r2, 800297c <vQueueAddToRegistry+0x48>
 800294c:	6a9a      	ldr	r2, [r3, #40]	; 0x28
 800294e:	b1ba      	cbz	r2, 8002980 <vQueueAddToRegistry+0x4c>
 8002950:	6b1a      	ldr	r2, [r3, #48]	; 0x30
 8002952:	b122      	cbz	r2, 800295e <vQueueAddToRegistry+0x2a>
 8002954:	6b9a      	ldr	r2, [r3, #56]	; 0x38
 8002956:	b1aa      	cbz	r2, 8002984 <vQueueAddToRegistry+0x50>
 8002958:	f85d 4b04 	ldr.w	r4, [sp], #4
 800295c:	4770      	bx	lr
 800295e:	2206      	movs	r2, #6
 8002960:	eb03 04c2 	add.w	r4, r3, r2, lsl #3
 8002964:	f843 1032 	str.w	r1, [r3, r2, lsl #3]
 8002968:	6060      	str	r0, [r4, #4]
 800296a:	f85d 4b04 	ldr.w	r4, [sp], #4
 800296e:	4770      	bx	lr
 8002970:	2201      	movs	r2, #1
 8002972:	e7f5      	b.n	8002960 <vQueueAddToRegistry+0x2c>
 8002974:	2202      	movs	r2, #2
 8002976:	e7f3      	b.n	8002960 <vQueueAddToRegistry+0x2c>
 8002978:	2203      	movs	r2, #3
 800297a:	e7f1      	b.n	8002960 <vQueueAddToRegistry+0x2c>
 800297c:	2204      	movs	r2, #4
 800297e:	e7ef      	b.n	8002960 <vQueueAddToRegistry+0x2c>
 8002980:	2205      	movs	r2, #5
 8002982:	e7ed      	b.n	8002960 <vQueueAddToRegistry+0x2c>
 8002984:	2207      	movs	r2, #7
 8002986:	e7eb      	b.n	8002960 <vQueueAddToRegistry+0x2c>
 8002988:	1ffe9c44 	.word	0x1ffe9c44

0800298c <vQueueWaitForMessageRestricted>:
 800298c:	b570      	push	{r4, r5, r6, lr}
 800298e:	4604      	mov	r4, r0
 8002990:	460e      	mov	r6, r1
 8002992:	4615      	mov	r5, r2
 8002994:	f7ff fb2c 	bl	8001ff0 <vPortEnterCritical>
 8002998:	f894 3044 	ldrb.w	r3, [r4, #68]	; 0x44
 800299c:	2bff      	cmp	r3, #255	; 0xff
 800299e:	bf04      	itt	eq
 80029a0:	2300      	moveq	r3, #0
 80029a2:	f884 3044 	strbeq.w	r3, [r4, #68]	; 0x44
 80029a6:	f894 3045 	ldrb.w	r3, [r4, #69]	; 0x45
 80029aa:	2bff      	cmp	r3, #255	; 0xff
 80029ac:	bf04      	itt	eq
 80029ae:	2300      	moveq	r3, #0
 80029b0:	f884 3045 	strbeq.w	r3, [r4, #69]	; 0x45
 80029b4:	f7ff fb3e 	bl	8002034 <vPortExitCritical>
 80029b8:	6ba3      	ldr	r3, [r4, #56]	; 0x38
 80029ba:	b92b      	cbnz	r3, 80029c8 <vQueueWaitForMessageRestricted+0x3c>
 80029bc:	4631      	mov	r1, r6
 80029be:	462a      	mov	r2, r5
 80029c0:	f104 0024 	add.w	r0, r4, #36	; 0x24
 80029c4:	f000 fc30 	bl	8003228 <vTaskPlaceOnEventListRestricted>
 80029c8:	4620      	mov	r0, r4
 80029ca:	e8bd 4070 	ldmia.w	sp!, {r4, r5, r6, lr}
 80029ce:	f7ff bce1 	b.w	8002394 <prvUnlockQueue>
 80029d2:	bf00      	nop

080029d4 <prvAddCurrentTaskToDelayedList>:
 80029d4:	b5f8      	push	{r3, r4, r5, r6, r7, lr}
 80029d6:	4b1d      	ldr	r3, [pc, #116]	; (8002a4c <prvAddCurrentTaskToDelayedList+0x78>)
 80029d8:	4d1d      	ldr	r5, [pc, #116]	; (8002a50 <prvAddCurrentTaskToDelayedList+0x7c>)
 80029da:	681e      	ldr	r6, [r3, #0]
 80029dc:	682a      	ldr	r2, [r5, #0]
 80029de:	682b      	ldr	r3, [r5, #0]
 80029e0:	2700      	movs	r7, #0
 80029e2:	4604      	mov	r4, r0
 80029e4:	f882 706d 	strb.w	r7, [r2, #109]	; 0x6d
 80029e8:	1d18      	adds	r0, r3, #4
 80029ea:	460f      	mov	r7, r1
 80029ec:	f7ff fa8c 	bl	8001f08 <uxListRemove>
 80029f0:	b940      	cbnz	r0, 8002a04 <prvAddCurrentTaskToDelayedList+0x30>
 80029f2:	682b      	ldr	r3, [r5, #0]
 80029f4:	4917      	ldr	r1, [pc, #92]	; (8002a54 <prvAddCurrentTaskToDelayedList+0x80>)
 80029f6:	6ad8      	ldr	r0, [r3, #44]	; 0x2c
 80029f8:	680a      	ldr	r2, [r1, #0]
 80029fa:	2301      	movs	r3, #1
 80029fc:	4083      	lsls	r3, r0
 80029fe:	ea22 0303 	bic.w	r3, r2, r3
 8002a02:	600b      	str	r3, [r1, #0]
 8002a04:	1c63      	adds	r3, r4, #1
 8002a06:	d107      	bne.n	8002a18 <prvAddCurrentTaskToDelayedList+0x44>
 8002a08:	b137      	cbz	r7, 8002a18 <prvAddCurrentTaskToDelayedList+0x44>
 8002a0a:	6829      	ldr	r1, [r5, #0]
 8002a0c:	4812      	ldr	r0, [pc, #72]	; (8002a58 <prvAddCurrentTaskToDelayedList+0x84>)
 8002a0e:	3104      	adds	r1, #4
 8002a10:	e8bd 40f8 	ldmia.w	sp!, {r3, r4, r5, r6, r7, lr}
 8002a14:	f7ff ba4e 	b.w	8001eb4 <vListInsertEnd>
 8002a18:	4434      	add	r4, r6
 8002a1a:	682b      	ldr	r3, [r5, #0]
 8002a1c:	4a0c      	ldr	r2, [pc, #48]	; (8002a50 <prvAddCurrentTaskToDelayedList+0x7c>)
 8002a1e:	605c      	str	r4, [r3, #4]
 8002a20:	42b4      	cmp	r4, r6
 8002a22:	d207      	bcs.n	8002a34 <prvAddCurrentTaskToDelayedList+0x60>
 8002a24:	4b0d      	ldr	r3, [pc, #52]	; (8002a5c <prvAddCurrentTaskToDelayedList+0x88>)
 8002a26:	6818      	ldr	r0, [r3, #0]
 8002a28:	6811      	ldr	r1, [r2, #0]
 8002a2a:	e8bd 40f8 	ldmia.w	sp!, {r3, r4, r5, r6, r7, lr}
 8002a2e:	3104      	adds	r1, #4
 8002a30:	f7ff ba50 	b.w	8001ed4 <vListInsert>
 8002a34:	4b0a      	ldr	r3, [pc, #40]	; (8002a60 <prvAddCurrentTaskToDelayedList+0x8c>)
 8002a36:	6818      	ldr	r0, [r3, #0]
 8002a38:	6811      	ldr	r1, [r2, #0]
 8002a3a:	3104      	adds	r1, #4
 8002a3c:	f7ff fa4a 	bl	8001ed4 <vListInsert>
 8002a40:	4b08      	ldr	r3, [pc, #32]	; (8002a64 <prvAddCurrentTaskToDelayedList+0x90>)
 8002a42:	681a      	ldr	r2, [r3, #0]
 8002a44:	4294      	cmp	r4, r2
 8002a46:	bf38      	it	cc
 8002a48:	601c      	strcc	r4, [r3, #0]
 8002a4a:	bdf8      	pop	{r3, r4, r5, r6, r7, pc}
 8002a4c:	1ffe9b30 	.word	0x1ffe9b30
 8002a50:	1ffe9b24 	.word	0x1ffe9b24
 8002a54:	1ffe9b7c 	.word	0x1ffe9b7c
 8002a58:	1ffe9b68 	.word	0x1ffe9b68
 8002a5c:	1ffe9b34 	.word	0x1ffe9b34
 8002a60:	1ffe9a84 	.word	0x1ffe9a84
 8002a64:	1ffe9b28 	.word	0x1ffe9b28

08002a68 <prvResetNextTaskUnblockTime>:
 8002a68:	4b07      	ldr	r3, [pc, #28]	; (8002a88 <prvResetNextTaskUnblockTime+0x20>)
 8002a6a:	4a08      	ldr	r2, [pc, #32]	; (8002a8c <prvResetNextTaskUnblockTime+0x24>)
 8002a6c:	6819      	ldr	r1, [r3, #0]
 8002a6e:	6809      	ldr	r1, [r1, #0]
 8002a70:	b919      	cbnz	r1, 8002a7a <prvResetNextTaskUnblockTime+0x12>
 8002a72:	f04f 33ff 	mov.w	r3, #4294967295
 8002a76:	6013      	str	r3, [r2, #0]
 8002a78:	4770      	bx	lr
 8002a7a:	681b      	ldr	r3, [r3, #0]
 8002a7c:	68db      	ldr	r3, [r3, #12]
 8002a7e:	68db      	ldr	r3, [r3, #12]
 8002a80:	685b      	ldr	r3, [r3, #4]
 8002a82:	6013      	str	r3, [r2, #0]
 8002a84:	4770      	bx	lr
 8002a86:	bf00      	nop
 8002a88:	1ffe9a84 	.word	0x1ffe9a84
 8002a8c:	1ffe9b28 	.word	0x1ffe9b28

08002a90 <xTaskCreate>:
 8002a90:	e92d 4ff8 	stmdb	sp!, {r3, r4, r5, r6, r7, r8, r9, sl, fp, lr}
 8002a94:	0096      	lsls	r6, r2, #2
 8002a96:	4682      	mov	sl, r0
 8002a98:	4630      	mov	r0, r6
 8002a9a:	460d      	mov	r5, r1
 8002a9c:	4699      	mov	r9, r3
 8002a9e:	f8dd 802c 	ldr.w	r8, [sp, #44]	; 0x2c
 8002aa2:	f7ff f9dd 	bl	8001e60 <pvPortMalloc>
 8002aa6:	4607      	mov	r7, r0
 8002aa8:	2800      	cmp	r0, #0
 8002aaa:	f000 80dd 	beq.w	8002c68 <xTaskCreate+0x1d8>
 8002aae:	2070      	movs	r0, #112	; 0x70
 8002ab0:	f7ff f9d6 	bl	8001e60 <pvPortMalloc>
 8002ab4:	4604      	mov	r4, r0
 8002ab6:	2800      	cmp	r0, #0
 8002ab8:	f000 80d3 	beq.w	8002c62 <xTaskCreate+0x1d2>
 8002abc:	6307      	str	r7, [r0, #48]	; 0x30
 8002abe:	4632      	mov	r2, r6
 8002ac0:	4638      	mov	r0, r7
 8002ac2:	21a5      	movs	r1, #165	; 0xa5
 8002ac4:	f00a fffa 	bl	800dabc <memset>
 8002ac8:	782b      	ldrb	r3, [r5, #0]
 8002aca:	6b27      	ldr	r7, [r4, #48]	; 0x30
 8002acc:	f884 3034 	strb.w	r3, [r4, #52]	; 0x34
 8002ad0:	3e04      	subs	r6, #4
 8002ad2:	782b      	ldrb	r3, [r5, #0]
 8002ad4:	4437      	add	r7, r6
 8002ad6:	f027 0707 	bic.w	r7, r7, #7
 8002ada:	2b00      	cmp	r3, #0
 8002adc:	d047      	beq.n	8002b6e <xTaskCreate+0xde>
 8002ade:	786b      	ldrb	r3, [r5, #1]
 8002ae0:	f884 3035 	strb.w	r3, [r4, #53]	; 0x35
 8002ae4:	786b      	ldrb	r3, [r5, #1]
 8002ae6:	2b00      	cmp	r3, #0
 8002ae8:	d041      	beq.n	8002b6e <xTaskCreate+0xde>
 8002aea:	78ab      	ldrb	r3, [r5, #2]
 8002aec:	f884 3036 	strb.w	r3, [r4, #54]	; 0x36
 8002af0:	78ab      	ldrb	r3, [r5, #2]
 8002af2:	2b00      	cmp	r3, #0
 8002af4:	d03b      	beq.n	8002b6e <xTaskCreate+0xde>
 8002af6:	78eb      	ldrb	r3, [r5, #3]
 8002af8:	f884 3037 	strb.w	r3, [r4, #55]	; 0x37
 8002afc:	78eb      	ldrb	r3, [r5, #3]
 8002afe:	2b00      	cmp	r3, #0
 8002b00:	d035      	beq.n	8002b6e <xTaskCreate+0xde>
 8002b02:	792b      	ldrb	r3, [r5, #4]
 8002b04:	f884 3038 	strb.w	r3, [r4, #56]	; 0x38
 8002b08:	792b      	ldrb	r3, [r5, #4]
 8002b0a:	2b00      	cmp	r3, #0
 8002b0c:	d02f      	beq.n	8002b6e <xTaskCreate+0xde>
 8002b0e:	796b      	ldrb	r3, [r5, #5]
 8002b10:	f884 3039 	strb.w	r3, [r4, #57]	; 0x39
 8002b14:	796b      	ldrb	r3, [r5, #5]
 8002b16:	b353      	cbz	r3, 8002b6e <xTaskCreate+0xde>
 8002b18:	79ab      	ldrb	r3, [r5, #6]
 8002b1a:	f884 303a 	strb.w	r3, [r4, #58]	; 0x3a
 8002b1e:	79ab      	ldrb	r3, [r5, #6]
 8002b20:	b32b      	cbz	r3, 8002b6e <xTaskCreate+0xde>
 8002b22:	79eb      	ldrb	r3, [r5, #7]
 8002b24:	f884 303b 	strb.w	r3, [r4, #59]	; 0x3b
 8002b28:	79eb      	ldrb	r3, [r5, #7]
 8002b2a:	b303      	cbz	r3, 8002b6e <xTaskCreate+0xde>
 8002b2c:	7a2b      	ldrb	r3, [r5, #8]
 8002b2e:	f884 303c 	strb.w	r3, [r4, #60]	; 0x3c
 8002b32:	7a2b      	ldrb	r3, [r5, #8]
 8002b34:	b1db      	cbz	r3, 8002b6e <xTaskCreate+0xde>
 8002b36:	7a6b      	ldrb	r3, [r5, #9]
 8002b38:	f884 303d 	strb.w	r3, [r4, #61]	; 0x3d
 8002b3c:	7a6b      	ldrb	r3, [r5, #9]
 8002b3e:	b1b3      	cbz	r3, 8002b6e <xTaskCreate+0xde>
 8002b40:	7aab      	ldrb	r3, [r5, #10]
 8002b42:	f884 303e 	strb.w	r3, [r4, #62]	; 0x3e
 8002b46:	7aab      	ldrb	r3, [r5, #10]
 8002b48:	b18b      	cbz	r3, 8002b6e <xTaskCreate+0xde>
 8002b4a:	7aeb      	ldrb	r3, [r5, #11]
 8002b4c:	f884 303f 	strb.w	r3, [r4, #63]	; 0x3f
 8002b50:	7aeb      	ldrb	r3, [r5, #11]
 8002b52:	b163      	cbz	r3, 8002b6e <xTaskCreate+0xde>
 8002b54:	7b2b      	ldrb	r3, [r5, #12]
 8002b56:	f884 3040 	strb.w	r3, [r4, #64]	; 0x40
 8002b5a:	7b2b      	ldrb	r3, [r5, #12]
 8002b5c:	b13b      	cbz	r3, 8002b6e <xTaskCreate+0xde>
 8002b5e:	7b6b      	ldrb	r3, [r5, #13]
 8002b60:	f884 3041 	strb.w	r3, [r4, #65]	; 0x41
 8002b64:	7b6b      	ldrb	r3, [r5, #13]
 8002b66:	b113      	cbz	r3, 8002b6e <xTaskCreate+0xde>
 8002b68:	7bab      	ldrb	r3, [r5, #14]
 8002b6a:	f884 3042 	strb.w	r3, [r4, #66]	; 0x42
 8002b6e:	9e0a      	ldr	r6, [sp, #40]	; 0x28
 8002b70:	2e04      	cmp	r6, #4
 8002b72:	f04f 0500 	mov.w	r5, #0
 8002b76:	bf28      	it	cs
 8002b78:	2604      	movcs	r6, #4
 8002b7a:	f104 0b04 	add.w	fp, r4, #4
 8002b7e:	62e6      	str	r6, [r4, #44]	; 0x2c
 8002b80:	64e6      	str	r6, [r4, #76]	; 0x4c
 8002b82:	4658      	mov	r0, fp
 8002b84:	f884 5043 	strb.w	r5, [r4, #67]	; 0x43
 8002b88:	6525      	str	r5, [r4, #80]	; 0x50
 8002b8a:	f7ff f98f 	bl	8001eac <vListInitialiseItem>
 8002b8e:	f1c6 0605 	rsb	r6, r6, #5
 8002b92:	f104 0018 	add.w	r0, r4, #24
 8002b96:	f7ff f989 	bl	8001eac <vListInitialiseItem>
 8002b9a:	66a5      	str	r5, [r4, #104]	; 0x68
 8002b9c:	61a6      	str	r6, [r4, #24]
 8002b9e:	6565      	str	r5, [r4, #84]	; 0x54
 8002ba0:	65a5      	str	r5, [r4, #88]	; 0x58
 8002ba2:	65e5      	str	r5, [r4, #92]	; 0x5c
 8002ba4:	6625      	str	r5, [r4, #96]	; 0x60
 8002ba6:	6665      	str	r5, [r4, #100]	; 0x64
 8002ba8:	f884 506c 	strb.w	r5, [r4, #108]	; 0x6c
 8002bac:	f884 506d 	strb.w	r5, [r4, #109]	; 0x6d
 8002bb0:	6124      	str	r4, [r4, #16]
 8002bb2:	6264      	str	r4, [r4, #36]	; 0x24
 8002bb4:	4638      	mov	r0, r7
 8002bb6:	4651      	mov	r1, sl
 8002bb8:	464a      	mov	r2, r9
 8002bba:	f7ff f9eb 	bl	8001f94 <pxPortInitialiseStack>
 8002bbe:	6020      	str	r0, [r4, #0]
 8002bc0:	f1b8 0f00 	cmp.w	r8, #0
 8002bc4:	d001      	beq.n	8002bca <xTaskCreate+0x13a>
 8002bc6:	f8c8 4000 	str.w	r4, [r8]
 8002bca:	f7ff fa11 	bl	8001ff0 <vPortEnterCritical>
 8002bce:	4a3f      	ldr	r2, [pc, #252]	; (8002ccc <xTaskCreate+0x23c>)
 8002bd0:	4f3f      	ldr	r7, [pc, #252]	; (8002cd0 <xTaskCreate+0x240>)
 8002bd2:	6813      	ldr	r3, [r2, #0]
 8002bd4:	3301      	adds	r3, #1
 8002bd6:	6013      	str	r3, [r2, #0]
 8002bd8:	683b      	ldr	r3, [r7, #0]
 8002bda:	2b00      	cmp	r3, #0
 8002bdc:	d048      	beq.n	8002c70 <xTaskCreate+0x1e0>
 8002bde:	f8df 8114 	ldr.w	r8, [pc, #276]	; 8002cf4 <xTaskCreate+0x264>
 8002be2:	f8d8 3000 	ldr.w	r3, [r8]
 8002be6:	b383      	cbz	r3, 8002c4a <xTaskCreate+0x1ba>
 8002be8:	6ae3      	ldr	r3, [r4, #44]	; 0x2c
 8002bea:	f8df 910c 	ldr.w	r9, [pc, #268]	; 8002cf8 <xTaskCreate+0x268>
 8002bee:	f8df c10c 	ldr.w	ip, [pc, #268]	; 8002cfc <xTaskCreate+0x26c>
 8002bf2:	f8df e10c 	ldr.w	lr, [pc, #268]	; 8002d00 <xTaskCreate+0x270>
 8002bf6:	f8dc 2000 	ldr.w	r2, [ip]
 8002bfa:	f8de 0000 	ldr.w	r0, [lr]
 8002bfe:	2501      	movs	r5, #1
 8002c00:	442a      	add	r2, r5
 8002c02:	fa05 f603 	lsl.w	r6, r5, r3
 8002c06:	eb03 0383 	add.w	r3, r3, r3, lsl #2
 8002c0a:	4659      	mov	r1, fp
 8002c0c:	6462      	str	r2, [r4, #68]	; 0x44
 8002c0e:	4306      	orrs	r6, r0
 8002c10:	eb09 0083 	add.w	r0, r9, r3, lsl #2
 8002c14:	f8cc 2000 	str.w	r2, [ip]
 8002c18:	f8ce 6000 	str.w	r6, [lr]
 8002c1c:	f7ff f94a 	bl	8001eb4 <vListInsertEnd>
 8002c20:	f7ff fa08 	bl	8002034 <vPortExitCritical>
 8002c24:	f8d8 3000 	ldr.w	r3, [r8]
 8002c28:	b1c3      	cbz	r3, 8002c5c <xTaskCreate+0x1cc>
 8002c2a:	683a      	ldr	r2, [r7, #0]
 8002c2c:	6ae3      	ldr	r3, [r4, #44]	; 0x2c
 8002c2e:	6ad2      	ldr	r2, [r2, #44]	; 0x2c
 8002c30:	429a      	cmp	r2, r3
 8002c32:	d213      	bcs.n	8002c5c <xTaskCreate+0x1cc>
 8002c34:	4b27      	ldr	r3, [pc, #156]	; (8002cd4 <xTaskCreate+0x244>)
 8002c36:	f04f 5280 	mov.w	r2, #268435456	; 0x10000000
 8002c3a:	601a      	str	r2, [r3, #0]
 8002c3c:	f3bf 8f4f 	dsb	sy
 8002c40:	f3bf 8f6f 	isb	sy
 8002c44:	4628      	mov	r0, r5
 8002c46:	e8bd 8ff8 	ldmia.w	sp!, {r3, r4, r5, r6, r7, r8, r9, sl, fp, pc}
 8002c4a:	683a      	ldr	r2, [r7, #0]
 8002c4c:	6ae3      	ldr	r3, [r4, #44]	; 0x2c
 8002c4e:	6ad2      	ldr	r2, [r2, #44]	; 0x2c
 8002c50:	f8df 90a4 	ldr.w	r9, [pc, #164]	; 8002cf8 <xTaskCreate+0x268>
 8002c54:	429a      	cmp	r2, r3
 8002c56:	bf98      	it	ls
 8002c58:	603c      	strls	r4, [r7, #0]
 8002c5a:	e7c8      	b.n	8002bee <xTaskCreate+0x15e>
 8002c5c:	4628      	mov	r0, r5
 8002c5e:	e8bd 8ff8 	ldmia.w	sp!, {r3, r4, r5, r6, r7, r8, r9, sl, fp, pc}
 8002c62:	4638      	mov	r0, r7
 8002c64:	f7ff f908 	bl	8001e78 <vPortFree>
 8002c68:	f04f 30ff 	mov.w	r0, #4294967295
 8002c6c:	e8bd 8ff8 	ldmia.w	sp!, {r3, r4, r5, r6, r7, r8, r9, sl, fp, pc}
 8002c70:	603c      	str	r4, [r7, #0]
 8002c72:	6813      	ldr	r3, [r2, #0]
 8002c74:	2b01      	cmp	r3, #1
 8002c76:	d005      	beq.n	8002c84 <xTaskCreate+0x1f4>
 8002c78:	6ae3      	ldr	r3, [r4, #44]	; 0x2c
 8002c7a:	f8df 907c 	ldr.w	r9, [pc, #124]	; 8002cf8 <xTaskCreate+0x268>
 8002c7e:	f8df 8074 	ldr.w	r8, [pc, #116]	; 8002cf4 <xTaskCreate+0x264>
 8002c82:	e7b4      	b.n	8002bee <xTaskCreate+0x15e>
 8002c84:	f8df 9070 	ldr.w	r9, [pc, #112]	; 8002cf8 <xTaskCreate+0x268>
 8002c88:	464d      	mov	r5, r9
 8002c8a:	f109 0664 	add.w	r6, r9, #100	; 0x64
 8002c8e:	4628      	mov	r0, r5
 8002c90:	3514      	adds	r5, #20
 8002c92:	f7ff f8ff 	bl	8001e94 <vListInitialise>
 8002c96:	42b5      	cmp	r5, r6
 8002c98:	d1f9      	bne.n	8002c8e <xTaskCreate+0x1fe>
 8002c9a:	4e0f      	ldr	r6, [pc, #60]	; (8002cd8 <xTaskCreate+0x248>)
 8002c9c:	4d0f      	ldr	r5, [pc, #60]	; (8002cdc <xTaskCreate+0x24c>)
 8002c9e:	f8df 8054 	ldr.w	r8, [pc, #84]	; 8002cf4 <xTaskCreate+0x264>
 8002ca2:	4630      	mov	r0, r6
 8002ca4:	f7ff f8f6 	bl	8001e94 <vListInitialise>
 8002ca8:	4628      	mov	r0, r5
 8002caa:	f7ff f8f3 	bl	8001e94 <vListInitialise>
 8002cae:	480c      	ldr	r0, [pc, #48]	; (8002ce0 <xTaskCreate+0x250>)
 8002cb0:	f7ff f8f0 	bl	8001e94 <vListInitialise>
 8002cb4:	480b      	ldr	r0, [pc, #44]	; (8002ce4 <xTaskCreate+0x254>)
 8002cb6:	f7ff f8ed 	bl	8001e94 <vListInitialise>
 8002cba:	480b      	ldr	r0, [pc, #44]	; (8002ce8 <xTaskCreate+0x258>)
 8002cbc:	f7ff f8ea 	bl	8001e94 <vListInitialise>
 8002cc0:	4b0a      	ldr	r3, [pc, #40]	; (8002cec <xTaskCreate+0x25c>)
 8002cc2:	4a0b      	ldr	r2, [pc, #44]	; (8002cf0 <xTaskCreate+0x260>)
 8002cc4:	601e      	str	r6, [r3, #0]
 8002cc6:	6ae3      	ldr	r3, [r4, #44]	; 0x2c
 8002cc8:	6015      	str	r5, [r2, #0]
 8002cca:	e790      	b.n	8002bee <xTaskCreate+0x15e>
 8002ccc:	1ffe9b50 	.word	0x1ffe9b50
 8002cd0:	1ffe9b24 	.word	0x1ffe9b24
 8002cd4:	e000ed04 	.word	0xe000ed04
 8002cd8:	1ffe9a90 	.word	0x1ffe9a90
 8002cdc:	1ffe9b54 	.word	0x1ffe9b54
 8002ce0:	1ffe9b38 	.word	0x1ffe9b38
 8002ce4:	1ffe9b0c 	.word	0x1ffe9b0c
 8002ce8:	1ffe9b68 	.word	0x1ffe9b68
 8002cec:	1ffe9a84 	.word	0x1ffe9a84
 8002cf0:	1ffe9b34 	.word	0x1ffe9b34
 8002cf4:	1ffe9a88 	.word	0x1ffe9a88
 8002cf8:	1ffe9aa8 	.word	0x1ffe9aa8
 8002cfc:	1ffe9b4c 	.word	0x1ffe9b4c
 8002d00:	1ffe9b7c 	.word	0x1ffe9b7c

08002d04 <vTaskStartScheduler>:
 8002d04:	b530      	push	{r4, r5, lr}
 8002d06:	b083      	sub	sp, #12
 8002d08:	2400      	movs	r4, #0
 8002d0a:	4a18      	ldr	r2, [pc, #96]	; (8002d6c <vTaskStartScheduler+0x68>)
 8002d0c:	9201      	str	r2, [sp, #4]
 8002d0e:	9400      	str	r4, [sp, #0]
 8002d10:	4623      	mov	r3, r4
 8002d12:	4817      	ldr	r0, [pc, #92]	; (8002d70 <vTaskStartScheduler+0x6c>)
 8002d14:	4917      	ldr	r1, [pc, #92]	; (8002d74 <vTaskStartScheduler+0x70>)
 8002d16:	2282      	movs	r2, #130	; 0x82
 8002d18:	f7ff feba 	bl	8002a90 <xTaskCreate>
 8002d1c:	2801      	cmp	r0, #1
 8002d1e:	d00c      	beq.n	8002d3a <vTaskStartScheduler+0x36>
 8002d20:	3001      	adds	r0, #1
 8002d22:	d001      	beq.n	8002d28 <vTaskStartScheduler+0x24>
 8002d24:	b003      	add	sp, #12
 8002d26:	bd30      	pop	{r4, r5, pc}
 8002d28:	f04f 03fc 	mov.w	r3, #252	; 0xfc
 8002d2c:	f383 8811 	msr	BASEPRI, r3
 8002d30:	f3bf 8f6f 	isb	sy
 8002d34:	f3bf 8f4f 	dsb	sy
 8002d38:	e7fe      	b.n	8002d38 <vTaskStartScheduler+0x34>
 8002d3a:	f000 fc97 	bl	800366c <xTimerCreateTimerTask>
 8002d3e:	2801      	cmp	r0, #1
 8002d40:	d1ee      	bne.n	8002d20 <vTaskStartScheduler+0x1c>
 8002d42:	f04f 03fc 	mov.w	r3, #252	; 0xfc
 8002d46:	f383 8811 	msr	BASEPRI, r3
 8002d4a:	f3bf 8f6f 	isb	sy
 8002d4e:	f3bf 8f4f 	dsb	sy
 8002d52:	4909      	ldr	r1, [pc, #36]	; (8002d78 <vTaskStartScheduler+0x74>)
 8002d54:	4a09      	ldr	r2, [pc, #36]	; (8002d7c <vTaskStartScheduler+0x78>)
 8002d56:	4b0a      	ldr	r3, [pc, #40]	; (8002d80 <vTaskStartScheduler+0x7c>)
 8002d58:	f04f 35ff 	mov.w	r5, #4294967295
 8002d5c:	600d      	str	r5, [r1, #0]
 8002d5e:	6010      	str	r0, [r2, #0]
 8002d60:	601c      	str	r4, [r3, #0]
 8002d62:	b003      	add	sp, #12
 8002d64:	e8bd 4030 	ldmia.w	sp!, {r4, r5, lr}
 8002d68:	f7ff b9de 	b.w	8002128 <xPortStartScheduler>
 8002d6c:	1ffe9b2c 	.word	0x1ffe9b2c
 8002d70:	08003071 	.word	0x08003071
 8002d74:	0800e500 	.word	0x0800e500
 8002d78:	1ffe9b28 	.word	0x1ffe9b28
 8002d7c:	1ffe9a88 	.word	0x1ffe9a88
 8002d80:	1ffe9b30 	.word	0x1ffe9b30

08002d84 <vTaskSuspendAll>:
 8002d84:	4a02      	ldr	r2, [pc, #8]	; (8002d90 <vTaskSuspendAll+0xc>)
 8002d86:	6813      	ldr	r3, [r2, #0]
 8002d88:	3301      	adds	r3, #1
 8002d8a:	6013      	str	r3, [r2, #0]
 8002d8c:	4770      	bx	lr
 8002d8e:	bf00      	nop
 8002d90:	1ffe9a8c 	.word	0x1ffe9a8c

08002d94 <xTaskGetTickCount>:
 8002d94:	4b01      	ldr	r3, [pc, #4]	; (8002d9c <xTaskGetTickCount+0x8>)
 8002d96:	6818      	ldr	r0, [r3, #0]
 8002d98:	4770      	bx	lr
 8002d9a:	bf00      	nop
 8002d9c:	1ffe9b30 	.word	0x1ffe9b30

08002da0 <xTaskIncrementTick>:
 8002da0:	e92d 4ff8 	stmdb	sp!, {r3, r4, r5, r6, r7, r8, r9, sl, fp, lr}
 8002da4:	4b42      	ldr	r3, [pc, #264]	; (8002eb0 <xTaskIncrementTick+0x110>)
 8002da6:	681b      	ldr	r3, [r3, #0]
 8002da8:	b9bb      	cbnz	r3, 8002dda <xTaskIncrementTick+0x3a>
 8002daa:	4b42      	ldr	r3, [pc, #264]	; (8002eb4 <xTaskIncrementTick+0x114>)
 8002dac:	681c      	ldr	r4, [r3, #0]
 8002dae:	3401      	adds	r4, #1
 8002db0:	601c      	str	r4, [r3, #0]
 8002db2:	b30c      	cbz	r4, 8002df8 <xTaskIncrementTick+0x58>
 8002db4:	4e40      	ldr	r6, [pc, #256]	; (8002eb8 <xTaskIncrementTick+0x118>)
 8002db6:	6833      	ldr	r3, [r6, #0]
 8002db8:	429c      	cmp	r4, r3
 8002dba:	d22b      	bcs.n	8002e14 <xTaskIncrementTick+0x74>
 8002dbc:	4f3f      	ldr	r7, [pc, #252]	; (8002ebc <xTaskIncrementTick+0x11c>)
 8002dbe:	4d40      	ldr	r5, [pc, #256]	; (8002ec0 <xTaskIncrementTick+0x120>)
 8002dc0:	f04f 0b00 	mov.w	fp, #0
 8002dc4:	682a      	ldr	r2, [r5, #0]
 8002dc6:	6ad2      	ldr	r2, [r2, #44]	; 0x2c
 8002dc8:	eb02 0282 	add.w	r2, r2, r2, lsl #2
 8002dcc:	f857 2022 	ldr.w	r2, [r7, r2, lsl #2]
 8002dd0:	2a02      	cmp	r2, #2
 8002dd2:	bf28      	it	cs
 8002dd4:	f04f 0b01 	movcs.w	fp, #1
 8002dd8:	e005      	b.n	8002de6 <xTaskIncrementTick+0x46>
 8002dda:	4a3a      	ldr	r2, [pc, #232]	; (8002ec4 <xTaskIncrementTick+0x124>)
 8002ddc:	6813      	ldr	r3, [r2, #0]
 8002dde:	3301      	adds	r3, #1
 8002de0:	6013      	str	r3, [r2, #0]
 8002de2:	f04f 0b00 	mov.w	fp, #0
 8002de6:	4a38      	ldr	r2, [pc, #224]	; (8002ec8 <xTaskIncrementTick+0x128>)
 8002de8:	6812      	ldr	r2, [r2, #0]
 8002dea:	2a00      	cmp	r2, #0
 8002dec:	bf18      	it	ne
 8002dee:	f04f 0b01 	movne.w	fp, #1
 8002df2:	4658      	mov	r0, fp
 8002df4:	e8bd 8ff8 	ldmia.w	sp!, {r3, r4, r5, r6, r7, r8, r9, sl, fp, pc}
 8002df8:	4b34      	ldr	r3, [pc, #208]	; (8002ecc <xTaskIncrementTick+0x12c>)
 8002dfa:	681a      	ldr	r2, [r3, #0]
 8002dfc:	6812      	ldr	r2, [r2, #0]
 8002dfe:	2a00      	cmp	r2, #0
 8002e00:	d047      	beq.n	8002e92 <xTaskIncrementTick+0xf2>
 8002e02:	f04f 03fc 	mov.w	r3, #252	; 0xfc
 8002e06:	f383 8811 	msr	BASEPRI, r3
 8002e0a:	f3bf 8f6f 	isb	sy
 8002e0e:	f3bf 8f4f 	dsb	sy
 8002e12:	e7fe      	b.n	8002e12 <xTaskIncrementTick+0x72>
 8002e14:	4f29      	ldr	r7, [pc, #164]	; (8002ebc <xTaskIncrementTick+0x11c>)
 8002e16:	4d2a      	ldr	r5, [pc, #168]	; (8002ec0 <xTaskIncrementTick+0x120>)
 8002e18:	f8df 90bc 	ldr.w	r9, [pc, #188]	; 8002ed8 <xTaskIncrementTick+0x138>
 8002e1c:	f04f 0b00 	mov.w	fp, #0
 8002e20:	e02e      	b.n	8002e80 <xTaskIncrementTick+0xe0>
 8002e22:	4b2a      	ldr	r3, [pc, #168]	; (8002ecc <xTaskIncrementTick+0x12c>)
 8002e24:	681a      	ldr	r2, [r3, #0]
 8002e26:	68d2      	ldr	r2, [r2, #12]
 8002e28:	f8d2 800c 	ldr.w	r8, [r2, #12]
 8002e2c:	f8d8 1004 	ldr.w	r1, [r8, #4]
 8002e30:	f108 0a04 	add.w	sl, r8, #4
 8002e34:	428c      	cmp	r4, r1
 8002e36:	4650      	mov	r0, sl
 8002e38:	d337      	bcc.n	8002eaa <xTaskIncrementTick+0x10a>
 8002e3a:	f7ff f865 	bl	8001f08 <uxListRemove>
 8002e3e:	f8d8 1028 	ldr.w	r1, [r8, #40]	; 0x28
 8002e42:	f108 0018 	add.w	r0, r8, #24
 8002e46:	b109      	cbz	r1, 8002e4c <xTaskIncrementTick+0xac>
 8002e48:	f7ff f85e 	bl	8001f08 <uxListRemove>
 8002e4c:	f8d8 002c 	ldr.w	r0, [r8, #44]	; 0x2c
 8002e50:	f8d9 3000 	ldr.w	r3, [r9]
 8002e54:	2201      	movs	r2, #1
 8002e56:	fa02 fc00 	lsl.w	ip, r2, r0
 8002e5a:	eb00 0080 	add.w	r0, r0, r0, lsl #2
 8002e5e:	4651      	mov	r1, sl
 8002e60:	eb07 0080 	add.w	r0, r7, r0, lsl #2
 8002e64:	ea4c 0303 	orr.w	r3, ip, r3
 8002e68:	f8c9 3000 	str.w	r3, [r9]
 8002e6c:	f7ff f822 	bl	8001eb4 <vListInsertEnd>
 8002e70:	6828      	ldr	r0, [r5, #0]
 8002e72:	f8d8 102c 	ldr.w	r1, [r8, #44]	; 0x2c
 8002e76:	6ac2      	ldr	r2, [r0, #44]	; 0x2c
 8002e78:	4291      	cmp	r1, r2
 8002e7a:	bf28      	it	cs
 8002e7c:	f04f 0b01 	movcs.w	fp, #1
 8002e80:	4b12      	ldr	r3, [pc, #72]	; (8002ecc <xTaskIncrementTick+0x12c>)
 8002e82:	681a      	ldr	r2, [r3, #0]
 8002e84:	6812      	ldr	r2, [r2, #0]
 8002e86:	2a00      	cmp	r2, #0
 8002e88:	d1cb      	bne.n	8002e22 <xTaskIncrementTick+0x82>
 8002e8a:	f04f 32ff 	mov.w	r2, #4294967295
 8002e8e:	6032      	str	r2, [r6, #0]
 8002e90:	e798      	b.n	8002dc4 <xTaskIncrementTick+0x24>
 8002e92:	490f      	ldr	r1, [pc, #60]	; (8002ed0 <xTaskIncrementTick+0x130>)
 8002e94:	6818      	ldr	r0, [r3, #0]
 8002e96:	4a0f      	ldr	r2, [pc, #60]	; (8002ed4 <xTaskIncrementTick+0x134>)
 8002e98:	680d      	ldr	r5, [r1, #0]
 8002e9a:	601d      	str	r5, [r3, #0]
 8002e9c:	6008      	str	r0, [r1, #0]
 8002e9e:	6813      	ldr	r3, [r2, #0]
 8002ea0:	3301      	adds	r3, #1
 8002ea2:	6013      	str	r3, [r2, #0]
 8002ea4:	f7ff fde0 	bl	8002a68 <prvResetNextTaskUnblockTime>
 8002ea8:	e784      	b.n	8002db4 <xTaskIncrementTick+0x14>
 8002eaa:	6031      	str	r1, [r6, #0]
 8002eac:	e78a      	b.n	8002dc4 <xTaskIncrementTick+0x24>
 8002eae:	bf00      	nop
 8002eb0:	1ffe9a8c 	.word	0x1ffe9a8c
 8002eb4:	1ffe9b30 	.word	0x1ffe9b30
 8002eb8:	1ffe9b28 	.word	0x1ffe9b28
 8002ebc:	1ffe9aa8 	.word	0x1ffe9aa8
 8002ec0:	1ffe9b24 	.word	0x1ffe9b24
 8002ec4:	1ffe9aa4 	.word	0x1ffe9aa4
 8002ec8:	1ffe9b80 	.word	0x1ffe9b80
 8002ecc:	1ffe9a84 	.word	0x1ffe9a84
 8002ed0:	1ffe9b34 	.word	0x1ffe9b34
 8002ed4:	1ffe9a80 	.word	0x1ffe9a80
 8002ed8:	1ffe9b7c 	.word	0x1ffe9b7c

08002edc <xTaskResumeAll>:
 8002edc:	e92d 4ff8 	stmdb	sp!, {r3, r4, r5, r6, r7, r8, r9, sl, fp, lr}
 8002ee0:	4c33      	ldr	r4, [pc, #204]	; (8002fb0 <xTaskResumeAll+0xd4>)
 8002ee2:	6823      	ldr	r3, [r4, #0]
 8002ee4:	b943      	cbnz	r3, 8002ef8 <xTaskResumeAll+0x1c>
 8002ee6:	f04f 03fc 	mov.w	r3, #252	; 0xfc
 8002eea:	f383 8811 	msr	BASEPRI, r3
 8002eee:	f3bf 8f6f 	isb	sy
 8002ef2:	f3bf 8f4f 	dsb	sy
 8002ef6:	e7fe      	b.n	8002ef6 <xTaskResumeAll+0x1a>
 8002ef8:	f7ff f87a 	bl	8001ff0 <vPortEnterCritical>
 8002efc:	6823      	ldr	r3, [r4, #0]
 8002efe:	3b01      	subs	r3, #1
 8002f00:	6023      	str	r3, [r4, #0]
 8002f02:	6824      	ldr	r4, [r4, #0]
 8002f04:	2c00      	cmp	r4, #0
 8002f06:	d14d      	bne.n	8002fa4 <xTaskResumeAll+0xc8>
 8002f08:	4b2a      	ldr	r3, [pc, #168]	; (8002fb4 <xTaskResumeAll+0xd8>)
 8002f0a:	681b      	ldr	r3, [r3, #0]
 8002f0c:	2b00      	cmp	r3, #0
 8002f0e:	d049      	beq.n	8002fa4 <xTaskResumeAll+0xc8>
 8002f10:	f8df a0b8 	ldr.w	sl, [pc, #184]	; 8002fcc <xTaskResumeAll+0xf0>
 8002f14:	4d28      	ldr	r5, [pc, #160]	; (8002fb8 <xTaskResumeAll+0xdc>)
 8002f16:	4e29      	ldr	r6, [pc, #164]	; (8002fbc <xTaskResumeAll+0xe0>)
 8002f18:	f8df 80b4 	ldr.w	r8, [pc, #180]	; 8002fd0 <xTaskResumeAll+0xf4>
 8002f1c:	46d3      	mov	fp, sl
 8002f1e:	f8da 3000 	ldr.w	r3, [sl]
 8002f22:	2701      	movs	r7, #1
 8002f24:	b323      	cbz	r3, 8002f70 <xTaskResumeAll+0x94>
 8002f26:	f8db 300c 	ldr.w	r3, [fp, #12]
 8002f2a:	68dc      	ldr	r4, [r3, #12]
 8002f2c:	f104 0904 	add.w	r9, r4, #4
 8002f30:	f104 0018 	add.w	r0, r4, #24
 8002f34:	f7fe ffe8 	bl	8001f08 <uxListRemove>
 8002f38:	4648      	mov	r0, r9
 8002f3a:	f7fe ffe5 	bl	8001f08 <uxListRemove>
 8002f3e:	6ae0      	ldr	r0, [r4, #44]	; 0x2c
 8002f40:	6833      	ldr	r3, [r6, #0]
 8002f42:	fa07 f200 	lsl.w	r2, r7, r0
 8002f46:	eb00 0080 	add.w	r0, r0, r0, lsl #2
 8002f4a:	4313      	orrs	r3, r2
 8002f4c:	4649      	mov	r1, r9
 8002f4e:	eb08 0080 	add.w	r0, r8, r0, lsl #2
 8002f52:	6033      	str	r3, [r6, #0]
 8002f54:	f7fe ffae 	bl	8001eb4 <vListInsertEnd>
 8002f58:	4b19      	ldr	r3, [pc, #100]	; (8002fc0 <xTaskResumeAll+0xe4>)
 8002f5a:	6ae2      	ldr	r2, [r4, #44]	; 0x2c
 8002f5c:	681b      	ldr	r3, [r3, #0]
 8002f5e:	6adb      	ldr	r3, [r3, #44]	; 0x2c
 8002f60:	429a      	cmp	r2, r3
 8002f62:	d3dc      	bcc.n	8002f1e <xTaskResumeAll+0x42>
 8002f64:	f8da 3000 	ldr.w	r3, [sl]
 8002f68:	602f      	str	r7, [r5, #0]
 8002f6a:	2701      	movs	r7, #1
 8002f6c:	2b00      	cmp	r3, #0
 8002f6e:	d1da      	bne.n	8002f26 <xTaskResumeAll+0x4a>
 8002f70:	b10c      	cbz	r4, 8002f76 <xTaskResumeAll+0x9a>
 8002f72:	f7ff fd79 	bl	8002a68 <prvResetNextTaskUnblockTime>
 8002f76:	4e13      	ldr	r6, [pc, #76]	; (8002fc4 <xTaskResumeAll+0xe8>)
 8002f78:	6834      	ldr	r4, [r6, #0]
 8002f7a:	b13c      	cbz	r4, 8002f8c <xTaskResumeAll+0xb0>
 8002f7c:	2701      	movs	r7, #1
 8002f7e:	f7ff ff0f 	bl	8002da0 <xTaskIncrementTick>
 8002f82:	b100      	cbz	r0, 8002f86 <xTaskResumeAll+0xaa>
 8002f84:	602f      	str	r7, [r5, #0]
 8002f86:	3c01      	subs	r4, #1
 8002f88:	d1f9      	bne.n	8002f7e <xTaskResumeAll+0xa2>
 8002f8a:	6034      	str	r4, [r6, #0]
 8002f8c:	682b      	ldr	r3, [r5, #0]
 8002f8e:	b14b      	cbz	r3, 8002fa4 <xTaskResumeAll+0xc8>
 8002f90:	4b0d      	ldr	r3, [pc, #52]	; (8002fc8 <xTaskResumeAll+0xec>)
 8002f92:	f04f 5280 	mov.w	r2, #268435456	; 0x10000000
 8002f96:	601a      	str	r2, [r3, #0]
 8002f98:	f3bf 8f4f 	dsb	sy
 8002f9c:	f3bf 8f6f 	isb	sy
 8002fa0:	2401      	movs	r4, #1
 8002fa2:	e000      	b.n	8002fa6 <xTaskResumeAll+0xca>
 8002fa4:	2400      	movs	r4, #0
 8002fa6:	f7ff f845 	bl	8002034 <vPortExitCritical>
 8002faa:	4620      	mov	r0, r4
 8002fac:	e8bd 8ff8 	ldmia.w	sp!, {r3, r4, r5, r6, r7, r8, r9, sl, fp, pc}
 8002fb0:	1ffe9a8c 	.word	0x1ffe9a8c
 8002fb4:	1ffe9b50 	.word	0x1ffe9b50
 8002fb8:	1ffe9b80 	.word	0x1ffe9b80
 8002fbc:	1ffe9b7c 	.word	0x1ffe9b7c
 8002fc0:	1ffe9b24 	.word	0x1ffe9b24
 8002fc4:	1ffe9aa4 	.word	0x1ffe9aa4
 8002fc8:	e000ed04 	.word	0xe000ed04
 8002fcc:	1ffe9b38 	.word	0x1ffe9b38
 8002fd0:	1ffe9aa8 	.word	0x1ffe9aa8

08002fd4 <vTaskDelayUntil>:
 8002fd4:	b538      	push	{r3, r4, r5, lr}
 8002fd6:	b1a8      	cbz	r0, 8003004 <vTaskDelayUntil+0x30>
 8002fd8:	b941      	cbnz	r1, 8002fec <vTaskDelayUntil+0x18>
 8002fda:	f04f 03fc 	mov.w	r3, #252	; 0xfc
 8002fde:	f383 8811 	msr	BASEPRI, r3
 8002fe2:	f3bf 8f6f 	isb	sy
 8002fe6:	f3bf 8f4f 	dsb	sy
 8002fea:	e7fe      	b.n	8002fea <vTaskDelayUntil+0x16>
 8002fec:	4c1d      	ldr	r4, [pc, #116]	; (8003064 <vTaskDelayUntil+0x90>)
 8002fee:	6823      	ldr	r3, [r4, #0]
 8002ff0:	b18b      	cbz	r3, 8003016 <vTaskDelayUntil+0x42>
 8002ff2:	f04f 03fc 	mov.w	r3, #252	; 0xfc
 8002ff6:	f383 8811 	msr	BASEPRI, r3
 8002ffa:	f3bf 8f6f 	isb	sy
 8002ffe:	f3bf 8f4f 	dsb	sy
 8003002:	e7fe      	b.n	8003002 <vTaskDelayUntil+0x2e>
 8003004:	f04f 03fc 	mov.w	r3, #252	; 0xfc
 8003008:	f383 8811 	msr	BASEPRI, r3
 800300c:	f3bf 8f6f 	isb	sy
 8003010:	f3bf 8f4f 	dsb	sy
 8003014:	e7fe      	b.n	8003014 <vTaskDelayUntil+0x40>
 8003016:	4602      	mov	r2, r0
 8003018:	6820      	ldr	r0, [r4, #0]
 800301a:	4d13      	ldr	r5, [pc, #76]	; (8003068 <vTaskDelayUntil+0x94>)
 800301c:	3001      	adds	r0, #1
 800301e:	6020      	str	r0, [r4, #0]
 8003020:	460b      	mov	r3, r1
 8003022:	6828      	ldr	r0, [r5, #0]
 8003024:	6811      	ldr	r1, [r2, #0]
 8003026:	4288      	cmp	r0, r1
 8003028:	440b      	add	r3, r1
 800302a:	d214      	bcs.n	8003056 <vTaskDelayUntil+0x82>
 800302c:	4299      	cmp	r1, r3
 800302e:	d916      	bls.n	800305e <vTaskDelayUntil+0x8a>
 8003030:	4298      	cmp	r0, r3
 8003032:	d214      	bcs.n	800305e <vTaskDelayUntil+0x8a>
 8003034:	6013      	str	r3, [r2, #0]
 8003036:	1a18      	subs	r0, r3, r0
 8003038:	2100      	movs	r1, #0
 800303a:	f7ff fccb 	bl	80029d4 <prvAddCurrentTaskToDelayedList>
 800303e:	f7ff ff4d 	bl	8002edc <xTaskResumeAll>
 8003042:	b958      	cbnz	r0, 800305c <vTaskDelayUntil+0x88>
 8003044:	4b09      	ldr	r3, [pc, #36]	; (800306c <vTaskDelayUntil+0x98>)
 8003046:	f04f 5280 	mov.w	r2, #268435456	; 0x10000000
 800304a:	601a      	str	r2, [r3, #0]
 800304c:	f3bf 8f4f 	dsb	sy
 8003050:	f3bf 8f6f 	isb	sy
 8003054:	bd38      	pop	{r3, r4, r5, pc}
 8003056:	4299      	cmp	r1, r3
 8003058:	d8ec      	bhi.n	8003034 <vTaskDelayUntil+0x60>
 800305a:	e7e9      	b.n	8003030 <vTaskDelayUntil+0x5c>
 800305c:	bd38      	pop	{r3, r4, r5, pc}
 800305e:	6013      	str	r3, [r2, #0]
 8003060:	e7ed      	b.n	800303e <vTaskDelayUntil+0x6a>
 8003062:	bf00      	nop
 8003064:	1ffe9a8c 	.word	0x1ffe9a8c
 8003068:	1ffe9b30 	.word	0x1ffe9b30
 800306c:	e000ed04 	.word	0xe000ed04

08003070 <prvIdleTask>:
 8003070:	4e1f      	ldr	r6, [pc, #124]	; (80030f0 <prvIdleTask+0x80>)
 8003072:	4d20      	ldr	r5, [pc, #128]	; (80030f4 <prvIdleTask+0x84>)
 8003074:	4c20      	ldr	r4, [pc, #128]	; (80030f8 <prvIdleTask+0x88>)
 8003076:	f8df 8088 	ldr.w	r8, [pc, #136]	; 8003100 <prvIdleTask+0x90>
 800307a:	f8df 9088 	ldr.w	r9, [pc, #136]	; 8003104 <prvIdleTask+0x94>
 800307e:	e92d 4888 	stmdb	sp!, {r3, r7, fp, lr}
 8003082:	46b2      	mov	sl, r6
 8003084:	e006      	b.n	8003094 <prvIdleTask+0x24>
 8003086:	6823      	ldr	r3, [r4, #0]
 8003088:	6837      	ldr	r7, [r6, #0]
 800308a:	3301      	adds	r3, #1
 800308c:	6023      	str	r3, [r4, #0]
 800308e:	f7ff ff25 	bl	8002edc <xTaskResumeAll>
 8003092:	b97f      	cbnz	r7, 80030b4 <prvIdleTask+0x44>
 8003094:	682b      	ldr	r3, [r5, #0]
 8003096:	2b00      	cmp	r3, #0
 8003098:	d1f5      	bne.n	8003086 <prvIdleTask+0x16>
 800309a:	f8d9 3000 	ldr.w	r3, [r9]
 800309e:	2b01      	cmp	r3, #1
 80030a0:	d9f8      	bls.n	8003094 <prvIdleTask+0x24>
 80030a2:	4b16      	ldr	r3, [pc, #88]	; (80030fc <prvIdleTask+0x8c>)
 80030a4:	f04f 5280 	mov.w	r2, #268435456	; 0x10000000
 80030a8:	601a      	str	r2, [r3, #0]
 80030aa:	f3bf 8f4f 	dsb	sy
 80030ae:	f3bf 8f6f 	isb	sy
 80030b2:	e7ef      	b.n	8003094 <prvIdleTask+0x24>
 80030b4:	f7fe ff9c 	bl	8001ff0 <vPortEnterCritical>
 80030b8:	f8da 300c 	ldr.w	r3, [sl, #12]
 80030bc:	f8d3 b00c 	ldr.w	fp, [r3, #12]
 80030c0:	f10b 0004 	add.w	r0, fp, #4
 80030c4:	f7fe ff20 	bl	8001f08 <uxListRemove>
 80030c8:	f8d8 3000 	ldr.w	r3, [r8]
 80030cc:	4a09      	ldr	r2, [pc, #36]	; (80030f4 <prvIdleTask+0x84>)
 80030ce:	3b01      	subs	r3, #1
 80030d0:	f8c8 3000 	str.w	r3, [r8]
 80030d4:	4b07      	ldr	r3, [pc, #28]	; (80030f4 <prvIdleTask+0x84>)
 80030d6:	681b      	ldr	r3, [r3, #0]
 80030d8:	3b01      	subs	r3, #1
 80030da:	6013      	str	r3, [r2, #0]
 80030dc:	f7fe ffaa 	bl	8002034 <vPortExitCritical>
 80030e0:	f8db 0030 	ldr.w	r0, [fp, #48]	; 0x30
 80030e4:	f7fe fec8 	bl	8001e78 <vPortFree>
 80030e8:	4658      	mov	r0, fp
 80030ea:	f7fe fec5 	bl	8001e78 <vPortFree>
 80030ee:	e7d1      	b.n	8003094 <prvIdleTask+0x24>
 80030f0:	1ffe9b0c 	.word	0x1ffe9b0c
 80030f4:	1ffe9b20 	.word	0x1ffe9b20
 80030f8:	1ffe9a8c 	.word	0x1ffe9a8c
 80030fc:	e000ed04 	.word	0xe000ed04
 8003100:	1ffe9b50 	.word	0x1ffe9b50
 8003104:	1ffe9aa8 	.word	0x1ffe9aa8

08003108 <vTaskSwitchContext>:
 8003108:	4b16      	ldr	r3, [pc, #88]	; (8003164 <vTaskSwitchContext+0x5c>)
 800310a:	681b      	ldr	r3, [r3, #0]
 800310c:	bb33      	cbnz	r3, 800315c <vTaskSwitchContext+0x54>
 800310e:	4916      	ldr	r1, [pc, #88]	; (8003168 <vTaskSwitchContext+0x60>)
 8003110:	4a16      	ldr	r2, [pc, #88]	; (800316c <vTaskSwitchContext+0x64>)
 8003112:	600b      	str	r3, [r1, #0]
 8003114:	6813      	ldr	r3, [r2, #0]
 8003116:	fab3 f383 	clz	r3, r3
 800311a:	b2db      	uxtb	r3, r3
 800311c:	f1c3 031f 	rsb	r3, r3, #31
 8003120:	eb03 0383 	add.w	r3, r3, r3, lsl #2
 8003124:	009b      	lsls	r3, r3, #2
 8003126:	4812      	ldr	r0, [pc, #72]	; (8003170 <vTaskSwitchContext+0x68>)
 8003128:	58c2      	ldr	r2, [r0, r3]
 800312a:	18c1      	adds	r1, r0, r3
 800312c:	b942      	cbnz	r2, 8003140 <vTaskSwitchContext+0x38>
 800312e:	f04f 03fc 	mov.w	r3, #252	; 0xfc
 8003132:	f383 8811 	msr	BASEPRI, r3
 8003136:	f3bf 8f6f 	isb	sy
 800313a:	f3bf 8f4f 	dsb	sy
 800313e:	e7fe      	b.n	800313e <vTaskSwitchContext+0x36>
 8003140:	684a      	ldr	r2, [r1, #4]
 8003142:	3308      	adds	r3, #8
 8003144:	6852      	ldr	r2, [r2, #4]
 8003146:	604a      	str	r2, [r1, #4]
 8003148:	4403      	add	r3, r0
 800314a:	429a      	cmp	r2, r3
 800314c:	bf08      	it	eq
 800314e:	6852      	ldreq	r2, [r2, #4]
 8003150:	4b08      	ldr	r3, [pc, #32]	; (8003174 <vTaskSwitchContext+0x6c>)
 8003152:	bf08      	it	eq
 8003154:	604a      	streq	r2, [r1, #4]
 8003156:	68d2      	ldr	r2, [r2, #12]
 8003158:	601a      	str	r2, [r3, #0]
 800315a:	4770      	bx	lr
 800315c:	4b02      	ldr	r3, [pc, #8]	; (8003168 <vTaskSwitchContext+0x60>)
 800315e:	2201      	movs	r2, #1
 8003160:	601a      	str	r2, [r3, #0]
 8003162:	4770      	bx	lr
 8003164:	1ffe9a8c 	.word	0x1ffe9a8c
 8003168:	1ffe9b80 	.word	0x1ffe9b80
 800316c:	1ffe9b7c 	.word	0x1ffe9b7c
 8003170:	1ffe9aa8 	.word	0x1ffe9aa8
 8003174:	1ffe9b24 	.word	0x1ffe9b24

08003178 <vTaskPlaceOnEventList>:
 8003178:	2800      	cmp	r0, #0
 800317a:	d02e      	beq.n	80031da <vTaskPlaceOnEventList+0x62>
 800317c:	b570      	push	{r4, r5, r6, lr}
 800317e:	4d23      	ldr	r5, [pc, #140]	; (800320c <vTaskPlaceOnEventList+0x94>)
 8003180:	460c      	mov	r4, r1
 8003182:	6829      	ldr	r1, [r5, #0]
 8003184:	3118      	adds	r1, #24
 8003186:	f7fe fea5 	bl	8001ed4 <vListInsert>
 800318a:	4b21      	ldr	r3, [pc, #132]	; (8003210 <vTaskPlaceOnEventList+0x98>)
 800318c:	681e      	ldr	r6, [r3, #0]
 800318e:	682b      	ldr	r3, [r5, #0]
 8003190:	6828      	ldr	r0, [r5, #0]
 8003192:	2200      	movs	r2, #0
 8003194:	f883 206d 	strb.w	r2, [r3, #109]	; 0x6d
 8003198:	3004      	adds	r0, #4
 800319a:	f7fe feb5 	bl	8001f08 <uxListRemove>
 800319e:	b940      	cbnz	r0, 80031b2 <vTaskPlaceOnEventList+0x3a>
 80031a0:	682b      	ldr	r3, [r5, #0]
 80031a2:	491c      	ldr	r1, [pc, #112]	; (8003214 <vTaskPlaceOnEventList+0x9c>)
 80031a4:	6ad8      	ldr	r0, [r3, #44]	; 0x2c
 80031a6:	680b      	ldr	r3, [r1, #0]
 80031a8:	2201      	movs	r2, #1
 80031aa:	4082      	lsls	r2, r0
 80031ac:	ea23 0302 	bic.w	r3, r3, r2
 80031b0:	600b      	str	r3, [r1, #0]
 80031b2:	1c63      	adds	r3, r4, #1
 80031b4:	d01a      	beq.n	80031ec <vTaskPlaceOnEventList+0x74>
 80031b6:	4434      	add	r4, r6
 80031b8:	682a      	ldr	r2, [r5, #0]
 80031ba:	4b14      	ldr	r3, [pc, #80]	; (800320c <vTaskPlaceOnEventList+0x94>)
 80031bc:	6054      	str	r4, [r2, #4]
 80031be:	42a6      	cmp	r6, r4
 80031c0:	d81b      	bhi.n	80031fa <vTaskPlaceOnEventList+0x82>
 80031c2:	4a15      	ldr	r2, [pc, #84]	; (8003218 <vTaskPlaceOnEventList+0xa0>)
 80031c4:	6810      	ldr	r0, [r2, #0]
 80031c6:	6819      	ldr	r1, [r3, #0]
 80031c8:	3104      	adds	r1, #4
 80031ca:	f7fe fe83 	bl	8001ed4 <vListInsert>
 80031ce:	4b13      	ldr	r3, [pc, #76]	; (800321c <vTaskPlaceOnEventList+0xa4>)
 80031d0:	681a      	ldr	r2, [r3, #0]
 80031d2:	4294      	cmp	r4, r2
 80031d4:	bf38      	it	cc
 80031d6:	601c      	strcc	r4, [r3, #0]
 80031d8:	bd70      	pop	{r4, r5, r6, pc}
 80031da:	f04f 03fc 	mov.w	r3, #252	; 0xfc
 80031de:	f383 8811 	msr	BASEPRI, r3
 80031e2:	f3bf 8f6f 	isb	sy
 80031e6:	f3bf 8f4f 	dsb	sy
 80031ea:	e7fe      	b.n	80031ea <vTaskPlaceOnEventList+0x72>
 80031ec:	6829      	ldr	r1, [r5, #0]
 80031ee:	480c      	ldr	r0, [pc, #48]	; (8003220 <vTaskPlaceOnEventList+0xa8>)
 80031f0:	3104      	adds	r1, #4
 80031f2:	e8bd 4070 	ldmia.w	sp!, {r4, r5, r6, lr}
 80031f6:	f7fe be5d 	b.w	8001eb4 <vListInsertEnd>
 80031fa:	4a0a      	ldr	r2, [pc, #40]	; (8003224 <vTaskPlaceOnEventList+0xac>)
 80031fc:	6810      	ldr	r0, [r2, #0]
 80031fe:	6819      	ldr	r1, [r3, #0]
 8003200:	e8bd 4070 	ldmia.w	sp!, {r4, r5, r6, lr}
 8003204:	3104      	adds	r1, #4
 8003206:	f7fe be65 	b.w	8001ed4 <vListInsert>
 800320a:	bf00      	nop
 800320c:	1ffe9b24 	.word	0x1ffe9b24
 8003210:	1ffe9b30 	.word	0x1ffe9b30
 8003214:	1ffe9b7c 	.word	0x1ffe9b7c
 8003218:	1ffe9a84 	.word	0x1ffe9a84
 800321c:	1ffe9b28 	.word	0x1ffe9b28
 8003220:	1ffe9b68 	.word	0x1ffe9b68
 8003224:	1ffe9b34 	.word	0x1ffe9b34

08003228 <vTaskPlaceOnEventListRestricted>:
 8003228:	b5f8      	push	{r3, r4, r5, r6, r7, lr}
 800322a:	2800      	cmp	r0, #0
 800322c:	d033      	beq.n	8003296 <vTaskPlaceOnEventListRestricted+0x6e>
 800322e:	4d27      	ldr	r5, [pc, #156]	; (80032cc <vTaskPlaceOnEventListRestricted+0xa4>)
 8003230:	460c      	mov	r4, r1
 8003232:	6829      	ldr	r1, [r5, #0]
 8003234:	3118      	adds	r1, #24
 8003236:	4617      	mov	r7, r2
 8003238:	f7fe fe3c 	bl	8001eb4 <vListInsertEnd>
 800323c:	4b24      	ldr	r3, [pc, #144]	; (80032d0 <vTaskPlaceOnEventListRestricted+0xa8>)
 800323e:	681e      	ldr	r6, [r3, #0]
 8003240:	682b      	ldr	r3, [r5, #0]
 8003242:	6828      	ldr	r0, [r5, #0]
 8003244:	2200      	movs	r2, #0
 8003246:	4297      	cmp	r7, r2
 8003248:	f883 206d 	strb.w	r2, [r3, #109]	; 0x6d
 800324c:	f100 0004 	add.w	r0, r0, #4
 8003250:	bf18      	it	ne
 8003252:	f04f 34ff 	movne.w	r4, #4294967295
 8003256:	f7fe fe57 	bl	8001f08 <uxListRemove>
 800325a:	b940      	cbnz	r0, 800326e <vTaskPlaceOnEventListRestricted+0x46>
 800325c:	682b      	ldr	r3, [r5, #0]
 800325e:	491d      	ldr	r1, [pc, #116]	; (80032d4 <vTaskPlaceOnEventListRestricted+0xac>)
 8003260:	6ad8      	ldr	r0, [r3, #44]	; 0x2c
 8003262:	680b      	ldr	r3, [r1, #0]
 8003264:	2201      	movs	r2, #1
 8003266:	4082      	lsls	r2, r0
 8003268:	ea23 0302 	bic.w	r3, r3, r2
 800326c:	600b      	str	r3, [r1, #0]
 800326e:	1c63      	adds	r3, r4, #1
 8003270:	d022      	beq.n	80032b8 <vTaskPlaceOnEventListRestricted+0x90>
 8003272:	4434      	add	r4, r6
 8003274:	682a      	ldr	r2, [r5, #0]
 8003276:	4b15      	ldr	r3, [pc, #84]	; (80032cc <vTaskPlaceOnEventListRestricted+0xa4>)
 8003278:	6054      	str	r4, [r2, #4]
 800327a:	42a6      	cmp	r6, r4
 800327c:	d814      	bhi.n	80032a8 <vTaskPlaceOnEventListRestricted+0x80>
 800327e:	4a16      	ldr	r2, [pc, #88]	; (80032d8 <vTaskPlaceOnEventListRestricted+0xb0>)
 8003280:	6810      	ldr	r0, [r2, #0]
 8003282:	6819      	ldr	r1, [r3, #0]
 8003284:	3104      	adds	r1, #4
 8003286:	f7fe fe25 	bl	8001ed4 <vListInsert>
 800328a:	4b14      	ldr	r3, [pc, #80]	; (80032dc <vTaskPlaceOnEventListRestricted+0xb4>)
 800328c:	681a      	ldr	r2, [r3, #0]
 800328e:	4294      	cmp	r4, r2
 8003290:	bf38      	it	cc
 8003292:	601c      	strcc	r4, [r3, #0]
 8003294:	bdf8      	pop	{r3, r4, r5, r6, r7, pc}
 8003296:	f04f 03fc 	mov.w	r3, #252	; 0xfc
 800329a:	f383 8811 	msr	BASEPRI, r3
 800329e:	f3bf 8f6f 	isb	sy
 80032a2:	f3bf 8f4f 	dsb	sy
 80032a6:	e7fe      	b.n	80032a6 <vTaskPlaceOnEventListRestricted+0x7e>
 80032a8:	4a0d      	ldr	r2, [pc, #52]	; (80032e0 <vTaskPlaceOnEventListRestricted+0xb8>)
 80032aa:	6810      	ldr	r0, [r2, #0]
 80032ac:	6819      	ldr	r1, [r3, #0]
 80032ae:	e8bd 40f8 	ldmia.w	sp!, {r3, r4, r5, r6, r7, lr}
 80032b2:	3104      	adds	r1, #4
 80032b4:	f7fe be0e 	b.w	8001ed4 <vListInsert>
 80032b8:	2f00      	cmp	r7, #0
 80032ba:	d0da      	beq.n	8003272 <vTaskPlaceOnEventListRestricted+0x4a>
 80032bc:	6829      	ldr	r1, [r5, #0]
 80032be:	4809      	ldr	r0, [pc, #36]	; (80032e4 <vTaskPlaceOnEventListRestricted+0xbc>)
 80032c0:	3104      	adds	r1, #4
 80032c2:	e8bd 40f8 	ldmia.w	sp!, {r3, r4, r5, r6, r7, lr}
 80032c6:	f7fe bdf5 	b.w	8001eb4 <vListInsertEnd>
 80032ca:	bf00      	nop
 80032cc:	1ffe9b24 	.word	0x1ffe9b24
 80032d0:	1ffe9b30 	.word	0x1ffe9b30
 80032d4:	1ffe9b7c 	.word	0x1ffe9b7c
 80032d8:	1ffe9a84 	.word	0x1ffe9a84
 80032dc:	1ffe9b28 	.word	0x1ffe9b28
 80032e0:	1ffe9b34 	.word	0x1ffe9b34
 80032e4:	1ffe9b68 	.word	0x1ffe9b68

080032e8 <xTaskRemoveFromEventList>:
 80032e8:	b5f8      	push	{r3, r4, r5, r6, r7, lr}
 80032ea:	68c3      	ldr	r3, [r0, #12]
 80032ec:	68dc      	ldr	r4, [r3, #12]
 80032ee:	b32c      	cbz	r4, 800333c <xTaskRemoveFromEventList+0x54>
 80032f0:	f104 0518 	add.w	r5, r4, #24
 80032f4:	4628      	mov	r0, r5
 80032f6:	f7fe fe07 	bl	8001f08 <uxListRemove>
 80032fa:	4b17      	ldr	r3, [pc, #92]	; (8003358 <xTaskRemoveFromEventList+0x70>)
 80032fc:	681b      	ldr	r3, [r3, #0]
 80032fe:	bb33      	cbnz	r3, 800334e <xTaskRemoveFromEventList+0x66>
 8003300:	1d27      	adds	r7, r4, #4
 8003302:	4e16      	ldr	r6, [pc, #88]	; (800335c <xTaskRemoveFromEventList+0x74>)
 8003304:	4638      	mov	r0, r7
 8003306:	f7fe fdff 	bl	8001f08 <uxListRemove>
 800330a:	6ae3      	ldr	r3, [r4, #44]	; 0x2c
 800330c:	6832      	ldr	r2, [r6, #0]
 800330e:	4814      	ldr	r0, [pc, #80]	; (8003360 <xTaskRemoveFromEventList+0x78>)
 8003310:	2501      	movs	r5, #1
 8003312:	409d      	lsls	r5, r3
 8003314:	eb03 0383 	add.w	r3, r3, r3, lsl #2
 8003318:	432a      	orrs	r2, r5
 800331a:	4639      	mov	r1, r7
 800331c:	eb00 0083 	add.w	r0, r0, r3, lsl #2
 8003320:	6032      	str	r2, [r6, #0]
 8003322:	f7fe fdc7 	bl	8001eb4 <vListInsertEnd>
 8003326:	4b0f      	ldr	r3, [pc, #60]	; (8003364 <xTaskRemoveFromEventList+0x7c>)
 8003328:	6ae2      	ldr	r2, [r4, #44]	; 0x2c
 800332a:	681b      	ldr	r3, [r3, #0]
 800332c:	6adb      	ldr	r3, [r3, #44]	; 0x2c
 800332e:	429a      	cmp	r2, r3
 8003330:	bf83      	ittte	hi
 8003332:	4b0d      	ldrhi	r3, [pc, #52]	; (8003368 <xTaskRemoveFromEventList+0x80>)
 8003334:	2001      	movhi	r0, #1
 8003336:	6018      	strhi	r0, [r3, #0]
 8003338:	2000      	movls	r0, #0
 800333a:	bdf8      	pop	{r3, r4, r5, r6, r7, pc}
 800333c:	f04f 03fc 	mov.w	r3, #252	; 0xfc
 8003340:	f383 8811 	msr	BASEPRI, r3
 8003344:	f3bf 8f6f 	isb	sy
 8003348:	f3bf 8f4f 	dsb	sy
 800334c:	e7fe      	b.n	800334c <xTaskRemoveFromEventList+0x64>
 800334e:	4629      	mov	r1, r5
 8003350:	4806      	ldr	r0, [pc, #24]	; (800336c <xTaskRemoveFromEventList+0x84>)
 8003352:	f7fe fdaf 	bl	8001eb4 <vListInsertEnd>
 8003356:	e7e6      	b.n	8003326 <xTaskRemoveFromEventList+0x3e>
 8003358:	1ffe9a8c 	.word	0x1ffe9a8c
 800335c:	1ffe9b7c 	.word	0x1ffe9b7c
 8003360:	1ffe9aa8 	.word	0x1ffe9aa8
 8003364:	1ffe9b24 	.word	0x1ffe9b24
 8003368:	1ffe9b80 	.word	0x1ffe9b80
 800336c:	1ffe9b38 	.word	0x1ffe9b38

08003370 <vTaskSetTimeOutState>:
 8003370:	b130      	cbz	r0, 8003380 <vTaskSetTimeOutState+0x10>
 8003372:	4a08      	ldr	r2, [pc, #32]	; (8003394 <vTaskSetTimeOutState+0x24>)
 8003374:	4b08      	ldr	r3, [pc, #32]	; (8003398 <vTaskSetTimeOutState+0x28>)
 8003376:	6812      	ldr	r2, [r2, #0]
 8003378:	681b      	ldr	r3, [r3, #0]
 800337a:	e880 000c 	stmia.w	r0, {r2, r3}
 800337e:	4770      	bx	lr
 8003380:	f04f 03fc 	mov.w	r3, #252	; 0xfc
 8003384:	f383 8811 	msr	BASEPRI, r3
 8003388:	f3bf 8f6f 	isb	sy
 800338c:	f3bf 8f4f 	dsb	sy
 8003390:	e7fe      	b.n	8003390 <vTaskSetTimeOutState+0x20>
 8003392:	bf00      	nop
 8003394:	1ffe9a80 	.word	0x1ffe9a80
 8003398:	1ffe9b30 	.word	0x1ffe9b30

0800339c <xTaskCheckForTimeOut>:
 800339c:	b5f8      	push	{r3, r4, r5, r6, r7, lr}
 800339e:	2800      	cmp	r0, #0
 80033a0:	d037      	beq.n	8003412 <xTaskCheckForTimeOut+0x76>
 80033a2:	b369      	cbz	r1, 8003400 <xTaskCheckForTimeOut+0x64>
 80033a4:	460e      	mov	r6, r1
 80033a6:	4605      	mov	r5, r0
 80033a8:	4f21      	ldr	r7, [pc, #132]	; (8003430 <xTaskCheckForTimeOut+0x94>)
 80033aa:	f7fe fe21 	bl	8001ff0 <vPortEnterCritical>
 80033ae:	4b21      	ldr	r3, [pc, #132]	; (8003434 <xTaskCheckForTimeOut+0x98>)
 80033b0:	6839      	ldr	r1, [r7, #0]
 80033b2:	681a      	ldr	r2, [r3, #0]
 80033b4:	f892 406d 	ldrb.w	r4, [r2, #109]	; 0x6d
 80033b8:	b9cc      	cbnz	r4, 80033ee <xTaskCheckForTimeOut+0x52>
 80033ba:	6832      	ldr	r2, [r6, #0]
 80033bc:	1c53      	adds	r3, r2, #1
 80033be:	d012      	beq.n	80033e6 <xTaskCheckForTimeOut+0x4a>
 80033c0:	481d      	ldr	r0, [pc, #116]	; (8003438 <xTaskCheckForTimeOut+0x9c>)
 80033c2:	682c      	ldr	r4, [r5, #0]
 80033c4:	6803      	ldr	r3, [r0, #0]
 80033c6:	429c      	cmp	r4, r3
 80033c8:	686b      	ldr	r3, [r5, #4]
 80033ca:	d001      	beq.n	80033d0 <xTaskCheckForTimeOut+0x34>
 80033cc:	4299      	cmp	r1, r3
 80033ce:	d229      	bcs.n	8003424 <xTaskCheckForTimeOut+0x88>
 80033d0:	1acc      	subs	r4, r1, r3
 80033d2:	42a2      	cmp	r2, r4
 80033d4:	d926      	bls.n	8003424 <xTaskCheckForTimeOut+0x88>
 80033d6:	1a52      	subs	r2, r2, r1
 80033d8:	4413      	add	r3, r2
 80033da:	6801      	ldr	r1, [r0, #0]
 80033dc:	683a      	ldr	r2, [r7, #0]
 80033de:	6033      	str	r3, [r6, #0]
 80033e0:	e885 0006 	stmia.w	r5, {r1, r2}
 80033e4:	2400      	movs	r4, #0
 80033e6:	f7fe fe25 	bl	8002034 <vPortExitCritical>
 80033ea:	4620      	mov	r0, r4
 80033ec:	bdf8      	pop	{r3, r4, r5, r6, r7, pc}
 80033ee:	681b      	ldr	r3, [r3, #0]
 80033f0:	2200      	movs	r2, #0
 80033f2:	f883 206d 	strb.w	r2, [r3, #109]	; 0x6d
 80033f6:	2401      	movs	r4, #1
 80033f8:	f7fe fe1c 	bl	8002034 <vPortExitCritical>
 80033fc:	4620      	mov	r0, r4
 80033fe:	bdf8      	pop	{r3, r4, r5, r6, r7, pc}
 8003400:	f04f 03fc 	mov.w	r3, #252	; 0xfc
 8003404:	f383 8811 	msr	BASEPRI, r3
 8003408:	f3bf 8f6f 	isb	sy
 800340c:	f3bf 8f4f 	dsb	sy
 8003410:	e7fe      	b.n	8003410 <xTaskCheckForTimeOut+0x74>
 8003412:	f04f 03fc 	mov.w	r3, #252	; 0xfc
 8003416:	f383 8811 	msr	BASEPRI, r3
 800341a:	f3bf 8f6f 	isb	sy
 800341e:	f3bf 8f4f 	dsb	sy
 8003422:	e7fe      	b.n	8003422 <xTaskCheckForTimeOut+0x86>
 8003424:	2401      	movs	r4, #1
 8003426:	f7fe fe05 	bl	8002034 <vPortExitCritical>
 800342a:	4620      	mov	r0, r4
 800342c:	bdf8      	pop	{r3, r4, r5, r6, r7, pc}
 800342e:	bf00      	nop
 8003430:	1ffe9b30 	.word	0x1ffe9b30
 8003434:	1ffe9b24 	.word	0x1ffe9b24
 8003438:	1ffe9a80 	.word	0x1ffe9a80

0800343c <vTaskMissedYield>:
 800343c:	4b01      	ldr	r3, [pc, #4]	; (8003444 <vTaskMissedYield+0x8>)
 800343e:	2201      	movs	r2, #1
 8003440:	601a      	str	r2, [r3, #0]
 8003442:	4770      	bx	lr
 8003444:	1ffe9b80 	.word	0x1ffe9b80

08003448 <xTaskGetSchedulerState>:
 8003448:	4b05      	ldr	r3, [pc, #20]	; (8003460 <xTaskGetSchedulerState+0x18>)
 800344a:	681b      	ldr	r3, [r3, #0]
 800344c:	b133      	cbz	r3, 800345c <xTaskGetSchedulerState+0x14>
 800344e:	4b05      	ldr	r3, [pc, #20]	; (8003464 <xTaskGetSchedulerState+0x1c>)
 8003450:	681b      	ldr	r3, [r3, #0]
 8003452:	2b00      	cmp	r3, #0
 8003454:	bf0c      	ite	eq
 8003456:	2002      	moveq	r0, #2
 8003458:	2000      	movne	r0, #0
 800345a:	4770      	bx	lr
 800345c:	2001      	movs	r0, #1
 800345e:	4770      	bx	lr
 8003460:	1ffe9a88 	.word	0x1ffe9a88
 8003464:	1ffe9a8c 	.word	0x1ffe9a8c

08003468 <vTaskPriorityInherit>:
 8003468:	2800      	cmp	r0, #0
 800346a:	d042      	beq.n	80034f2 <vTaskPriorityInherit+0x8a>
 800346c:	e92d 41f0 	stmdb	sp!, {r4, r5, r6, r7, r8, lr}
 8003470:	4c21      	ldr	r4, [pc, #132]	; (80034f8 <vTaskPriorityInherit+0x90>)
 8003472:	6ac3      	ldr	r3, [r0, #44]	; 0x2c
 8003474:	6822      	ldr	r2, [r4, #0]
 8003476:	6ad2      	ldr	r2, [r2, #44]	; 0x2c
 8003478:	4293      	cmp	r3, r2
 800347a:	d212      	bcs.n	80034a2 <vTaskPriorityInherit+0x3a>
 800347c:	6982      	ldr	r2, [r0, #24]
 800347e:	2a00      	cmp	r2, #0
 8003480:	db04      	blt.n	800348c <vTaskPriorityInherit+0x24>
 8003482:	6822      	ldr	r2, [r4, #0]
 8003484:	6ad2      	ldr	r2, [r2, #44]	; 0x2c
 8003486:	f1c2 0205 	rsb	r2, r2, #5
 800348a:	6182      	str	r2, [r0, #24]
 800348c:	4d1b      	ldr	r5, [pc, #108]	; (80034fc <vTaskPriorityInherit+0x94>)
 800348e:	6942      	ldr	r2, [r0, #20]
 8003490:	eb03 0383 	add.w	r3, r3, r3, lsl #2
 8003494:	eb05 0383 	add.w	r3, r5, r3, lsl #2
 8003498:	429a      	cmp	r2, r3
 800349a:	d004      	beq.n	80034a6 <vTaskPriorityInherit+0x3e>
 800349c:	6823      	ldr	r3, [r4, #0]
 800349e:	6adb      	ldr	r3, [r3, #44]	; 0x2c
 80034a0:	62c3      	str	r3, [r0, #44]	; 0x2c
 80034a2:	e8bd 81f0 	ldmia.w	sp!, {r4, r5, r6, r7, r8, pc}
 80034a6:	f100 0804 	add.w	r8, r0, #4
 80034aa:	4607      	mov	r7, r0
 80034ac:	4640      	mov	r0, r8
 80034ae:	f7fe fd2b 	bl	8001f08 <uxListRemove>
 80034b2:	b9f8      	cbnz	r0, 80034f4 <vTaskPriorityInherit+0x8c>
 80034b4:	6afb      	ldr	r3, [r7, #44]	; 0x2c
 80034b6:	4e12      	ldr	r6, [pc, #72]	; (8003500 <vTaskPriorityInherit+0x98>)
 80034b8:	eb03 0283 	add.w	r2, r3, r3, lsl #2
 80034bc:	f855 2022 	ldr.w	r2, [r5, r2, lsl #2]
 80034c0:	b932      	cbnz	r2, 80034d0 <vTaskPriorityInherit+0x68>
 80034c2:	6832      	ldr	r2, [r6, #0]
 80034c4:	2101      	movs	r1, #1
 80034c6:	fa01 f303 	lsl.w	r3, r1, r3
 80034ca:	ea22 0303 	bic.w	r3, r2, r3
 80034ce:	6033      	str	r3, [r6, #0]
 80034d0:	6823      	ldr	r3, [r4, #0]
 80034d2:	6832      	ldr	r2, [r6, #0]
 80034d4:	6ad8      	ldr	r0, [r3, #44]	; 0x2c
 80034d6:	62f8      	str	r0, [r7, #44]	; 0x2c
 80034d8:	2301      	movs	r3, #1
 80034da:	4083      	lsls	r3, r0
 80034dc:	4313      	orrs	r3, r2
 80034de:	eb00 0080 	add.w	r0, r0, r0, lsl #2
 80034e2:	4641      	mov	r1, r8
 80034e4:	eb05 0080 	add.w	r0, r5, r0, lsl #2
 80034e8:	6033      	str	r3, [r6, #0]
 80034ea:	e8bd 41f0 	ldmia.w	sp!, {r4, r5, r6, r7, r8, lr}
 80034ee:	f7fe bce1 	b.w	8001eb4 <vListInsertEnd>
 80034f2:	4770      	bx	lr
 80034f4:	4e02      	ldr	r6, [pc, #8]	; (8003500 <vTaskPriorityInherit+0x98>)
 80034f6:	e7eb      	b.n	80034d0 <vTaskPriorityInherit+0x68>
 80034f8:	1ffe9b24 	.word	0x1ffe9b24
 80034fc:	1ffe9aa8 	.word	0x1ffe9aa8
 8003500:	1ffe9b7c 	.word	0x1ffe9b7c

08003504 <xTaskPriorityDisinherit>:
 8003504:	b308      	cbz	r0, 800354a <xTaskPriorityDisinherit+0x46>
 8003506:	b5f8      	push	{r3, r4, r5, r6, r7, lr}
 8003508:	4b28      	ldr	r3, [pc, #160]	; (80035ac <xTaskPriorityDisinherit+0xa8>)
 800350a:	681b      	ldr	r3, [r3, #0]
 800350c:	4298      	cmp	r0, r3
 800350e:	d008      	beq.n	8003522 <xTaskPriorityDisinherit+0x1e>
 8003510:	f04f 03fc 	mov.w	r3, #252	; 0xfc
 8003514:	f383 8811 	msr	BASEPRI, r3
 8003518:	f3bf 8f6f 	isb	sy
 800351c:	f3bf 8f4f 	dsb	sy
 8003520:	e7fe      	b.n	8003520 <xTaskPriorityDisinherit+0x1c>
 8003522:	6d03      	ldr	r3, [r0, #80]	; 0x50
 8003524:	b943      	cbnz	r3, 8003538 <xTaskPriorityDisinherit+0x34>
 8003526:	f04f 03fc 	mov.w	r3, #252	; 0xfc
 800352a:	f383 8811 	msr	BASEPRI, r3
 800352e:	f3bf 8f6f 	isb	sy
 8003532:	f3bf 8f4f 	dsb	sy
 8003536:	e7fe      	b.n	8003536 <xTaskPriorityDisinherit+0x32>
 8003538:	6ac1      	ldr	r1, [r0, #44]	; 0x2c
 800353a:	6cc2      	ldr	r2, [r0, #76]	; 0x4c
 800353c:	3b01      	subs	r3, #1
 800353e:	4291      	cmp	r1, r2
 8003540:	6503      	str	r3, [r0, #80]	; 0x50
 8003542:	d000      	beq.n	8003546 <xTaskPriorityDisinherit+0x42>
 8003544:	b11b      	cbz	r3, 800354e <xTaskPriorityDisinherit+0x4a>
 8003546:	2000      	movs	r0, #0
 8003548:	bdf8      	pop	{r3, r4, r5, r6, r7, pc}
 800354a:	2000      	movs	r0, #0
 800354c:	4770      	bx	lr
 800354e:	1d07      	adds	r7, r0, #4
 8003550:	4604      	mov	r4, r0
 8003552:	4638      	mov	r0, r7
 8003554:	f7fe fcd8 	bl	8001f08 <uxListRemove>
 8003558:	b1b8      	cbz	r0, 800358a <xTaskPriorityDisinherit+0x86>
 800355a:	4815      	ldr	r0, [pc, #84]	; (80035b0 <xTaskPriorityDisinherit+0xac>)
 800355c:	4a15      	ldr	r2, [pc, #84]	; (80035b4 <xTaskPriorityDisinherit+0xb0>)
 800355e:	6ce3      	ldr	r3, [r4, #76]	; 0x4c
 8003560:	6816      	ldr	r6, [r2, #0]
 8003562:	62e3      	str	r3, [r4, #44]	; 0x2c
 8003564:	2501      	movs	r5, #1
 8003566:	fa05 fc03 	lsl.w	ip, r5, r3
 800356a:	f1c3 0e05 	rsb	lr, r3, #5
 800356e:	eb03 0383 	add.w	r3, r3, r3, lsl #2
 8003572:	ea4c 0606 	orr.w	r6, ip, r6
 8003576:	eb00 0083 	add.w	r0, r0, r3, lsl #2
 800357a:	4639      	mov	r1, r7
 800357c:	f8c4 e018 	str.w	lr, [r4, #24]
 8003580:	6016      	str	r6, [r2, #0]
 8003582:	f7fe fc97 	bl	8001eb4 <vListInsertEnd>
 8003586:	4628      	mov	r0, r5
 8003588:	bdf8      	pop	{r3, r4, r5, r6, r7, pc}
 800358a:	6ae1      	ldr	r1, [r4, #44]	; 0x2c
 800358c:	4808      	ldr	r0, [pc, #32]	; (80035b0 <xTaskPriorityDisinherit+0xac>)
 800358e:	4a09      	ldr	r2, [pc, #36]	; (80035b4 <xTaskPriorityDisinherit+0xb0>)
 8003590:	eb01 0381 	add.w	r3, r1, r1, lsl #2
 8003594:	f850 3023 	ldr.w	r3, [r0, r3, lsl #2]
 8003598:	2b00      	cmp	r3, #0
 800359a:	d1e0      	bne.n	800355e <xTaskPriorityDisinherit+0x5a>
 800359c:	6813      	ldr	r3, [r2, #0]
 800359e:	2501      	movs	r5, #1
 80035a0:	408d      	lsls	r5, r1
 80035a2:	ea23 0305 	bic.w	r3, r3, r5
 80035a6:	6013      	str	r3, [r2, #0]
 80035a8:	e7d9      	b.n	800355e <xTaskPriorityDisinherit+0x5a>
 80035aa:	bf00      	nop
 80035ac:	1ffe9b24 	.word	0x1ffe9b24
 80035b0:	1ffe9aa8 	.word	0x1ffe9aa8
 80035b4:	1ffe9b7c 	.word	0x1ffe9b7c

080035b8 <pvTaskIncrementMutexHeldCount>:
 80035b8:	4b04      	ldr	r3, [pc, #16]	; (80035cc <pvTaskIncrementMutexHeldCount+0x14>)
 80035ba:	681a      	ldr	r2, [r3, #0]
 80035bc:	b11a      	cbz	r2, 80035c6 <pvTaskIncrementMutexHeldCount+0xe>
 80035be:	6819      	ldr	r1, [r3, #0]
 80035c0:	6d0a      	ldr	r2, [r1, #80]	; 0x50
 80035c2:	3201      	adds	r2, #1
 80035c4:	650a      	str	r2, [r1, #80]	; 0x50
 80035c6:	6818      	ldr	r0, [r3, #0]
 80035c8:	4770      	bx	lr
 80035ca:	bf00      	nop
 80035cc:	1ffe9b24 	.word	0x1ffe9b24

080035d0 <prvSwitchTimerLists>:
 80035d0:	e92d 47f0 	stmdb	sp!, {r4, r5, r6, r7, r8, r9, sl, lr}
 80035d4:	4d22      	ldr	r5, [pc, #136]	; (8003660 <prvSwitchTimerLists+0x90>)
 80035d6:	4e23      	ldr	r6, [pc, #140]	; (8003664 <prvSwitchTimerLists+0x94>)
 80035d8:	b084      	sub	sp, #16
 80035da:	46a8      	mov	r8, r5
 80035dc:	f04f 0a00 	mov.w	sl, #0
 80035e0:	e00d      	b.n	80035fe <prvSwitchTimerLists+0x2e>
 80035e2:	68db      	ldr	r3, [r3, #12]
 80035e4:	68dc      	ldr	r4, [r3, #12]
 80035e6:	681f      	ldr	r7, [r3, #0]
 80035e8:	f104 0904 	add.w	r9, r4, #4
 80035ec:	4648      	mov	r0, r9
 80035ee:	f7fe fc8b 	bl	8001f08 <uxListRemove>
 80035f2:	6a63      	ldr	r3, [r4, #36]	; 0x24
 80035f4:	4620      	mov	r0, r4
 80035f6:	4798      	blx	r3
 80035f8:	69e3      	ldr	r3, [r4, #28]
 80035fa:	2b01      	cmp	r3, #1
 80035fc:	d00b      	beq.n	8003616 <prvSwitchTimerLists+0x46>
 80035fe:	682b      	ldr	r3, [r5, #0]
 8003600:	4917      	ldr	r1, [pc, #92]	; (8003660 <prvSwitchTimerLists+0x90>)
 8003602:	681a      	ldr	r2, [r3, #0]
 8003604:	2a00      	cmp	r2, #0
 8003606:	d1ec      	bne.n	80035e2 <prvSwitchTimerLists+0x12>
 8003608:	4a17      	ldr	r2, [pc, #92]	; (8003668 <prvSwitchTimerLists+0x98>)
 800360a:	6810      	ldr	r0, [r2, #0]
 800360c:	6008      	str	r0, [r1, #0]
 800360e:	6013      	str	r3, [r2, #0]
 8003610:	b004      	add	sp, #16
 8003612:	e8bd 87f0 	ldmia.w	sp!, {r4, r5, r6, r7, r8, r9, sl, pc}
 8003616:	69a3      	ldr	r3, [r4, #24]
 8003618:	443b      	add	r3, r7
 800361a:	42bb      	cmp	r3, r7
 800361c:	4649      	mov	r1, r9
 800361e:	d818      	bhi.n	8003652 <prvSwitchTimerLists+0x82>
 8003620:	6833      	ldr	r3, [r6, #0]
 8003622:	b16b      	cbz	r3, 8003640 <prvSwitchTimerLists+0x70>
 8003624:	f8cd a000 	str.w	sl, [sp]
 8003628:	9701      	str	r7, [sp, #4]
 800362a:	9402      	str	r4, [sp, #8]
 800362c:	f7ff ff0c 	bl	8003448 <xTaskGetSchedulerState>
 8003630:	2200      	movs	r2, #0
 8003632:	4613      	mov	r3, r2
 8003634:	6830      	ldr	r0, [r6, #0]
 8003636:	4669      	mov	r1, sp
 8003638:	f7fe ff6a 	bl	8002510 <xQueueGenericSend>
 800363c:	2800      	cmp	r0, #0
 800363e:	d1de      	bne.n	80035fe <prvSwitchTimerLists+0x2e>
 8003640:	f04f 03fc 	mov.w	r3, #252	; 0xfc
 8003644:	f383 8811 	msr	BASEPRI, r3
 8003648:	f3bf 8f6f 	isb	sy
 800364c:	f3bf 8f4f 	dsb	sy
 8003650:	e7fe      	b.n	8003650 <prvSwitchTimerLists+0x80>
 8003652:	6063      	str	r3, [r4, #4]
 8003654:	6124      	str	r4, [r4, #16]
 8003656:	f8d8 0000 	ldr.w	r0, [r8]
 800365a:	f7fe fc3b 	bl	8001ed4 <vListInsert>
 800365e:	e7ce      	b.n	80035fe <prvSwitchTimerLists+0x2e>
 8003660:	1ffe9b84 	.word	0x1ffe9b84
 8003664:	1ffe9bb0 	.word	0x1ffe9bb0
 8003668:	1ffe9bb4 	.word	0x1ffe9bb4

0800366c <xTimerCreateTimerTask>:
 800366c:	b5f0      	push	{r4, r5, r6, r7, lr}
 800366e:	4c1c      	ldr	r4, [pc, #112]	; (80036e0 <xTimerCreateTimerTask+0x74>)
 8003670:	b083      	sub	sp, #12
 8003672:	f7fe fcbd 	bl	8001ff0 <vPortEnterCritical>
 8003676:	6826      	ldr	r6, [r4, #0]
 8003678:	b1d6      	cbz	r6, 80036b0 <xTimerCreateTimerTask+0x44>
 800367a:	f7fe fcdb 	bl	8002034 <vPortExitCritical>
 800367e:	6823      	ldr	r3, [r4, #0]
 8003680:	b16b      	cbz	r3, 800369e <xTimerCreateTimerTask+0x32>
 8003682:	4b18      	ldr	r3, [pc, #96]	; (80036e4 <xTimerCreateTimerTask+0x78>)
 8003684:	4818      	ldr	r0, [pc, #96]	; (80036e8 <xTimerCreateTimerTask+0x7c>)
 8003686:	4919      	ldr	r1, [pc, #100]	; (80036ec <xTimerCreateTimerTask+0x80>)
 8003688:	2202      	movs	r2, #2
 800368a:	e88d 000c 	stmia.w	sp, {r2, r3}
 800368e:	f44f 7282 	mov.w	r2, #260	; 0x104
 8003692:	2300      	movs	r3, #0
 8003694:	f7ff f9fc 	bl	8002a90 <xTaskCreate>
 8003698:	b108      	cbz	r0, 800369e <xTimerCreateTimerTask+0x32>
 800369a:	b003      	add	sp, #12
 800369c:	bdf0      	pop	{r4, r5, r6, r7, pc}
 800369e:	f04f 03fc 	mov.w	r3, #252	; 0xfc
 80036a2:	f383 8811 	msr	BASEPRI, r3
 80036a6:	f3bf 8f6f 	isb	sy
 80036aa:	f3bf 8f4f 	dsb	sy
 80036ae:	e7fe      	b.n	80036ae <xTimerCreateTimerTask+0x42>
 80036b0:	4f0f      	ldr	r7, [pc, #60]	; (80036f0 <xTimerCreateTimerTask+0x84>)
 80036b2:	4d10      	ldr	r5, [pc, #64]	; (80036f4 <xTimerCreateTimerTask+0x88>)
 80036b4:	4638      	mov	r0, r7
 80036b6:	f7fe fbed 	bl	8001e94 <vListInitialise>
 80036ba:	4628      	mov	r0, r5
 80036bc:	f7fe fbea 	bl	8001e94 <vListInitialise>
 80036c0:	4a0d      	ldr	r2, [pc, #52]	; (80036f8 <xTimerCreateTimerTask+0x8c>)
 80036c2:	4b0e      	ldr	r3, [pc, #56]	; (80036fc <xTimerCreateTimerTask+0x90>)
 80036c4:	6017      	str	r7, [r2, #0]
 80036c6:	2005      	movs	r0, #5
 80036c8:	4632      	mov	r2, r6
 80036ca:	2110      	movs	r1, #16
 80036cc:	601d      	str	r5, [r3, #0]
 80036ce:	f7fe fed9 	bl	8002484 <xQueueGenericCreate>
 80036d2:	6020      	str	r0, [r4, #0]
 80036d4:	2800      	cmp	r0, #0
 80036d6:	d0d0      	beq.n	800367a <xTimerCreateTimerTask+0xe>
 80036d8:	4909      	ldr	r1, [pc, #36]	; (8003700 <xTimerCreateTimerTask+0x94>)
 80036da:	f7ff f92b 	bl	8002934 <vQueueAddToRegistry>
 80036de:	e7cc      	b.n	800367a <xTimerCreateTimerTask+0xe>
 80036e0:	1ffe9bb0 	.word	0x1ffe9bb0
 80036e4:	1ffe9bb8 	.word	0x1ffe9bb8
 80036e8:	0800376d 	.word	0x0800376d
 80036ec:	0800e520 	.word	0x0800e520
 80036f0:	1ffe9b88 	.word	0x1ffe9b88
 80036f4:	1ffe9b9c 	.word	0x1ffe9b9c
 80036f8:	1ffe9b84 	.word	0x1ffe9b84
 80036fc:	1ffe9bb4 	.word	0x1ffe9bb4
 8003700:	0800e518 	.word	0x0800e518

08003704 <xTimerGenericCommand>:
 8003704:	b570      	push	{r4, r5, r6, lr}
 8003706:	4604      	mov	r4, r0
 8003708:	b084      	sub	sp, #16
 800370a:	b320      	cbz	r0, 8003756 <xTimerGenericCommand+0x52>
 800370c:	4d16      	ldr	r5, [pc, #88]	; (8003768 <xTimerGenericCommand+0x64>)
 800370e:	6828      	ldr	r0, [r5, #0]
 8003710:	b188      	cbz	r0, 8003736 <xTimerGenericCommand+0x32>
 8003712:	4616      	mov	r6, r2
 8003714:	2905      	cmp	r1, #5
 8003716:	461a      	mov	r2, r3
 8003718:	460b      	mov	r3, r1
 800371a:	e88d 0048 	stmia.w	sp, {r3, r6}
 800371e:	9402      	str	r4, [sp, #8]
 8003720:	dc0b      	bgt.n	800373a <xTimerGenericCommand+0x36>
 8003722:	f7ff fe91 	bl	8003448 <xTaskGetSchedulerState>
 8003726:	2802      	cmp	r0, #2
 8003728:	d00d      	beq.n	8003746 <xTimerGenericCommand+0x42>
 800372a:	2200      	movs	r2, #0
 800372c:	6828      	ldr	r0, [r5, #0]
 800372e:	4613      	mov	r3, r2
 8003730:	4669      	mov	r1, sp
 8003732:	f7fe feed 	bl	8002510 <xQueueGenericSend>
 8003736:	b004      	add	sp, #16
 8003738:	bd70      	pop	{r4, r5, r6, pc}
 800373a:	4669      	mov	r1, sp
 800373c:	2300      	movs	r3, #0
 800373e:	f7fe ffb7 	bl	80026b0 <xQueueGenericSendFromISR>
 8003742:	b004      	add	sp, #16
 8003744:	bd70      	pop	{r4, r5, r6, pc}
 8003746:	6828      	ldr	r0, [r5, #0]
 8003748:	9a08      	ldr	r2, [sp, #32]
 800374a:	4669      	mov	r1, sp
 800374c:	2300      	movs	r3, #0
 800374e:	f7fe fedf 	bl	8002510 <xQueueGenericSend>
 8003752:	b004      	add	sp, #16
 8003754:	bd70      	pop	{r4, r5, r6, pc}
 8003756:	f04f 03fc 	mov.w	r3, #252	; 0xfc
 800375a:	f383 8811 	msr	BASEPRI, r3
 800375e:	f3bf 8f6f 	isb	sy
 8003762:	f3bf 8f4f 	dsb	sy
 8003766:	e7fe      	b.n	8003766 <xTimerGenericCommand+0x62>
 8003768:	1ffe9bb0 	.word	0x1ffe9bb0

0800376c <prvTimerTask>:
 800376c:	e92d 4ff0 	stmdb	sp!, {r4, r5, r6, r7, r8, r9, sl, fp, lr}
 8003770:	4d8b      	ldr	r5, [pc, #556]	; (80039a0 <prvTimerTask+0x234>)
 8003772:	f8df 823c 	ldr.w	r8, [pc, #572]	; 80039b0 <prvTimerTask+0x244>
 8003776:	4c8b      	ldr	r4, [pc, #556]	; (80039a4 <prvTimerTask+0x238>)
 8003778:	b089      	sub	sp, #36	; 0x24
 800377a:	46aa      	mov	sl, r5
 800377c:	4b8a      	ldr	r3, [pc, #552]	; (80039a8 <prvTimerTask+0x23c>)
 800377e:	681b      	ldr	r3, [r3, #0]
 8003780:	681e      	ldr	r6, [r3, #0]
 8003782:	2e00      	cmp	r6, #0
 8003784:	d053      	beq.n	800382e <prvTimerTask+0xc2>
 8003786:	68db      	ldr	r3, [r3, #12]
 8003788:	f8d3 b000 	ldr.w	fp, [r3]
 800378c:	f7ff fafa 	bl	8002d84 <vTaskSuspendAll>
 8003790:	f7ff fb00 	bl	8002d94 <xTaskGetTickCount>
 8003794:	682b      	ldr	r3, [r5, #0]
 8003796:	4283      	cmp	r3, r0
 8003798:	4681      	mov	r9, r0
 800379a:	d85a      	bhi.n	8003852 <prvTimerTask+0xe6>
 800379c:	4583      	cmp	fp, r0
 800379e:	f8ca 0000 	str.w	r0, [sl]
 80037a2:	d962      	bls.n	800386a <prvTimerTask+0xfe>
 80037a4:	2200      	movs	r2, #0
 80037a6:	ebc9 010b 	rsb	r1, r9, fp
 80037aa:	6820      	ldr	r0, [r4, #0]
 80037ac:	f7ff f8ee 	bl	800298c <vQueueWaitForMessageRestricted>
 80037b0:	f7ff fb94 	bl	8002edc <xTaskResumeAll>
 80037b4:	b938      	cbnz	r0, 80037c6 <prvTimerTask+0x5a>
 80037b6:	4a7d      	ldr	r2, [pc, #500]	; (80039ac <prvTimerTask+0x240>)
 80037b8:	f04f 5380 	mov.w	r3, #268435456	; 0x10000000
 80037bc:	6013      	str	r3, [r2, #0]
 80037be:	f3bf 8f4f 	dsb	sy
 80037c2:	f3bf 8f6f 	isb	sy
 80037c6:	2601      	movs	r6, #1
 80037c8:	f04f 0900 	mov.w	r9, #0
 80037cc:	2200      	movs	r2, #0
 80037ce:	4613      	mov	r3, r2
 80037d0:	6820      	ldr	r0, [r4, #0]
 80037d2:	a904      	add	r1, sp, #16
 80037d4:	f7fe ffd8 	bl	8002788 <xQueueGenericReceive>
 80037d8:	2800      	cmp	r0, #0
 80037da:	d0cf      	beq.n	800377c <prvTimerTask+0x10>
 80037dc:	9b04      	ldr	r3, [sp, #16]
 80037de:	2b00      	cmp	r3, #0
 80037e0:	db1d      	blt.n	800381e <prvTimerTask+0xb2>
 80037e2:	9f06      	ldr	r7, [sp, #24]
 80037e4:	697a      	ldr	r2, [r7, #20]
 80037e6:	b112      	cbz	r2, 80037ee <prvTimerTask+0x82>
 80037e8:	1d38      	adds	r0, r7, #4
 80037ea:	f7fe fb8d 	bl	8001f08 <uxListRemove>
 80037ee:	f7ff fad1 	bl	8002d94 <xTaskGetTickCount>
 80037f2:	682a      	ldr	r2, [r5, #0]
 80037f4:	4290      	cmp	r0, r2
 80037f6:	d333      	bcc.n	8003860 <prvTimerTask+0xf4>
 80037f8:	9a04      	ldr	r2, [sp, #16]
 80037fa:	6028      	str	r0, [r5, #0]
 80037fc:	2a09      	cmp	r2, #9
 80037fe:	d8e5      	bhi.n	80037cc <prvTimerTask+0x60>
 8003800:	fa06 f202 	lsl.w	r2, r6, r2
 8003804:	f412 7f04 	tst.w	r2, #528	; 0x210
 8003808:	d171      	bne.n	80038ee <prvTimerTask+0x182>
 800380a:	f012 0fc7 	tst.w	r2, #199	; 0xc7
 800380e:	f040 8081 	bne.w	8003914 <prvTimerTask+0x1a8>
 8003812:	0693      	lsls	r3, r2, #26
 8003814:	d5da      	bpl.n	80037cc <prvTimerTask+0x60>
 8003816:	4638      	mov	r0, r7
 8003818:	f7fe fb2e 	bl	8001e78 <vPortFree>
 800381c:	e7d6      	b.n	80037cc <prvTimerTask+0x60>
 800381e:	9b05      	ldr	r3, [sp, #20]
 8003820:	9806      	ldr	r0, [sp, #24]
 8003822:	9907      	ldr	r1, [sp, #28]
 8003824:	4798      	blx	r3
 8003826:	9b04      	ldr	r3, [sp, #16]
 8003828:	2b00      	cmp	r3, #0
 800382a:	dbcf      	blt.n	80037cc <prvTimerTask+0x60>
 800382c:	e7d9      	b.n	80037e2 <prvTimerTask+0x76>
 800382e:	f7ff faa9 	bl	8002d84 <vTaskSuspendAll>
 8003832:	f7ff faaf 	bl	8002d94 <xTaskGetTickCount>
 8003836:	682b      	ldr	r3, [r5, #0]
 8003838:	4298      	cmp	r0, r3
 800383a:	4681      	mov	r9, r0
 800383c:	d309      	bcc.n	8003852 <prvTimerTask+0xe6>
 800383e:	f8d8 3000 	ldr.w	r3, [r8]
 8003842:	f8ca 0000 	str.w	r0, [sl]
 8003846:	681a      	ldr	r2, [r3, #0]
 8003848:	fab2 f282 	clz	r2, r2
 800384c:	46b3      	mov	fp, r6
 800384e:	0952      	lsrs	r2, r2, #5
 8003850:	e7a9      	b.n	80037a6 <prvTimerTask+0x3a>
 8003852:	f7ff febd 	bl	80035d0 <prvSwitchTimerLists>
 8003856:	f8c5 9000 	str.w	r9, [r5]
 800385a:	f7ff fb3f 	bl	8002edc <xTaskResumeAll>
 800385e:	e7b2      	b.n	80037c6 <prvTimerTask+0x5a>
 8003860:	9003      	str	r0, [sp, #12]
 8003862:	f7ff feb5 	bl	80035d0 <prvSwitchTimerLists>
 8003866:	9803      	ldr	r0, [sp, #12]
 8003868:	e7c6      	b.n	80037f8 <prvTimerTask+0x8c>
 800386a:	f7ff fb37 	bl	8002edc <xTaskResumeAll>
 800386e:	4b4e      	ldr	r3, [pc, #312]	; (80039a8 <prvTimerTask+0x23c>)
 8003870:	681b      	ldr	r3, [r3, #0]
 8003872:	68db      	ldr	r3, [r3, #12]
 8003874:	68de      	ldr	r6, [r3, #12]
 8003876:	1d31      	adds	r1, r6, #4
 8003878:	4608      	mov	r0, r1
 800387a:	9103      	str	r1, [sp, #12]
 800387c:	f7fe fb44 	bl	8001f08 <uxListRemove>
 8003880:	69f2      	ldr	r2, [r6, #28]
 8003882:	9903      	ldr	r1, [sp, #12]
 8003884:	2a01      	cmp	r2, #1
 8003886:	d003      	beq.n	8003890 <prvTimerTask+0x124>
 8003888:	6a73      	ldr	r3, [r6, #36]	; 0x24
 800388a:	4630      	mov	r0, r6
 800388c:	4798      	blx	r3
 800388e:	e79a      	b.n	80037c6 <prvTimerTask+0x5a>
 8003890:	69b2      	ldr	r2, [r6, #24]
 8003892:	6136      	str	r6, [r6, #16]
 8003894:	eb0b 0002 	add.w	r0, fp, r2
 8003898:	4548      	cmp	r0, r9
 800389a:	6070      	str	r0, [r6, #4]
 800389c:	d822      	bhi.n	80038e4 <prvTimerTask+0x178>
 800389e:	ebcb 0909 	rsb	r9, fp, r9
 80038a2:	454a      	cmp	r2, r9
 80038a4:	d85d      	bhi.n	8003962 <prvTimerTask+0x1f6>
 80038a6:	6822      	ldr	r2, [r4, #0]
 80038a8:	4b3e      	ldr	r3, [pc, #248]	; (80039a4 <prvTimerTask+0x238>)
 80038aa:	b192      	cbz	r2, 80038d2 <prvTimerTask+0x166>
 80038ac:	f04f 0900 	mov.w	r9, #0
 80038b0:	9303      	str	r3, [sp, #12]
 80038b2:	f8cd b014 	str.w	fp, [sp, #20]
 80038b6:	9606      	str	r6, [sp, #24]
 80038b8:	f8cd 9010 	str.w	r9, [sp, #16]
 80038bc:	f7ff fdc4 	bl	8003448 <xTaskGetSchedulerState>
 80038c0:	9b03      	ldr	r3, [sp, #12]
 80038c2:	464a      	mov	r2, r9
 80038c4:	6818      	ldr	r0, [r3, #0]
 80038c6:	a904      	add	r1, sp, #16
 80038c8:	464b      	mov	r3, r9
 80038ca:	f7fe fe21 	bl	8002510 <xQueueGenericSend>
 80038ce:	2800      	cmp	r0, #0
 80038d0:	d1da      	bne.n	8003888 <prvTimerTask+0x11c>
 80038d2:	f04f 03fc 	mov.w	r3, #252	; 0xfc
 80038d6:	f383 8811 	msr	BASEPRI, r3
 80038da:	f3bf 8f6f 	isb	sy
 80038de:	f3bf 8f4f 	dsb	sy
 80038e2:	e7fe      	b.n	80038e2 <prvTimerTask+0x176>
 80038e4:	4b30      	ldr	r3, [pc, #192]	; (80039a8 <prvTimerTask+0x23c>)
 80038e6:	6818      	ldr	r0, [r3, #0]
 80038e8:	f7fe faf4 	bl	8001ed4 <vListInsert>
 80038ec:	e7cc      	b.n	8003888 <prvTimerTask+0x11c>
 80038ee:	9a05      	ldr	r2, [sp, #20]
 80038f0:	61ba      	str	r2, [r7, #24]
 80038f2:	2a00      	cmp	r2, #0
 80038f4:	d04a      	beq.n	800398c <prvTimerTask+0x220>
 80038f6:	4402      	add	r2, r0
 80038f8:	4282      	cmp	r2, r0
 80038fa:	bf88      	it	hi
 80038fc:	4b2a      	ldrhi	r3, [pc, #168]	; (80039a8 <prvTimerTask+0x23c>)
 80038fe:	607a      	str	r2, [r7, #4]
 8003900:	613f      	str	r7, [r7, #16]
 8003902:	f107 0104 	add.w	r1, r7, #4
 8003906:	bf94      	ite	ls
 8003908:	f8d8 0000 	ldrls.w	r0, [r8]
 800390c:	6818      	ldrhi	r0, [r3, #0]
 800390e:	f7fe fae1 	bl	8001ed4 <vListInsert>
 8003912:	e75b      	b.n	80037cc <prvTimerTask+0x60>
 8003914:	9a05      	ldr	r2, [sp, #20]
 8003916:	69bb      	ldr	r3, [r7, #24]
 8003918:	613f      	str	r7, [r7, #16]
 800391a:	1899      	adds	r1, r3, r2
 800391c:	4281      	cmp	r1, r0
 800391e:	6079      	str	r1, [r7, #4]
 8003920:	d824      	bhi.n	800396c <prvTimerTask+0x200>
 8003922:	1a82      	subs	r2, r0, r2
 8003924:	4293      	cmp	r3, r2
 8003926:	d82b      	bhi.n	8003980 <prvTimerTask+0x214>
 8003928:	6a7a      	ldr	r2, [r7, #36]	; 0x24
 800392a:	4638      	mov	r0, r7
 800392c:	4790      	blx	r2
 800392e:	69fa      	ldr	r2, [r7, #28]
 8003930:	2a01      	cmp	r2, #1
 8003932:	f47f af4b 	bne.w	80037cc <prvTimerTask+0x60>
 8003936:	69bb      	ldr	r3, [r7, #24]
 8003938:	9a05      	ldr	r2, [sp, #20]
 800393a:	f8cd 9000 	str.w	r9, [sp]
 800393e:	2100      	movs	r1, #0
 8003940:	441a      	add	r2, r3
 8003942:	4638      	mov	r0, r7
 8003944:	460b      	mov	r3, r1
 8003946:	f7ff fedd 	bl	8003704 <xTimerGenericCommand>
 800394a:	2800      	cmp	r0, #0
 800394c:	f47f af3e 	bne.w	80037cc <prvTimerTask+0x60>
 8003950:	f04f 03fc 	mov.w	r3, #252	; 0xfc
 8003954:	f383 8811 	msr	BASEPRI, r3
 8003958:	f3bf 8f6f 	isb	sy
 800395c:	f3bf 8f4f 	dsb	sy
 8003960:	e7fe      	b.n	8003960 <prvTimerTask+0x1f4>
 8003962:	f8d8 0000 	ldr.w	r0, [r8]
 8003966:	f7fe fab5 	bl	8001ed4 <vListInsert>
 800396a:	e78d      	b.n	8003888 <prvTimerTask+0x11c>
 800396c:	4282      	cmp	r2, r0
 800396e:	d901      	bls.n	8003974 <prvTimerTask+0x208>
 8003970:	428a      	cmp	r2, r1
 8003972:	d9d9      	bls.n	8003928 <prvTimerTask+0x1bc>
 8003974:	4b0c      	ldr	r3, [pc, #48]	; (80039a8 <prvTimerTask+0x23c>)
 8003976:	1d39      	adds	r1, r7, #4
 8003978:	6818      	ldr	r0, [r3, #0]
 800397a:	f7fe faab 	bl	8001ed4 <vListInsert>
 800397e:	e725      	b.n	80037cc <prvTimerTask+0x60>
 8003980:	1d39      	adds	r1, r7, #4
 8003982:	f8d8 0000 	ldr.w	r0, [r8]
 8003986:	f7fe faa5 	bl	8001ed4 <vListInsert>
 800398a:	e71f      	b.n	80037cc <prvTimerTask+0x60>
 800398c:	f04f 03fc 	mov.w	r3, #252	; 0xfc
 8003990:	f383 8811 	msr	BASEPRI, r3
 8003994:	f3bf 8f6f 	isb	sy
 8003998:	f3bf 8f4f 	dsb	sy
 800399c:	e7fe      	b.n	800399c <prvTimerTask+0x230>
 800399e:	bf00      	nop
 80039a0:	1ffe9bbc 	.word	0x1ffe9bbc
 80039a4:	1ffe9bb0 	.word	0x1ffe9bb0
 80039a8:	1ffe9b84 	.word	0x1ffe9b84
 80039ac:	e000ed04 	.word	0xe000ed04
 80039b0:	1ffe9bb4 	.word	0x1ffe9bb4

080039b4 <DIGITAL_IO_Init>:
 80039b4:	b510      	push	{r4, lr}
 80039b6:	4604      	mov	r4, r0
 80039b8:	1d02      	adds	r2, r0, #4
 80039ba:	7c21      	ldrb	r1, [r4, #16]
 80039bc:	6800      	ldr	r0, [r0, #0]
 80039be:	f7fc fcbd 	bl	800033c <XMC_GPIO_Init>
 80039c2:	6820      	ldr	r0, [r4, #0]
 80039c4:	7c21      	ldrb	r1, [r4, #16]
 80039c6:	7c62      	ldrb	r2, [r4, #17]
 80039c8:	f7fd f946 	bl	8000c58 <XMC_GPIO_SetHardwareControl>
 80039cc:	2000      	movs	r0, #0
 80039ce:	bd10      	pop	{r4, pc}

080039d0 <SystemCoreSetup>:
 80039d0:	4b18      	ldr	r3, [pc, #96]	; (8003a34 <SystemCoreSetup+0x64>)
 80039d2:	4a19      	ldr	r2, [pc, #100]	; (8003a38 <SystemCoreSetup+0x68>)
 80039d4:	68d8      	ldr	r0, [r3, #12]
 80039d6:	f64f 01ff 	movw	r1, #63743	; 0xf8ff
 80039da:	4001      	ands	r1, r0
 80039dc:	430a      	orrs	r2, r1
 80039de:	60da      	str	r2, [r3, #12]
 80039e0:	b672      	cpsid	i
 80039e2:	4a16      	ldr	r2, [pc, #88]	; (8003a3c <SystemCoreSetup+0x6c>)
 80039e4:	609a      	str	r2, [r3, #8]
 80039e6:	f3bf 8f4f 	dsb	sy
 80039ea:	b662      	cpsie	i
 80039ec:	f8d3 2088 	ldr.w	r2, [r3, #136]	; 0x88
 80039f0:	4813      	ldr	r0, [pc, #76]	; (8003a40 <SystemCoreSetup+0x70>)
 80039f2:	f442 0270 	orr.w	r2, r2, #15728640	; 0xf00000
 80039f6:	f241 0114 	movw	r1, #4116	; 0x1014
 80039fa:	f8c3 2088 	str.w	r2, [r3, #136]	; 0x88
 80039fe:	5842      	ldr	r2, [r0, r1]
 8003a00:	f022 020f 	bic.w	r2, r2, #15
 8003a04:	f042 0204 	orr.w	r2, r2, #4
 8003a08:	5042      	str	r2, [r0, r1]
 8003a0a:	695a      	ldr	r2, [r3, #20]
 8003a0c:	f022 0210 	bic.w	r2, r2, #16
 8003a10:	615a      	str	r2, [r3, #20]
 8003a12:	695a      	ldr	r2, [r3, #20]
 8003a14:	f022 0208 	bic.w	r2, r2, #8
 8003a18:	615a      	str	r2, [r3, #20]
 8003a1a:	6a5a      	ldr	r2, [r3, #36]	; 0x24
 8003a1c:	f422 3280 	bic.w	r2, r2, #65536	; 0x10000
 8003a20:	625a      	str	r2, [r3, #36]	; 0x24
 8003a22:	6a5a      	ldr	r2, [r3, #36]	; 0x24
 8003a24:	f422 3200 	bic.w	r2, r2, #131072	; 0x20000
 8003a28:	625a      	str	r2, [r3, #36]	; 0x24
 8003a2a:	6a5a      	ldr	r2, [r3, #36]	; 0x24
 8003a2c:	f422 2280 	bic.w	r2, r2, #262144	; 0x40000
 8003a30:	625a      	str	r2, [r3, #36]	; 0x24
 8003a32:	4770      	bx	lr
 8003a34:	e000ed00 	.word	0xe000ed00
 8003a38:	05fa0100 	.word	0x05fa0100
 8003a3c:	08000000 	.word	0x08000000
 8003a40:	58001000 	.word	0x58001000

08003a44 <CLOCK_XMC4_Init>:
 8003a44:	2301      	movs	r3, #1
 8003a46:	7003      	strb	r3, [r0, #0]
 8003a48:	2000      	movs	r0, #0
 8003a4a:	4770      	bx	lr

08003a4c <OSCHP_GetFrequency>:
 8003a4c:	4800      	ldr	r0, [pc, #0]	; (8003a50 <OSCHP_GetFrequency+0x4>)
 8003a4e:	4770      	bx	lr
 8003a50:	00b71b00 	.word	0x00b71b00

08003a54 <SystemCoreClockSetup>:
 8003a54:	b530      	push	{r4, r5, lr}
 8003a56:	4d11      	ldr	r5, [pc, #68]	; (8003a9c <SystemCoreClockSetup+0x48>)
 8003a58:	cd0f      	ldmia	r5!, {r0, r1, r2, r3}
 8003a5a:	b087      	sub	sp, #28
 8003a5c:	ac01      	add	r4, sp, #4
 8003a5e:	c40f      	stmia	r4!, {r0, r1, r2, r3}
 8003a60:	682b      	ldr	r3, [r5, #0]
 8003a62:	6023      	str	r3, [r4, #0]
 8003a64:	a801      	add	r0, sp, #4
 8003a66:	f7fc fe15 	bl	8000694 <XMC_SCU_CLOCK_Init>
 8003a6a:	2000      	movs	r0, #0
 8003a6c:	f7fc fcd6 	bl	800041c <XMC_SCU_HIB_SetRtcClockSource>
 8003a70:	2000      	movs	r0, #0
 8003a72:	f7fc fcbf 	bl	80003f4 <XMC_SCU_CLOCK_SetUsbClockSource>
 8003a76:	2004      	movs	r0, #4
 8003a78:	f7fc fce0 	bl	800043c <XMC_SCU_CLOCK_SetUsbClockDivider>
 8003a7c:	2120      	movs	r1, #32
 8003a7e:	2001      	movs	r0, #1
 8003a80:	f7fc fd0c 	bl	800049c <XMC_SCU_CLOCK_StartUsbPll>
 8003a84:	2000      	movs	r0, #0
 8003a86:	f7fc fcbf 	bl	8000408 <XMC_SCU_CLOCK_SetWdtClockSource>
 8003a8a:	2001      	movs	r0, #1
 8003a8c:	f7fc fcea 	bl	8000464 <XMC_SCU_CLOCK_SetWdtClockDivider>
 8003a90:	2001      	movs	r0, #1
 8003a92:	f7fc fcdd 	bl	8000450 <XMC_SCU_CLOCK_SetEbuClockDivider>
 8003a96:	b007      	add	sp, #28
 8003a98:	bd30      	pop	{r4, r5, pc}
 8003a9a:	bf00      	nop
 8003a9c:	0800e5b4 	.word	0x0800e5b4

08003aa0 <DAVE_Init>:
 8003aa0:	b508      	push	{r3, lr}
 8003aa2:	481e      	ldr	r0, [pc, #120]	; (8003b1c <DAVE_Init+0x7c>)
 8003aa4:	f7ff ffce 	bl	8003a44 <CLOCK_XMC4_Init>
 8003aa8:	b100      	cbz	r0, 8003aac <DAVE_Init+0xc>
 8003aaa:	bd08      	pop	{r3, pc}
 8003aac:	481c      	ldr	r0, [pc, #112]	; (8003b20 <DAVE_Init+0x80>)
 8003aae:	f7ff ff81 	bl	80039b4 <DIGITAL_IO_Init>
 8003ab2:	2800      	cmp	r0, #0
 8003ab4:	d1f9      	bne.n	8003aaa <DAVE_Init+0xa>
 8003ab6:	481b      	ldr	r0, [pc, #108]	; (8003b24 <DAVE_Init+0x84>)
 8003ab8:	f7ff ff7c 	bl	80039b4 <DIGITAL_IO_Init>
 8003abc:	2800      	cmp	r0, #0
 8003abe:	d1f4      	bne.n	8003aaa <DAVE_Init+0xa>
 8003ac0:	4819      	ldr	r0, [pc, #100]	; (8003b28 <DAVE_Init+0x88>)
 8003ac2:	f7ff ff77 	bl	80039b4 <DIGITAL_IO_Init>
 8003ac6:	2800      	cmp	r0, #0
 8003ac8:	d1ef      	bne.n	8003aaa <DAVE_Init+0xa>
 8003aca:	4818      	ldr	r0, [pc, #96]	; (8003b2c <DAVE_Init+0x8c>)
 8003acc:	f7ff ff72 	bl	80039b4 <DIGITAL_IO_Init>
 8003ad0:	2800      	cmp	r0, #0
 8003ad2:	d1ea      	bne.n	8003aaa <DAVE_Init+0xa>
 8003ad4:	4816      	ldr	r0, [pc, #88]	; (8003b30 <DAVE_Init+0x90>)
 8003ad6:	f7fd ff6b 	bl	80019b0 <INTERRUPT_Init>
 8003ada:	2800      	cmp	r0, #0
 8003adc:	d1e5      	bne.n	8003aaa <DAVE_Init+0xa>
 8003ade:	4815      	ldr	r0, [pc, #84]	; (8003b34 <DAVE_Init+0x94>)
 8003ae0:	f7fd fa46 	bl	8000f70 <TIMER_Init>
 8003ae4:	2800      	cmp	r0, #0
 8003ae6:	d1e0      	bne.n	8003aaa <DAVE_Init+0xa>
 8003ae8:	4813      	ldr	r0, [pc, #76]	; (8003b38 <DAVE_Init+0x98>)
 8003aea:	f7fe f8f5 	bl	8001cd8 <GUI_SEGGERLIBRARY_Init>
 8003aee:	2800      	cmp	r0, #0
 8003af0:	d1db      	bne.n	8003aaa <DAVE_Init+0xa>
 8003af2:	4812      	ldr	r0, [pc, #72]	; (8003b3c <DAVE_Init+0x9c>)
 8003af4:	f7fd fd6c 	bl	80015d0 <PWM_CCU8_Init>
 8003af8:	2800      	cmp	r0, #0
 8003afa:	d1d6      	bne.n	8003aaa <DAVE_Init+0xa>
 8003afc:	4810      	ldr	r0, [pc, #64]	; (8003b40 <DAVE_Init+0xa0>)
 8003afe:	f7ff ff59 	bl	80039b4 <DIGITAL_IO_Init>
 8003b02:	2800      	cmp	r0, #0
 8003b04:	d1d1      	bne.n	8003aaa <DAVE_Init+0xa>
 8003b06:	480f      	ldr	r0, [pc, #60]	; (8003b44 <DAVE_Init+0xa4>)
 8003b08:	f7ff ff54 	bl	80039b4 <DIGITAL_IO_Init>
 8003b0c:	2800      	cmp	r0, #0
 8003b0e:	d1cc      	bne.n	8003aaa <DAVE_Init+0xa>
 8003b10:	480d      	ldr	r0, [pc, #52]	; (8003b48 <DAVE_Init+0xa8>)
 8003b12:	e8bd 4008 	ldmia.w	sp!, {r3, lr}
 8003b16:	f7ff bf4d 	b.w	80039b4 <DIGITAL_IO_Init>
 8003b1a:	bf00      	nop
 8003b1c:	1ffe9bc0 	.word	0x1ffe9bc0
 8003b20:	0800e53c 	.word	0x0800e53c
 8003b24:	0800e550 	.word	0x0800e550
 8003b28:	0800e58c 	.word	0x0800e58c
 8003b2c:	0800e578 	.word	0x0800e578
 8003b30:	0800e4e4 	.word	0x0800e4e4
 8003b34:	1ffe8818 	.word	0x1ffe8818
 8003b38:	1ffe88c4 	.word	0x1ffe88c4
 8003b3c:	1ffe8890 	.word	0x1ffe8890
 8003b40:	0800e5a0 	.word	0x0800e5a0
 8003b44:	0800e564 	.word	0x0800e564
 8003b48:	0800e528 	.word	0x0800e528

08003b4c <CCU43_1_IRQHandler>:
 8003b4c:	4a16      	ldr	r2, [pc, #88]	; (8003ba8 <CCU43_1_IRQHandler+0x5c>)
 8003b4e:	4b17      	ldr	r3, [pc, #92]	; (8003bac <CCU43_1_IRQHandler+0x60>)
 8003b50:	6811      	ldr	r1, [r2, #0]
 8003b52:	6818      	ldr	r0, [r3, #0]
 8003b54:	6a49      	ldr	r1, [r1, #36]	; 0x24
 8003b56:	b4f0      	push	{r4, r5, r6, r7}
 8003b58:	7c1f      	ldrb	r7, [r3, #16]
 8003b5a:	6a43      	ldr	r3, [r0, #36]	; 0x24
 8003b5c:	4814      	ldr	r0, [pc, #80]	; (8003bb0 <CCU43_1_IRQHandler+0x64>)
 8003b5e:	7c16      	ldrb	r6, [r2, #16]
 8003b60:	6802      	ldr	r2, [r0, #0]
 8003b62:	4d14      	ldr	r5, [pc, #80]	; (8003bb4 <CCU43_1_IRQHandler+0x68>)
 8003b64:	4c14      	ldr	r4, [pc, #80]	; (8003bb8 <CCU43_1_IRQHandler+0x6c>)
 8003b66:	40fb      	lsrs	r3, r7
 8003b68:	f003 0301 	and.w	r3, r3, #1
 8003b6c:	40f1      	lsrs	r1, r6
 8003b6e:	f001 0101 	and.w	r1, r1, #1
 8003b72:	431a      	orrs	r2, r3
 8003b74:	ea42 0341 	orr.w	r3, r2, r1, lsl #1
 8003b78:	6821      	ldr	r1, [r4, #0]
 8003b7a:	5ced      	ldrb	r5, [r5, r3]
 8003b7c:	b26a      	sxtb	r2, r5
 8003b7e:	4411      	add	r1, r2
 8003b80:	6021      	str	r1, [r4, #0]
 8003b82:	b16d      	cbz	r5, 8003ba0 <CCU43_1_IRQHandler+0x54>
 8003b84:	2a00      	cmp	r2, #0
 8003b86:	490d      	ldr	r1, [pc, #52]	; (8003bbc <CCU43_1_IRQHandler+0x70>)
 8003b88:	bfd4      	ite	le
 8003b8a:	2200      	movle	r2, #0
 8003b8c:	2201      	movgt	r2, #1
 8003b8e:	600a      	str	r2, [r1, #0]
 8003b90:	009b      	lsls	r3, r3, #2
 8003b92:	f003 030c 	and.w	r3, r3, #12
 8003b96:	ea43 1302 	orr.w	r3, r3, r2, lsl #4
 8003b9a:	6003      	str	r3, [r0, #0]
 8003b9c:	bcf0      	pop	{r4, r5, r6, r7}
 8003b9e:	4770      	bx	lr
 8003ba0:	4a06      	ldr	r2, [pc, #24]	; (8003bbc <CCU43_1_IRQHandler+0x70>)
 8003ba2:	6812      	ldr	r2, [r2, #0]
 8003ba4:	e7f4      	b.n	8003b90 <CCU43_1_IRQHandler+0x44>
 8003ba6:	bf00      	nop
 8003ba8:	0800e578 	.word	0x0800e578
 8003bac:	0800e58c 	.word	0x0800e58c
 8003bb0:	1ffe9bc8 	.word	0x1ffe9bc8
 8003bb4:	1ffe88f4 	.word	0x1ffe88f4
 8003bb8:	1ffe9bcc 	.word	0x1ffe9bcc
 8003bbc:	1ffe9bc4 	.word	0x1ffe9bc4

08003bc0 <getEncoderValue>:
 8003bc0:	b672      	cpsid	i
 8003bc2:	4b02      	ldr	r3, [pc, #8]	; (8003bcc <getEncoderValue+0xc>)
 8003bc4:	6818      	ldr	r0, [r3, #0]
 8003bc6:	b662      	cpsie	i
 8003bc8:	4770      	bx	lr
 8003bca:	bf00      	nop
 8003bcc:	1ffe9bcc 	.word	0x1ffe9bcc

08003bd0 <setupFuzzyController>:
 8003bd0:	e92d 4ff0 	stmdb	sp!, {r4, r5, r6, r7, r8, r9, sl, fp, lr}
 8003bd4:	203c      	movs	r0, #60	; 0x3c
 8003bd6:	b085      	sub	sp, #20
 8003bd8:	f009 ff3a 	bl	800da50 <malloc>
 8003bdc:	f8df b2d8 	ldr.w	fp, [pc, #728]	; 8003eb8 <setupFuzzyController+0x2e8>
 8003be0:	f8df a2d8 	ldr.w	sl, [pc, #728]	; 8003ebc <setupFuzzyController+0x2ec>
 8003be4:	f8df 92d8 	ldr.w	r9, [pc, #728]	; 8003ec0 <setupFuzzyController+0x2f0>
 8003be8:	4607      	mov	r7, r0
 8003bea:	2014      	movs	r0, #20
 8003bec:	f8cb 7000 	str.w	r7, [fp]
 8003bf0:	f009 ff2e 	bl	800da50 <malloc>
 8003bf4:	4684      	mov	ip, r0
 8003bf6:	2024      	movs	r0, #36	; 0x24
 8003bf8:	f8cb c004 	str.w	ip, [fp, #4]
 8003bfc:	f8cd c000 	str.w	ip, [sp]
 8003c00:	f009 ff26 	bl	800da50 <malloc>
 8003c04:	4680      	mov	r8, r0
 8003c06:	200c      	movs	r0, #12
 8003c08:	f8ca 8000 	str.w	r8, [sl]
 8003c0c:	f009 ff20 	bl	800da50 <malloc>
 8003c10:	4603      	mov	r3, r0
 8003c12:	203c      	movs	r0, #60	; 0x3c
 8003c14:	f8ca 3004 	str.w	r3, [sl, #4]
 8003c18:	9303      	str	r3, [sp, #12]
 8003c1a:	f009 ff19 	bl	800da50 <malloc>
 8003c1e:	4606      	mov	r6, r0
 8003c20:	2014      	movs	r0, #20
 8003c22:	f8c9 6000 	str.w	r6, [r9]
 8003c26:	f009 ff13 	bl	800da50 <malloc>
 8003c2a:	4601      	mov	r1, r0
 8003c2c:	2054      	movs	r0, #84	; 0x54
 8003c2e:	f8c9 1004 	str.w	r1, [r9, #4]
 8003c32:	9102      	str	r1, [sp, #8]
 8003c34:	f009 ff0c 	bl	800da50 <malloc>
 8003c38:	4b94      	ldr	r3, [pc, #592]	; (8003e8c <setupFuzzyController+0x2bc>)
 8003c3a:	4604      	mov	r4, r0
 8003c3c:	201c      	movs	r0, #28
 8003c3e:	601c      	str	r4, [r3, #0]
 8003c40:	f009 ff06 	bl	800da50 <malloc>
 8003c44:	4b91      	ldr	r3, [pc, #580]	; (8003e8c <setupFuzzyController+0x2bc>)
 8003c46:	4602      	mov	r2, r0
 8003c48:	203c      	movs	r0, #60	; 0x3c
 8003c4a:	605a      	str	r2, [r3, #4]
 8003c4c:	9201      	str	r2, [sp, #4]
 8003c4e:	f009 feff 	bl	800da50 <malloc>
 8003c52:	4b8f      	ldr	r3, [pc, #572]	; (8003e90 <setupFuzzyController+0x2c0>)
 8003c54:	4605      	mov	r5, r0
 8003c56:	2014      	movs	r0, #20
 8003c58:	601d      	str	r5, [r3, #0]
 8003c5a:	f009 fef9 	bl	800da50 <malloc>
 8003c5e:	f8dd c000 	ldr.w	ip, [sp]
 8003c62:	9902      	ldr	r1, [sp, #8]
 8003c64:	4a8a      	ldr	r2, [pc, #552]	; (8003e90 <setupFuzzyController+0x2c0>)
 8003c66:	ed9f 7a8b 	vldr	s14, [pc, #556]	; 8003e94 <setupFuzzyController+0x2c4>
 8003c6a:	eddf 7a8b 	vldr	s15, [pc, #556]	; 8003e98 <setupFuzzyController+0x2c8>
 8003c6e:	ed9f 5a8b 	vldr	s10, [pc, #556]	; 8003e9c <setupFuzzyController+0x2cc>
 8003c72:	ed88 7a00 	vstr	s14, [r8]
 8003c76:	46e6      	mov	lr, ip
 8003c78:	4603      	mov	r3, r0
 8003c7a:	2000      	movs	r0, #0
 8003c7c:	f84e 0b04 	str.w	r0, [lr], #4
 8003c80:	f10e 0e04 	add.w	lr, lr, #4
 8003c84:	f8cc 0004 	str.w	r0, [ip, #4]
 8003c88:	f84e 0b04 	str.w	r0, [lr], #4
 8003c8c:	f84e 0b04 	str.w	r0, [lr], #4
 8003c90:	eeb8 6a00 	vmov.f32	s12, #128	; 0x80
 8003c94:	eef0 6a00 	vmov.f32	s13, #0
 8003c98:	9300      	str	r3, [sp, #0]
 8003c9a:	6053      	str	r3, [r2, #4]
 8003c9c:	f8ce 0000 	str.w	r0, [lr]
 8003ca0:	9b03      	ldr	r3, [sp, #12]
 8003ca2:	edc8 7a08 	vstr	s15, [r8, #32]
 8003ca6:	468e      	mov	lr, r1
 8003ca8:	f04f 0c00 	mov.w	ip, #0
 8003cac:	eebf 7a00 	vmov.f32	s14, #240	; 0xf0
 8003cb0:	eef7 7a00 	vmov.f32	s15, #112	; 0x70
 8003cb4:	eeb8 4a08 	vmov.f32	s8, #136	; 0x88
 8003cb8:	ed8b 6a02 	vstr	s12, [fp, #8]
 8003cbc:	edcb 6a03 	vstr	s13, [fp, #12]
 8003cc0:	f8df b200 	ldr.w	fp, [pc, #512]	; 8003ec4 <setupFuzzyController+0x2f4>
 8003cc4:	ed87 4a00 	vstr	s8, [r7]
 8003cc8:	ed87 6a01 	vstr	s12, [r7, #4]
 8003ccc:	ed87 6a03 	vstr	s12, [r7, #12]
 8003cd0:	edc7 6a0b 	vstr	s13, [r7, #44]	; 0x2c
 8003cd4:	edc7 6a0d 	vstr	s13, [r7, #52]	; 0x34
 8003cd8:	ed87 7a02 	vstr	s14, [r7, #8]
 8003cdc:	ed87 7a04 	vstr	s14, [r7, #16]
 8003ce0:	ed87 7a06 	vstr	s14, [r7, #24]
 8003ce4:	f8c7 c014 	str.w	ip, [r7, #20]
 8003ce8:	f8c7 c01c 	str.w	ip, [r7, #28]
 8003cec:	f8c7 c024 	str.w	ip, [r7, #36]	; 0x24
 8003cf0:	f8c8 c008 	str.w	ip, [r8, #8]
 8003cf4:	f8c8 c010 	str.w	ip, [r8, #16]
 8003cf8:	f8c8 c018 	str.w	ip, [r8, #24]
 8003cfc:	f8c3 c000 	str.w	ip, [r3]
 8003d00:	edc7 7a08 	vstr	s15, [r7, #32]
 8003d04:	edc7 7a0a 	vstr	s15, [r7, #40]	; 0x28
 8003d08:	edc7 7a0c 	vstr	s15, [r7, #48]	; 0x30
 8003d0c:	f8c7 b038 	str.w	fp, [r7, #56]	; 0x38
 8003d10:	ed88 5a01 	vstr	s10, [r8, #4]
 8003d14:	f84e 0b04 	str.w	r0, [lr], #4
 8003d18:	f10e 0e04 	add.w	lr, lr, #4
 8003d1c:	6048      	str	r0, [r1, #4]
 8003d1e:	9a01      	ldr	r2, [sp, #4]
 8003d20:	f84e 0b04 	str.w	r0, [lr], #4
 8003d24:	eddf 5a5e 	vldr	s11, [pc, #376]	; 8003ea0 <setupFuzzyController+0x2d0>
 8003d28:	f84e 0b04 	str.w	r0, [lr], #4
 8003d2c:	f8c3 c004 	str.w	ip, [r3, #4]
 8003d30:	f8c3 c008 	str.w	ip, [r3, #8]
 8003d34:	4613      	mov	r3, r2
 8003d36:	f04f 473f 	mov.w	r7, #3204448256	; 0xbf000000
 8003d3a:	f04f 517c 	mov.w	r1, #1056964608	; 0x3f000000
 8003d3e:	ed88 5a03 	vstr	s10, [r8, #12]
 8003d42:	ed8a 5a02 	vstr	s10, [sl, #8]
 8003d46:	edca 5a03 	vstr	s11, [sl, #12]
 8003d4a:	eebf 5a08 	vmov.f32	s10, #248	; 0xf8
 8003d4e:	f04f 5a7f 	mov.w	sl, #1069547520	; 0x3fc00000
 8003d52:	edc8 5a05 	vstr	s11, [r8, #20]
 8003d56:	edc8 5a07 	vstr	s11, [r8, #28]
 8003d5a:	ed86 7a01 	vstr	s14, [r6, #4]
 8003d5e:	ed86 7a03 	vstr	s14, [r6, #12]
 8003d62:	f8c6 c014 	str.w	ip, [r6, #20]
 8003d66:	f8c6 c01c 	str.w	ip, [r6, #28]
 8003d6a:	f8c6 c024 	str.w	ip, [r6, #36]	; 0x24
 8003d6e:	edc6 7a0b 	vstr	s15, [r6, #44]	; 0x2c
 8003d72:	edc6 7a0d 	vstr	s15, [r6, #52]	; 0x34
 8003d76:	ed89 7a02 	vstr	s14, [r9, #8]
 8003d7a:	edc9 7a03 	vstr	s15, [r9, #12]
 8003d7e:	ed86 5a00 	vstr	s10, [r6]
 8003d82:	f8c6 a038 	str.w	sl, [r6, #56]	; 0x38
 8003d86:	f8ce 0000 	str.w	r0, [lr]
 8003d8a:	60b7      	str	r7, [r6, #8]
 8003d8c:	6137      	str	r7, [r6, #16]
 8003d8e:	61b7      	str	r7, [r6, #24]
 8003d90:	6231      	str	r1, [r6, #32]
 8003d92:	62b1      	str	r1, [r6, #40]	; 0x28
 8003d94:	ed84 4a00 	vstr	s8, [r4]
 8003d98:	ed84 6a01 	vstr	s12, [r4, #4]
 8003d9c:	ed84 7a02 	vstr	s14, [r4, #8]
 8003da0:	ed84 7a03 	vstr	s14, [r4, #12]
 8003da4:	6331      	str	r1, [r6, #48]	; 0x30
 8003da6:	f843 0b04 	str.w	r0, [r3], #4
 8003daa:	3304      	adds	r3, #4
 8003dac:	6050      	str	r0, [r2, #4]
 8003dae:	f843 0b04 	str.w	r0, [r3], #4
 8003db2:	f843 0b04 	str.w	r0, [r3], #4
 8003db6:	f843 0b04 	str.w	r0, [r3], #4
 8003dba:	9a00      	ldr	r2, [sp, #0]
 8003dbc:	f843 0b04 	str.w	r0, [r3], #4
 8003dc0:	eddf 4a38 	vldr	s9, [pc, #224]	; 8003ea4 <setupFuzzyController+0x2d4>
 8003dc4:	f8df 8100 	ldr.w	r8, [pc, #256]	; 8003ec8 <setupFuzzyController+0x2f8>
 8003dc8:	4930      	ldr	r1, [pc, #192]	; (8003e8c <setupFuzzyController+0x2bc>)
 8003dca:	eddf 5a37 	vldr	s11, [pc, #220]	; 8003ea8 <setupFuzzyController+0x2d8>
 8003dce:	f8c4 8014 	str.w	r8, [r4, #20]
 8003dd2:	f8c4 801c 	str.w	r8, [r4, #28]
 8003dd6:	f8df e0f4 	ldr.w	lr, [pc, #244]	; 8003ecc <setupFuzzyController+0x2fc>
 8003dda:	4f34      	ldr	r7, [pc, #208]	; (8003eac <setupFuzzyController+0x2dc>)
 8003ddc:	f8df a0f0 	ldr.w	sl, [pc, #240]	; 8003ed0 <setupFuzzyController+0x300>
 8003de0:	f8df 90f0 	ldr.w	r9, [pc, #240]	; 8003ed4 <setupFuzzyController+0x304>
 8003de4:	f8df 80f0 	ldr.w	r8, [pc, #240]	; 8003ed8 <setupFuzzyController+0x308>
 8003de8:	6018      	str	r0, [r3, #0]
 8003dea:	edc4 4a04 	vstr	s9, [r4, #16]
 8003dee:	edc4 4a06 	vstr	s9, [r4, #24]
 8003df2:	f8c4 c020 	str.w	ip, [r4, #32]
 8003df6:	f8c4 c028 	str.w	ip, [r4, #40]	; 0x28
 8003dfa:	f8c4 c030 	str.w	ip, [r4, #48]	; 0x30
 8003dfe:	edc4 7a11 	vstr	s15, [r4, #68]	; 0x44
 8003e02:	edc4 7a12 	vstr	s15, [r4, #72]	; 0x48
 8003e06:	edc4 6a13 	vstr	s13, [r4, #76]	; 0x4c
 8003e0a:	f8c4 b050 	str.w	fp, [r4, #80]	; 0x50
 8003e0e:	ed81 6a02 	vstr	s12, [r1, #8]
 8003e12:	edc1 6a03 	vstr	s13, [r1, #12]
 8003e16:	ed85 6a00 	vstr	s12, [r5]
 8003e1a:	ed85 7a01 	vstr	s14, [r5, #4]
 8003e1e:	f8c5 c008 	str.w	ip, [r5, #8]
 8003e22:	f8c5 c014 	str.w	ip, [r5, #20]
 8003e26:	f8c5 c01c 	str.w	ip, [r5, #28]
 8003e2a:	f8c5 c024 	str.w	ip, [r5, #36]	; 0x24
 8003e2e:	edc4 5a09 	vstr	s11, [r4, #36]	; 0x24
 8003e32:	f8c4 a02c 	str.w	sl, [r4, #44]	; 0x2c
 8003e36:	f8c5 9018 	str.w	r9, [r5, #24]
 8003e3a:	f8c5 8020 	str.w	r8, [r5, #32]
 8003e3e:	f8c4 e034 	str.w	lr, [r4, #52]	; 0x34
 8003e42:	f8c4 e03c 	str.w	lr, [r4, #60]	; 0x3c
 8003e46:	63a7      	str	r7, [r4, #56]	; 0x38
 8003e48:	f842 0b04 	str.w	r0, [r2], #4
 8003e4c:	9b00      	ldr	r3, [sp, #0]
 8003e4e:	4e18      	ldr	r6, [pc, #96]	; (8003eb0 <setupFuzzyController+0x2e0>)
 8003e50:	6058      	str	r0, [r3, #4]
 8003e52:	3204      	adds	r2, #4
 8003e54:	ed9f 5a17 	vldr	s10, [pc, #92]	; 8003eb4 <setupFuzzyController+0x2e4>
 8003e58:	f842 0b04 	str.w	r0, [r2], #4
 8003e5c:	4b0c      	ldr	r3, [pc, #48]	; (8003e90 <setupFuzzyController+0x2c0>)
 8003e5e:	f842 0b04 	str.w	r0, [r2], #4
 8003e62:	6427      	str	r7, [r4, #64]	; 0x40
 8003e64:	60ee      	str	r6, [r5, #12]
 8003e66:	612e      	str	r6, [r5, #16]
 8003e68:	ed85 5a0a 	vstr	s10, [r5, #40]	; 0x28
 8003e6c:	ed85 5a0b 	vstr	s10, [r5, #44]	; 0x2c
 8003e70:	f8c5 c030 	str.w	ip, [r5, #48]	; 0x30
 8003e74:	edc5 7a0d 	vstr	s15, [r5, #52]	; 0x34
 8003e78:	edc5 6a0e 	vstr	s13, [r5, #56]	; 0x38
 8003e7c:	ed83 6a02 	vstr	s12, [r3, #8]
 8003e80:	edc3 6a03 	vstr	s13, [r3, #12]
 8003e84:	6010      	str	r0, [r2, #0]
 8003e86:	b005      	add	sp, #20
 8003e88:	e8bd 8ff0 	ldmia.w	sp!, {r4, r5, r6, r7, r8, r9, sl, fp, pc}
 8003e8c:	1ffe9c94 	.word	0x1ffe9c94
 8003e90:	1ffe9c84 	.word	0x1ffe9c84
 8003e94:	c3340000 	.word	0xc3340000
 8003e98:	43340000 	.word	0x43340000
 8003e9c:	c2f00000 	.word	0xc2f00000
 8003ea0:	42f00000 	.word	0x42f00000
 8003ea4:	bf333333 	.word	0xbf333333
 8003ea8:	be99999a 	.word	0xbe99999a
 8003eac:	3f333333 	.word	0x3f333333
 8003eb0:	bf4ccccd 	.word	0xbf4ccccd
 8003eb4:	3f4ccccd 	.word	0x3f4ccccd
 8003eb8:	1ffe9ca4 	.word	0x1ffe9ca4
 8003ebc:	1ffe9cb4 	.word	0x1ffe9cb4
 8003ec0:	1ffe9cc4 	.word	0x1ffe9cc4
 8003ec4:	40400000 	.word	0x40400000
 8003ec8:	becccccd 	.word	0xbecccccd
 8003ecc:	3ecccccd 	.word	0x3ecccccd
 8003ed0:	3e99999a 	.word	0x3e99999a
 8003ed4:	be4ccccd 	.word	0xbe4ccccd
 8003ed8:	3e4ccccd 	.word	0x3e4ccccd

08003edc <inference>:
 8003edc:	b538      	push	{r3, r4, r5, lr}
 8003ede:	4bbd      	ldr	r3, [pc, #756]	; (80041d4 <inference+0x2f8>)
 8003ee0:	685c      	ldr	r4, [r3, #4]
 8003ee2:	2100      	movs	r1, #0
 8003ee4:	221c      	movs	r2, #28
 8003ee6:	4620      	mov	r0, r4
 8003ee8:	f009 fde8 	bl	800dabc <memset>
 8003eec:	4bba      	ldr	r3, [pc, #744]	; (80041d8 <inference+0x2fc>)
 8003eee:	685d      	ldr	r5, [r3, #4]
 8003ef0:	2214      	movs	r2, #20
 8003ef2:	2100      	movs	r1, #0
 8003ef4:	4628      	mov	r0, r5
 8003ef6:	f009 fde1 	bl	800dabc <memset>
 8003efa:	4ab8      	ldr	r2, [pc, #736]	; (80041dc <inference+0x300>)
 8003efc:	4bb8      	ldr	r3, [pc, #736]	; (80041e0 <inference+0x304>)
 8003efe:	6852      	ldr	r2, [r2, #4]
 8003f00:	685b      	ldr	r3, [r3, #4]
 8003f02:	edd2 7a02 	vldr	s15, [r2, #8]
 8003f06:	ed93 7a01 	vldr	s14, [r3, #4]
 8003f0a:	ed94 6a03 	vldr	s12, [r4, #12]
 8003f0e:	eef4 7a47 	vcmp.f32	s15, s14
 8003f12:	eef1 fa10 	vmrs	APSR_nzcv, fpscr
 8003f16:	bf48      	it	mi
 8003f18:	eeb0 7a67 	vmovmi.f32	s14, s15
 8003f1c:	eeb4 6ac7 	vcmpe.f32	s12, s14
 8003f20:	eef1 fa10 	vmrs	APSR_nzcv, fpscr
 8003f24:	d505      	bpl.n	8003f32 <inference+0x56>
 8003f26:	ed84 7a03 	vstr	s14, [r4, #12]
 8003f2a:	edd2 7a02 	vldr	s15, [r2, #8]
 8003f2e:	eeb0 6a47 	vmov.f32	s12, s14
 8003f32:	ed93 7a02 	vldr	s14, [r3, #8]
 8003f36:	edd4 6a02 	vldr	s13, [r4, #8]
 8003f3a:	eeb4 7a67 	vcmp.f32	s14, s15
 8003f3e:	eef1 fa10 	vmrs	APSR_nzcv, fpscr
 8003f42:	bfc8      	it	gt
 8003f44:	eeb0 7a67 	vmovgt.f32	s14, s15
 8003f48:	eef4 6ac7 	vcmpe.f32	s13, s14
 8003f4c:	eef1 fa10 	vmrs	APSR_nzcv, fpscr
 8003f50:	d505      	bpl.n	8003f5e <inference+0x82>
 8003f52:	ed84 7a02 	vstr	s14, [r4, #8]
 8003f56:	edd2 7a02 	vldr	s15, [r2, #8]
 8003f5a:	eef0 6a47 	vmov.f32	s13, s14
 8003f5e:	ed93 7a00 	vldr	s14, [r3]
 8003f62:	edd4 5a04 	vldr	s11, [r4, #16]
 8003f66:	eeb4 7ae7 	vcmpe.f32	s14, s15
 8003f6a:	eef1 fa10 	vmrs	APSR_nzcv, fpscr
 8003f6e:	bfd8      	it	le
 8003f70:	eef0 7a47 	vmovle.f32	s15, s14
 8003f74:	eef4 5ae7 	vcmpe.f32	s11, s15
 8003f78:	eef1 fa10 	vmrs	APSR_nzcv, fpscr
 8003f7c:	bf44      	itt	mi
 8003f7e:	edc4 7a04 	vstrmi	s15, [r4, #16]
 8003f82:	eef0 5a67 	vmovmi.f32	s11, s15
 8003f86:	ed93 7a01 	vldr	s14, [r3, #4]
 8003f8a:	edd2 7a03 	vldr	s15, [r2, #12]
 8003f8e:	eef4 7a47 	vcmp.f32	s15, s14
 8003f92:	eef1 fa10 	vmrs	APSR_nzcv, fpscr
 8003f96:	bf48      	it	mi
 8003f98:	eeb0 7a67 	vmovmi.f32	s14, s15
 8003f9c:	eeb4 7ae5 	vcmpe.f32	s14, s11
 8003fa0:	eef1 fa10 	vmrs	APSR_nzcv, fpscr
 8003fa4:	bfc4      	itt	gt
 8003fa6:	ed84 7a04 	vstrgt	s14, [r4, #16]
 8003faa:	edd2 7a03 	vldrgt	s15, [r2, #12]
 8003fae:	ed93 7a02 	vldr	s14, [r3, #8]
 8003fb2:	eeb4 7a67 	vcmp.f32	s14, s15
 8003fb6:	eef1 fa10 	vmrs	APSR_nzcv, fpscr
 8003fba:	bfc8      	it	gt
 8003fbc:	eeb0 7a67 	vmovgt.f32	s14, s15
 8003fc0:	eeb4 6ac7 	vcmpe.f32	s12, s14
 8003fc4:	eef1 fa10 	vmrs	APSR_nzcv, fpscr
 8003fc8:	d505      	bpl.n	8003fd6 <inference+0xfa>
 8003fca:	ed84 7a03 	vstr	s14, [r4, #12]
 8003fce:	edd2 7a03 	vldr	s15, [r2, #12]
 8003fd2:	eeb0 6a47 	vmov.f32	s12, s14
 8003fd6:	ed93 7a00 	vldr	s14, [r3]
 8003fda:	edd4 5a05 	vldr	s11, [r4, #20]
 8003fde:	eeb4 7ae7 	vcmpe.f32	s14, s15
 8003fe2:	eef1 fa10 	vmrs	APSR_nzcv, fpscr
 8003fe6:	bfd8      	it	le
 8003fe8:	eef0 7a47 	vmovle.f32	s15, s14
 8003fec:	eef4 5ae7 	vcmpe.f32	s11, s15
 8003ff0:	eef1 fa10 	vmrs	APSR_nzcv, fpscr
 8003ff4:	bf48      	it	mi
 8003ff6:	edc4 7a05 	vstrmi	s15, [r4, #20]
 8003ffa:	ed93 7a01 	vldr	s14, [r3, #4]
 8003ffe:	bf48      	it	mi
 8004000:	eef0 5a67 	vmovmi.f32	s11, s15
 8004004:	edd2 7a04 	vldr	s15, [r2, #16]
 8004008:	eef4 7a47 	vcmp.f32	s15, s14
 800400c:	eef1 fa10 	vmrs	APSR_nzcv, fpscr
 8004010:	bf48      	it	mi
 8004012:	eeb0 7a67 	vmovmi.f32	s14, s15
 8004016:	eeb4 7ae5 	vcmpe.f32	s14, s11
 800401a:	eef1 fa10 	vmrs	APSR_nzcv, fpscr
 800401e:	bfc4      	itt	gt
 8004020:	ed84 7a05 	vstrgt	s14, [r4, #20]
 8004024:	edd2 7a04 	vldrgt	s15, [r2, #16]
 8004028:	ed93 7a02 	vldr	s14, [r3, #8]
 800402c:	edd4 5a04 	vldr	s11, [r4, #16]
 8004030:	eeb4 7a67 	vcmp.f32	s14, s15
 8004034:	eef1 fa10 	vmrs	APSR_nzcv, fpscr
 8004038:	bfc8      	it	gt
 800403a:	eeb0 7a67 	vmovgt.f32	s14, s15
 800403e:	eef4 5ac7 	vcmpe.f32	s11, s14
 8004042:	eef1 fa10 	vmrs	APSR_nzcv, fpscr
 8004046:	bf44      	itt	mi
 8004048:	ed84 7a04 	vstrmi	s14, [r4, #16]
 800404c:	edd2 7a04 	vldrmi	s15, [r2, #16]
 8004050:	ed93 7a00 	vldr	s14, [r3]
 8004054:	edd4 5a06 	vldr	s11, [r4, #24]
 8004058:	eeb4 7ae7 	vcmpe.f32	s14, s15
 800405c:	eef1 fa10 	vmrs	APSR_nzcv, fpscr
 8004060:	bfd8      	it	le
 8004062:	eef0 7a47 	vmovle.f32	s15, s14
 8004066:	eef4 5ae7 	vcmpe.f32	s11, s15
 800406a:	eef1 fa10 	vmrs	APSR_nzcv, fpscr
 800406e:	bf48      	it	mi
 8004070:	edc4 7a06 	vstrmi	s15, [r4, #24]
 8004074:	edd2 7a01 	vldr	s15, [r2, #4]
 8004078:	ed93 7a01 	vldr	s14, [r3, #4]
 800407c:	eef4 7a47 	vcmp.f32	s15, s14
 8004080:	eef1 fa10 	vmrs	APSR_nzcv, fpscr
 8004084:	bf48      	it	mi
 8004086:	eeb0 7a67 	vmovmi.f32	s14, s15
 800408a:	eef4 6ac7 	vcmpe.f32	s13, s14
 800408e:	eef1 fa10 	vmrs	APSR_nzcv, fpscr
 8004092:	d505      	bpl.n	80040a0 <inference+0x1c4>
 8004094:	ed84 7a02 	vstr	s14, [r4, #8]
 8004098:	edd2 7a01 	vldr	s15, [r2, #4]
 800409c:	eef0 6a47 	vmov.f32	s13, s14
 80040a0:	ed93 7a02 	vldr	s14, [r3, #8]
 80040a4:	edd4 5a01 	vldr	s11, [r4, #4]
 80040a8:	eeb4 7a67 	vcmp.f32	s14, s15
 80040ac:	eef1 fa10 	vmrs	APSR_nzcv, fpscr
 80040b0:	bfc8      	it	gt
 80040b2:	eeb0 7a67 	vmovgt.f32	s14, s15
 80040b6:	eef4 5ac7 	vcmpe.f32	s11, s14
 80040ba:	eef1 fa10 	vmrs	APSR_nzcv, fpscr
 80040be:	d505      	bpl.n	80040cc <inference+0x1f0>
 80040c0:	ed84 7a01 	vstr	s14, [r4, #4]
 80040c4:	edd2 7a01 	vldr	s15, [r2, #4]
 80040c8:	eef0 5a47 	vmov.f32	s11, s14
 80040cc:	ed93 7a00 	vldr	s14, [r3]
 80040d0:	eeb4 7ae7 	vcmpe.f32	s14, s15
 80040d4:	eef1 fa10 	vmrs	APSR_nzcv, fpscr
 80040d8:	bfd8      	it	le
 80040da:	eef0 7a47 	vmovle.f32	s15, s14
 80040de:	eeb4 6ae7 	vcmpe.f32	s12, s15
 80040e2:	eef1 fa10 	vmrs	APSR_nzcv, fpscr
 80040e6:	bf48      	it	mi
 80040e8:	edc4 7a03 	vstrmi	s15, [r4, #12]
 80040ec:	edd2 7a00 	vldr	s15, [r2]
 80040f0:	ed93 7a01 	vldr	s14, [r3, #4]
 80040f4:	ed94 6a00 	vldr	s12, [r4]
 80040f8:	eef4 7a47 	vcmp.f32	s15, s14
 80040fc:	eef1 fa10 	vmrs	APSR_nzcv, fpscr
 8004100:	bf48      	it	mi
 8004102:	eeb0 7a67 	vmovmi.f32	s14, s15
 8004106:	eef4 5ac7 	vcmpe.f32	s11, s14
 800410a:	eef1 fa10 	vmrs	APSR_nzcv, fpscr
 800410e:	bf44      	itt	mi
 8004110:	ed84 7a01 	vstrmi	s14, [r4, #4]
 8004114:	edd2 7a00 	vldrmi	s15, [r2]
 8004118:	ed93 7a02 	vldr	s14, [r3, #8]
 800411c:	eeb4 7a67 	vcmp.f32	s14, s15
 8004120:	eef1 fa10 	vmrs	APSR_nzcv, fpscr
 8004124:	bfc8      	it	gt
 8004126:	eeb0 7a67 	vmovgt.f32	s14, s15
 800412a:	eeb4 6ac7 	vcmpe.f32	s12, s14
 800412e:	eef1 fa10 	vmrs	APSR_nzcv, fpscr
 8004132:	bf48      	it	mi
 8004134:	ed84 7a00 	vstrmi	s14, [r4]
 8004138:	ed93 7a00 	vldr	s14, [r3]
 800413c:	bf48      	it	mi
 800413e:	edd2 7a00 	vldrmi	s15, [r2]
 8004142:	4b28      	ldr	r3, [pc, #160]	; (80041e4 <inference+0x308>)
 8004144:	eeb4 7ae7 	vcmpe.f32	s14, s15
 8004148:	eef1 fa10 	vmrs	APSR_nzcv, fpscr
 800414c:	bfd8      	it	le
 800414e:	eef0 7a47 	vmovle.f32	s15, s14
 8004152:	eef4 6ae7 	vcmpe.f32	s13, s15
 8004156:	685b      	ldr	r3, [r3, #4]
 8004158:	eef1 fa10 	vmrs	APSR_nzcv, fpscr
 800415c:	bf48      	it	mi
 800415e:	edc4 7a02 	vstrmi	s15, [r4, #8]
 8004162:	edd3 7a00 	vldr	s15, [r3]
 8004166:	ed95 7a00 	vldr	s14, [r5]
 800416a:	eef4 7ac7 	vcmpe.f32	s15, s14
 800416e:	eef1 fa10 	vmrs	APSR_nzcv, fpscr
 8004172:	bfc8      	it	gt
 8004174:	edc5 7a00 	vstrgt	s15, [r5]
 8004178:	edd3 7a01 	vldr	s15, [r3, #4]
 800417c:	ed95 7a01 	vldr	s14, [r5, #4]
 8004180:	eef4 7ac7 	vcmpe.f32	s15, s14
 8004184:	eef1 fa10 	vmrs	APSR_nzcv, fpscr
 8004188:	bfc8      	it	gt
 800418a:	edc5 7a01 	vstrgt	s15, [r5, #4]
 800418e:	edd3 7a02 	vldr	s15, [r3, #8]
 8004192:	ed95 7a02 	vldr	s14, [r5, #8]
 8004196:	eef4 7ac7 	vcmpe.f32	s15, s14
 800419a:	eef1 fa10 	vmrs	APSR_nzcv, fpscr
 800419e:	bfc8      	it	gt
 80041a0:	edc5 7a02 	vstrgt	s15, [r5, #8]
 80041a4:	edd3 7a03 	vldr	s15, [r3, #12]
 80041a8:	ed95 7a03 	vldr	s14, [r5, #12]
 80041ac:	eef4 7ac7 	vcmpe.f32	s15, s14
 80041b0:	eef1 fa10 	vmrs	APSR_nzcv, fpscr
 80041b4:	bfc8      	it	gt
 80041b6:	edc5 7a03 	vstrgt	s15, [r5, #12]
 80041ba:	edd3 7a04 	vldr	s15, [r3, #16]
 80041be:	ed95 7a04 	vldr	s14, [r5, #16]
 80041c2:	eef4 7ac7 	vcmpe.f32	s15, s14
 80041c6:	eef1 fa10 	vmrs	APSR_nzcv, fpscr
 80041ca:	bfc8      	it	gt
 80041cc:	edc5 7a04 	vstrgt	s15, [r5, #16]
 80041d0:	bd38      	pop	{r3, r4, r5, pc}
 80041d2:	bf00      	nop
 80041d4:	1ffe9c94 	.word	0x1ffe9c94
 80041d8:	1ffe9c84 	.word	0x1ffe9c84
 80041dc:	1ffe9ca4 	.word	0x1ffe9ca4
 80041e0:	1ffe9cb4 	.word	0x1ffe9cb4
 80041e4:	1ffe9cc4 	.word	0x1ffe9cc4

080041e8 <defuzzify>:
 80041e8:	b5f0      	push	{r4, r5, r6, r7, lr}
 80041ea:	b085      	sub	sp, #20
 80041ec:	ac04      	add	r4, sp, #16
 80041ee:	e904 000f 	stmdb	r4, {r0, r1, r2, r3}
 80041f2:	eddd 6a02 	vldr	s13, [sp, #8]
 80041f6:	ed9d 4a03 	vldr	s8, [sp, #12]
 80041fa:	eddd 4a0a 	vldr	s9, [sp, #40]	; 0x28
 80041fe:	ed9f 6a4c 	vldr	s12, [pc, #304]	; 8004330 <defuzzify+0x148>
 8004202:	4b4c      	ldr	r3, [pc, #304]	; (8004334 <defuzzify+0x14c>)
 8004204:	4e4c      	ldr	r6, [pc, #304]	; (8004338 <defuzzify+0x150>)
 8004206:	f8df c13c 	ldr.w	ip, [pc, #316]	; 8004344 <defuzzify+0x15c>
 800420a:	f8df e13c 	ldr.w	lr, [pc, #316]	; 8004348 <defuzzify+0x160>
 800420e:	4f4b      	ldr	r7, [pc, #300]	; (800433c <defuzzify+0x154>)
 8004210:	edc6 6a00 	vstr	s13, [r6]
 8004214:	ee74 7a66 	vsub.f32	s15, s8, s13
 8004218:	eef4 6ac4 	vcmpe.f32	s13, s8
 800421c:	eec7 4aa4 	vdiv.f32	s9, s15, s9
 8004220:	9c01      	ldr	r4, [sp, #4]
 8004222:	980b      	ldr	r0, [sp, #44]	; 0x2c
 8004224:	eef1 fa10 	vmrs	APSR_nzcv, fpscr
 8004228:	ed8c 6a00 	vstr	s12, [ip]
 800422c:	ed8e 6a00 	vstr	s12, [lr]
 8004230:	edc3 4a00 	vstr	s9, [r3]
 8004234:	ed87 6a00 	vstr	s12, [r7]
 8004238:	d870      	bhi.n	800431c <defuzzify+0x134>
 800423a:	9d00      	ldr	r5, [sp, #0]
 800423c:	eeb0 5a46 	vmov.f32	s10, s12
 8004240:	eef0 7a46 	vmov.f32	s15, s12
 8004244:	eeb0 7a46 	vmov.f32	s14, s12
 8004248:	eef0 5a46 	vmov.f32	s11, s12
 800424c:	eb04 0180 	add.w	r1, r4, r0, lsl #2
 8004250:	2800      	cmp	r0, #0
 8004252:	d045      	beq.n	80042e0 <defuzzify+0xf8>
 8004254:	eeb0 5a47 	vmov.f32	s10, s14
 8004258:	eeb0 6a65 	vmov.f32	s12, s11
 800425c:	1d2b      	adds	r3, r5, #4
 800425e:	4622      	mov	r2, r4
 8004260:	e029      	b.n	80042b6 <defuzzify+0xce>
 8004262:	eef4 7ae6 	vcmpe.f32	s15, s13
 8004266:	eef1 fa10 	vmrs	APSR_nzcv, fpscr
 800426a:	d92f      	bls.n	80042cc <defuzzify+0xe4>
 800426c:	eef4 6a47 	vcmp.f32	s13, s14
 8004270:	eef1 fa10 	vmrs	APSR_nzcv, fpscr
 8004274:	d02d      	beq.n	80042d2 <defuzzify+0xea>
 8004276:	eef4 5ae6 	vcmpe.f32	s11, s13
 800427a:	eef1 fa10 	vmrs	APSR_nzcv, fpscr
 800427e:	d546      	bpl.n	800430e <defuzzify+0x126>
 8004280:	eeb4 7ae6 	vcmpe.f32	s14, s13
 8004284:	eef1 fa10 	vmrs	APSR_nzcv, fpscr
 8004288:	dd41      	ble.n	800430e <defuzzify+0x126>
 800428a:	ee37 7a65 	vsub.f32	s14, s14, s11
 800428e:	ee76 5ae5 	vsub.f32	s11, s13, s11
 8004292:	ee85 7a87 	vdiv.f32	s14, s11, s14
 8004296:	330c      	adds	r3, #12
 8004298:	ecf2 7a01 	vldmia	r2!, {s15}
 800429c:	eef4 7ac7 	vcmpe.f32	s15, s14
 80042a0:	eef1 fa10 	vmrs	APSR_nzcv, fpscr
 80042a4:	bf58      	it	pl
 80042a6:	eef0 7a47 	vmovpl.f32	s15, s14
 80042aa:	428a      	cmp	r2, r1
 80042ac:	eea6 6aa7 	vfma.f32	s12, s13, s15
 80042b0:	ee35 5a27 	vadd.f32	s10, s10, s15
 80042b4:	d010      	beq.n	80042d8 <defuzzify+0xf0>
 80042b6:	ed53 5a01 	vldr	s11, [r3, #-4]
 80042ba:	ed93 7a00 	vldr	s14, [r3]
 80042be:	edd3 7a01 	vldr	s15, [r3, #4]
 80042c2:	eef4 5ae6 	vcmpe.f32	s11, s13
 80042c6:	eef1 fa10 	vmrs	APSR_nzcv, fpscr
 80042ca:	dbca      	blt.n	8004262 <defuzzify+0x7a>
 80042cc:	ed9f 7a18 	vldr	s14, [pc, #96]	; 8004330 <defuzzify+0x148>
 80042d0:	e7e1      	b.n	8004296 <defuzzify+0xae>
 80042d2:	eeb7 7a00 	vmov.f32	s14, #112	; 0x70
 80042d6:	e7de      	b.n	8004296 <defuzzify+0xae>
 80042d8:	eeb0 7a45 	vmov.f32	s14, s10
 80042dc:	eef0 5a46 	vmov.f32	s11, s12
 80042e0:	ee76 6aa4 	vadd.f32	s13, s13, s9
 80042e4:	eef4 6ac4 	vcmpe.f32	s13, s8
 80042e8:	eef1 fa10 	vmrs	APSR_nzcv, fpscr
 80042ec:	d9b0      	bls.n	8004250 <defuzzify+0x68>
 80042ee:	edc7 7a00 	vstr	s15, [r7]
 80042f2:	eec5 7a87 	vdiv.f32	s15, s11, s14
 80042f6:	4b12      	ldr	r3, [pc, #72]	; (8004340 <defuzzify+0x158>)
 80042f8:	6018      	str	r0, [r3, #0]
 80042fa:	ed8c 6a00 	vstr	s12, [ip]
 80042fe:	ee17 0a90 	vmov	r0, s15
 8004302:	ed8e 5a00 	vstr	s10, [lr]
 8004306:	edc6 6a00 	vstr	s13, [r6]
 800430a:	b005      	add	sp, #20
 800430c:	bdf0      	pop	{r4, r5, r6, r7, pc}
 800430e:	ee37 7ac7 	vsub.f32	s14, s15, s14
 8004312:	ee77 7ae6 	vsub.f32	s15, s15, s13
 8004316:	ee87 7a87 	vdiv.f32	s14, s15, s14
 800431a:	e7bc      	b.n	8004296 <defuzzify+0xae>
 800431c:	eeb0 7a46 	vmov.f32	s14, s12
 8004320:	eef0 5a46 	vmov.f32	s11, s12
 8004324:	eec5 7a87 	vdiv.f32	s15, s11, s14
 8004328:	ee17 0a90 	vmov	r0, s15
 800432c:	b005      	add	sp, #20
 800432e:	bdf0      	pop	{r4, r5, r6, r7, pc}
 8004330:	00000000 	.word	0x00000000
 8004334:	1ffe9bd8 	.word	0x1ffe9bd8
 8004338:	1ffe9be0 	.word	0x1ffe9be0
 800433c:	1ffe9be8 	.word	0x1ffe9be8
 8004340:	1ffe9be4 	.word	0x1ffe9be4
 8004344:	1ffe9bd4 	.word	0x1ffe9bd4
 8004348:	1ffe9bd0 	.word	0x1ffe9bd0

0800434c <computeFuzzy>:
 800434c:	b5f0      	push	{r4, r5, r6, r7, lr}
 800434e:	4ce1      	ldr	r4, [pc, #900]	; (80046d4 <computeFuzzy+0x388>)
 8004350:	ee07 0a10 	vmov	s14, r0
 8004354:	edd4 7a02 	vldr	s15, [r4, #8]
 8004358:	eeb4 7ae7 	vcmpe.f32	s14, s15
 800435c:	eef1 fa10 	vmrs	APSR_nzcv, fpscr
 8004360:	b083      	sub	sp, #12
 8004362:	461d      	mov	r5, r3
 8004364:	ee05 1a90 	vmov	s11, r1
 8004368:	ee06 2a90 	vmov	s13, r2
 800436c:	d408      	bmi.n	8004380 <computeFuzzy+0x34>
 800436e:	edd4 7a03 	vldr	s15, [r4, #12]
 8004372:	eeb4 7a67 	vcmp.f32	s14, s15
 8004376:	eef1 fa10 	vmrs	APSR_nzcv, fpscr
 800437a:	bfd8      	it	le
 800437c:	eef0 7a47 	vmovle.f32	s15, s14
 8004380:	6823      	ldr	r3, [r4, #0]
 8004382:	6862      	ldr	r2, [r4, #4]
 8004384:	ed93 7a00 	vldr	s14, [r3]
 8004388:	ed93 5a01 	vldr	s10, [r3, #4]
 800438c:	ed93 6a02 	vldr	s12, [r3, #8]
 8004390:	eef4 7ac7 	vcmpe.f32	s15, s14
 8004394:	eef1 fa10 	vmrs	APSR_nzcv, fpscr
 8004398:	f200 8280 	bhi.w	800489c <computeFuzzy+0x550>
 800439c:	ed9f 7ace 	vldr	s14, [pc, #824]	; 80046d8 <computeFuzzy+0x38c>
 80043a0:	ed82 7a00 	vstr	s14, [r2]
 80043a4:	ed93 7a03 	vldr	s14, [r3, #12]
 80043a8:	ed93 5a04 	vldr	s10, [r3, #16]
 80043ac:	ed93 6a05 	vldr	s12, [r3, #20]
 80043b0:	eef4 7ac7 	vcmpe.f32	s15, s14
 80043b4:	eef1 fa10 	vmrs	APSR_nzcv, fpscr
 80043b8:	f200 8254 	bhi.w	8004864 <computeFuzzy+0x518>
 80043bc:	ed9f 7ac6 	vldr	s14, [pc, #792]	; 80046d8 <computeFuzzy+0x38c>
 80043c0:	ed82 7a01 	vstr	s14, [r2, #4]
 80043c4:	ed93 7a06 	vldr	s14, [r3, #24]
 80043c8:	ed93 5a07 	vldr	s10, [r3, #28]
 80043cc:	ed93 6a08 	vldr	s12, [r3, #32]
 80043d0:	eef4 7ac7 	vcmpe.f32	s15, s14
 80043d4:	eef1 fa10 	vmrs	APSR_nzcv, fpscr
 80043d8:	f200 8226 	bhi.w	8004828 <computeFuzzy+0x4dc>
 80043dc:	ed9f 7abe 	vldr	s14, [pc, #760]	; 80046d8 <computeFuzzy+0x38c>
 80043e0:	ed82 7a02 	vstr	s14, [r2, #8]
 80043e4:	ed93 7a09 	vldr	s14, [r3, #36]	; 0x24
 80043e8:	ed93 5a0a 	vldr	s10, [r3, #40]	; 0x28
 80043ec:	ed93 6a0b 	vldr	s12, [r3, #44]	; 0x2c
 80043f0:	eef4 7ac7 	vcmpe.f32	s15, s14
 80043f4:	eef1 fa10 	vmrs	APSR_nzcv, fpscr
 80043f8:	f200 81f8 	bhi.w	80047ec <computeFuzzy+0x4a0>
 80043fc:	ed9f 7ab6 	vldr	s14, [pc, #728]	; 80046d8 <computeFuzzy+0x38c>
 8004400:	ed82 7a03 	vstr	s14, [r2, #12]
 8004404:	ed93 7a0c 	vldr	s14, [r3, #48]	; 0x30
 8004408:	ed93 5a0d 	vldr	s10, [r3, #52]	; 0x34
 800440c:	ed93 6a0e 	vldr	s12, [r3, #56]	; 0x38
 8004410:	eeb4 7ae7 	vcmpe.f32	s14, s15
 8004414:	eef1 fa10 	vmrs	APSR_nzcv, fpscr
 8004418:	f2c0 81c9 	blt.w	80047ae <computeFuzzy+0x462>
 800441c:	eddf 7aae 	vldr	s15, [pc, #696]	; 80046d8 <computeFuzzy+0x38c>
 8004420:	49ae      	ldr	r1, [pc, #696]	; (80046dc <computeFuzzy+0x390>)
 8004422:	edc2 7a04 	vstr	s15, [r2, #16]
 8004426:	edd1 7a02 	vldr	s15, [r1, #8]
 800442a:	eef4 7ae5 	vcmpe.f32	s15, s11
 800442e:	eef1 fa10 	vmrs	APSR_nzcv, fpscr
 8004432:	f340 80a2 	ble.w	800457a <computeFuzzy+0x22e>
 8004436:	680b      	ldr	r3, [r1, #0]
 8004438:	6849      	ldr	r1, [r1, #4]
 800443a:	ed93 7a00 	vldr	s14, [r3]
 800443e:	edd3 5a01 	vldr	s11, [r3, #4]
 8004442:	ed93 6a02 	vldr	s12, [r3, #8]
 8004446:	eef4 7ac7 	vcmpe.f32	s15, s14
 800444a:	eef1 fa10 	vmrs	APSR_nzcv, fpscr
 800444e:	f200 818f 	bhi.w	8004770 <computeFuzzy+0x424>
 8004452:	ed9f 7aa1 	vldr	s14, [pc, #644]	; 80046d8 <computeFuzzy+0x38c>
 8004456:	ed81 7a00 	vstr	s14, [r1]
 800445a:	ed93 7a03 	vldr	s14, [r3, #12]
 800445e:	edd3 5a04 	vldr	s11, [r3, #16]
 8004462:	ed93 6a05 	vldr	s12, [r3, #20]
 8004466:	eef4 7ac7 	vcmpe.f32	s15, s14
 800446a:	eef1 fa10 	vmrs	APSR_nzcv, fpscr
 800446e:	f200 8160 	bhi.w	8004732 <computeFuzzy+0x3e6>
 8004472:	ed9f 7a99 	vldr	s14, [pc, #612]	; 80046d8 <computeFuzzy+0x38c>
 8004476:	ed81 7a01 	vstr	s14, [r1, #4]
 800447a:	ed93 7a06 	vldr	s14, [r3, #24]
 800447e:	edd3 5a07 	vldr	s11, [r3, #28]
 8004482:	ed93 6a08 	vldr	s12, [r3, #32]
 8004486:	eeb4 7ae7 	vcmpe.f32	s14, s15
 800448a:	eef1 fa10 	vmrs	APSR_nzcv, fpscr
 800448e:	f2c0 8131 	blt.w	80046f4 <computeFuzzy+0x3a8>
 8004492:	eddf 7a91 	vldr	s15, [pc, #580]	; 80046d8 <computeFuzzy+0x38c>
 8004496:	4a92      	ldr	r2, [pc, #584]	; (80046e0 <computeFuzzy+0x394>)
 8004498:	edc1 7a02 	vstr	s15, [r1, #8]
 800449c:	edd2 7a02 	vldr	s15, [r2, #8]
 80044a0:	eef4 7ae6 	vcmpe.f32	s15, s13
 80044a4:	eef1 fa10 	vmrs	APSR_nzcv, fpscr
 80044a8:	dd71      	ble.n	800458e <computeFuzzy+0x242>
 80044aa:	6813      	ldr	r3, [r2, #0]
 80044ac:	6852      	ldr	r2, [r2, #4]
 80044ae:	ed93 7a00 	vldr	s14, [r3]
 80044b2:	ed93 6a01 	vldr	s12, [r3, #4]
 80044b6:	edd3 6a02 	vldr	s13, [r3, #8]
 80044ba:	eef4 7ac7 	vcmpe.f32	s15, s14
 80044be:	eef1 fa10 	vmrs	APSR_nzcv, fpscr
 80044c2:	f200 80e8 	bhi.w	8004696 <computeFuzzy+0x34a>
 80044c6:	ed9f 7a84 	vldr	s14, [pc, #528]	; 80046d8 <computeFuzzy+0x38c>
 80044ca:	ed82 7a00 	vstr	s14, [r2]
 80044ce:	ed93 7a03 	vldr	s14, [r3, #12]
 80044d2:	ed93 6a04 	vldr	s12, [r3, #16]
 80044d6:	edd3 6a05 	vldr	s13, [r3, #20]
 80044da:	eef4 7ac7 	vcmpe.f32	s15, s14
 80044de:	eef1 fa10 	vmrs	APSR_nzcv, fpscr
 80044e2:	f200 80b9 	bhi.w	8004658 <computeFuzzy+0x30c>
 80044e6:	ed9f 7a7c 	vldr	s14, [pc, #496]	; 80046d8 <computeFuzzy+0x38c>
 80044ea:	ed82 7a01 	vstr	s14, [r2, #4]
 80044ee:	ed93 7a06 	vldr	s14, [r3, #24]
 80044f2:	ed93 6a07 	vldr	s12, [r3, #28]
 80044f6:	edd3 6a08 	vldr	s13, [r3, #32]
 80044fa:	eef4 7ac7 	vcmpe.f32	s15, s14
 80044fe:	eef1 fa10 	vmrs	APSR_nzcv, fpscr
 8004502:	f200 808a 	bhi.w	800461a <computeFuzzy+0x2ce>
 8004506:	ed9f 7a74 	vldr	s14, [pc, #464]	; 80046d8 <computeFuzzy+0x38c>
 800450a:	ed82 7a02 	vstr	s14, [r2, #8]
 800450e:	ed93 7a09 	vldr	s14, [r3, #36]	; 0x24
 8004512:	ed93 6a0a 	vldr	s12, [r3, #40]	; 0x28
 8004516:	edd3 6a0b 	vldr	s13, [r3, #44]	; 0x2c
 800451a:	eef4 7ac7 	vcmpe.f32	s15, s14
 800451e:	eef1 fa10 	vmrs	APSR_nzcv, fpscr
 8004522:	d85c      	bhi.n	80045de <computeFuzzy+0x292>
 8004524:	ed9f 7a6c 	vldr	s14, [pc, #432]	; 80046d8 <computeFuzzy+0x38c>
 8004528:	ed82 7a03 	vstr	s14, [r2, #12]
 800452c:	ed93 7a0c 	vldr	s14, [r3, #48]	; 0x30
 8004530:	ed93 6a0d 	vldr	s12, [r3, #52]	; 0x34
 8004534:	edd3 6a0e 	vldr	s13, [r3, #56]	; 0x38
 8004538:	eef4 7ac7 	vcmpe.f32	s15, s14
 800453c:	eef1 fa10 	vmrs	APSR_nzcv, fpscr
 8004540:	d82f      	bhi.n	80045a2 <computeFuzzy+0x256>
 8004542:	eddf 7a65 	vldr	s15, [pc, #404]	; 80046d8 <computeFuzzy+0x38c>
 8004546:	4b67      	ldr	r3, [pc, #412]	; (80046e4 <computeFuzzy+0x398>)
 8004548:	edc2 7a04 	vstr	s15, [r2, #16]
 800454c:	2605      	movs	r6, #5
 800454e:	601e      	str	r6, [r3, #0]
 8004550:	4c65      	ldr	r4, [pc, #404]	; (80046e8 <computeFuzzy+0x39c>)
 8004552:	f7ff fcc3 	bl	8003edc <inference>
 8004556:	4b65      	ldr	r3, [pc, #404]	; (80046ec <computeFuzzy+0x3a0>)
 8004558:	9400      	str	r4, [sp, #0]
 800455a:	2707      	movs	r7, #7
 800455c:	cb0f      	ldmia	r3, {r0, r1, r2, r3}
 800455e:	9701      	str	r7, [sp, #4]
 8004560:	f7ff fe42 	bl	80041e8 <defuzzify>
 8004564:	4b62      	ldr	r3, [pc, #392]	; (80046f0 <computeFuzzy+0x3a4>)
 8004566:	6028      	str	r0, [r5, #0]
 8004568:	9601      	str	r6, [sp, #4]
 800456a:	9400      	str	r4, [sp, #0]
 800456c:	cb0f      	ldmia	r3, {r0, r1, r2, r3}
 800456e:	f7ff fe3b 	bl	80041e8 <defuzzify>
 8004572:	9b08      	ldr	r3, [sp, #32]
 8004574:	6018      	str	r0, [r3, #0]
 8004576:	b003      	add	sp, #12
 8004578:	bdf0      	pop	{r4, r5, r6, r7, pc}
 800457a:	edd1 7a03 	vldr	s15, [r1, #12]
 800457e:	eef4 5a67 	vcmp.f32	s11, s15
 8004582:	eef1 fa10 	vmrs	APSR_nzcv, fpscr
 8004586:	bfd8      	it	le
 8004588:	eef0 7a65 	vmovle.f32	s15, s11
 800458c:	e753      	b.n	8004436 <computeFuzzy+0xea>
 800458e:	edd2 7a03 	vldr	s15, [r2, #12]
 8004592:	eef4 6a67 	vcmp.f32	s13, s15
 8004596:	eef1 fa10 	vmrs	APSR_nzcv, fpscr
 800459a:	bfd8      	it	le
 800459c:	eef0 7a66 	vmovle.f32	s15, s13
 80045a0:	e783      	b.n	80044aa <computeFuzzy+0x15e>
 80045a2:	eef4 7ae6 	vcmpe.f32	s15, s13
 80045a6:	eef1 fa10 	vmrs	APSR_nzcv, fpscr
 80045aa:	daca      	bge.n	8004542 <computeFuzzy+0x1f6>
 80045ac:	eeb4 6a67 	vcmp.f32	s12, s15
 80045b0:	eef1 fa10 	vmrs	APSR_nzcv, fpscr
 80045b4:	f000 81b2 	beq.w	800491c <computeFuzzy+0x5d0>
 80045b8:	eef4 7ac7 	vcmpe.f32	s15, s14
 80045bc:	eef1 fa10 	vmrs	APSR_nzcv, fpscr
 80045c0:	f340 81d2 	ble.w	8004968 <computeFuzzy+0x61c>
 80045c4:	eef4 7ac6 	vcmpe.f32	s15, s12
 80045c8:	eef1 fa10 	vmrs	APSR_nzcv, fpscr
 80045cc:	f140 81cc 	bpl.w	8004968 <computeFuzzy+0x61c>
 80045d0:	ee77 7ac7 	vsub.f32	s15, s15, s14
 80045d4:	ee36 7a47 	vsub.f32	s14, s12, s14
 80045d8:	eec7 7a87 	vdiv.f32	s15, s15, s14
 80045dc:	e7b3      	b.n	8004546 <computeFuzzy+0x1fa>
 80045de:	eef4 7ae6 	vcmpe.f32	s15, s13
 80045e2:	eef1 fa10 	vmrs	APSR_nzcv, fpscr
 80045e6:	da9d      	bge.n	8004524 <computeFuzzy+0x1d8>
 80045e8:	eeb4 6a67 	vcmp.f32	s12, s15
 80045ec:	eef1 fa10 	vmrs	APSR_nzcv, fpscr
 80045f0:	f000 8191 	beq.w	8004916 <computeFuzzy+0x5ca>
 80045f4:	eef4 7ac7 	vcmpe.f32	s15, s14
 80045f8:	eef1 fa10 	vmrs	APSR_nzcv, fpscr
 80045fc:	f340 819f 	ble.w	800493e <computeFuzzy+0x5f2>
 8004600:	eef4 7ac6 	vcmpe.f32	s15, s12
 8004604:	eef1 fa10 	vmrs	APSR_nzcv, fpscr
 8004608:	f140 8199 	bpl.w	800493e <computeFuzzy+0x5f2>
 800460c:	ee36 6a47 	vsub.f32	s12, s12, s14
 8004610:	ee37 7ac7 	vsub.f32	s14, s15, s14
 8004614:	ee87 7a06 	vdiv.f32	s14, s14, s12
 8004618:	e786      	b.n	8004528 <computeFuzzy+0x1dc>
 800461a:	eef4 7ae6 	vcmpe.f32	s15, s13
 800461e:	eef1 fa10 	vmrs	APSR_nzcv, fpscr
 8004622:	f6bf af70 	bge.w	8004506 <computeFuzzy+0x1ba>
 8004626:	eeb4 6a67 	vcmp.f32	s12, s15
 800462a:	eef1 fa10 	vmrs	APSR_nzcv, fpscr
 800462e:	f000 816f 	beq.w	8004910 <computeFuzzy+0x5c4>
 8004632:	eef4 7ac7 	vcmpe.f32	s15, s14
 8004636:	eef1 fa10 	vmrs	APSR_nzcv, fpscr
 800463a:	f340 818e 	ble.w	800495a <computeFuzzy+0x60e>
 800463e:	eef4 7ac6 	vcmpe.f32	s15, s12
 8004642:	eef1 fa10 	vmrs	APSR_nzcv, fpscr
 8004646:	f140 8188 	bpl.w	800495a <computeFuzzy+0x60e>
 800464a:	ee36 6a47 	vsub.f32	s12, s12, s14
 800464e:	ee37 7ac7 	vsub.f32	s14, s15, s14
 8004652:	ee87 7a06 	vdiv.f32	s14, s14, s12
 8004656:	e758      	b.n	800450a <computeFuzzy+0x1be>
 8004658:	eef4 7ae6 	vcmpe.f32	s15, s13
 800465c:	eef1 fa10 	vmrs	APSR_nzcv, fpscr
 8004660:	f6bf af41 	bge.w	80044e6 <computeFuzzy+0x19a>
 8004664:	eeb4 6a67 	vcmp.f32	s12, s15
 8004668:	eef1 fa10 	vmrs	APSR_nzcv, fpscr
 800466c:	f000 814d 	beq.w	800490a <computeFuzzy+0x5be>
 8004670:	eef4 7ac7 	vcmpe.f32	s15, s14
 8004674:	eef1 fa10 	vmrs	APSR_nzcv, fpscr
 8004678:	f340 8168 	ble.w	800494c <computeFuzzy+0x600>
 800467c:	eef4 7ac6 	vcmpe.f32	s15, s12
 8004680:	eef1 fa10 	vmrs	APSR_nzcv, fpscr
 8004684:	f140 8162 	bpl.w	800494c <computeFuzzy+0x600>
 8004688:	ee36 6a47 	vsub.f32	s12, s12, s14
 800468c:	ee37 7ac7 	vsub.f32	s14, s15, s14
 8004690:	ee87 7a06 	vdiv.f32	s14, s14, s12
 8004694:	e729      	b.n	80044ea <computeFuzzy+0x19e>
 8004696:	eef4 7ae6 	vcmpe.f32	s15, s13
 800469a:	eef1 fa10 	vmrs	APSR_nzcv, fpscr
 800469e:	f6bf af12 	bge.w	80044c6 <computeFuzzy+0x17a>
 80046a2:	eeb4 6a67 	vcmp.f32	s12, s15
 80046a6:	eef1 fa10 	vmrs	APSR_nzcv, fpscr
 80046aa:	f000 812b 	beq.w	8004904 <computeFuzzy+0x5b8>
 80046ae:	eef4 7ac7 	vcmpe.f32	s15, s14
 80046b2:	eef1 fa10 	vmrs	APSR_nzcv, fpscr
 80046b6:	f340 8188 	ble.w	80049ca <computeFuzzy+0x67e>
 80046ba:	eef4 7ac6 	vcmpe.f32	s15, s12
 80046be:	eef1 fa10 	vmrs	APSR_nzcv, fpscr
 80046c2:	f140 8182 	bpl.w	80049ca <computeFuzzy+0x67e>
 80046c6:	ee36 6a47 	vsub.f32	s12, s12, s14
 80046ca:	ee37 7ac7 	vsub.f32	s14, s15, s14
 80046ce:	ee87 7a06 	vdiv.f32	s14, s14, s12
 80046d2:	e6fa      	b.n	80044ca <computeFuzzy+0x17e>
 80046d4:	1ffe9ca4 	.word	0x1ffe9ca4
 80046d8:	00000000 	.word	0x00000000
 80046dc:	1ffe9cb4 	.word	0x1ffe9cb4
 80046e0:	1ffe9cc4 	.word	0x1ffe9cc4
 80046e4:	1ffe9bdc 	.word	0x1ffe9bdc
 80046e8:	43340000 	.word	0x43340000
 80046ec:	1ffe9c94 	.word	0x1ffe9c94
 80046f0:	1ffe9c84 	.word	0x1ffe9c84
 80046f4:	eeb4 6ae7 	vcmpe.f32	s12, s15
 80046f8:	eef1 fa10 	vmrs	APSR_nzcv, fpscr
 80046fc:	f67f aec9 	bls.w	8004492 <computeFuzzy+0x146>
 8004700:	eef4 5a67 	vcmp.f32	s11, s15
 8004704:	eef1 fa10 	vmrs	APSR_nzcv, fpscr
 8004708:	f000 80f9 	beq.w	80048fe <computeFuzzy+0x5b2>
 800470c:	eeb4 7ae7 	vcmpe.f32	s14, s15
 8004710:	eef1 fa10 	vmrs	APSR_nzcv, fpscr
 8004714:	f140 8152 	bpl.w	80049bc <computeFuzzy+0x670>
 8004718:	eef4 5ae7 	vcmpe.f32	s11, s15
 800471c:	eef1 fa10 	vmrs	APSR_nzcv, fpscr
 8004720:	f340 814c 	ble.w	80049bc <computeFuzzy+0x670>
 8004724:	ee77 7ac7 	vsub.f32	s15, s15, s14
 8004728:	ee35 7ac7 	vsub.f32	s14, s11, s14
 800472c:	eec7 7a87 	vdiv.f32	s15, s15, s14
 8004730:	e6b1      	b.n	8004496 <computeFuzzy+0x14a>
 8004732:	eef4 7ac6 	vcmpe.f32	s15, s12
 8004736:	eef1 fa10 	vmrs	APSR_nzcv, fpscr
 800473a:	f6bf ae9a 	bge.w	8004472 <computeFuzzy+0x126>
 800473e:	eef4 5a67 	vcmp.f32	s11, s15
 8004742:	eef1 fa10 	vmrs	APSR_nzcv, fpscr
 8004746:	f000 80d7 	beq.w	80048f8 <computeFuzzy+0x5ac>
 800474a:	eef4 7ac7 	vcmpe.f32	s15, s14
 800474e:	eef1 fa10 	vmrs	APSR_nzcv, fpscr
 8004752:	f340 812c 	ble.w	80049ae <computeFuzzy+0x662>
 8004756:	eef4 7ae5 	vcmpe.f32	s15, s11
 800475a:	eef1 fa10 	vmrs	APSR_nzcv, fpscr
 800475e:	f140 8126 	bpl.w	80049ae <computeFuzzy+0x662>
 8004762:	ee75 5ac7 	vsub.f32	s11, s11, s14
 8004766:	ee37 7ac7 	vsub.f32	s14, s15, s14
 800476a:	ee87 7a25 	vdiv.f32	s14, s14, s11
 800476e:	e682      	b.n	8004476 <computeFuzzy+0x12a>
 8004770:	eef4 7ac6 	vcmpe.f32	s15, s12
 8004774:	eef1 fa10 	vmrs	APSR_nzcv, fpscr
 8004778:	f6bf ae6b 	bge.w	8004452 <computeFuzzy+0x106>
 800477c:	eef4 5a67 	vcmp.f32	s11, s15
 8004780:	eef1 fa10 	vmrs	APSR_nzcv, fpscr
 8004784:	f000 80b5 	beq.w	80048f2 <computeFuzzy+0x5a6>
 8004788:	eef4 7ac7 	vcmpe.f32	s15, s14
 800478c:	eef1 fa10 	vmrs	APSR_nzcv, fpscr
 8004790:	f340 8106 	ble.w	80049a0 <computeFuzzy+0x654>
 8004794:	eef4 7ae5 	vcmpe.f32	s15, s11
 8004798:	eef1 fa10 	vmrs	APSR_nzcv, fpscr
 800479c:	f140 8100 	bpl.w	80049a0 <computeFuzzy+0x654>
 80047a0:	ee75 5ac7 	vsub.f32	s11, s11, s14
 80047a4:	ee37 7ac7 	vsub.f32	s14, s15, s14
 80047a8:	ee87 7a25 	vdiv.f32	s14, s14, s11
 80047ac:	e653      	b.n	8004456 <computeFuzzy+0x10a>
 80047ae:	eeb4 6ae7 	vcmpe.f32	s12, s15
 80047b2:	eef1 fa10 	vmrs	APSR_nzcv, fpscr
 80047b6:	f67f ae31 	bls.w	800441c <computeFuzzy+0xd0>
 80047ba:	eeb4 5a67 	vcmp.f32	s10, s15
 80047be:	eef1 fa10 	vmrs	APSR_nzcv, fpscr
 80047c2:	f000 8093 	beq.w	80048ec <computeFuzzy+0x5a0>
 80047c6:	eeb4 7ae7 	vcmpe.f32	s14, s15
 80047ca:	eef1 fa10 	vmrs	APSR_nzcv, fpscr
 80047ce:	f140 80a8 	bpl.w	8004922 <computeFuzzy+0x5d6>
 80047d2:	eeb4 5ae7 	vcmpe.f32	s10, s15
 80047d6:	eef1 fa10 	vmrs	APSR_nzcv, fpscr
 80047da:	f340 80a2 	ble.w	8004922 <computeFuzzy+0x5d6>
 80047de:	ee77 7ac7 	vsub.f32	s15, s15, s14
 80047e2:	ee35 7a47 	vsub.f32	s14, s10, s14
 80047e6:	eec7 7a87 	vdiv.f32	s15, s15, s14
 80047ea:	e619      	b.n	8004420 <computeFuzzy+0xd4>
 80047ec:	eef4 7ac6 	vcmpe.f32	s15, s12
 80047f0:	eef1 fa10 	vmrs	APSR_nzcv, fpscr
 80047f4:	f6bf ae02 	bge.w	80043fc <computeFuzzy+0xb0>
 80047f8:	eeb4 5a67 	vcmp.f32	s10, s15
 80047fc:	eef1 fa10 	vmrs	APSR_nzcv, fpscr
 8004800:	d071      	beq.n	80048e6 <computeFuzzy+0x59a>
 8004802:	eef4 7ac7 	vcmpe.f32	s15, s14
 8004806:	eef1 fa10 	vmrs	APSR_nzcv, fpscr
 800480a:	f340 80b4 	ble.w	8004976 <computeFuzzy+0x62a>
 800480e:	eef4 7ac5 	vcmpe.f32	s15, s10
 8004812:	eef1 fa10 	vmrs	APSR_nzcv, fpscr
 8004816:	f140 80ae 	bpl.w	8004976 <computeFuzzy+0x62a>
 800481a:	ee35 5a47 	vsub.f32	s10, s10, s14
 800481e:	ee37 7ac7 	vsub.f32	s14, s15, s14
 8004822:	ee87 7a05 	vdiv.f32	s14, s14, s10
 8004826:	e5eb      	b.n	8004400 <computeFuzzy+0xb4>
 8004828:	eef4 7ac6 	vcmpe.f32	s15, s12
 800482c:	eef1 fa10 	vmrs	APSR_nzcv, fpscr
 8004830:	f6bf add4 	bge.w	80043dc <computeFuzzy+0x90>
 8004834:	eeb4 5a67 	vcmp.f32	s10, s15
 8004838:	eef1 fa10 	vmrs	APSR_nzcv, fpscr
 800483c:	d050      	beq.n	80048e0 <computeFuzzy+0x594>
 800483e:	eef4 7ac7 	vcmpe.f32	s15, s14
 8004842:	eef1 fa10 	vmrs	APSR_nzcv, fpscr
 8004846:	f340 80a4 	ble.w	8004992 <computeFuzzy+0x646>
 800484a:	eef4 7ac5 	vcmpe.f32	s15, s10
 800484e:	eef1 fa10 	vmrs	APSR_nzcv, fpscr
 8004852:	f140 809e 	bpl.w	8004992 <computeFuzzy+0x646>
 8004856:	ee35 5a47 	vsub.f32	s10, s10, s14
 800485a:	ee37 7ac7 	vsub.f32	s14, s15, s14
 800485e:	ee87 7a05 	vdiv.f32	s14, s14, s10
 8004862:	e5bd      	b.n	80043e0 <computeFuzzy+0x94>
 8004864:	eef4 7ac6 	vcmpe.f32	s15, s12
 8004868:	eef1 fa10 	vmrs	APSR_nzcv, fpscr
 800486c:	f6bf ada6 	bge.w	80043bc <computeFuzzy+0x70>
 8004870:	eeb4 5a67 	vcmp.f32	s10, s15
 8004874:	eef1 fa10 	vmrs	APSR_nzcv, fpscr
 8004878:	d02f      	beq.n	80048da <computeFuzzy+0x58e>
 800487a:	eef4 7ac7 	vcmpe.f32	s15, s14
 800487e:	eef1 fa10 	vmrs	APSR_nzcv, fpscr
 8004882:	dd7f      	ble.n	8004984 <computeFuzzy+0x638>
 8004884:	eef4 7ac5 	vcmpe.f32	s15, s10
 8004888:	eef1 fa10 	vmrs	APSR_nzcv, fpscr
 800488c:	d57a      	bpl.n	8004984 <computeFuzzy+0x638>
 800488e:	ee35 5a47 	vsub.f32	s10, s10, s14
 8004892:	ee37 7ac7 	vsub.f32	s14, s15, s14
 8004896:	ee87 7a05 	vdiv.f32	s14, s14, s10
 800489a:	e591      	b.n	80043c0 <computeFuzzy+0x74>
 800489c:	eef4 7ac6 	vcmpe.f32	s15, s12
 80048a0:	eef1 fa10 	vmrs	APSR_nzcv, fpscr
 80048a4:	f6bf ad7a 	bge.w	800439c <computeFuzzy+0x50>
 80048a8:	eeb4 5a67 	vcmp.f32	s10, s15
 80048ac:	eef1 fa10 	vmrs	APSR_nzcv, fpscr
 80048b0:	d010      	beq.n	80048d4 <computeFuzzy+0x588>
 80048b2:	eef4 7ac7 	vcmpe.f32	s15, s14
 80048b6:	eef1 fa10 	vmrs	APSR_nzcv, fpscr
 80048ba:	dd39      	ble.n	8004930 <computeFuzzy+0x5e4>
 80048bc:	eef4 7ac5 	vcmpe.f32	s15, s10
 80048c0:	eef1 fa10 	vmrs	APSR_nzcv, fpscr
 80048c4:	d534      	bpl.n	8004930 <computeFuzzy+0x5e4>
 80048c6:	ee35 5a47 	vsub.f32	s10, s10, s14
 80048ca:	ee37 7ac7 	vsub.f32	s14, s15, s14
 80048ce:	ee87 7a05 	vdiv.f32	s14, s14, s10
 80048d2:	e565      	b.n	80043a0 <computeFuzzy+0x54>
 80048d4:	eeb7 7a00 	vmov.f32	s14, #112	; 0x70
 80048d8:	e562      	b.n	80043a0 <computeFuzzy+0x54>
 80048da:	eeb7 7a00 	vmov.f32	s14, #112	; 0x70
 80048de:	e56f      	b.n	80043c0 <computeFuzzy+0x74>
 80048e0:	eeb7 7a00 	vmov.f32	s14, #112	; 0x70
 80048e4:	e57c      	b.n	80043e0 <computeFuzzy+0x94>
 80048e6:	eeb7 7a00 	vmov.f32	s14, #112	; 0x70
 80048ea:	e589      	b.n	8004400 <computeFuzzy+0xb4>
 80048ec:	eef7 7a00 	vmov.f32	s15, #112	; 0x70
 80048f0:	e596      	b.n	8004420 <computeFuzzy+0xd4>
 80048f2:	eeb7 7a00 	vmov.f32	s14, #112	; 0x70
 80048f6:	e5ae      	b.n	8004456 <computeFuzzy+0x10a>
 80048f8:	eeb7 7a00 	vmov.f32	s14, #112	; 0x70
 80048fc:	e5bb      	b.n	8004476 <computeFuzzy+0x12a>
 80048fe:	eef7 7a00 	vmov.f32	s15, #112	; 0x70
 8004902:	e5c8      	b.n	8004496 <computeFuzzy+0x14a>
 8004904:	eeb7 7a00 	vmov.f32	s14, #112	; 0x70
 8004908:	e5df      	b.n	80044ca <computeFuzzy+0x17e>
 800490a:	eeb7 7a00 	vmov.f32	s14, #112	; 0x70
 800490e:	e5ec      	b.n	80044ea <computeFuzzy+0x19e>
 8004910:	eeb7 7a00 	vmov.f32	s14, #112	; 0x70
 8004914:	e5f9      	b.n	800450a <computeFuzzy+0x1be>
 8004916:	eeb7 7a00 	vmov.f32	s14, #112	; 0x70
 800491a:	e605      	b.n	8004528 <computeFuzzy+0x1dc>
 800491c:	eef7 7a00 	vmov.f32	s15, #112	; 0x70
 8004920:	e611      	b.n	8004546 <computeFuzzy+0x1fa>
 8004922:	ee76 7a67 	vsub.f32	s15, s12, s15
 8004926:	ee36 6a45 	vsub.f32	s12, s12, s10
 800492a:	eec7 7a86 	vdiv.f32	s15, s15, s12
 800492e:	e577      	b.n	8004420 <computeFuzzy+0xd4>
 8004930:	ee36 7a45 	vsub.f32	s14, s12, s10
 8004934:	ee36 6a67 	vsub.f32	s12, s12, s15
 8004938:	ee86 7a07 	vdiv.f32	s14, s12, s14
 800493c:	e530      	b.n	80043a0 <computeFuzzy+0x54>
 800493e:	ee36 7ac6 	vsub.f32	s14, s13, s12
 8004942:	ee76 6ae7 	vsub.f32	s13, s13, s15
 8004946:	ee86 7a87 	vdiv.f32	s14, s13, s14
 800494a:	e5ed      	b.n	8004528 <computeFuzzy+0x1dc>
 800494c:	ee36 7ac6 	vsub.f32	s14, s13, s12
 8004950:	ee76 6ae7 	vsub.f32	s13, s13, s15
 8004954:	ee86 7a87 	vdiv.f32	s14, s13, s14
 8004958:	e5c7      	b.n	80044ea <computeFuzzy+0x19e>
 800495a:	ee36 7ac6 	vsub.f32	s14, s13, s12
 800495e:	ee76 6ae7 	vsub.f32	s13, s13, s15
 8004962:	ee86 7a87 	vdiv.f32	s14, s13, s14
 8004966:	e5d0      	b.n	800450a <computeFuzzy+0x1be>
 8004968:	ee76 7ae7 	vsub.f32	s15, s13, s15
 800496c:	ee76 6ac6 	vsub.f32	s13, s13, s12
 8004970:	eec7 7aa6 	vdiv.f32	s15, s15, s13
 8004974:	e5e7      	b.n	8004546 <computeFuzzy+0x1fa>
 8004976:	ee36 7a45 	vsub.f32	s14, s12, s10
 800497a:	ee36 6a67 	vsub.f32	s12, s12, s15
 800497e:	ee86 7a07 	vdiv.f32	s14, s12, s14
 8004982:	e53d      	b.n	8004400 <computeFuzzy+0xb4>
 8004984:	ee36 7a45 	vsub.f32	s14, s12, s10
 8004988:	ee36 6a67 	vsub.f32	s12, s12, s15
 800498c:	ee86 7a07 	vdiv.f32	s14, s12, s14
 8004990:	e516      	b.n	80043c0 <computeFuzzy+0x74>
 8004992:	ee36 7a45 	vsub.f32	s14, s12, s10
 8004996:	ee36 6a67 	vsub.f32	s12, s12, s15
 800499a:	ee86 7a07 	vdiv.f32	s14, s12, s14
 800499e:	e51f      	b.n	80043e0 <computeFuzzy+0x94>
 80049a0:	ee36 7a65 	vsub.f32	s14, s12, s11
 80049a4:	ee36 6a67 	vsub.f32	s12, s12, s15
 80049a8:	ee86 7a07 	vdiv.f32	s14, s12, s14
 80049ac:	e553      	b.n	8004456 <computeFuzzy+0x10a>
 80049ae:	ee36 7a65 	vsub.f32	s14, s12, s11
 80049b2:	ee36 6a67 	vsub.f32	s12, s12, s15
 80049b6:	ee86 7a07 	vdiv.f32	s14, s12, s14
 80049ba:	e55c      	b.n	8004476 <computeFuzzy+0x12a>
 80049bc:	ee76 7a67 	vsub.f32	s15, s12, s15
 80049c0:	ee36 6a65 	vsub.f32	s12, s12, s11
 80049c4:	eec7 7a86 	vdiv.f32	s15, s15, s12
 80049c8:	e565      	b.n	8004496 <computeFuzzy+0x14a>
 80049ca:	ee36 7ac6 	vsub.f32	s14, s13, s12
 80049ce:	ee76 6ae7 	vsub.f32	s13, s13, s15
 80049d2:	ee86 7a87 	vdiv.f32	s14, s13, s14
 80049d6:	e578      	b.n	80044ca <computeFuzzy+0x17e>

080049d8 <setMotorData>:
 80049d8:	b510      	push	{r4, lr}
 80049da:	b084      	sub	sp, #16
 80049dc:	ac01      	add	r4, sp, #4
 80049de:	e884 0007 	stmia.w	r4, {r0, r1, r2}
 80049e2:	f7fd fb05 	bl	8001ff0 <vPortEnterCritical>
 80049e6:	e894 0007 	ldmia.w	r4, {r0, r1, r2}
 80049ea:	4b04      	ldr	r3, [pc, #16]	; (80049fc <setMotorData+0x24>)
 80049ec:	e883 0007 	stmia.w	r3, {r0, r1, r2}
 80049f0:	b004      	add	sp, #16
 80049f2:	e8bd 4010 	ldmia.w	sp!, {r4, lr}
 80049f6:	f7fd bb1d 	b.w	8002034 <vPortExitCritical>
 80049fa:	bf00      	nop
 80049fc:	1ffe8920 	.word	0x1ffe8920

08004a00 <getMotorData>:
 8004a00:	b510      	push	{r4, lr}
 8004a02:	4604      	mov	r4, r0
 8004a04:	f7fd faf4 	bl	8001ff0 <vPortEnterCritical>
 8004a08:	4b04      	ldr	r3, [pc, #16]	; (8004a1c <getMotorData+0x1c>)
 8004a0a:	e893 0007 	ldmia.w	r3, {r0, r1, r2}
 8004a0e:	e884 0007 	stmia.w	r4, {r0, r1, r2}
 8004a12:	f7fd fb0f 	bl	8002034 <vPortExitCritical>
 8004a16:	4620      	mov	r0, r4
 8004a18:	bd10      	pop	{r4, pc}
 8004a1a:	bf00      	nop
 8004a1c:	1ffe8920 	.word	0x1ffe8920

08004a20 <setControlParams>:
 8004a20:	b510      	push	{r4, lr}
 8004a22:	b084      	sub	sp, #16
 8004a24:	ac01      	add	r4, sp, #4
 8004a26:	e884 0007 	stmia.w	r4, {r0, r1, r2}
 8004a2a:	f7fd fae1 	bl	8001ff0 <vPortEnterCritical>
 8004a2e:	e894 0007 	ldmia.w	r4, {r0, r1, r2}
 8004a32:	4b04      	ldr	r3, [pc, #16]	; (8004a44 <setControlParams+0x24>)
 8004a34:	e883 0007 	stmia.w	r3, {r0, r1, r2}
 8004a38:	b004      	add	sp, #16
 8004a3a:	e8bd 4010 	ldmia.w	sp!, {r4, lr}
 8004a3e:	f7fd baf9 	b.w	8002034 <vPortExitCritical>
 8004a42:	bf00      	nop
 8004a44:	1ffe8914 	.word	0x1ffe8914

08004a48 <getControlParams>:
 8004a48:	b510      	push	{r4, lr}
 8004a4a:	4604      	mov	r4, r0
 8004a4c:	f7fd fad0 	bl	8001ff0 <vPortEnterCritical>
 8004a50:	4b04      	ldr	r3, [pc, #16]	; (8004a64 <getControlParams+0x1c>)
 8004a52:	e893 0007 	ldmia.w	r3, {r0, r1, r2}
 8004a56:	e884 0007 	stmia.w	r4, {r0, r1, r2}
 8004a5a:	f7fd faeb 	bl	8002034 <vPortExitCritical>
 8004a5e:	4620      	mov	r0, r4
 8004a60:	bd10      	pop	{r4, pc}
 8004a62:	bf00      	nop
 8004a64:	1ffe8914 	.word	0x1ffe8914

08004a68 <lcdTask>:
 8004a68:	b570      	push	{r4, r5, r6, lr}
 8004a6a:	b08c      	sub	sp, #48	; 0x30
 8004a6c:	f7fe f992 	bl	8002d94 <xTaskGetTickCount>
 8004a70:	4b2b      	ldr	r3, [pc, #172]	; (8004b20 <lcdTask+0xb8>)
 8004a72:	4c2c      	ldr	r4, [pc, #176]	; (8004b24 <lcdTask+0xbc>)
 8004a74:	6018      	str	r0, [r3, #0]
 8004a76:	482c      	ldr	r0, [pc, #176]	; (8004b28 <lcdTask+0xc0>)
 8004a78:	4e2c      	ldr	r6, [pc, #176]	; (8004b2c <lcdTask+0xc4>)
 8004a7a:	f002 fb17 	bl	80070ac <GUI_SetFont>
 8004a7e:	466d      	mov	r5, sp
 8004a80:	4628      	mov	r0, r5
 8004a82:	f7ff ffbd 	bl	8004a00 <getMotorData>
 8004a86:	e895 0007 	ldmia.w	r5, {r0, r1, r2}
 8004a8a:	e884 0007 	stmia.w	r4, {r0, r1, r2}
 8004a8e:	f002 fc81 	bl	8007394 <GUI_Clear>
 8004a92:	4827      	ldr	r0, [pc, #156]	; (8004b30 <lcdTask+0xc8>)
 8004a94:	f002 fb14 	bl	80070c0 <GUI_SetColor>
 8004a98:	4826      	ldr	r0, [pc, #152]	; (8004b34 <lcdTask+0xcc>)
 8004a9a:	2100      	movs	r1, #0
 8004a9c:	2212      	movs	r2, #18
 8004a9e:	f002 fb11 	bl	80070c4 <GUI_DispStringAt>
 8004aa2:	4825      	ldr	r0, [pc, #148]	; (8004b38 <lcdTask+0xd0>)
 8004aa4:	2100      	movs	r1, #0
 8004aa6:	2226      	movs	r2, #38	; 0x26
 8004aa8:	f002 fb0c 	bl	80070c4 <GUI_DispStringAt>
 8004aac:	2100      	movs	r1, #0
 8004aae:	223a      	movs	r2, #58	; 0x3a
 8004ab0:	4822      	ldr	r0, [pc, #136]	; (8004b3c <lcdTask+0xd4>)
 8004ab2:	f002 fb07 	bl	80070c4 <GUI_DispStringAt>
 8004ab6:	f06f 407f 	mvn.w	r0, #4278190080	; 0xff000000
 8004aba:	f002 fb01 	bl	80070c0 <GUI_SetColor>
 8004abe:	2309      	movs	r3, #9
 8004ac0:	a804      	add	r0, sp, #16
 8004ac2:	491f      	ldr	r1, [pc, #124]	; (8004b40 <lcdTask+0xd8>)
 8004ac4:	6026      	str	r6, [r4, #0]
 8004ac6:	2211      	movs	r2, #17
 8004ac8:	f009 f8aa 	bl	800dc20 <siprintf>
 8004acc:	a804      	add	r0, sp, #16
 8004ace:	213c      	movs	r1, #60	; 0x3c
 8004ad0:	2212      	movs	r2, #18
 8004ad2:	f002 faf7 	bl	80070c4 <GUI_DispStringAt>
 8004ad6:	edd4 7a01 	vldr	s15, [r4, #4]
 8004ada:	491a      	ldr	r1, [pc, #104]	; (8004b44 <lcdTask+0xdc>)
 8004adc:	eefd 7ae7 	vcvt.s32.f32	s15, s15
 8004ae0:	a804      	add	r0, sp, #16
 8004ae2:	ee17 2a90 	vmov	r2, s15
 8004ae6:	f009 f89b 	bl	800dc20 <siprintf>
 8004aea:	a804      	add	r0, sp, #16
 8004aec:	213c      	movs	r1, #60	; 0x3c
 8004aee:	2226      	movs	r2, #38	; 0x26
 8004af0:	f002 fae8 	bl	80070c4 <GUI_DispStringAt>
 8004af4:	edd4 7a02 	vldr	s15, [r4, #8]
 8004af8:	4912      	ldr	r1, [pc, #72]	; (8004b44 <lcdTask+0xdc>)
 8004afa:	eefd 7ae7 	vcvt.s32.f32	s15, s15
 8004afe:	a804      	add	r0, sp, #16
 8004b00:	ee17 2a90 	vmov	r2, s15
 8004b04:	f009 f88c 	bl	800dc20 <siprintf>
 8004b08:	a804      	add	r0, sp, #16
 8004b0a:	213c      	movs	r1, #60	; 0x3c
 8004b0c:	223a      	movs	r2, #58	; 0x3a
 8004b0e:	f002 fad9 	bl	80070c4 <GUI_DispStringAt>
 8004b12:	4803      	ldr	r0, [pc, #12]	; (8004b20 <lcdTask+0xb8>)
 8004b14:	f44f 71fa 	mov.w	r1, #500	; 0x1f4
 8004b18:	f7fe fa5c 	bl	8002fd4 <vTaskDelayUntil>
 8004b1c:	e7b0      	b.n	8004a80 <lcdTask+0x18>
 8004b1e:	bf00      	nop
 8004b20:	1ffe9c10 	.word	0x1ffe9c10
 8004b24:	1ffe9c24 	.word	0x1ffe9c24
 8004b28:	0800ed44 	.word	0x0800ed44
 8004b2c:	4188b852 	.word	0x4188b852
 8004b30:	00ffff80 	.word	0x00ffff80
 8004b34:	0800e5c8 	.word	0x0800e5c8
 8004b38:	0800e5d4 	.word	0x0800e5d4
 8004b3c:	0800e5dc 	.word	0x0800e5dc
 8004b40:	0800e5e4 	.word	0x0800e5e4
 8004b44:	0800e5e8 	.word	0x0800e5e8

08004b48 <controlTask>:
 8004b48:	e92d 4ff0 	stmdb	sp!, {r4, r5, r6, r7, r8, r9, sl, fp, lr}
 8004b4c:	ed2d 8b06 	vpush	{d8-d10}
 8004b50:	b08f      	sub	sp, #60	; 0x3c
 8004b52:	f7ff f83d 	bl	8003bd0 <setupFuzzyController>
 8004b56:	4ba4      	ldr	r3, [pc, #656]	; (8004de8 <controlTask+0x2a0>)
 8004b58:	4aa4      	ldr	r2, [pc, #656]	; (8004dec <controlTask+0x2a4>)
 8004b5a:	7c1c      	ldrb	r4, [r3, #16]
 8004b5c:	681b      	ldr	r3, [r3, #0]
 8004b5e:	f892 e010 	ldrb.w	lr, [r2, #16]
 8004b62:	6811      	ldr	r1, [r2, #0]
 8004b64:	48a2      	ldr	r0, [pc, #648]	; (8004df0 <controlTask+0x2a8>)
 8004b66:	f8df a2ec 	ldr.w	sl, [pc, #748]	; 8004e54 <controlTask+0x30c>
 8004b6a:	f8df 92ac 	ldr.w	r9, [pc, #684]	; 8004e18 <controlTask+0x2d0>
 8004b6e:	f8df 82e8 	ldr.w	r8, [pc, #744]	; 8004e58 <controlTask+0x310>
 8004b72:	4fa0      	ldr	r7, [pc, #640]	; (8004df4 <controlTask+0x2ac>)
 8004b74:	4ea0      	ldr	r6, [pc, #640]	; (8004df8 <controlTask+0x2b0>)
 8004b76:	f8df b2b8 	ldr.w	fp, [pc, #696]	; 8004e30 <controlTask+0x2e8>
 8004b7a:	eddf 9aa0 	vldr	s19, [pc, #640]	; 8004dfc <controlTask+0x2b4>
 8004b7e:	ed9f 9aa0 	vldr	s18, [pc, #640]	; 8004e00 <controlTask+0x2b8>
 8004b82:	ed9f aaa0 	vldr	s20, [pc, #640]	; 8004e04 <controlTask+0x2bc>
 8004b86:	eddf 8aa0 	vldr	s17, [pc, #640]	; 8004e08 <controlTask+0x2c0>
 8004b8a:	461d      	mov	r5, r3
 8004b8c:	2301      	movs	r3, #1
 8004b8e:	fa03 f20e 	lsl.w	r2, r3, lr
 8004b92:	fa03 f404 	lsl.w	r4, r3, r4
 8004b96:	604a      	str	r2, [r1, #4]
 8004b98:	606c      	str	r4, [r5, #4]
 8004b9a:	9304      	str	r3, [sp, #16]
 8004b9c:	f7fc fec6 	bl	800192c <PWM_CCU8_Start>
 8004ba0:	2100      	movs	r1, #0
 8004ba2:	f241 3288 	movw	r2, #5000	; 0x1388
 8004ba6:	4892      	ldr	r0, [pc, #584]	; (8004df0 <controlTask+0x2a8>)
 8004ba8:	f7fc feda 	bl	8001960 <PWM_CCU8_SetDutyCycleSymmetric>
 8004bac:	f7fe f8f2 	bl	8002d94 <xTaskGetTickCount>
 8004bb0:	4996      	ldr	r1, [pc, #600]	; (8004e0c <controlTask+0x2c4>)
 8004bb2:	9b04      	ldr	r3, [sp, #16]
 8004bb4:	7c0a      	ldrb	r2, [r1, #16]
 8004bb6:	680c      	ldr	r4, [r1, #0]
 8004bb8:	f8df e284 	ldr.w	lr, [pc, #644]	; 8004e40 <controlTask+0x2f8>
 8004bbc:	9404      	str	r4, [sp, #16]
 8004bbe:	4093      	lsls	r3, r2
 8004bc0:	f44f 3180 	mov.w	r1, #65536	; 0x10000
 8004bc4:	9305      	str	r3, [sp, #20]
 8004bc6:	fa01 f302 	lsl.w	r3, r1, r2
 8004bca:	f8ce 0000 	str.w	r0, [lr]
 8004bce:	9306      	str	r3, [sp, #24]
 8004bd0:	4622      	mov	r2, r4
 8004bd2:	e098      	b.n	8004d06 <controlTask+0x1be>
 8004bd4:	4b8e      	ldr	r3, [pc, #568]	; (8004e10 <controlTask+0x2c8>)
 8004bd6:	4298      	cmp	r0, r3
 8004bd8:	f200 80bb 	bhi.w	8004d52 <controlTask+0x20a>
 8004bdc:	f04f 34ff 	mov.w	r4, #4294967295
 8004be0:	1aa4      	subs	r4, r4, r2
 8004be2:	f04f 0500 	mov.w	r5, #0
 8004be6:	f165 0500 	sbc.w	r5, r5, #0
 8004bea:	1822      	adds	r2, r4, r0
 8004bec:	f145 0300 	adc.w	r3, r5, #0
 8004bf0:	1c54      	adds	r4, r2, #1
 8004bf2:	f143 0500 	adc.w	r5, r3, #0
 8004bf6:	4b87      	ldr	r3, [pc, #540]	; (8004e14 <controlTask+0x2cc>)
 8004bf8:	e9c3 4500 	strd	r4, r5, [r3]
 8004bfc:	4629      	mov	r1, r5
 8004bfe:	4620      	mov	r0, r4
 8004c00:	e9cd 4502 	strd	r4, r5, [sp, #8]
 8004c04:	f008 feba 	bl	800d97c <__aeabi_l2f>
 8004c08:	ee07 0a90 	vmov	s15, r0
 8004c0c:	ee67 7aa9 	vmul.f32	s15, s15, s19
 8004c10:	e9dd 4502 	ldrd	r4, r5, [sp, #8]
 8004c14:	eec7 7a89 	vdiv.f32	s15, s15, s18
 8004c18:	f8d8 0000 	ldr.w	r0, [r8]
 8004c1c:	f89d 1020 	ldrb.w	r1, [sp, #32]
 8004c20:	4b7d      	ldr	r3, [pc, #500]	; (8004e18 <controlTask+0x2d0>)
 8004c22:	f8df c234 	ldr.w	ip, [pc, #564]	; 8004e58 <controlTask+0x310>
 8004c26:	1822      	adds	r2, r4, r0
 8004c28:	f8c8 2000 	str.w	r2, [r8]
 8004c2c:	ee67 7a8a 	vmul.f32	s15, s15, s20
 8004c30:	edc9 7a00 	vstr	s15, [r9]
 8004c34:	2900      	cmp	r1, #0
 8004c36:	f040 8093 	bne.w	8004d60 <controlTask+0x218>
 8004c3a:	edd7 6a00 	vldr	s13, [r7]
 8004c3e:	4d77      	ldr	r5, [pc, #476]	; (8004e1c <controlTask+0x2d4>)
 8004c40:	4b77      	ldr	r3, [pc, #476]	; (8004e20 <controlTask+0x2d8>)
 8004c42:	9300      	str	r3, [sp, #0]
 8004c44:	ee87 6aa8 	vdiv.f32	s12, s15, s17
 8004c48:	4b76      	ldr	r3, [pc, #472]	; (8004e24 <controlTask+0x2dc>)
 8004c4a:	ee07 2a10 	vmov	s14, r2
 8004c4e:	eec6 6aa8 	vdiv.f32	s13, s13, s17
 8004c52:	ee78 7a67 	vsub.f32	s15, s16, s15
 8004c56:	eeb8 7ac7 	vcvt.f32.s32	s14, s14
 8004c5a:	eec7 7aa8 	vdiv.f32	s15, s15, s17
 8004c5e:	ee87 7a09 	vdiv.f32	s14, s14, s18
 8004c62:	ee76 6a66 	vsub.f32	s13, s12, s13
 8004c66:	edc5 7a00 	vstr	s15, [r5]
 8004c6a:	ee66 6aa9 	vmul.f32	s13, s13, s19
 8004c6e:	eddd 5a09 	vldr	s11, [sp, #36]	; 0x24
 8004c72:	4d6d      	ldr	r5, [pc, #436]	; (8004e28 <controlTask+0x2e0>)
 8004c74:	ed86 7a00 	vstr	s14, [r6]
 8004c78:	ee35 6ac7 	vsub.f32	s12, s11, s14
 8004c7c:	edc5 6a00 	vstr	s13, [r5]
 8004c80:	4d6a      	ldr	r5, [pc, #424]	; (8004e2c <controlTask+0x2e4>)
 8004c82:	ee17 0a90 	vmov	r0, s15
 8004c86:	ee16 2a10 	vmov	r2, s12
 8004c8a:	ee16 1a90 	vmov	r1, s13
 8004c8e:	ed85 6a00 	vstr	s12, [r5]
 8004c92:	f7ff fb5b 	bl	800434c <computeFuzzy>
 8004c96:	4b63      	ldr	r3, [pc, #396]	; (8004e24 <controlTask+0x2dc>)
 8004c98:	ed9b 7a00 	vldr	s14, [fp]
 8004c9c:	edd3 7a00 	vldr	s15, [r3]
 8004ca0:	4b63      	ldr	r3, [pc, #396]	; (8004e30 <controlTask+0x2e8>)
 8004ca2:	ee77 7a27 	vadd.f32	s15, s14, s15
 8004ca6:	eeb7 7a00 	vmov.f32	s14, #112	; 0x70
 8004caa:	eef4 7ac7 	vcmpe.f32	s15, s14
 8004cae:	eef1 fa10 	vmrs	APSR_nzcv, fpscr
 8004cb2:	dd6c      	ble.n	8004d8e <controlTask+0x246>
 8004cb4:	ed83 7a00 	vstr	s14, [r3]
 8004cb8:	ed9f 7a5e 	vldr	s14, [pc, #376]	; 8004e34 <controlTask+0x2ec>
 8004cbc:	f242 7210 	movw	r2, #10000	; 0x2710
 8004cc0:	4b5d      	ldr	r3, [pc, #372]	; (8004e38 <controlTask+0x2f0>)
 8004cc2:	484b      	ldr	r0, [pc, #300]	; (8004df0 <controlTask+0x2a8>)
 8004cc4:	ed83 7a00 	vstr	s14, [r3]
 8004cc8:	2100      	movs	r1, #0
 8004cca:	f7fc fe49 	bl	8001960 <PWM_CCU8_SetDutyCycleSymmetric>
 8004cce:	4b5a      	ldr	r3, [pc, #360]	; (8004e38 <controlTask+0x2f0>)
 8004cd0:	f8d9 e000 	ldr.w	lr, [r9]
 8004cd4:	6832      	ldr	r2, [r6, #0]
 8004cd6:	681b      	ldr	r3, [r3, #0]
 8004cd8:	f8cd e030 	str.w	lr, [sp, #48]	; 0x30
 8004cdc:	930d      	str	r3, [sp, #52]	; 0x34
 8004cde:	920b      	str	r2, [sp, #44]	; 0x2c
 8004ce0:	ab0b      	add	r3, sp, #44	; 0x2c
 8004ce2:	4d56      	ldr	r5, [pc, #344]	; (8004e3c <controlTask+0x2f4>)
 8004ce4:	f8c7 e000 	str.w	lr, [r7]
 8004ce8:	e893 0007 	ldmia.w	r3, {r0, r1, r2}
 8004cec:	f8da 3000 	ldr.w	r3, [sl]
 8004cf0:	602b      	str	r3, [r5, #0]
 8004cf2:	f7ff fe71 	bl	80049d8 <setMotorData>
 8004cf6:	9a04      	ldr	r2, [sp, #16]
 8004cf8:	9b06      	ldr	r3, [sp, #24]
 8004cfa:	6053      	str	r3, [r2, #4]
 8004cfc:	4850      	ldr	r0, [pc, #320]	; (8004e40 <controlTask+0x2f8>)
 8004cfe:	2105      	movs	r1, #5
 8004d00:	f7fe f968 	bl	8002fd4 <vTaskDelayUntil>
 8004d04:	9a04      	ldr	r2, [sp, #16]
 8004d06:	9b05      	ldr	r3, [sp, #20]
 8004d08:	6053      	str	r3, [r2, #4]
 8004d0a:	a808      	add	r0, sp, #32
 8004d0c:	f7ff fe9c 	bl	8004a48 <getControlParams>
 8004d10:	ed9d 8a0a 	vldr	s16, [sp, #40]	; 0x28
 8004d14:	f7fe ff54 	bl	8003bc0 <getEncoderValue>
 8004d18:	4b48      	ldr	r3, [pc, #288]	; (8004e3c <controlTask+0x2f4>)
 8004d1a:	f8ca 0000 	str.w	r0, [sl]
 8004d1e:	681a      	ldr	r2, [r3, #0]
 8004d20:	4b48      	ldr	r3, [pc, #288]	; (8004e44 <controlTask+0x2fc>)
 8004d22:	429a      	cmp	r2, r3
 8004d24:	f63f af56 	bhi.w	8004bd4 <controlTask+0x8c>
 8004d28:	4939      	ldr	r1, [pc, #228]	; (8004e10 <controlTask+0x2c8>)
 8004d2a:	428a      	cmp	r2, r1
 8004d2c:	d811      	bhi.n	8004d52 <controlTask+0x20a>
 8004d2e:	4298      	cmp	r0, r3
 8004d30:	d90f      	bls.n	8004d52 <controlTask+0x20a>
 8004d32:	f04f 34ff 	mov.w	r4, #4294967295
 8004d36:	1a24      	subs	r4, r4, r0
 8004d38:	f04f 0500 	mov.w	r5, #0
 8004d3c:	f165 0500 	sbc.w	r5, r5, #0
 8004d40:	18a0      	adds	r0, r4, r2
 8004d42:	f145 0100 	adc.w	r1, r5, #0
 8004d46:	4b33      	ldr	r3, [pc, #204]	; (8004e14 <controlTask+0x2cc>)
 8004d48:	43c4      	mvns	r4, r0
 8004d4a:	43cd      	mvns	r5, r1
 8004d4c:	e9c3 4500 	strd	r4, r5, [r3]
 8004d50:	e754      	b.n	8004bfc <controlTask+0xb4>
 8004d52:	1a84      	subs	r4, r0, r2
 8004d54:	4b2f      	ldr	r3, [pc, #188]	; (8004e14 <controlTask+0x2cc>)
 8004d56:	eb60 0500 	sbc.w	r5, r0, r0
 8004d5a:	e9c3 4500 	strd	r4, r5, [r3]
 8004d5e:	e74d      	b.n	8004bfc <controlTask+0xb4>
 8004d60:	9302      	str	r3, [sp, #8]
 8004d62:	4b2f      	ldr	r3, [pc, #188]	; (8004e20 <controlTask+0x2d8>)
 8004d64:	f8cd c01c 	str.w	ip, [sp, #28]
 8004d68:	ed93 8a00 	vldr	s16, [r3]
 8004d6c:	ee28 8a28 	vmul.f32	s16, s16, s17
 8004d70:	ab08      	add	r3, sp, #32
 8004d72:	ed8d 8a0a 	vstr	s16, [sp, #40]	; 0x28
 8004d76:	e893 0007 	ldmia.w	r3, {r0, r1, r2}
 8004d7a:	f7ff fe51 	bl	8004a20 <setControlParams>
 8004d7e:	f8dd c01c 	ldr.w	ip, [sp, #28]
 8004d82:	9b02      	ldr	r3, [sp, #8]
 8004d84:	f8dc 2000 	ldr.w	r2, [ip]
 8004d88:	edd3 7a00 	vldr	s15, [r3]
 8004d8c:	e755      	b.n	8004c3a <controlTask+0xf2>
 8004d8e:	eeff 6a00 	vmov.f32	s13, #240	; 0xf0
 8004d92:	eef4 7ae6 	vcmpe.f32	s15, s13
 8004d96:	eef1 fa10 	vmrs	APSR_nzcv, fpscr
 8004d9a:	d41e      	bmi.n	8004dda <controlTask+0x292>
 8004d9c:	eeb6 7a00 	vmov.f32	s14, #96	; 0x60
 8004da0:	ee27 7a87 	vmul.f32	s14, s15, s14
 8004da4:	edc3 7a00 	vstr	s15, [r3]
 8004da8:	ee17 0a10 	vmov	r0, s14
 8004dac:	f008 fa60 	bl	800d270 <__aeabi_f2d>
 8004db0:	2200      	movs	r2, #0
 8004db2:	4b25      	ldr	r3, [pc, #148]	; (8004e48 <controlTask+0x300>)
 8004db4:	f008 f8fe 	bl	800cfb4 <__adddf3>
 8004db8:	2200      	movs	r2, #0
 8004dba:	4b24      	ldr	r3, [pc, #144]	; (8004e4c <controlTask+0x304>)
 8004dbc:	f008 faac 	bl	800d318 <__aeabi_dmul>
 8004dc0:	f008 fcbc 	bl	800d73c <__aeabi_d2f>
 8004dc4:	eddf 7a1b 	vldr	s15, [pc, #108]	; 8004e34 <controlTask+0x2ec>
 8004dc8:	ee07 0a10 	vmov	s14, r0
 8004dcc:	ee67 7a27 	vmul.f32	s15, s14, s15
 8004dd0:	eefc 7ae7 	vcvt.u32.f32	s15, s15
 8004dd4:	ee17 2a90 	vmov	r2, s15
 8004dd8:	e772      	b.n	8004cc0 <controlTask+0x178>
 8004dda:	ed9f 7a1d 	vldr	s14, [pc, #116]	; 8004e50 <controlTask+0x308>
 8004dde:	edc3 6a00 	vstr	s13, [r3]
 8004de2:	2200      	movs	r2, #0
 8004de4:	e76c      	b.n	8004cc0 <controlTask+0x178>
 8004de6:	bf00      	nop
 8004de8:	0800e564 	.word	0x0800e564
 8004dec:	0800e5a0 	.word	0x0800e5a0
 8004df0:	1ffe8890 	.word	0x1ffe8890
 8004df4:	1ffe9bfc 	.word	0x1ffe9bfc
 8004df8:	1ffe9c1c 	.word	0x1ffe9c1c
 8004dfc:	43480000 	.word	0x43480000
 8004e00:	459c4000 	.word	0x459c4000
 8004e04:	42700000 	.word	0x42700000
 8004e08:	43870000 	.word	0x43870000
 8004e0c:	0800e528 	.word	0x0800e528
 8004e10:	3ffffffe 	.word	0x3ffffffe
 8004e14:	1ffe9c08 	.word	0x1ffe9c08
 8004e18:	1ffe9bf8 	.word	0x1ffe9bf8
 8004e1c:	1ffe9c30 	.word	0x1ffe9c30
 8004e20:	1ffe9c04 	.word	0x1ffe9c04
 8004e24:	1ffe9bf0 	.word	0x1ffe9bf0
 8004e28:	1ffe9c34 	.word	0x1ffe9c34
 8004e2c:	1ffe9c20 	.word	0x1ffe9c20
 8004e30:	1ffe9c00 	.word	0x1ffe9c00
 8004e34:	42c80000 	.word	0x42c80000
 8004e38:	1ffe9c18 	.word	0x1ffe9c18
 8004e3c:	1ffe9bec 	.word	0x1ffe9bec
 8004e40:	1ffe9c38 	.word	0x1ffe9c38
 8004e44:	bffffffd 	.word	0xbffffffd
 8004e48:	3fe00000 	.word	0x3fe00000
 8004e4c:	40590000 	.word	0x40590000
 8004e50:	00000000 	.word	0x00000000
 8004e54:	1ffe9c14 	.word	0x1ffe9c14
 8004e58:	1ffe9bf4 	.word	0x1ffe9bf4

08004e5c <startTasks>:
 8004e5c:	b570      	push	{r4, r5, r6, lr}
 8004e5e:	4d0c      	ldr	r5, [pc, #48]	; (8004e90 <startTasks+0x34>)
 8004e60:	4e0c      	ldr	r6, [pc, #48]	; (8004e94 <startTasks+0x38>)
 8004e62:	682b      	ldr	r3, [r5, #0]
 8004e64:	4c0c      	ldr	r4, [pc, #48]	; (8004e98 <startTasks+0x3c>)
 8004e66:	8832      	ldrh	r2, [r6, #0]
 8004e68:	490c      	ldr	r1, [pc, #48]	; (8004e9c <startTasks+0x40>)
 8004e6a:	480d      	ldr	r0, [pc, #52]	; (8004ea0 <startTasks+0x44>)
 8004e6c:	b082      	sub	sp, #8
 8004e6e:	e88d 0018 	stmia.w	sp, {r3, r4}
 8004e72:	2300      	movs	r3, #0
 8004e74:	f7fd fe0c 	bl	8002a90 <xTaskCreate>
 8004e78:	3404      	adds	r4, #4
 8004e7a:	686b      	ldr	r3, [r5, #4]
 8004e7c:	9300      	str	r3, [sp, #0]
 8004e7e:	8872      	ldrh	r2, [r6, #2]
 8004e80:	9401      	str	r4, [sp, #4]
 8004e82:	4908      	ldr	r1, [pc, #32]	; (8004ea4 <startTasks+0x48>)
 8004e84:	4808      	ldr	r0, [pc, #32]	; (8004ea8 <startTasks+0x4c>)
 8004e86:	2300      	movs	r3, #0
 8004e88:	f7fd fe02 	bl	8002a90 <xTaskCreate>
 8004e8c:	b002      	add	sp, #8
 8004e8e:	bd70      	pop	{r4, r5, r6, pc}
 8004e90:	1ffe892c 	.word	0x1ffe892c
 8004e94:	1ffe8934 	.word	0x1ffe8934
 8004e98:	1ffe9cd4 	.word	0x1ffe9cd4
 8004e9c:	0800e5ec 	.word	0x0800e5ec
 8004ea0:	08004b49 	.word	0x08004b49
 8004ea4:	0800e5fc 	.word	0x0800e5fc
 8004ea8:	08004a69 	.word	0x08004a69

08004eac <main>:
 8004eac:	b508      	push	{r3, lr}
 8004eae:	f7fe fdf7 	bl	8003aa0 <DAVE_Init>
 8004eb2:	b100      	cbz	r0, 8004eb6 <main+0xa>
 8004eb4:	e7fe      	b.n	8004eb4 <main+0x8>
 8004eb6:	f7ff ffd1 	bl	8004e5c <startTasks>
 8004eba:	f7fd ff23 	bl	8002d04 <vTaskStartScheduler>
 8004ebe:	e7fe      	b.n	8004ebe <main+0x12>

08004ec0 <_SetPhysRAMAddr>:
 8004ec0:	b5f8      	push	{r3, r4, r5, r6, r7, lr}
 8004ec2:	6b43      	ldr	r3, [r0, #52]	; 0x34
 8004ec4:	4604      	mov	r4, r0
 8004ec6:	460e      	mov	r6, r1
 8004ec8:	4615      	mov	r5, r2
 8004eca:	b9e3      	cbnz	r3, 8004f06 <_SetPhysRAMAddr+0x46>
 8004ecc:	f8d0 208c 	ldr.w	r2, [r0, #140]	; 0x8c
 8004ed0:	2120      	movs	r1, #32
 8004ed2:	4790      	blx	r2
 8004ed4:	6ae1      	ldr	r1, [r4, #44]	; 0x2c
 8004ed6:	f8d4 3090 	ldr.w	r3, [r4, #144]	; 0x90
 8004eda:	1872      	adds	r2, r6, r1
 8004edc:	b291      	uxth	r1, r2
 8004ede:	4620      	mov	r0, r4
 8004ee0:	4798      	blx	r3
 8004ee2:	4620      	mov	r0, r4
 8004ee4:	2121      	movs	r1, #33	; 0x21
 8004ee6:	f8d4 308c 	ldr.w	r3, [r4, #140]	; 0x8c
 8004eea:	4798      	blx	r3
 8004eec:	6b20      	ldr	r0, [r4, #48]	; 0x30
 8004eee:	f8d4 3090 	ldr.w	r3, [r4, #144]	; 0x90
 8004ef2:	1829      	adds	r1, r5, r0
 8004ef4:	4620      	mov	r0, r4
 8004ef6:	b289      	uxth	r1, r1
 8004ef8:	4798      	blx	r3
 8004efa:	f8d4 308c 	ldr.w	r3, [r4, #140]	; 0x8c
 8004efe:	4620      	mov	r0, r4
 8004f00:	2122      	movs	r1, #34	; 0x22
 8004f02:	4798      	blx	r3
 8004f04:	bdf8      	pop	{r3, r4, r5, r6, r7, pc}
 8004f06:	f8d0 7100 	ldr.w	r7, [r0, #256]	; 0x100
 8004f0a:	47b8      	blx	r7
 8004f0c:	462a      	mov	r2, r5
 8004f0e:	4631      	mov	r1, r6
 8004f10:	4607      	mov	r7, r0
 8004f12:	f8d4 5104 	ldr.w	r5, [r4, #260]	; 0x104
 8004f16:	4620      	mov	r0, r4
 8004f18:	47a8      	blx	r5
 8004f1a:	f8d4 208c 	ldr.w	r2, [r4, #140]	; 0x8c
 8004f1e:	4606      	mov	r6, r0
 8004f20:	2120      	movs	r1, #32
 8004f22:	4620      	mov	r0, r4
 8004f24:	4790      	blx	r2
 8004f26:	6ae5      	ldr	r5, [r4, #44]	; 0x2c
 8004f28:	f8d4 3090 	ldr.w	r3, [r4, #144]	; 0x90
 8004f2c:	1979      	adds	r1, r7, r5
 8004f2e:	4620      	mov	r0, r4
 8004f30:	b289      	uxth	r1, r1
 8004f32:	4798      	blx	r3
 8004f34:	4620      	mov	r0, r4
 8004f36:	2121      	movs	r1, #33	; 0x21
 8004f38:	f8d4 208c 	ldr.w	r2, [r4, #140]	; 0x8c
 8004f3c:	4790      	blx	r2
 8004f3e:	6b20      	ldr	r0, [r4, #48]	; 0x30
 8004f40:	f8d4 3090 	ldr.w	r3, [r4, #144]	; 0x90
 8004f44:	1831      	adds	r1, r6, r0
 8004f46:	e7d5      	b.n	8004ef4 <_SetPhysRAMAddr+0x34>

08004f48 <_SetRect>:
 8004f48:	e92d 47f0 	stmdb	sp!, {r4, r5, r6, r7, r8, r9, sl, lr}
 8004f4c:	6b47      	ldr	r7, [r0, #52]	; 0x34
 8004f4e:	9e08      	ldr	r6, [sp, #32]
 8004f50:	4604      	mov	r4, r0
 8004f52:	4688      	mov	r8, r1
 8004f54:	4691      	mov	r9, r2
 8004f56:	461d      	mov	r5, r3
 8004f58:	2f00      	cmp	r7, #0
 8004f5a:	d075      	beq.n	8005048 <_SetRect+0x100>
 8004f5c:	f8d0 7100 	ldr.w	r7, [r0, #256]	; 0x100
 8004f60:	47b8      	blx	r7
 8004f62:	4632      	mov	r2, r6
 8004f64:	4607      	mov	r7, r0
 8004f66:	4629      	mov	r1, r5
 8004f68:	f8d4 3100 	ldr.w	r3, [r4, #256]	; 0x100
 8004f6c:	4620      	mov	r0, r4
 8004f6e:	4798      	blx	r3
 8004f70:	464a      	mov	r2, r9
 8004f72:	4682      	mov	sl, r0
 8004f74:	4641      	mov	r1, r8
 8004f76:	f8d4 3104 	ldr.w	r3, [r4, #260]	; 0x104
 8004f7a:	4620      	mov	r0, r4
 8004f7c:	4798      	blx	r3
 8004f7e:	4632      	mov	r2, r6
 8004f80:	4680      	mov	r8, r0
 8004f82:	f8d4 3104 	ldr.w	r3, [r4, #260]	; 0x104
 8004f86:	4629      	mov	r1, r5
 8004f88:	4620      	mov	r0, r4
 8004f8a:	4798      	blx	r3
 8004f8c:	4557      	cmp	r7, sl
 8004f8e:	bfca      	itet	gt
 8004f90:	4656      	movgt	r6, sl
 8004f92:	463e      	movle	r6, r7
 8004f94:	46ba      	movgt	sl, r7
 8004f96:	4580      	cmp	r8, r0
 8004f98:	bfcc      	ite	gt
 8004f9a:	4681      	movgt	r9, r0
 8004f9c:	46c1      	movle	r9, r8
 8004f9e:	4605      	mov	r5, r0
 8004fa0:	f8d4 208c 	ldr.w	r2, [r4, #140]	; 0x8c
 8004fa4:	bfc8      	it	gt
 8004fa6:	4645      	movgt	r5, r8
 8004fa8:	4620      	mov	r0, r4
 8004faa:	2119      	movs	r1, #25
 8004fac:	4790      	blx	r2
 8004fae:	6b20      	ldr	r0, [r4, #48]	; 0x30
 8004fb0:	f8d4 3090 	ldr.w	r3, [r4, #144]	; 0x90
 8004fb4:	eb09 0100 	add.w	r1, r9, r0
 8004fb8:	b289      	uxth	r1, r1
 8004fba:	4620      	mov	r0, r4
 8004fbc:	4798      	blx	r3
 8004fbe:	f8d4 208c 	ldr.w	r2, [r4, #140]	; 0x8c
 8004fc2:	4620      	mov	r0, r4
 8004fc4:	211a      	movs	r1, #26
 8004fc6:	4790      	blx	r2
 8004fc8:	6b20      	ldr	r0, [r4, #48]	; 0x30
 8004fca:	f8d4 3090 	ldr.w	r3, [r4, #144]	; 0x90
 8004fce:	1829      	adds	r1, r5, r0
 8004fd0:	b289      	uxth	r1, r1
 8004fd2:	4620      	mov	r0, r4
 8004fd4:	4798      	blx	r3
 8004fd6:	f8d4 208c 	ldr.w	r2, [r4, #140]	; 0x8c
 8004fda:	4620      	mov	r0, r4
 8004fdc:	2117      	movs	r1, #23
 8004fde:	4790      	blx	r2
 8004fe0:	6ae0      	ldr	r0, [r4, #44]	; 0x2c
 8004fe2:	f8d4 3090 	ldr.w	r3, [r4, #144]	; 0x90
 8004fe6:	1831      	adds	r1, r6, r0
 8004fe8:	b289      	uxth	r1, r1
 8004fea:	4620      	mov	r0, r4
 8004fec:	4798      	blx	r3
 8004fee:	f8d4 208c 	ldr.w	r2, [r4, #140]	; 0x8c
 8004ff2:	4620      	mov	r0, r4
 8004ff4:	2118      	movs	r1, #24
 8004ff6:	4790      	blx	r2
 8004ff8:	6ae0      	ldr	r0, [r4, #44]	; 0x2c
 8004ffa:	f8d4 3090 	ldr.w	r3, [r4, #144]	; 0x90
 8004ffe:	eb0a 0100 	add.w	r1, sl, r0
 8005002:	b289      	uxth	r1, r1
 8005004:	4620      	mov	r0, r4
 8005006:	4798      	blx	r3
 8005008:	f8d4 208c 	ldr.w	r2, [r4, #140]	; 0x8c
 800500c:	4620      	mov	r0, r4
 800500e:	2120      	movs	r1, #32
 8005010:	4790      	blx	r2
 8005012:	6ae0      	ldr	r0, [r4, #44]	; 0x2c
 8005014:	f8d4 3090 	ldr.w	r3, [r4, #144]	; 0x90
 8005018:	1839      	adds	r1, r7, r0
 800501a:	b289      	uxth	r1, r1
 800501c:	4620      	mov	r0, r4
 800501e:	4798      	blx	r3
 8005020:	4620      	mov	r0, r4
 8005022:	2121      	movs	r1, #33	; 0x21
 8005024:	f8d4 208c 	ldr.w	r2, [r4, #140]	; 0x8c
 8005028:	4790      	blx	r2
 800502a:	6b20      	ldr	r0, [r4, #48]	; 0x30
 800502c:	f8d4 3090 	ldr.w	r3, [r4, #144]	; 0x90
 8005030:	eb08 0100 	add.w	r1, r8, r0
 8005034:	b289      	uxth	r1, r1
 8005036:	4620      	mov	r0, r4
 8005038:	4798      	blx	r3
 800503a:	f8d4 208c 	ldr.w	r2, [r4, #140]	; 0x8c
 800503e:	4620      	mov	r0, r4
 8005040:	2122      	movs	r1, #34	; 0x22
 8005042:	4790      	blx	r2
 8005044:	e8bd 87f0 	ldmia.w	sp!, {r4, r5, r6, r7, r8, r9, sl, pc}
 8005048:	2119      	movs	r1, #25
 800504a:	f8d0 308c 	ldr.w	r3, [r0, #140]	; 0x8c
 800504e:	4798      	blx	r3
 8005050:	6b21      	ldr	r1, [r4, #48]	; 0x30
 8005052:	f8d4 2090 	ldr.w	r2, [r4, #144]	; 0x90
 8005056:	fa1f f989 	uxth.w	r9, r9
 800505a:	eb09 0301 	add.w	r3, r9, r1
 800505e:	b299      	uxth	r1, r3
 8005060:	4620      	mov	r0, r4
 8005062:	4790      	blx	r2
 8005064:	f8d4 208c 	ldr.w	r2, [r4, #140]	; 0x8c
 8005068:	4620      	mov	r0, r4
 800506a:	211a      	movs	r1, #26
 800506c:	4790      	blx	r2
 800506e:	6b20      	ldr	r0, [r4, #48]	; 0x30
 8005070:	f8d4 3090 	ldr.w	r3, [r4, #144]	; 0x90
 8005074:	1831      	adds	r1, r6, r0
 8005076:	b289      	uxth	r1, r1
 8005078:	4620      	mov	r0, r4
 800507a:	4798      	blx	r3
 800507c:	f8d4 208c 	ldr.w	r2, [r4, #140]	; 0x8c
 8005080:	4620      	mov	r0, r4
 8005082:	2117      	movs	r1, #23
 8005084:	4790      	blx	r2
 8005086:	6ae0      	ldr	r0, [r4, #44]	; 0x2c
 8005088:	f8d4 3090 	ldr.w	r3, [r4, #144]	; 0x90
 800508c:	fa1f f888 	uxth.w	r8, r8
 8005090:	eb08 0100 	add.w	r1, r8, r0
 8005094:	b289      	uxth	r1, r1
 8005096:	4620      	mov	r0, r4
 8005098:	4798      	blx	r3
 800509a:	f8d4 208c 	ldr.w	r2, [r4, #140]	; 0x8c
 800509e:	4620      	mov	r0, r4
 80050a0:	2118      	movs	r1, #24
 80050a2:	4790      	blx	r2
 80050a4:	6ae0      	ldr	r0, [r4, #44]	; 0x2c
 80050a6:	f8d4 3090 	ldr.w	r3, [r4, #144]	; 0x90
 80050aa:	1829      	adds	r1, r5, r0
 80050ac:	b289      	uxth	r1, r1
 80050ae:	4620      	mov	r0, r4
 80050b0:	4798      	blx	r3
 80050b2:	f8d4 208c 	ldr.w	r2, [r4, #140]	; 0x8c
 80050b6:	4620      	mov	r0, r4
 80050b8:	2120      	movs	r1, #32
 80050ba:	4790      	blx	r2
 80050bc:	6ae0      	ldr	r0, [r4, #44]	; 0x2c
 80050be:	f8d4 3090 	ldr.w	r3, [r4, #144]	; 0x90
 80050c2:	eb08 0100 	add.w	r1, r8, r0
 80050c6:	b289      	uxth	r1, r1
 80050c8:	4620      	mov	r0, r4
 80050ca:	4798      	blx	r3
 80050cc:	4620      	mov	r0, r4
 80050ce:	2121      	movs	r1, #33	; 0x21
 80050d0:	f8d4 208c 	ldr.w	r2, [r4, #140]	; 0x8c
 80050d4:	4790      	blx	r2
 80050d6:	6b20      	ldr	r0, [r4, #48]	; 0x30
 80050d8:	f8d4 3090 	ldr.w	r3, [r4, #144]	; 0x90
 80050dc:	eb09 0100 	add.w	r1, r9, r0
 80050e0:	b289      	uxth	r1, r1
 80050e2:	4620      	mov	r0, r4
 80050e4:	4798      	blx	r3
 80050e6:	e7a8      	b.n	800503a <_SetRect+0xf2>

080050e8 <_SetOrientation>:
 80050e8:	b530      	push	{r4, r5, lr}
 80050ea:	f64f 0324 	movw	r3, #63524	; 0xf824
 80050ee:	f6c0 0300 	movt	r3, #2048	; 0x800
 80050f2:	4604      	mov	r4, r0
 80050f4:	b083      	sub	sp, #12
 80050f6:	6859      	ldr	r1, [r3, #4]
 80050f8:	6818      	ldr	r0, [r3, #0]
 80050fa:	f8d4 208c 	ldr.w	r2, [r4, #140]	; 0x8c
 80050fe:	466d      	mov	r5, sp
 8005100:	c503      	stmia	r5!, {r0, r1}
 8005102:	4620      	mov	r0, r4
 8005104:	2116      	movs	r1, #22
 8005106:	4790      	blx	r2
 8005108:	6b60      	ldr	r0, [r4, #52]	; 0x34
 800510a:	8ca3      	ldrh	r3, [r4, #36]	; 0x24
 800510c:	f8d4 5090 	ldr.w	r5, [r4, #144]	; 0x90
 8005110:	a902      	add	r1, sp, #8
 8005112:	180a      	adds	r2, r1, r0
 8005114:	f023 0007 	bic.w	r0, r3, #7
 8005118:	0403      	lsls	r3, r0, #16
 800511a:	f812 1c08 	ldrb.w	r1, [r2, #-8]
 800511e:	0c1a      	lsrs	r2, r3, #16
 8005120:	4620      	mov	r0, r4
 8005122:	4311      	orrs	r1, r2
 8005124:	47a8      	blx	r5
 8005126:	b003      	add	sp, #12
 8005128:	bd30      	pop	{r4, r5, pc}
 800512a:	bf00      	nop

0800512c <_ReadPixel_16bpp_B8>:
 800512c:	b510      	push	{r4, lr}
 800512e:	6a01      	ldr	r1, [r0, #32]
 8005130:	f8d0 3128 	ldr.w	r3, [r0, #296]	; 0x128
 8005134:	b082      	sub	sp, #8
 8005136:	4604      	mov	r4, r0
 8005138:	3102      	adds	r1, #2
 800513a:	4668      	mov	r0, sp
 800513c:	4798      	blx	r3
 800513e:	6a23      	ldr	r3, [r4, #32]
 8005140:	6aa2      	ldr	r2, [r4, #40]	; 0x28
 8005142:	f81d 0003 	ldrb.w	r0, [sp, r3]
 8005146:	a900      	add	r1, sp, #0
 8005148:	18cb      	adds	r3, r1, r3
 800514a:	7859      	ldrb	r1, [r3, #1]
 800514c:	ea41 2000 	orr.w	r0, r1, r0, lsl #8
 8005150:	4010      	ands	r0, r2
 8005152:	b002      	add	sp, #8
 8005154:	bd10      	pop	{r4, pc}
 8005156:	bf00      	nop

08005158 <_ReadPixel_18bpp_B9>:
 8005158:	b510      	push	{r4, lr}
 800515a:	6a01      	ldr	r1, [r0, #32]
 800515c:	f8d0 3148 	ldr.w	r3, [r0, #328]	; 0x148
 8005160:	b084      	sub	sp, #16
 8005162:	4604      	mov	r4, r0
 8005164:	3102      	adds	r1, #2
 8005166:	4668      	mov	r0, sp
 8005168:	4798      	blx	r3
 800516a:	6a23      	ldr	r3, [r4, #32]
 800516c:	6aa2      	ldr	r2, [r4, #40]	; 0x28
 800516e:	f83d 0013 	ldrh.w	r0, [sp, r3, lsl #1]
 8005172:	a900      	add	r1, sp, #0
 8005174:	eb01 0343 	add.w	r3, r1, r3, lsl #1
 8005178:	8859      	ldrh	r1, [r3, #2]
 800517a:	ea41 4000 	orr.w	r0, r1, r0, lsl #16
 800517e:	4010      	ands	r0, r2
 8005180:	b004      	add	sp, #16
 8005182:	bd10      	pop	{r4, pc}

08005184 <_ReadPixel_16bpp_B16>:
 8005184:	b510      	push	{r4, lr}
 8005186:	4604      	mov	r4, r0
 8005188:	b084      	sub	sp, #16
 800518a:	6a21      	ldr	r1, [r4, #32]
 800518c:	f8d4 3148 	ldr.w	r3, [r4, #328]	; 0x148
 8005190:	a801      	add	r0, sp, #4
 8005192:	3101      	adds	r1, #1
 8005194:	4798      	blx	r3
 8005196:	6a20      	ldr	r0, [r4, #32]
 8005198:	aa04      	add	r2, sp, #16
 800519a:	eb02 0140 	add.w	r1, r2, r0, lsl #1
 800519e:	f831 0c0c 	ldrh.w	r0, [r1, #-12]
 80051a2:	b004      	add	sp, #16
 80051a4:	bd10      	pop	{r4, pc}
 80051a6:	bf00      	nop

080051a8 <_SetReg_B8>:
 80051a8:	b538      	push	{r3, r4, r5, lr}
 80051aa:	4604      	mov	r4, r0
 80051ac:	460d      	mov	r5, r1
 80051ae:	0a08      	lsrs	r0, r1, #8
 80051b0:	f8d4 310c 	ldr.w	r3, [r4, #268]	; 0x10c
 80051b4:	4798      	blx	r3
 80051b6:	f8d4 110c 	ldr.w	r1, [r4, #268]	; 0x10c
 80051ba:	b2e8      	uxtb	r0, r5
 80051bc:	4788      	blx	r1
 80051be:	bd38      	pop	{r3, r4, r5, pc}

080051c0 <_SetReg_B9>:
 80051c0:	b538      	push	{r3, r4, r5, lr}
 80051c2:	4604      	mov	r4, r0
 80051c4:	0a08      	lsrs	r0, r1, #8
 80051c6:	460d      	mov	r5, r1
 80051c8:	0040      	lsls	r0, r0, #1
 80051ca:	f8d4 312c 	ldr.w	r3, [r4, #300]	; 0x12c
 80051ce:	4798      	blx	r3
 80051d0:	b2e9      	uxtb	r1, r5
 80051d2:	f8d4 212c 	ldr.w	r2, [r4, #300]	; 0x12c
 80051d6:	0048      	lsls	r0, r1, #1
 80051d8:	4790      	blx	r2
 80051da:	bd38      	pop	{r3, r4, r5, pc}

080051dc <_SetReg_B16>:
 80051dc:	b508      	push	{r3, lr}
 80051de:	f8d0 312c 	ldr.w	r3, [r0, #300]	; 0x12c
 80051e2:	4608      	mov	r0, r1
 80051e4:	4798      	blx	r3
 80051e6:	bd08      	pop	{r3, pc}

080051e8 <_WritePara_B8>:
 80051e8:	b538      	push	{r3, r4, r5, lr}
 80051ea:	4604      	mov	r4, r0
 80051ec:	460d      	mov	r5, r1
 80051ee:	0a08      	lsrs	r0, r1, #8
 80051f0:	f8d4 3110 	ldr.w	r3, [r4, #272]	; 0x110
 80051f4:	4798      	blx	r3
 80051f6:	f8d4 1110 	ldr.w	r1, [r4, #272]	; 0x110
 80051fa:	b2e8      	uxtb	r0, r5
 80051fc:	4788      	blx	r1
 80051fe:	bd38      	pop	{r3, r4, r5, pc}

08005200 <_WritePara_B9>:
 8005200:	b538      	push	{r3, r4, r5, lr}
 8005202:	4604      	mov	r4, r0
 8005204:	0a08      	lsrs	r0, r1, #8
 8005206:	460d      	mov	r5, r1
 8005208:	0040      	lsls	r0, r0, #1
 800520a:	f8d4 3130 	ldr.w	r3, [r4, #304]	; 0x130
 800520e:	4798      	blx	r3
 8005210:	b2e9      	uxtb	r1, r5
 8005212:	f8d4 2130 	ldr.w	r2, [r4, #304]	; 0x130
 8005216:	0048      	lsls	r0, r1, #1
 8005218:	4790      	blx	r2
 800521a:	bd38      	pop	{r3, r4, r5, pc}

0800521c <_WritePara_B16>:
 800521c:	b508      	push	{r3, lr}
 800521e:	f8d0 3130 	ldr.w	r3, [r0, #304]	; 0x130
 8005222:	4608      	mov	r0, r1
 8005224:	4798      	blx	r3
 8005226:	bd08      	pop	{r3, pc}

08005228 <_SetInterface>:
 8005228:	2909      	cmp	r1, #9
 800522a:	d012      	beq.n	8005252 <_SetInterface+0x2a>
 800522c:	2910      	cmp	r1, #16
 800522e:	d009      	beq.n	8005244 <_SetInterface+0x1c>
 8005230:	2908      	cmp	r1, #8
 8005232:	d000      	beq.n	8005236 <_SetInterface+0xe>
 8005234:	4770      	bx	lr
 8005236:	4b0a      	ldr	r3, [pc, #40]	; (8005260 <_SetInterface+0x38>)
 8005238:	490a      	ldr	r1, [pc, #40]	; (8005264 <_SetInterface+0x3c>)
 800523a:	f8c0 308c 	str.w	r3, [r0, #140]	; 0x8c
 800523e:	f8c0 1090 	str.w	r1, [r0, #144]	; 0x90
 8005242:	4770      	bx	lr
 8005244:	4a08      	ldr	r2, [pc, #32]	; (8005268 <_SetInterface+0x40>)
 8005246:	4b09      	ldr	r3, [pc, #36]	; (800526c <_SetInterface+0x44>)
 8005248:	f8c0 208c 	str.w	r2, [r0, #140]	; 0x8c
 800524c:	f8c0 3090 	str.w	r3, [r0, #144]	; 0x90
 8005250:	4770      	bx	lr
 8005252:	4907      	ldr	r1, [pc, #28]	; (8005270 <_SetInterface+0x48>)
 8005254:	4a07      	ldr	r2, [pc, #28]	; (8005274 <_SetInterface+0x4c>)
 8005256:	f8c0 108c 	str.w	r1, [r0, #140]	; 0x8c
 800525a:	f8c0 2090 	str.w	r2, [r0, #144]	; 0x90
 800525e:	4770      	bx	lr
 8005260:	080051a9 	.word	0x080051a9
 8005264:	080051e9 	.word	0x080051e9
 8005268:	080051dd 	.word	0x080051dd
 800526c:	0800521d 	.word	0x0800521d
 8005270:	080051c1 	.word	0x080051c1
 8005274:	08005201 	.word	0x08005201

08005278 <GUIDRV_FlexColor_SetFunc66718>:
 8005278:	b510      	push	{r4, lr}
 800527a:	4604      	mov	r4, r0
 800527c:	f001 fd62 	bl	8006d44 <GUIDRV_FlexColor__InitOnce>
 8005280:	68a3      	ldr	r3, [r4, #8]
 8005282:	8cda      	ldrh	r2, [r3, #38]	; 0x26
 8005284:	f644 61c1 	movw	r1, #20161	; 0x4ec1
 8005288:	f022 0003 	bic.w	r0, r2, #3
 800528c:	f644 7249 	movw	r2, #20297	; 0x4f49
 8005290:	f6c0 0100 	movt	r1, #2048	; 0x800
 8005294:	f6c0 0200 	movt	r2, #2048	; 0x800
 8005298:	f8c3 10ac 	str.w	r1, [r3, #172]	; 0xac
 800529c:	f8c3 20a8 	str.w	r2, [r3, #168]	; 0xa8
 80052a0:	f245 01e9 	movw	r1, #20713	; 0x50e9
 80052a4:	f245 122d 	movw	r2, #20781	; 0x512d
 80052a8:	f6c0 0100 	movt	r1, #2048	; 0x800
 80052ac:	f6c0 0200 	movt	r2, #2048	; 0x800
 80052b0:	f8c3 10b0 	str.w	r1, [r3, #176]	; 0xb0
 80052b4:	f8c3 20b8 	str.w	r2, [r3, #184]	; 0xb8
 80052b8:	f245 1159 	movw	r1, #20825	; 0x5159
 80052bc:	f245 1285 	movw	r2, #20869	; 0x5185
 80052c0:	84d8      	strh	r0, [r3, #38]	; 0x26
 80052c2:	f245 2029 	movw	r0, #21033	; 0x5229
 80052c6:	f6c0 0100 	movt	r1, #2048	; 0x800
 80052ca:	f6c0 0200 	movt	r2, #2048	; 0x800
 80052ce:	f6c0 0000 	movt	r0, #2048	; 0x800
 80052d2:	f8c3 10bc 	str.w	r1, [r3, #188]	; 0xbc
 80052d6:	f8c3 20b4 	str.w	r2, [r3, #180]	; 0xb4
 80052da:	f8c3 0094 	str.w	r0, [r3, #148]	; 0x94
 80052de:	bd10      	pop	{r4, pc}

080052e0 <_ReadData>:
 80052e0:	b508      	push	{r3, lr}
 80052e2:	f8d0 30b8 	ldr.w	r3, [r0, #184]	; 0xb8
 80052e6:	4798      	blx	r3
 80052e8:	bd08      	pop	{r3, pc}
 80052ea:	bf00      	nop

080052ec <_WriteData>:
 80052ec:	b508      	push	{r3, lr}
 80052ee:	f3c1 2307 	ubfx	r3, r1, #8, #8
 80052f2:	f880 3071 	strb.w	r3, [r0, #113]	; 0x71
 80052f6:	f880 1072 	strb.w	r1, [r0, #114]	; 0x72
 80052fa:	f8d0 2118 	ldr.w	r2, [r0, #280]	; 0x118
 80052fe:	2102      	movs	r1, #2
 8005300:	3071      	adds	r0, #113	; 0x71
 8005302:	4790      	blx	r2
 8005304:	bd08      	pop	{r3, pc}
 8005306:	bf00      	nop

08005308 <_FillRect>:
 8005308:	e92d 4ff0 	stmdb	sp!, {r4, r5, r6, r7, r8, r9, sl, fp, lr}
 800530c:	4db2      	ldr	r5, [pc, #712]	; (80055d8 <_FillRect+0x2d0>)
 800530e:	b089      	sub	sp, #36	; 0x24
 8005310:	682c      	ldr	r4, [r5, #0]
 8005312:	9007      	str	r0, [sp, #28]
 8005314:	7c20      	ldrb	r0, [r4, #16]
 8005316:	9e07      	ldr	r6, [sp, #28]
 8005318:	9105      	str	r1, [sp, #20]
 800531a:	07c0      	lsls	r0, r0, #31
 800531c:	68b4      	ldr	r4, [r6, #8]
 800531e:	4616      	mov	r6, r2
 8005320:	f140 815c 	bpl.w	80055dc <_FillRect+0x2d4>
 8005324:	9812      	ldr	r0, [sp, #72]	; 0x48
 8005326:	4282      	cmp	r2, r0
 8005328:	f300 810b 	bgt.w	8005542 <_FillRect+0x23a>
 800532c:	1a5f      	subs	r7, r3, r1
 800532e:	f107 0b01 	add.w	fp, r7, #1
 8005332:	465d      	mov	r5, fp
 8005334:	4689      	mov	r9, r1
 8005336:	4617      	mov	r7, r2
 8005338:	469b      	mov	fp, r3
 800533a:	f8d4 60c8 	ldr.w	r6, [r4, #200]	; 0xc8
 800533e:	f8d4 806c 	ldr.w	r8, [r4, #108]	; 0x6c
 8005342:	2e00      	cmp	r6, #0
 8005344:	f000 8109 	beq.w	800555a <_FillRect+0x252>
 8005348:	e88d 0180 	stmia.w	sp, {r7, r8}
 800534c:	9807      	ldr	r0, [sp, #28]
 800534e:	9905      	ldr	r1, [sp, #20]
 8005350:	463a      	mov	r2, r7
 8005352:	465b      	mov	r3, fp
 8005354:	47b0      	blx	r6
 8005356:	2d00      	cmp	r5, #0
 8005358:	f000 80ad 	beq.w	80054b6 <_FillRect+0x1ae>
 800535c:	f3c8 0140 	ubfx	r1, r8, #1, #1
 8005360:	42a9      	cmp	r1, r5
 8005362:	bf28      	it	cs
 8005364:	4629      	movcs	r1, r5
 8005366:	2d01      	cmp	r5, #1
 8005368:	bf98      	it	ls
 800536a:	4629      	movls	r1, r5
 800536c:	8d23      	ldrh	r3, [r4, #40]	; 0x28
 800536e:	2900      	cmp	r1, #0
 8005370:	f000 81c7 	beq.w	8005702 <_FillRect+0x3fa>
 8005374:	4642      	mov	r2, r8
 8005376:	f04f 0c01 	mov.w	ip, #1
 800537a:	f832 0b02 	ldrh.w	r0, [r2], #2
 800537e:	4058      	eors	r0, r3
 8005380:	1e4e      	subs	r6, r1, #1
 8005382:	f822 0c02 	strh.w	r0, [r2, #-2]
 8005386:	1e68      	subs	r0, r5, #1
 8005388:	4561      	cmp	r1, ip
 800538a:	ea06 060c 	and.w	r6, r6, ip
 800538e:	4696      	mov	lr, r2
 8005390:	d91f      	bls.n	80053d2 <_FillRect+0xca>
 8005392:	b156      	cbz	r6, 80053aa <_FillRect+0xa2>
 8005394:	f832 6b02 	ldrh.w	r6, [r2], #2
 8005398:	f04f 0c02 	mov.w	ip, #2
 800539c:	405e      	eors	r6, r3
 800539e:	3801      	subs	r0, #1
 80053a0:	4561      	cmp	r1, ip
 80053a2:	f822 6c02 	strh.w	r6, [r2, #-2]
 80053a6:	4696      	mov	lr, r2
 80053a8:	d913      	bls.n	80053d2 <_FillRect+0xca>
 80053aa:	f8b2 e000 	ldrh.w	lr, [r2]
 80053ae:	4616      	mov	r6, r2
 80053b0:	ea8e 0e03 	eor.w	lr, lr, r3
 80053b4:	f826 eb02 	strh.w	lr, [r6], #2
 80053b8:	f8b2 e002 	ldrh.w	lr, [r2, #2]
 80053bc:	f10c 0c02 	add.w	ip, ip, #2
 80053c0:	1cb2      	adds	r2, r6, #2
 80053c2:	3802      	subs	r0, #2
 80053c4:	ea8e 0603 	eor.w	r6, lr, r3
 80053c8:	4561      	cmp	r1, ip
 80053ca:	f822 6c02 	strh.w	r6, [r2, #-2]
 80053ce:	4696      	mov	lr, r2
 80053d0:	d8eb      	bhi.n	80053aa <_FillRect+0xa2>
 80053d2:	428d      	cmp	r5, r1
 80053d4:	d06f      	beq.n	80054b6 <_FillRect+0x1ae>
 80053d6:	1a6a      	subs	r2, r5, r1
 80053d8:	ea4f 0c52 	mov.w	ip, r2, lsr #1
 80053dc:	ea4f 064c 	mov.w	r6, ip, lsl #1
 80053e0:	9206      	str	r2, [sp, #24]
 80053e2:	9604      	str	r6, [sp, #16]
 80053e4:	f1bc 0f00 	cmp.w	ip, #0
 80053e8:	d041      	beq.n	800546e <_FillRect+0x166>
 80053ea:	2600      	movs	r6, #0
 80053ec:	f858 2011 	ldr.w	r2, [r8, r1, lsl #1]
 80053f0:	f363 060f 	bfi	r6, r3, #0, #16
 80053f4:	f10c 3aff 	add.w	sl, ip, #4294967295
 80053f8:	f363 461f 	bfi	r6, r3, #16, #16
 80053fc:	f8cd a00c 	str.w	sl, [sp, #12]
 8005400:	4072      	eors	r2, r6
 8005402:	eb08 0a41 	add.w	sl, r8, r1, lsl #1
 8005406:	f04f 0901 	mov.w	r9, #1
 800540a:	f848 2011 	str.w	r2, [r8, r1, lsl #1]
 800540e:	9903      	ldr	r1, [sp, #12]
 8005410:	45e1      	cmp	r9, ip
 8005412:	ea01 0209 	and.w	r2, r1, r9
 8005416:	f10a 0104 	add.w	r1, sl, #4
 800541a:	d21f      	bcs.n	800545c <_FillRect+0x154>
 800541c:	b142      	cbz	r2, 8005430 <_FillRect+0x128>
 800541e:	680a      	ldr	r2, [r1, #0]
 8005420:	f04f 0902 	mov.w	r9, #2
 8005424:	4072      	eors	r2, r6
 8005426:	45e1      	cmp	r9, ip
 8005428:	468a      	mov	sl, r1
 800542a:	f841 2b04 	str.w	r2, [r1], #4
 800542e:	d215      	bcs.n	800545c <_FillRect+0x154>
 8005430:	9303      	str	r3, [sp, #12]
 8005432:	f8da 3004 	ldr.w	r3, [sl, #4]
 8005436:	460a      	mov	r2, r1
 8005438:	ea86 0803 	eor.w	r8, r6, r3
 800543c:	f842 8b04 	str.w	r8, [r2], #4
 8005440:	f8da 3008 	ldr.w	r3, [sl, #8]
 8005444:	f109 0902 	add.w	r9, r9, #2
 8005448:	ea86 0803 	eor.w	r8, r6, r3
 800544c:	f8c1 8004 	str.w	r8, [r1, #4]
 8005450:	1d11      	adds	r1, r2, #4
 8005452:	45e1      	cmp	r9, ip
 8005454:	f10a 0a08 	add.w	sl, sl, #8
 8005458:	d3eb      	bcc.n	8005432 <_FillRect+0x12a>
 800545a:	9b03      	ldr	r3, [sp, #12]
 800545c:	9e04      	ldr	r6, [sp, #16]
 800545e:	f8dd 9018 	ldr.w	r9, [sp, #24]
 8005462:	45b1      	cmp	r9, r6
 8005464:	ebc6 0000 	rsb	r0, r6, r0
 8005468:	eb0e 0e46 	add.w	lr, lr, r6, lsl #1
 800546c:	d023      	beq.n	80054b6 <_FillRect+0x1ae>
 800546e:	f8be 1000 	ldrh.w	r1, [lr]
 8005472:	4672      	mov	r2, lr
 8005474:	4059      	eors	r1, r3
 8005476:	eb0e 0040 	add.w	r0, lr, r0, lsl #1
 800547a:	f822 1b02 	strh.w	r1, [r2], #2
 800547e:	ebce 0e00 	rsb	lr, lr, r0
 8005482:	f1ae 0602 	sub.w	r6, lr, #2
 8005486:	4282      	cmp	r2, r0
 8005488:	f3c6 0140 	ubfx	r1, r6, #1, #1
 800548c:	d013      	beq.n	80054b6 <_FillRect+0x1ae>
 800548e:	b129      	cbz	r1, 800549c <_FillRect+0x194>
 8005490:	8816      	ldrh	r6, [r2, #0]
 8005492:	405e      	eors	r6, r3
 8005494:	f822 6b02 	strh.w	r6, [r2], #2
 8005498:	4282      	cmp	r2, r0
 800549a:	d00c      	beq.n	80054b6 <_FillRect+0x1ae>
 800549c:	8816      	ldrh	r6, [r2, #0]
 800549e:	4611      	mov	r1, r2
 80054a0:	405e      	eors	r6, r3
 80054a2:	f821 6b02 	strh.w	r6, [r1], #2
 80054a6:	8856      	ldrh	r6, [r2, #2]
 80054a8:	460a      	mov	r2, r1
 80054aa:	ea86 0103 	eor.w	r1, r6, r3
 80054ae:	f822 1b02 	strh.w	r1, [r2], #2
 80054b2:	4282      	cmp	r2, r0
 80054b4:	d1f2      	bne.n	800549c <_FillRect+0x194>
 80054b6:	9700      	str	r7, [sp, #0]
 80054b8:	f8d4 60a8 	ldr.w	r6, [r4, #168]	; 0xa8
 80054bc:	9905      	ldr	r1, [sp, #20]
 80054be:	463a      	mov	r2, r7
 80054c0:	465b      	mov	r3, fp
 80054c2:	4620      	mov	r0, r4
 80054c4:	47b0      	blx	r6
 80054c6:	2100      	movs	r1, #0
 80054c8:	07ea      	lsls	r2, r5, #31
 80054ca:	6ee6      	ldr	r6, [r4, #108]	; 0x6c
 80054cc:	6ea3      	ldr	r3, [r4, #104]	; 0x68
 80054ce:	4688      	mov	r8, r1
 80054d0:	d513      	bpl.n	80054fa <_FillRect+0x1f2>
 80054d2:	f836 2b02 	ldrh.w	r2, [r6], #2
 80054d6:	2101      	movs	r1, #1
 80054d8:	0a10      	lsrs	r0, r2, #8
 80054da:	7018      	strb	r0, [r3, #0]
 80054dc:	705a      	strb	r2, [r3, #1]
 80054de:	4688      	mov	r8, r1
 80054e0:	3302      	adds	r3, #2
 80054e2:	e00a      	b.n	80054fa <_FillRect+0x1f2>
 80054e4:	f836 3b02 	ldrh.w	r3, [r6], #2
 80054e8:	1c41      	adds	r1, r0, #1
 80054ea:	7053      	strb	r3, [r2, #1]
 80054ec:	0a18      	lsrs	r0, r3, #8
 80054ee:	1c93      	adds	r3, r2, #2
 80054f0:	29fa      	cmp	r1, #250	; 0xfa
 80054f2:	7010      	strb	r0, [r2, #0]
 80054f4:	d028      	beq.n	8005548 <_FillRect+0x240>
 80054f6:	f108 0801 	add.w	r8, r8, #1
 80054fa:	1c48      	adds	r0, r1, #1
 80054fc:	4545      	cmp	r5, r8
 80054fe:	f103 0202 	add.w	r2, r3, #2
 8005502:	f108 0801 	add.w	r8, r8, #1
 8005506:	d011      	beq.n	800552c <_FillRect+0x224>
 8005508:	f836 1b02 	ldrh.w	r1, [r6], #2
 800550c:	28fa      	cmp	r0, #250	; 0xfa
 800550e:	ea4f 2c11 	mov.w	ip, r1, lsr #8
 8005512:	f883 c000 	strb.w	ip, [r3]
 8005516:	7059      	strb	r1, [r3, #1]
 8005518:	d1e4      	bne.n	80054e4 <_FillRect+0x1dc>
 800551a:	f8d4 2118 	ldr.w	r2, [r4, #280]	; 0x118
 800551e:	6ea0      	ldr	r0, [r4, #104]	; 0x68
 8005520:	f44f 71fa 	mov.w	r1, #500	; 0x1f4
 8005524:	4790      	blx	r2
 8005526:	6ea2      	ldr	r2, [r4, #104]	; 0x68
 8005528:	2000      	movs	r0, #0
 800552a:	e7db      	b.n	80054e4 <_FillRect+0x1dc>
 800552c:	b121      	cbz	r1, 8005538 <_FillRect+0x230>
 800552e:	f8d4 3118 	ldr.w	r3, [r4, #280]	; 0x118
 8005532:	6ea0      	ldr	r0, [r4, #104]	; 0x68
 8005534:	0049      	lsls	r1, r1, #1
 8005536:	4798      	blx	r3
 8005538:	9e12      	ldr	r6, [sp, #72]	; 0x48
 800553a:	3701      	adds	r7, #1
 800553c:	42be      	cmp	r6, r7
 800553e:	f6bf aefc 	bge.w	800533a <_FillRect+0x32>
 8005542:	b009      	add	sp, #36	; 0x24
 8005544:	e8bd 8ff0 	ldmia.w	sp!, {r4, r5, r6, r7, r8, r9, sl, fp, pc}
 8005548:	f44f 71fa 	mov.w	r1, #500	; 0x1f4
 800554c:	f8d4 2118 	ldr.w	r2, [r4, #280]	; 0x118
 8005550:	6ea0      	ldr	r0, [r4, #104]	; 0x68
 8005552:	4790      	blx	r2
 8005554:	6ea3      	ldr	r3, [r4, #104]	; 0x68
 8005556:	2100      	movs	r1, #0
 8005558:	e7cd      	b.n	80054f6 <_FillRect+0x1ee>
 800555a:	9905      	ldr	r1, [sp, #20]
 800555c:	4559      	cmp	r1, fp
 800555e:	f73f aefa 	bgt.w	8005356 <_FillRect+0x4e>
 8005562:	463a      	mov	r2, r7
 8005564:	f8d4 30ec 	ldr.w	r3, [r4, #236]	; 0xec
 8005568:	9807      	ldr	r0, [sp, #28]
 800556a:	ebc1 060b 	rsb	r6, r1, fp
 800556e:	4798      	blx	r3
 8005570:	9a05      	ldr	r2, [sp, #20]
 8005572:	f828 0b02 	strh.w	r0, [r8], #2
 8005576:	f102 0901 	add.w	r9, r2, #1
 800557a:	45cb      	cmp	fp, r9
 800557c:	f006 0601 	and.w	r6, r6, #1
 8005580:	db26      	blt.n	80055d0 <_FillRect+0x2c8>
 8005582:	b15e      	cbz	r6, 800559c <_FillRect+0x294>
 8005584:	4649      	mov	r1, r9
 8005586:	f8d4 30ec 	ldr.w	r3, [r4, #236]	; 0xec
 800558a:	9807      	ldr	r0, [sp, #28]
 800558c:	463a      	mov	r2, r7
 800558e:	4798      	blx	r3
 8005590:	f109 0901 	add.w	r9, r9, #1
 8005594:	45cb      	cmp	fp, r9
 8005596:	f828 0b02 	strh.w	r0, [r8], #2
 800559a:	db19      	blt.n	80055d0 <_FillRect+0x2c8>
 800559c:	9e07      	ldr	r6, [sp, #28]
 800559e:	4649      	mov	r1, r9
 80055a0:	463a      	mov	r2, r7
 80055a2:	f8d4 30ec 	ldr.w	r3, [r4, #236]	; 0xec
 80055a6:	4630      	mov	r0, r6
 80055a8:	4798      	blx	r3
 80055aa:	46c2      	mov	sl, r8
 80055ac:	f109 0901 	add.w	r9, r9, #1
 80055b0:	f82a 0b02 	strh.w	r0, [sl], #2
 80055b4:	4649      	mov	r1, r9
 80055b6:	f8d4 30ec 	ldr.w	r3, [r4, #236]	; 0xec
 80055ba:	4630      	mov	r0, r6
 80055bc:	463a      	mov	r2, r7
 80055be:	4798      	blx	r3
 80055c0:	f109 0901 	add.w	r9, r9, #1
 80055c4:	45cb      	cmp	fp, r9
 80055c6:	f8a8 0002 	strh.w	r0, [r8, #2]
 80055ca:	f10a 0802 	add.w	r8, sl, #2
 80055ce:	dae6      	bge.n	800559e <_FillRect+0x296>
 80055d0:	f8d4 806c 	ldr.w	r8, [r4, #108]	; 0x6c
 80055d4:	e6bf      	b.n	8005356 <_FillRect+0x4e>
 80055d6:	bf00      	nop
 80055d8:	1ffe8808 	.word	0x1ffe8808
 80055dc:	9812      	ldr	r0, [sp, #72]	; 0x48
 80055de:	1a5f      	subs	r7, r3, r1
 80055e0:	9000      	str	r0, [sp, #0]
 80055e2:	ebc2 0e00 	rsb	lr, r2, r0
 80055e6:	f8d4 60a8 	ldr.w	r6, [r4, #168]	; 0xa8
 80055ea:	4620      	mov	r0, r4
 80055ec:	3701      	adds	r7, #1
 80055ee:	4689      	mov	r9, r1
 80055f0:	fb0e 7707 	mla	r7, lr, r7, r7
 80055f4:	47b0      	blx	r6
 80055f6:	682a      	ldr	r2, [r5, #0]
 80055f8:	6ea3      	ldr	r3, [r4, #104]	; 0x68
 80055fa:	6bd1      	ldr	r1, [r2, #60]	; 0x3c
 80055fc:	6808      	ldr	r0, [r1, #0]
 80055fe:	f3c0 2607 	ubfx	r6, r0, #8, #8
 8005602:	b2c0      	uxtb	r0, r0
 8005604:	2f00      	cmp	r7, #0
 8005606:	d09c      	beq.n	8005542 <_FillRect+0x23a>
 8005608:	2ff9      	cmp	r7, #249	; 0xf9
 800560a:	bf34      	ite	cc
 800560c:	46b8      	movcc	r8, r7
 800560e:	f04f 08f9 	movcs.w	r8, #249	; 0xf9
 8005612:	ea4f 0e58 	mov.w	lr, r8, lsr #1
 8005616:	f103 0901 	add.w	r9, r3, #1
 800561a:	f108 3aff 	add.w	sl, r8, #4294967295
 800561e:	ea4f 0c4e 	mov.w	ip, lr, lsl #1
 8005622:	f1be 0f00 	cmp.w	lr, #0
 8005626:	d06a      	beq.n	80056fe <_FillRect+0x3f6>
 8005628:	f019 0f03 	tst.w	r9, #3
 800562c:	bf14      	ite	ne
 800562e:	2200      	movne	r2, #0
 8005630:	2201      	moveq	r2, #1
 8005632:	f1b8 0f01 	cmp.w	r8, #1
 8005636:	bf94      	ite	ls
 8005638:	2200      	movls	r2, #0
 800563a:	f002 0201 	andhi.w	r2, r2, #1
 800563e:	f082 0501 	eor.w	r5, r2, #1
 8005642:	2a00      	cmp	r2, #0
 8005644:	d05b      	beq.n	80056fe <_FillRect+0x3f6>
 8005646:	f366 0507 	bfi	r5, r6, #0, #8
 800564a:	f360 250f 	bfi	r5, r0, #8, #8
 800564e:	f10e 31ff 	add.w	r1, lr, #4294967295
 8005652:	2201      	movs	r2, #1
 8005654:	f366 4517 	bfi	r5, r6, #16, #8
 8005658:	f360 651f 	bfi	r5, r0, #24, #8
 800565c:	ea01 0b02 	and.w	fp, r1, r2
 8005660:	1d59      	adds	r1, r3, #5
 8005662:	4572      	cmp	r2, lr
 8005664:	f8c9 5000 	str.w	r5, [r9]
 8005668:	d210      	bcs.n	800568c <_FillRect+0x384>
 800566a:	f1bb 0f00 	cmp.w	fp, #0
 800566e:	d005      	beq.n	800567c <_FillRect+0x374>
 8005670:	2202      	movs	r2, #2
 8005672:	4572      	cmp	r2, lr
 8005674:	600d      	str	r5, [r1, #0]
 8005676:	f103 0109 	add.w	r1, r3, #9
 800567a:	d207      	bcs.n	800568c <_FillRect+0x384>
 800567c:	460b      	mov	r3, r1
 800567e:	3202      	adds	r2, #2
 8005680:	f843 5b04 	str.w	r5, [r3], #4
 8005684:	604d      	str	r5, [r1, #4]
 8005686:	1d19      	adds	r1, r3, #4
 8005688:	4572      	cmp	r2, lr
 800568a:	d3f7      	bcc.n	800567c <_FillRect+0x374>
 800568c:	45e0      	cmp	r8, ip
 800568e:	eb09 024c 	add.w	r2, r9, ip, lsl #1
 8005692:	ebcc 0a0a 	rsb	sl, ip, sl
 8005696:	d028      	beq.n	80056ea <_FillRect+0x3e2>
 8005698:	1d15      	adds	r5, r2, #4
 800569a:	eb05 014a 	add.w	r1, r5, sl, lsl #1
 800569e:	3202      	adds	r2, #2
 80056a0:	1a8b      	subs	r3, r1, r2
 80056a2:	1e9d      	subs	r5, r3, #2
 80056a4:	1c93      	adds	r3, r2, #2
 80056a6:	428b      	cmp	r3, r1
 80056a8:	f802 6c02 	strb.w	r6, [r2, #-2]
 80056ac:	f802 0c01 	strb.w	r0, [r2, #-1]
 80056b0:	f3c5 0540 	ubfx	r5, r5, #1, #1
 80056b4:	d019      	beq.n	80056ea <_FillRect+0x3e2>
 80056b6:	b135      	cbz	r5, 80056c6 <_FillRect+0x3be>
 80056b8:	f803 6c02 	strb.w	r6, [r3, #-2]
 80056bc:	f803 0c01 	strb.w	r0, [r3, #-1]
 80056c0:	3302      	adds	r3, #2
 80056c2:	428b      	cmp	r3, r1
 80056c4:	d011      	beq.n	80056ea <_FillRect+0x3e2>
 80056c6:	461a      	mov	r2, r3
 80056c8:	f803 6c02 	strb.w	r6, [r3, #-2]
 80056cc:	f803 0c01 	strb.w	r0, [r3, #-1]
 80056d0:	f802 6b02 	strb.w	r6, [r2], #2
 80056d4:	1c93      	adds	r3, r2, #2
 80056d6:	428b      	cmp	r3, r1
 80056d8:	f802 0c01 	strb.w	r0, [r2, #-1]
 80056dc:	d1f3      	bne.n	80056c6 <_FillRect+0x3be>
 80056de:	e004      	b.n	80056ea <_FillRect+0x3e2>
 80056e0:	2ff9      	cmp	r7, #249	; 0xf9
 80056e2:	bf34      	ite	cc
 80056e4:	46b8      	movcc	r8, r7
 80056e6:	f04f 08f9 	movcs.w	r8, #249	; 0xf9
 80056ea:	ea4f 0148 	mov.w	r1, r8, lsl #1
 80056ee:	f8d4 3118 	ldr.w	r3, [r4, #280]	; 0x118
 80056f2:	4648      	mov	r0, r9
 80056f4:	4798      	blx	r3
 80056f6:	ebb7 0708 	subs.w	r7, r7, r8
 80056fa:	d1f1      	bne.n	80056e0 <_FillRect+0x3d8>
 80056fc:	e721      	b.n	8005542 <_FillRect+0x23a>
 80056fe:	464a      	mov	r2, r9
 8005700:	e7ca      	b.n	8005698 <_FillRect+0x390>
 8005702:	46c6      	mov	lr, r8
 8005704:	4628      	mov	r0, r5
 8005706:	e666      	b.n	80053d6 <_FillRect+0xce>

08005708 <_DrawBitmap>:
 8005708:	e92d 4ff0 	stmdb	sp!, {r4, r5, r6, r7, r8, r9, sl, fp, lr}
 800570c:	b093      	sub	sp, #76	; 0x4c
 800570e:	9c1d      	ldr	r4, [sp, #116]	; 0x74
 8005710:	9107      	str	r1, [sp, #28]
 8005712:	1e66      	subs	r6, r4, #1
 8005714:	9606      	str	r6, [sp, #24]
 8005716:	9906      	ldr	r1, [sp, #24]
 8005718:	900c      	str	r0, [sp, #48]	; 0x30
 800571a:	6880      	ldr	r0, [r0, #8]
 800571c:	9d1c      	ldr	r5, [sp, #112]	; 0x70
 800571e:	9309      	str	r3, [sp, #36]	; 0x24
 8005720:	2901      	cmp	r1, #1
 8005722:	4616      	mov	r6, r2
 8005724:	900d      	str	r0, [sp, #52]	; 0x34
 8005726:	f240 82da 	bls.w	8005cde <_DrawBitmap+0x5d6>
 800572a:	2c04      	cmp	r4, #4
 800572c:	f000 82d7 	beq.w	8005cde <_DrawBitmap+0x5d6>
 8005730:	2c08      	cmp	r4, #8
 8005732:	f000 82d4 	beq.w	8005cde <_DrawBitmap+0x5d6>
 8005736:	9a07      	ldr	r2, [sp, #28]
 8005738:	9b20      	ldr	r3, [sp, #128]	; 0x80
 800573a:	9809      	ldr	r0, [sp, #36]	; 0x24
 800573c:	1974      	adds	r4, r6, r5
 800573e:	18d1      	adds	r1, r2, r3
 8005740:	3c01      	subs	r4, #1
 8005742:	9a0d      	ldr	r2, [sp, #52]	; 0x34
 8005744:	9400      	str	r4, [sp, #0]
 8005746:	180b      	adds	r3, r1, r0
 8005748:	f8d2 40a8 	ldr.w	r4, [r2, #168]	; 0xa8
 800574c:	4610      	mov	r0, r2
 800574e:	3b01      	subs	r3, #1
 8005750:	4632      	mov	r2, r6
 8005752:	47a0      	blx	r4
 8005754:	2d00      	cmp	r5, #0
 8005756:	dd3a      	ble.n	80057ce <_DrawBitmap+0xc6>
 8005758:	9c07      	ldr	r4, [sp, #28]
 800575a:	9604      	str	r6, [sp, #16]
 800575c:	9820      	ldr	r0, [sp, #128]	; 0x80
 800575e:	9e09      	ldr	r6, [sp, #36]	; 0x24
 8005760:	9a1f      	ldr	r2, [sp, #124]	; 0x7c
 8005762:	1823      	adds	r3, r4, r0
 8005764:	1e71      	subs	r1, r6, #1
 8005766:	9110      	str	r1, [sp, #64]	; 0x40
 8005768:	930e      	str	r3, [sp, #56]	; 0x38
 800576a:	1b16      	subs	r6, r2, r4
 800576c:	9904      	ldr	r1, [sp, #16]
 800576e:	9c10      	ldr	r4, [sp, #64]	; 0x40
 8005770:	980e      	ldr	r0, [sp, #56]	; 0x38
 8005772:	9605      	str	r6, [sp, #20]
 8005774:	194d      	adds	r5, r1, r5
 8005776:	1823      	adds	r3, r4, r0
 8005778:	950b      	str	r5, [sp, #44]	; 0x2c
 800577a:	9311      	str	r3, [sp, #68]	; 0x44
 800577c:	9a05      	ldr	r2, [sp, #20]
 800577e:	9e07      	ldr	r6, [sp, #28]
 8005780:	9906      	ldr	r1, [sp, #24]
 8005782:	1994      	adds	r4, r2, r6
 8005784:	290f      	cmp	r1, #15
 8005786:	d817      	bhi.n	80057b8 <_DrawBitmap+0xb0>
 8005788:	e8df f011 	tbh	[pc, r1, lsl #1]
 800578c:	01710224 	.word	0x01710224
 8005790:	00bf0016 	.word	0x00bf0016
 8005794:	00160016 	.word	0x00160016
 8005798:	00560016 	.word	0x00560016
 800579c:	00160016 	.word	0x00160016
 80057a0:	00160016 	.word	0x00160016
 80057a4:	00160016 	.word	0x00160016
 80057a8:	00240016 	.word	0x00240016
 80057ac:	b121      	cbz	r1, 80057b8 <_DrawBitmap+0xb0>
 80057ae:	f8d5 6118 	ldr.w	r6, [r5, #280]	; 0x118
 80057b2:	6ea8      	ldr	r0, [r5, #104]	; 0x68
 80057b4:	0049      	lsls	r1, r1, #1
 80057b6:	47b0      	blx	r6
 80057b8:	9904      	ldr	r1, [sp, #16]
 80057ba:	9805      	ldr	r0, [sp, #20]
 80057bc:	9a1e      	ldr	r2, [sp, #120]	; 0x78
 80057be:	1c4e      	adds	r6, r1, #1
 80057c0:	9604      	str	r6, [sp, #16]
 80057c2:	9e04      	ldr	r6, [sp, #16]
 80057c4:	990b      	ldr	r1, [sp, #44]	; 0x2c
 80057c6:	1883      	adds	r3, r0, r2
 80057c8:	428e      	cmp	r6, r1
 80057ca:	9305      	str	r3, [sp, #20]
 80057cc:	d1d6      	bne.n	800577c <_DrawBitmap+0x74>
 80057ce:	b013      	add	sp, #76	; 0x4c
 80057d0:	e8bd 8ff0 	ldmia.w	sp!, {r4, r5, r6, r7, r8, r9, sl, fp, pc}
 80057d4:	9d0d      	ldr	r5, [sp, #52]	; 0x34
 80057d6:	9f09      	ldr	r7, [sp, #36]	; 0x24
 80057d8:	6eab      	ldr	r3, [r5, #104]	; 0x68
 80057da:	2100      	movs	r1, #0
 80057dc:	07fd      	lsls	r5, r7, #31
 80057de:	460a      	mov	r2, r1
 80057e0:	f100 8286 	bmi.w	8005cf0 <_DrawBitmap+0x5e8>
 80057e4:	f8dd 8034 	ldr.w	r8, [sp, #52]	; 0x34
 80057e8:	1c56      	adds	r6, r2, #1
 80057ea:	1c4d      	adds	r5, r1, #1
 80057ec:	42ba      	cmp	r2, r7
 80057ee:	f103 0002 	add.w	r0, r3, #2
 80057f2:	d018      	beq.n	8005826 <_DrawBitmap+0x11e>
 80057f4:	f834 2012 	ldrh.w	r2, [r4, r2, lsl #1]
 80057f8:	0a11      	lsrs	r1, r2, #8
 80057fa:	2dfa      	cmp	r5, #250	; 0xfa
 80057fc:	7019      	strb	r1, [r3, #0]
 80057fe:	705a      	strb	r2, [r3, #1]
 8005800:	f000 8281 	beq.w	8005d06 <_DrawBitmap+0x5fe>
 8005804:	f834 3016 	ldrh.w	r3, [r4, r6, lsl #1]
 8005808:	1c69      	adds	r1, r5, #1
 800580a:	0a1a      	lsrs	r2, r3, #8
 800580c:	7043      	strb	r3, [r0, #1]
 800580e:	1c83      	adds	r3, r0, #2
 8005810:	29fa      	cmp	r1, #250	; 0xfa
 8005812:	7002      	strb	r2, [r0, #0]
 8005814:	f000 8257 	beq.w	8005cc6 <_DrawBitmap+0x5be>
 8005818:	1c72      	adds	r2, r6, #1
 800581a:	1c56      	adds	r6, r2, #1
 800581c:	1c4d      	adds	r5, r1, #1
 800581e:	42ba      	cmp	r2, r7
 8005820:	f103 0002 	add.w	r0, r3, #2
 8005824:	d1e6      	bne.n	80057f4 <_DrawBitmap+0xec>
 8005826:	2900      	cmp	r1, #0
 8005828:	d0c6      	beq.n	80057b8 <_DrawBitmap+0xb0>
 800582a:	9a0d      	ldr	r2, [sp, #52]	; 0x34
 800582c:	0049      	lsls	r1, r1, #1
 800582e:	f8d2 3118 	ldr.w	r3, [r2, #280]	; 0x118
 8005832:	6e90      	ldr	r0, [r2, #104]	; 0x68
 8005834:	4798      	blx	r3
 8005836:	e7bf      	b.n	80057b8 <_DrawBitmap+0xb0>
 8005838:	9e0c      	ldr	r6, [sp, #48]	; 0x30
 800583a:	9821      	ldr	r0, [sp, #132]	; 0x84
 800583c:	68b5      	ldr	r5, [r6, #8]
 800583e:	2800      	cmp	r0, #0
 8005840:	d0ba      	beq.n	80057b8 <_DrawBitmap+0xb0>
 8005842:	f648 0308 	movw	r3, #34824	; 0x8808
 8005846:	f6c1 73fe 	movt	r3, #8190	; 0x1ffe
 800584a:	6819      	ldr	r1, [r3, #0]
 800584c:	7c0a      	ldrb	r2, [r1, #16]
 800584e:	f012 0603 	ands.w	r6, r2, #3
 8005852:	f040 8263 	bne.w	8005d1c <_DrawBitmap+0x614>
 8005856:	9e09      	ldr	r6, [sp, #36]	; 0x24
 8005858:	2e00      	cmp	r6, #0
 800585a:	ddad      	ble.n	80057b8 <_DrawBitmap+0xb0>
 800585c:	46a0      	mov	r8, r4
 800585e:	9f07      	ldr	r7, [sp, #28]
 8005860:	f818 2b01 	ldrb.w	r2, [r8], #1
 8005864:	9921      	ldr	r1, [sp, #132]	; 0x84
 8005866:	f8d5 3118 	ldr.w	r3, [r5, #280]	; 0x118
 800586a:	f851 2022 	ldr.w	r2, [r1, r2, lsl #2]
 800586e:	19f0      	adds	r0, r6, r7
 8005870:	9e05      	ldr	r6, [sp, #20]
 8005872:	f885 2072 	strb.w	r2, [r5, #114]	; 0x72
 8005876:	1987      	adds	r7, r0, r6
 8005878:	f3c2 2007 	ubfx	r0, r2, #8, #8
 800587c:	f105 0671 	add.w	r6, r5, #113	; 0x71
 8005880:	43e4      	mvns	r4, r4
 8005882:	f885 0071 	strb.w	r0, [r5, #113]	; 0x71
 8005886:	2102      	movs	r1, #2
 8005888:	4630      	mov	r0, r6
 800588a:	193c      	adds	r4, r7, r4
 800588c:	4798      	blx	r3
 800588e:	45b8      	cmp	r8, r7
 8005890:	f004 0401 	and.w	r4, r4, #1
 8005894:	d090      	beq.n	80057b8 <_DrawBitmap+0xb0>
 8005896:	b194      	cbz	r4, 80058be <_DrawBitmap+0x1b6>
 8005898:	f818 2b01 	ldrb.w	r2, [r8], #1
 800589c:	9921      	ldr	r1, [sp, #132]	; 0x84
 800589e:	f8d5 3118 	ldr.w	r3, [r5, #280]	; 0x118
 80058a2:	f851 0022 	ldr.w	r0, [r1, r2, lsl #2]
 80058a6:	f3c0 2207 	ubfx	r2, r0, #8, #8
 80058aa:	f885 0072 	strb.w	r0, [r5, #114]	; 0x72
 80058ae:	2102      	movs	r1, #2
 80058b0:	f885 2071 	strb.w	r2, [r5, #113]	; 0x71
 80058b4:	4630      	mov	r0, r6
 80058b6:	4798      	blx	r3
 80058b8:	45b8      	cmp	r8, r7
 80058ba:	f43f af7d 	beq.w	80057b8 <_DrawBitmap+0xb0>
 80058be:	f8dd 9084 	ldr.w	r9, [sp, #132]	; 0x84
 80058c2:	4644      	mov	r4, r8
 80058c4:	4630      	mov	r0, r6
 80058c6:	f814 1b01 	ldrb.w	r1, [r4], #1
 80058ca:	f8d5 3118 	ldr.w	r3, [r5, #280]	; 0x118
 80058ce:	f859 2021 	ldr.w	r2, [r9, r1, lsl #2]
 80058d2:	f3c2 2c07 	ubfx	ip, r2, #8, #8
 80058d6:	2102      	movs	r1, #2
 80058d8:	f885 c071 	strb.w	ip, [r5, #113]	; 0x71
 80058dc:	f885 2072 	strb.w	r2, [r5, #114]	; 0x72
 80058e0:	4798      	blx	r3
 80058e2:	f898 0001 	ldrb.w	r0, [r8, #1]
 80058e6:	f8d5 3118 	ldr.w	r3, [r5, #280]	; 0x118
 80058ea:	f859 2020 	ldr.w	r2, [r9, r0, lsl #2]
 80058ee:	f3c2 2107 	ubfx	r1, r2, #8, #8
 80058f2:	f885 1071 	strb.w	r1, [r5, #113]	; 0x71
 80058f6:	f885 2072 	strb.w	r2, [r5, #114]	; 0x72
 80058fa:	2102      	movs	r1, #2
 80058fc:	4630      	mov	r0, r6
 80058fe:	f104 0801 	add.w	r8, r4, #1
 8005902:	4798      	blx	r3
 8005904:	45b8      	cmp	r8, r7
 8005906:	d1dc      	bne.n	80058c2 <_DrawBitmap+0x1ba>
 8005908:	e756      	b.n	80057b8 <_DrawBitmap+0xb0>
 800590a:	9d0c      	ldr	r5, [sp, #48]	; 0x30
 800590c:	9e21      	ldr	r6, [sp, #132]	; 0x84
 800590e:	68ad      	ldr	r5, [r5, #8]
 8005910:	2e00      	cmp	r6, #0
 8005912:	f43f af51 	beq.w	80057b8 <_DrawBitmap+0xb0>
 8005916:	f648 0008 	movw	r0, #34824	; 0x8808
 800591a:	f6c1 70fe 	movt	r0, #8190	; 0x1ffe
 800591e:	9a05      	ldr	r2, [sp, #20]
 8005920:	6803      	ldr	r3, [r0, #0]
 8005922:	9907      	ldr	r1, [sp, #28]
 8005924:	f893 b010 	ldrb.w	fp, [r3, #16]
 8005928:	f812 9001 	ldrb.w	r9, [r2, r1]
 800592c:	f01b 0b03 	ands.w	fp, fp, #3
 8005930:	f040 8259 	bne.w	8005de6 <_DrawBitmap+0x6de>
 8005934:	9f20      	ldr	r7, [sp, #128]	; 0x80
 8005936:	f1c7 0601 	rsb	r6, r7, #1
 800593a:	00b1      	lsls	r1, r6, #2
 800593c:	f1c1 0004 	rsb	r0, r1, #4
 8005940:	27f0      	movs	r7, #240	; 0xf0
 8005942:	fa47 f200 	asr.w	r2, r7, r0
 8005946:	ea02 0309 	and.w	r3, r2, r9
 800594a:	fa23 f101 	lsr.w	r1, r3, r1
 800594e:	9821      	ldr	r0, [sp, #132]	; 0x84
 8005950:	f8d5 3118 	ldr.w	r3, [r5, #280]	; 0x118
 8005954:	f850 2021 	ldr.w	r2, [r0, r1, lsl #2]
 8005958:	9909      	ldr	r1, [sp, #36]	; 0x24
 800595a:	f885 2072 	strb.w	r2, [r5, #114]	; 0x72
 800595e:	f3c2 2007 	ubfx	r0, r2, #8, #8
 8005962:	9a20      	ldr	r2, [sp, #128]	; 0x80
 8005964:	f885 0071 	strb.w	r0, [r5, #113]	; 0x71
 8005968:	f105 0671 	add.w	r6, r5, #113	; 0x71
 800596c:	f101 38ff 	add.w	r8, r1, #4294967295
 8005970:	f102 0a01 	add.w	sl, r2, #1
 8005974:	2102      	movs	r1, #2
 8005976:	4630      	mov	r0, r6
 8005978:	4798      	blx	r3
 800597a:	f1ba 0f02 	cmp.w	sl, #2
 800597e:	f008 0801 	and.w	r8, r8, #1
 8005982:	f000 8594 	beq.w	80064ae <_DrawBitmap+0xda6>
 8005986:	9b09      	ldr	r3, [sp, #36]	; 0x24
 8005988:	f1b3 0b01 	subs.w	fp, r3, #1
 800598c:	f43f af14 	beq.w	80057b8 <_DrawBitmap+0xb0>
 8005990:	f1b8 0f00 	cmp.w	r8, #0
 8005994:	d022      	beq.n	80059dc <_DrawBitmap+0x2d4>
 8005996:	f1ca 0001 	rsb	r0, sl, #1
 800599a:	0081      	lsls	r1, r0, #2
 800599c:	f1c1 0204 	rsb	r2, r1, #4
 80059a0:	fa47 f302 	asr.w	r3, r7, r2
 80059a4:	ea03 0209 	and.w	r2, r3, r9
 80059a8:	9821      	ldr	r0, [sp, #132]	; 0x84
 80059aa:	f8d5 3118 	ldr.w	r3, [r5, #280]	; 0x118
 80059ae:	fa22 f201 	lsr.w	r2, r2, r1
 80059b2:	f10a 0a01 	add.w	sl, sl, #1
 80059b6:	f850 2022 	ldr.w	r2, [r0, r2, lsl #2]
 80059ba:	f3c2 2107 	ubfx	r1, r2, #8, #8
 80059be:	f885 1071 	strb.w	r1, [r5, #113]	; 0x71
 80059c2:	f885 2072 	strb.w	r2, [r5, #114]	; 0x72
 80059c6:	2102      	movs	r1, #2
 80059c8:	4630      	mov	r0, r6
 80059ca:	4798      	blx	r3
 80059cc:	f1ba 0f02 	cmp.w	sl, #2
 80059d0:	f000 8606 	beq.w	80065e0 <_DrawBitmap+0xed8>
 80059d4:	f1bb 0b01 	subs.w	fp, fp, #1
 80059d8:	f43f aeee 	beq.w	80057b8 <_DrawBitmap+0xb0>
 80059dc:	f8dd 8084 	ldr.w	r8, [sp, #132]	; 0x84
 80059e0:	e01f      	b.n	8005a22 <_DrawBitmap+0x31a>
 80059e2:	f1ca 0201 	rsb	r2, sl, #1
 80059e6:	0093      	lsls	r3, r2, #2
 80059e8:	f1c3 0204 	rsb	r2, r3, #4
 80059ec:	fa47 f202 	asr.w	r2, r7, r2
 80059f0:	ea02 0209 	and.w	r2, r2, r9
 80059f4:	fa22 f203 	lsr.w	r2, r2, r3
 80059f8:	f10a 0a01 	add.w	sl, sl, #1
 80059fc:	f858 2022 	ldr.w	r2, [r8, r2, lsl #2]
 8005a00:	f8d5 3118 	ldr.w	r3, [r5, #280]	; 0x118
 8005a04:	f885 2072 	strb.w	r2, [r5, #114]	; 0x72
 8005a08:	f3c2 2e07 	ubfx	lr, r2, #8, #8
 8005a0c:	f885 e071 	strb.w	lr, [r5, #113]	; 0x71
 8005a10:	4798      	blx	r3
 8005a12:	f1ba 0f02 	cmp.w	sl, #2
 8005a16:	f000 83f6 	beq.w	8006206 <_DrawBitmap+0xafe>
 8005a1a:	f1bb 0b01 	subs.w	fp, fp, #1
 8005a1e:	f43f aecb 	beq.w	80057b8 <_DrawBitmap+0xb0>
 8005a22:	f1ca 0301 	rsb	r3, sl, #1
 8005a26:	0098      	lsls	r0, r3, #2
 8005a28:	f1c0 0204 	rsb	r2, r0, #4
 8005a2c:	fa47 f102 	asr.w	r1, r7, r2
 8005a30:	ea01 0309 	and.w	r3, r1, r9
 8005a34:	fa23 f000 	lsr.w	r0, r3, r0
 8005a38:	f8d5 3118 	ldr.w	r3, [r5, #280]	; 0x118
 8005a3c:	f858 2020 	ldr.w	r2, [r8, r0, lsl #2]
 8005a40:	f3c2 2107 	ubfx	r1, r2, #8, #8
 8005a44:	4630      	mov	r0, r6
 8005a46:	f885 1071 	strb.w	r1, [r5, #113]	; 0x71
 8005a4a:	f885 2072 	strb.w	r2, [r5, #114]	; 0x72
 8005a4e:	2102      	movs	r1, #2
 8005a50:	4798      	blx	r3
 8005a52:	f10a 0a01 	add.w	sl, sl, #1
 8005a56:	2102      	movs	r1, #2
 8005a58:	458a      	cmp	sl, r1
 8005a5a:	4630      	mov	r0, r6
 8005a5c:	f10b 3bff 	add.w	fp, fp, #4294967295
 8005a60:	d1bf      	bne.n	80059e2 <_DrawBitmap+0x2da>
 8005a62:	f894 9001 	ldrb.w	r9, [r4, #1]
 8005a66:	f04f 0a00 	mov.w	sl, #0
 8005a6a:	3401      	adds	r4, #1
 8005a6c:	e7b9      	b.n	80059e2 <_DrawBitmap+0x2da>
 8005a6e:	9d0c      	ldr	r5, [sp, #48]	; 0x30
 8005a70:	9e21      	ldr	r6, [sp, #132]	; 0x84
 8005a72:	68ad      	ldr	r5, [r5, #8]
 8005a74:	2e00      	cmp	r6, #0
 8005a76:	f43f ae9f 	beq.w	80057b8 <_DrawBitmap+0xb0>
 8005a7a:	f648 0008 	movw	r0, #34824	; 0x8808
 8005a7e:	f6c1 70fe 	movt	r0, #8190	; 0x1ffe
 8005a82:	9b05      	ldr	r3, [sp, #20]
 8005a84:	6801      	ldr	r1, [r0, #0]
 8005a86:	9a07      	ldr	r2, [sp, #28]
 8005a88:	f891 c010 	ldrb.w	ip, [r1, #16]
 8005a8c:	f813 9002 	ldrb.w	r9, [r3, r2]
 8005a90:	f01c 0b03 	ands.w	fp, ip, #3
 8005a94:	f040 822e 	bne.w	8005ef4 <_DrawBitmap+0x7ec>
 8005a98:	9f20      	ldr	r7, [sp, #128]	; 0x80
 8005a9a:	f1c7 0603 	rsb	r6, r7, #3
 8005a9e:	0071      	lsls	r1, r6, #1
 8005aa0:	f1c1 0006 	rsb	r0, r1, #6
 8005aa4:	27c0      	movs	r7, #192	; 0xc0
 8005aa6:	fa47 f200 	asr.w	r2, r7, r0
 8005aaa:	ea02 0309 	and.w	r3, r2, r9
 8005aae:	fa23 f101 	lsr.w	r1, r3, r1
 8005ab2:	9821      	ldr	r0, [sp, #132]	; 0x84
 8005ab4:	f8d5 3118 	ldr.w	r3, [r5, #280]	; 0x118
 8005ab8:	f850 2021 	ldr.w	r2, [r0, r1, lsl #2]
 8005abc:	9909      	ldr	r1, [sp, #36]	; 0x24
 8005abe:	f885 2072 	strb.w	r2, [r5, #114]	; 0x72
 8005ac2:	f3c2 2007 	ubfx	r0, r2, #8, #8
 8005ac6:	9a20      	ldr	r2, [sp, #128]	; 0x80
 8005ac8:	f885 0071 	strb.w	r0, [r5, #113]	; 0x71
 8005acc:	f105 0671 	add.w	r6, r5, #113	; 0x71
 8005ad0:	f101 38ff 	add.w	r8, r1, #4294967295
 8005ad4:	f102 0a01 	add.w	sl, r2, #1
 8005ad8:	2102      	movs	r1, #2
 8005ada:	4630      	mov	r0, r6
 8005adc:	4798      	blx	r3
 8005ade:	f1ba 0f04 	cmp.w	sl, #4
 8005ae2:	f008 0801 	and.w	r8, r8, #1
 8005ae6:	f000 84ed 	beq.w	80064c4 <_DrawBitmap+0xdbc>
 8005aea:	9b09      	ldr	r3, [sp, #36]	; 0x24
 8005aec:	f1b3 0b01 	subs.w	fp, r3, #1
 8005af0:	f43f ae62 	beq.w	80057b8 <_DrawBitmap+0xb0>
 8005af4:	f1b8 0f00 	cmp.w	r8, #0
 8005af8:	d022      	beq.n	8005b40 <_DrawBitmap+0x438>
 8005afa:	f1ca 0003 	rsb	r0, sl, #3
 8005afe:	0041      	lsls	r1, r0, #1
 8005b00:	f1c1 0206 	rsb	r2, r1, #6
 8005b04:	fa47 f302 	asr.w	r3, r7, r2
 8005b08:	ea03 0209 	and.w	r2, r3, r9
 8005b0c:	9821      	ldr	r0, [sp, #132]	; 0x84
 8005b0e:	f8d5 3118 	ldr.w	r3, [r5, #280]	; 0x118
 8005b12:	fa22 f201 	lsr.w	r2, r2, r1
 8005b16:	f10a 0a01 	add.w	sl, sl, #1
 8005b1a:	f850 2022 	ldr.w	r2, [r0, r2, lsl #2]
 8005b1e:	f3c2 2107 	ubfx	r1, r2, #8, #8
 8005b22:	f885 1071 	strb.w	r1, [r5, #113]	; 0x71
 8005b26:	f885 2072 	strb.w	r2, [r5, #114]	; 0x72
 8005b2a:	2102      	movs	r1, #2
 8005b2c:	4630      	mov	r0, r6
 8005b2e:	4798      	blx	r3
 8005b30:	f1ba 0f04 	cmp.w	sl, #4
 8005b34:	f000 855b 	beq.w	80065ee <_DrawBitmap+0xee6>
 8005b38:	f1bb 0b01 	subs.w	fp, fp, #1
 8005b3c:	f43f ae3c 	beq.w	80057b8 <_DrawBitmap+0xb0>
 8005b40:	f8dd 8084 	ldr.w	r8, [sp, #132]	; 0x84
 8005b44:	e01f      	b.n	8005b86 <_DrawBitmap+0x47e>
 8005b46:	f1ca 0203 	rsb	r2, sl, #3
 8005b4a:	0053      	lsls	r3, r2, #1
 8005b4c:	f1c3 0206 	rsb	r2, r3, #6
 8005b50:	fa47 f202 	asr.w	r2, r7, r2
 8005b54:	ea02 0209 	and.w	r2, r2, r9
 8005b58:	fa22 f203 	lsr.w	r2, r2, r3
 8005b5c:	f10a 0a01 	add.w	sl, sl, #1
 8005b60:	f858 2022 	ldr.w	r2, [r8, r2, lsl #2]
 8005b64:	f8d5 3118 	ldr.w	r3, [r5, #280]	; 0x118
 8005b68:	f885 2072 	strb.w	r2, [r5, #114]	; 0x72
 8005b6c:	f3c2 2e07 	ubfx	lr, r2, #8, #8
 8005b70:	f885 e071 	strb.w	lr, [r5, #113]	; 0x71
 8005b74:	4798      	blx	r3
 8005b76:	f1ba 0f04 	cmp.w	sl, #4
 8005b7a:	f000 833e 	beq.w	80061fa <_DrawBitmap+0xaf2>
 8005b7e:	f1bb 0b01 	subs.w	fp, fp, #1
 8005b82:	f43f ae19 	beq.w	80057b8 <_DrawBitmap+0xb0>
 8005b86:	f1ca 0303 	rsb	r3, sl, #3
 8005b8a:	0058      	lsls	r0, r3, #1
 8005b8c:	f1c0 0206 	rsb	r2, r0, #6
 8005b90:	fa47 f102 	asr.w	r1, r7, r2
 8005b94:	ea01 0309 	and.w	r3, r1, r9
 8005b98:	fa23 f000 	lsr.w	r0, r3, r0
 8005b9c:	f10a 0a01 	add.w	sl, sl, #1
 8005ba0:	f858 2020 	ldr.w	r2, [r8, r0, lsl #2]
 8005ba4:	f8d5 3118 	ldr.w	r3, [r5, #280]	; 0x118
 8005ba8:	f885 2072 	strb.w	r2, [r5, #114]	; 0x72
 8005bac:	f3c2 2107 	ubfx	r1, r2, #8, #8
 8005bb0:	4630      	mov	r0, r6
 8005bb2:	f885 1071 	strb.w	r1, [r5, #113]	; 0x71
 8005bb6:	2102      	movs	r1, #2
 8005bb8:	4798      	blx	r3
 8005bba:	2102      	movs	r1, #2
 8005bbc:	f1ba 0f04 	cmp.w	sl, #4
 8005bc0:	4630      	mov	r0, r6
 8005bc2:	f10b 3bff 	add.w	fp, fp, #4294967295
 8005bc6:	d1be      	bne.n	8005b46 <_DrawBitmap+0x43e>
 8005bc8:	f894 9001 	ldrb.w	r9, [r4, #1]
 8005bcc:	f04f 0a00 	mov.w	sl, #0
 8005bd0:	3401      	adds	r4, #1
 8005bd2:	e7b8      	b.n	8005b46 <_DrawBitmap+0x43e>
 8005bd4:	f648 0508 	movw	r5, #34824	; 0x8808
 8005bd8:	f6c1 75fe 	movt	r5, #8190	; 0x1ffe
 8005bdc:	9e0c      	ldr	r6, [sp, #48]	; 0x30
 8005bde:	6828      	ldr	r0, [r5, #0]
 8005be0:	9b21      	ldr	r3, [sp, #132]	; 0x84
 8005be2:	7c01      	ldrb	r1, [r0, #16]
 8005be4:	68b5      	ldr	r5, [r6, #8]
 8005be6:	e893 0044 	ldmia.w	r3, {r2, r6}
 8005bea:	f001 0003 	and.w	r0, r1, #3
 8005bee:	2802      	cmp	r0, #2
 8005bf0:	960a      	str	r6, [sp, #40]	; 0x28
 8005bf2:	f000 8289 	beq.w	8006108 <_DrawBitmap+0xa00>
 8005bf6:	2803      	cmp	r0, #3
 8005bf8:	f000 8208 	beq.w	800600c <_DrawBitmap+0x904>
 8005bfc:	2801      	cmp	r0, #1
 8005bfe:	f000 8205 	beq.w	800600c <_DrawBitmap+0x904>
 8005c02:	9f09      	ldr	r7, [sp, #36]	; 0x24
 8005c04:	9e20      	ldr	r6, [sp, #128]	; 0x80
 8005c06:	7821      	ldrb	r1, [r4, #0]
 8005c08:	f04f 0880 	mov.w	r8, #128	; 0x80
 8005c0c:	1e78      	subs	r0, r7, #1
 8005c0e:	fa48 f306 	asr.w	r3, r8, r6
 8005c12:	fa1f f982 	uxth.w	r9, r2
 8005c16:	9a0a      	ldr	r2, [sp, #40]	; 0x28
 8005c18:	f000 0001 	and.w	r0, r0, #1
 8005c1c:	4219      	tst	r1, r3
 8005c1e:	f105 0771 	add.w	r7, r5, #113	; 0x71
 8005c22:	fa1f fb82 	uxth.w	fp, r2
 8005c26:	9008      	str	r0, [sp, #32]
 8005c28:	f040 81ee 	bne.w	8006008 <_DrawBitmap+0x900>
 8005c2c:	4649      	mov	r1, r9
 8005c2e:	9a20      	ldr	r2, [sp, #128]	; 0x80
 8005c30:	f885 1072 	strb.w	r1, [r5, #114]	; 0x72
 8005c34:	0a0e      	lsrs	r6, r1, #8
 8005c36:	f885 6071 	strb.w	r6, [r5, #113]	; 0x71
 8005c3a:	2102      	movs	r1, #2
 8005c3c:	1c56      	adds	r6, r2, #1
 8005c3e:	f8d5 3118 	ldr.w	r3, [r5, #280]	; 0x118
 8005c42:	4638      	mov	r0, r7
 8005c44:	4798      	blx	r3
 8005c46:	2e08      	cmp	r6, #8
 8005c48:	f000 84eb 	beq.w	8006622 <_DrawBitmap+0xf1a>
 8005c4c:	9809      	ldr	r0, [sp, #36]	; 0x24
 8005c4e:	f1b0 0a01 	subs.w	sl, r0, #1
 8005c52:	f43f adb1 	beq.w	80057b8 <_DrawBitmap+0xb0>
 8005c56:	9908      	ldr	r1, [sp, #32]
 8005c58:	b1b9      	cbz	r1, 8005c8a <_DrawBitmap+0x582>
 8005c5a:	7822      	ldrb	r2, [r4, #0]
 8005c5c:	fa48 f306 	asr.w	r3, r8, r6
 8005c60:	421a      	tst	r2, r3
 8005c62:	d02e      	beq.n	8005cc2 <_DrawBitmap+0x5ba>
 8005c64:	4658      	mov	r0, fp
 8005c66:	0a01      	lsrs	r1, r0, #8
 8005c68:	f885 1071 	strb.w	r1, [r5, #113]	; 0x71
 8005c6c:	f885 0072 	strb.w	r0, [r5, #114]	; 0x72
 8005c70:	2102      	movs	r1, #2
 8005c72:	f8d5 2118 	ldr.w	r2, [r5, #280]	; 0x118
 8005c76:	4638      	mov	r0, r7
 8005c78:	3601      	adds	r6, #1
 8005c7a:	4790      	blx	r2
 8005c7c:	2e08      	cmp	r6, #8
 8005c7e:	f000 82b9 	beq.w	80061f4 <_DrawBitmap+0xaec>
 8005c82:	f1ba 0a01 	subs.w	sl, sl, #1
 8005c86:	f43f ad97 	beq.w	80057b8 <_DrawBitmap+0xb0>
 8005c8a:	7820      	ldrb	r0, [r4, #0]
 8005c8c:	f8d5 2118 	ldr.w	r2, [r5, #280]	; 0x118
 8005c90:	fa48 f306 	asr.w	r3, r8, r6
 8005c94:	4218      	tst	r0, r3
 8005c96:	bf14      	ite	ne
 8005c98:	465b      	movne	r3, fp
 8005c9a:	464b      	moveq	r3, r9
 8005c9c:	0a19      	lsrs	r1, r3, #8
 8005c9e:	f885 1071 	strb.w	r1, [r5, #113]	; 0x71
 8005ca2:	f885 3072 	strb.w	r3, [r5, #114]	; 0x72
 8005ca6:	2102      	movs	r1, #2
 8005ca8:	4638      	mov	r0, r7
 8005caa:	3601      	adds	r6, #1
 8005cac:	4790      	blx	r2
 8005cae:	2e08      	cmp	r6, #8
 8005cb0:	f000 82af 	beq.w	8006212 <_DrawBitmap+0xb0a>
 8005cb4:	7820      	ldrb	r0, [r4, #0]
 8005cb6:	fa48 f306 	asr.w	r3, r8, r6
 8005cba:	4218      	tst	r0, r3
 8005cbc:	f10a 3aff 	add.w	sl, sl, #4294967295
 8005cc0:	d1d0      	bne.n	8005c64 <_DrawBitmap+0x55c>
 8005cc2:	4648      	mov	r0, r9
 8005cc4:	e7cf      	b.n	8005c66 <_DrawBitmap+0x55e>
 8005cc6:	f44f 71fa 	mov.w	r1, #500	; 0x1f4
 8005cca:	f8d8 5118 	ldr.w	r5, [r8, #280]	; 0x118
 8005cce:	f8d8 0068 	ldr.w	r0, [r8, #104]	; 0x68
 8005cd2:	47a8      	blx	r5
 8005cd4:	f8d8 3068 	ldr.w	r3, [r8, #104]	; 0x68
 8005cd8:	2100      	movs	r1, #0
 8005cda:	1c72      	adds	r2, r6, #1
 8005cdc:	e59d      	b.n	800581a <_DrawBitmap+0x112>
 8005cde:	4bb7      	ldr	r3, [pc, #732]	; (8005fbc <_DrawBitmap+0x8b4>)
 8005ce0:	681a      	ldr	r2, [r3, #0]
 8005ce2:	7c10      	ldrb	r0, [r2, #16]
 8005ce4:	f000 0103 	and.w	r1, r0, #3
 8005ce8:	2902      	cmp	r1, #2
 8005cea:	f47f ad24 	bne.w	8005736 <_DrawBitmap+0x2e>
 8005cee:	e531      	b.n	8005754 <_DrawBitmap+0x4c>
 8005cf0:	5a60      	ldrh	r0, [r4, r1]
 8005cf2:	f8dd 8034 	ldr.w	r8, [sp, #52]	; 0x34
 8005cf6:	7058      	strb	r0, [r3, #1]
 8005cf8:	0a02      	lsrs	r2, r0, #8
 8005cfa:	2101      	movs	r1, #1
 8005cfc:	701a      	strb	r2, [r3, #0]
 8005cfe:	9f09      	ldr	r7, [sp, #36]	; 0x24
 8005d00:	3302      	adds	r3, #2
 8005d02:	460a      	mov	r2, r1
 8005d04:	e570      	b.n	80057e8 <_DrawBitmap+0xe0>
 8005d06:	f8d8 5118 	ldr.w	r5, [r8, #280]	; 0x118
 8005d0a:	f8d8 0068 	ldr.w	r0, [r8, #104]	; 0x68
 8005d0e:	f44f 71fa 	mov.w	r1, #500	; 0x1f4
 8005d12:	47a8      	blx	r5
 8005d14:	f8d8 0068 	ldr.w	r0, [r8, #104]	; 0x68
 8005d18:	2500      	movs	r5, #0
 8005d1a:	e573      	b.n	8005804 <_DrawBitmap+0xfc>
 8005d1c:	2e02      	cmp	r6, #2
 8005d1e:	f47f ad4b 	bne.w	80057b8 <_DrawBitmap+0xb0>
 8005d22:	9c07      	ldr	r4, [sp, #28]
 8005d24:	f8d5 a06c 	ldr.w	sl, [r5, #108]	; 0x6c
 8005d28:	9408      	str	r4, [sp, #32]
 8005d2a:	f04f 0800 	mov.w	r8, #0
 8005d2e:	46ab      	mov	fp, r5
 8005d30:	9f09      	ldr	r7, [sp, #36]	; 0x24
 8005d32:	f8dd 9014 	ldr.w	r9, [sp, #20]
 8005d36:	4645      	mov	r5, r8
 8005d38:	e00e      	b.n	8005d58 <_DrawBitmap+0x650>
 8005d3a:	b915      	cbnz	r5, 8005d42 <_DrawBitmap+0x63a>
 8005d3c:	f8db a06c 	ldr.w	sl, [fp, #108]	; 0x6c
 8005d40:	9408      	str	r4, [sp, #32]
 8005d42:	9d21      	ldr	r5, [sp, #132]	; 0x84
 8005d44:	f855 0026 	ldr.w	r0, [r5, r6, lsl #2]
 8005d48:	f82a 0b02 	strh.w	r0, [sl], #2
 8005d4c:	f108 0801 	add.w	r8, r8, #1
 8005d50:	2501      	movs	r5, #1
 8005d52:	3401      	adds	r4, #1
 8005d54:	3f01      	subs	r7, #1
 8005d56:	d00a      	beq.n	8005d6e <_DrawBitmap+0x666>
 8005d58:	f819 6004 	ldrb.w	r6, [r9, r4]
 8005d5c:	2e00      	cmp	r6, #0
 8005d5e:	d1ec      	bne.n	8005d3a <_DrawBitmap+0x632>
 8005d60:	2d01      	cmp	r5, #1
 8005d62:	f000 82f7 	beq.w	8006354 <_DrawBitmap+0xc4c>
 8005d66:	3401      	adds	r4, #1
 8005d68:	3f01      	subs	r7, #1
 8005d6a:	4635      	mov	r5, r6
 8005d6c:	d1f4      	bne.n	8005d58 <_DrawBitmap+0x650>
 8005d6e:	9a10      	ldr	r2, [sp, #64]	; 0x40
 8005d70:	9b07      	ldr	r3, [sp, #28]
 8005d72:	465d      	mov	r5, fp
 8005d74:	18d3      	adds	r3, r2, r3
 8005d76:	f1b8 0f00 	cmp.w	r8, #0
 8005d7a:	f43f ad1d 	beq.w	80057b8 <_DrawBitmap+0xb0>
 8005d7e:	9e04      	ldr	r6, [sp, #16]
 8005d80:	9908      	ldr	r1, [sp, #32]
 8005d82:	9600      	str	r6, [sp, #0]
 8005d84:	f8db 40a8 	ldr.w	r4, [fp, #168]	; 0xa8
 8005d88:	4658      	mov	r0, fp
 8005d8a:	4632      	mov	r2, r6
 8005d8c:	47a0      	blx	r4
 8005d8e:	f018 0f01 	tst.w	r8, #1
 8005d92:	f8db 406c 	ldr.w	r4, [fp, #108]	; 0x6c
 8005d96:	f8db 3068 	ldr.w	r3, [fp, #104]	; 0x68
 8005d9a:	4639      	mov	r1, r7
 8005d9c:	d007      	beq.n	8005dae <_DrawBitmap+0x6a6>
 8005d9e:	f834 7b02 	ldrh.w	r7, [r4], #2
 8005da2:	0a39      	lsrs	r1, r7, #8
 8005da4:	7019      	strb	r1, [r3, #0]
 8005da6:	2101      	movs	r1, #1
 8005da8:	705f      	strb	r7, [r3, #1]
 8005daa:	3302      	adds	r3, #2
 8005dac:	460f      	mov	r7, r1
 8005dae:	1c48      	adds	r0, r1, #1
 8005db0:	4547      	cmp	r7, r8
 8005db2:	f103 0202 	add.w	r2, r3, #2
 8005db6:	f107 0701 	add.w	r7, r7, #1
 8005dba:	f43f acf7 	beq.w	80057ac <_DrawBitmap+0xa4>
 8005dbe:	f834 1b02 	ldrh.w	r1, [r4], #2
 8005dc2:	0a0e      	lsrs	r6, r1, #8
 8005dc4:	28fa      	cmp	r0, #250	; 0xfa
 8005dc6:	701e      	strb	r6, [r3, #0]
 8005dc8:	7059      	strb	r1, [r3, #1]
 8005dca:	f000 83ee 	beq.w	80065aa <_DrawBitmap+0xea2>
 8005dce:	f834 6b02 	ldrh.w	r6, [r4], #2
 8005dd2:	1c41      	adds	r1, r0, #1
 8005dd4:	1c93      	adds	r3, r2, #2
 8005dd6:	0a30      	lsrs	r0, r6, #8
 8005dd8:	29fa      	cmp	r1, #250	; 0xfa
 8005dda:	7010      	strb	r0, [r2, #0]
 8005ddc:	7056      	strb	r6, [r2, #1]
 8005dde:	f000 835c 	beq.w	800649a <_DrawBitmap+0xd92>
 8005de2:	3701      	adds	r7, #1
 8005de4:	e7e3      	b.n	8005dae <_DrawBitmap+0x6a6>
 8005de6:	f1bb 0f02 	cmp.w	fp, #2
 8005dea:	f47f ace5 	bne.w	80057b8 <_DrawBitmap+0xb0>
 8005dee:	6eee      	ldr	r6, [r5, #108]	; 0x6c
 8005df0:	980e      	ldr	r0, [sp, #56]	; 0x38
 8005df2:	9608      	str	r6, [sp, #32]
 8005df4:	f04f 0c00 	mov.w	ip, #0
 8005df8:	940a      	str	r4, [sp, #40]	; 0x28
 8005dfa:	900f      	str	r0, [sp, #60]	; 0x3c
 8005dfc:	9e20      	ldr	r6, [sp, #128]	; 0x80
 8005dfe:	f8dd 8024 	ldr.w	r8, [sp, #36]	; 0x24
 8005e02:	f8dd a038 	ldr.w	sl, [sp, #56]	; 0x38
 8005e06:	46e3      	mov	fp, ip
 8005e08:	4664      	mov	r4, ip
 8005e0a:	e016      	b.n	8005e3a <_DrawBitmap+0x732>
 8005e0c:	b91c      	cbnz	r4, 8005e16 <_DrawBitmap+0x70e>
 8005e0e:	6eec      	ldr	r4, [r5, #108]	; 0x6c
 8005e10:	f8cd a03c 	str.w	sl, [sp, #60]	; 0x3c
 8005e14:	9408      	str	r4, [sp, #32]
 8005e16:	9821      	ldr	r0, [sp, #132]	; 0x84
 8005e18:	9b08      	ldr	r3, [sp, #32]
 8005e1a:	f850 202c 	ldr.w	r2, [r0, ip, lsl #2]
 8005e1e:	f823 2b02 	strh.w	r2, [r3], #2
 8005e22:	f10b 0b01 	add.w	fp, fp, #1
 8005e26:	9308      	str	r3, [sp, #32]
 8005e28:	2401      	movs	r4, #1
 8005e2a:	3601      	adds	r6, #1
 8005e2c:	2e02      	cmp	r6, #2
 8005e2e:	f10a 0a01 	add.w	sl, sl, #1
 8005e32:	d018      	beq.n	8005e66 <_DrawBitmap+0x75e>
 8005e34:	f1b8 0801 	subs.w	r8, r8, #1
 8005e38:	d01f      	beq.n	8005e7a <_DrawBitmap+0x772>
 8005e3a:	f1c6 0301 	rsb	r3, r6, #1
 8005e3e:	009a      	lsls	r2, r3, #2
 8005e40:	20f0      	movs	r0, #240	; 0xf0
 8005e42:	f1c2 0104 	rsb	r1, r2, #4
 8005e46:	fa40 fc01 	asr.w	ip, r0, r1
 8005e4a:	ea0c 0309 	and.w	r3, ip, r9
 8005e4e:	fa33 fc02 	lsrs.w	ip, r3, r2
 8005e52:	d1db      	bne.n	8005e0c <_DrawBitmap+0x704>
 8005e54:	2c01      	cmp	r4, #1
 8005e56:	f000 822e 	beq.w	80062b6 <_DrawBitmap+0xbae>
 8005e5a:	3601      	adds	r6, #1
 8005e5c:	2e02      	cmp	r6, #2
 8005e5e:	4664      	mov	r4, ip
 8005e60:	f10a 0a01 	add.w	sl, sl, #1
 8005e64:	d1e6      	bne.n	8005e34 <_DrawBitmap+0x72c>
 8005e66:	9e0a      	ldr	r6, [sp, #40]	; 0x28
 8005e68:	990a      	ldr	r1, [sp, #40]	; 0x28
 8005e6a:	f896 9001 	ldrb.w	r9, [r6, #1]
 8005e6e:	1c48      	adds	r0, r1, #1
 8005e70:	2600      	movs	r6, #0
 8005e72:	f1b8 0801 	subs.w	r8, r8, #1
 8005e76:	900a      	str	r0, [sp, #40]	; 0x28
 8005e78:	d1df      	bne.n	8005e3a <_DrawBitmap+0x732>
 8005e7a:	f1bb 0f00 	cmp.w	fp, #0
 8005e7e:	f43f ac9b 	beq.w	80057b8 <_DrawBitmap+0xb0>
 8005e82:	9a04      	ldr	r2, [sp, #16]
 8005e84:	990f      	ldr	r1, [sp, #60]	; 0x3c
 8005e86:	9200      	str	r2, [sp, #0]
 8005e88:	f8d5 40a8 	ldr.w	r4, [r5, #168]	; 0xa8
 8005e8c:	9b11      	ldr	r3, [sp, #68]	; 0x44
 8005e8e:	f8cd b00c 	str.w	fp, [sp, #12]
 8005e92:	4628      	mov	r0, r5
 8005e94:	47a0      	blx	r4
 8005e96:	f8dd c00c 	ldr.w	ip, [sp, #12]
 8005e9a:	6eec      	ldr	r4, [r5, #108]	; 0x6c
 8005e9c:	6eab      	ldr	r3, [r5, #104]	; 0x68
 8005e9e:	f01c 0f01 	tst.w	ip, #1
 8005ea2:	4641      	mov	r1, r8
 8005ea4:	f040 8351 	bne.w	800654a <_DrawBitmap+0xe42>
 8005ea8:	4666      	mov	r6, ip
 8005eaa:	e00b      	b.n	8005ec4 <_DrawBitmap+0x7bc>
 8005eac:	f834 3b02 	ldrh.w	r3, [r4], #2
 8005eb0:	1c41      	adds	r1, r0, #1
 8005eb2:	7053      	strb	r3, [r2, #1]
 8005eb4:	0a18      	lsrs	r0, r3, #8
 8005eb6:	1c93      	adds	r3, r2, #2
 8005eb8:	29fa      	cmp	r1, #250	; 0xfa
 8005eba:	7010      	strb	r0, [r2, #0]
 8005ebc:	f000 8387 	beq.w	80065ce <_DrawBitmap+0xec6>
 8005ec0:	f108 0801 	add.w	r8, r8, #1
 8005ec4:	1c48      	adds	r0, r1, #1
 8005ec6:	45b0      	cmp	r8, r6
 8005ec8:	f103 0202 	add.w	r2, r3, #2
 8005ecc:	f108 0801 	add.w	r8, r8, #1
 8005ed0:	f43f ac6c 	beq.w	80057ac <_DrawBitmap+0xa4>
 8005ed4:	f834 1b02 	ldrh.w	r1, [r4], #2
 8005ed8:	0a0f      	lsrs	r7, r1, #8
 8005eda:	28fa      	cmp	r0, #250	; 0xfa
 8005edc:	701f      	strb	r7, [r3, #0]
 8005ede:	7059      	strb	r1, [r3, #1]
 8005ee0:	d1e4      	bne.n	8005eac <_DrawBitmap+0x7a4>
 8005ee2:	6ea8      	ldr	r0, [r5, #104]	; 0x68
 8005ee4:	f8d5 3118 	ldr.w	r3, [r5, #280]	; 0x118
 8005ee8:	f44f 71fa 	mov.w	r1, #500	; 0x1f4
 8005eec:	4798      	blx	r3
 8005eee:	6eaa      	ldr	r2, [r5, #104]	; 0x68
 8005ef0:	2000      	movs	r0, #0
 8005ef2:	e7db      	b.n	8005eac <_DrawBitmap+0x7a4>
 8005ef4:	f1bb 0f02 	cmp.w	fp, #2
 8005ef8:	f47f ac5e 	bne.w	80057b8 <_DrawBitmap+0xb0>
 8005efc:	6eee      	ldr	r6, [r5, #108]	; 0x6c
 8005efe:	990e      	ldr	r1, [sp, #56]	; 0x38
 8005f00:	9608      	str	r6, [sp, #32]
 8005f02:	f04f 0000 	mov.w	r0, #0
 8005f06:	940a      	str	r4, [sp, #40]	; 0x28
 8005f08:	910f      	str	r1, [sp, #60]	; 0x3c
 8005f0a:	9e20      	ldr	r6, [sp, #128]	; 0x80
 8005f0c:	f8dd 8024 	ldr.w	r8, [sp, #36]	; 0x24
 8005f10:	f8dd a038 	ldr.w	sl, [sp, #56]	; 0x38
 8005f14:	4683      	mov	fp, r0
 8005f16:	4604      	mov	r4, r0
 8005f18:	e016      	b.n	8005f48 <_DrawBitmap+0x840>
 8005f1a:	b91c      	cbnz	r4, 8005f24 <_DrawBitmap+0x81c>
 8005f1c:	6eec      	ldr	r4, [r5, #108]	; 0x6c
 8005f1e:	f8cd a03c 	str.w	sl, [sp, #60]	; 0x3c
 8005f22:	9408      	str	r4, [sp, #32]
 8005f24:	9821      	ldr	r0, [sp, #132]	; 0x84
 8005f26:	9b08      	ldr	r3, [sp, #32]
 8005f28:	f850 202c 	ldr.w	r2, [r0, ip, lsl #2]
 8005f2c:	f823 2b02 	strh.w	r2, [r3], #2
 8005f30:	f10b 0b01 	add.w	fp, fp, #1
 8005f34:	9308      	str	r3, [sp, #32]
 8005f36:	2401      	movs	r4, #1
 8005f38:	3601      	adds	r6, #1
 8005f3a:	2e04      	cmp	r6, #4
 8005f3c:	f10a 0a01 	add.w	sl, sl, #1
 8005f40:	d018      	beq.n	8005f74 <_DrawBitmap+0x86c>
 8005f42:	f1b8 0801 	subs.w	r8, r8, #1
 8005f46:	d01f      	beq.n	8005f88 <_DrawBitmap+0x880>
 8005f48:	f1c6 0303 	rsb	r3, r6, #3
 8005f4c:	005a      	lsls	r2, r3, #1
 8005f4e:	f1c2 0c06 	rsb	ip, r2, #6
 8005f52:	20c0      	movs	r0, #192	; 0xc0
 8005f54:	fa40 f10c 	asr.w	r1, r0, ip
 8005f58:	ea01 0309 	and.w	r3, r1, r9
 8005f5c:	fa33 fc02 	lsrs.w	ip, r3, r2
 8005f60:	d1db      	bne.n	8005f1a <_DrawBitmap+0x812>
 8005f62:	2c01      	cmp	r4, #1
 8005f64:	f000 8158 	beq.w	8006218 <_DrawBitmap+0xb10>
 8005f68:	3601      	adds	r6, #1
 8005f6a:	2e04      	cmp	r6, #4
 8005f6c:	4664      	mov	r4, ip
 8005f6e:	f10a 0a01 	add.w	sl, sl, #1
 8005f72:	d1e6      	bne.n	8005f42 <_DrawBitmap+0x83a>
 8005f74:	9e0a      	ldr	r6, [sp, #40]	; 0x28
 8005f76:	990a      	ldr	r1, [sp, #40]	; 0x28
 8005f78:	f896 9001 	ldrb.w	r9, [r6, #1]
 8005f7c:	1c48      	adds	r0, r1, #1
 8005f7e:	2600      	movs	r6, #0
 8005f80:	f1b8 0801 	subs.w	r8, r8, #1
 8005f84:	900a      	str	r0, [sp, #40]	; 0x28
 8005f86:	d1df      	bne.n	8005f48 <_DrawBitmap+0x840>
 8005f88:	f1bb 0f00 	cmp.w	fp, #0
 8005f8c:	f43f ac14 	beq.w	80057b8 <_DrawBitmap+0xb0>
 8005f90:	9a04      	ldr	r2, [sp, #16]
 8005f92:	990f      	ldr	r1, [sp, #60]	; 0x3c
 8005f94:	9200      	str	r2, [sp, #0]
 8005f96:	f8d5 40a8 	ldr.w	r4, [r5, #168]	; 0xa8
 8005f9a:	9b11      	ldr	r3, [sp, #68]	; 0x44
 8005f9c:	f8cd b00c 	str.w	fp, [sp, #12]
 8005fa0:	4628      	mov	r0, r5
 8005fa2:	47a0      	blx	r4
 8005fa4:	f8dd c00c 	ldr.w	ip, [sp, #12]
 8005fa8:	6eec      	ldr	r4, [r5, #108]	; 0x6c
 8005faa:	6eab      	ldr	r3, [r5, #104]	; 0x68
 8005fac:	f01c 0f01 	tst.w	ip, #1
 8005fb0:	4641      	mov	r1, r8
 8005fb2:	f040 82c0 	bne.w	8006536 <_DrawBitmap+0xe2e>
 8005fb6:	4666      	mov	r6, ip
 8005fb8:	e00e      	b.n	8005fd8 <_DrawBitmap+0x8d0>
 8005fba:	bf00      	nop
 8005fbc:	1ffe8808 	.word	0x1ffe8808
 8005fc0:	f834 3b02 	ldrh.w	r3, [r4], #2
 8005fc4:	1c41      	adds	r1, r0, #1
 8005fc6:	7053      	strb	r3, [r2, #1]
 8005fc8:	0a18      	lsrs	r0, r3, #8
 8005fca:	1c93      	adds	r3, r2, #2
 8005fcc:	29fa      	cmp	r1, #250	; 0xfa
 8005fce:	7010      	strb	r0, [r2, #0]
 8005fd0:	f000 82f4 	beq.w	80065bc <_DrawBitmap+0xeb4>
 8005fd4:	f108 0801 	add.w	r8, r8, #1
 8005fd8:	1c48      	adds	r0, r1, #1
 8005fda:	45b0      	cmp	r8, r6
 8005fdc:	f103 0202 	add.w	r2, r3, #2
 8005fe0:	f108 0801 	add.w	r8, r8, #1
 8005fe4:	f43f abe2 	beq.w	80057ac <_DrawBitmap+0xa4>
 8005fe8:	f834 1b02 	ldrh.w	r1, [r4], #2
 8005fec:	0a0f      	lsrs	r7, r1, #8
 8005fee:	28fa      	cmp	r0, #250	; 0xfa
 8005ff0:	701f      	strb	r7, [r3, #0]
 8005ff2:	7059      	strb	r1, [r3, #1]
 8005ff4:	d1e4      	bne.n	8005fc0 <_DrawBitmap+0x8b8>
 8005ff6:	6ea8      	ldr	r0, [r5, #104]	; 0x68
 8005ff8:	f8d5 3118 	ldr.w	r3, [r5, #280]	; 0x118
 8005ffc:	f44f 71fa 	mov.w	r1, #500	; 0x1f4
 8006000:	4798      	blx	r3
 8006002:	6eaa      	ldr	r2, [r5, #104]	; 0x68
 8006004:	2000      	movs	r0, #0
 8006006:	e7db      	b.n	8005fc0 <_DrawBitmap+0x8b8>
 8006008:	4659      	mov	r1, fp
 800600a:	e610      	b.n	8005c2e <_DrawBitmap+0x526>
 800600c:	9920      	ldr	r1, [sp, #128]	; 0x80
 800600e:	9e09      	ldr	r6, [sp, #36]	; 0x24
 8006010:	7827      	ldrb	r7, [r4, #0]
 8006012:	f04f 0b80 	mov.w	fp, #128	; 0x80
 8006016:	fa4b f201 	asr.w	r2, fp, r1
 800601a:	f106 3aff 	add.w	sl, r6, #4294967295
 800601e:	4217      	tst	r7, r2
 8006020:	f00a 0601 	and.w	r6, sl, #1
 8006024:	f040 82ea 	bne.w	80065fc <_DrawBitmap+0xef4>
 8006028:	9820      	ldr	r0, [sp, #128]	; 0x80
 800602a:	9a0e      	ldr	r2, [sp, #56]	; 0x38
 800602c:	1c47      	adds	r7, r0, #1
 800602e:	2f08      	cmp	r7, #8
 8006030:	f102 0801 	add.w	r8, r2, #1
 8006034:	f000 82f2 	beq.w	800661c <_DrawBitmap+0xf14>
 8006038:	9b09      	ldr	r3, [sp, #36]	; 0x24
 800603a:	f1b3 0901 	subs.w	r9, r3, #1
 800603e:	f43f abbb 	beq.w	80057b8 <_DrawBitmap+0xb0>
 8006042:	b17e      	cbz	r6, 8006064 <_DrawBitmap+0x95c>
 8006044:	7826      	ldrb	r6, [r4, #0]
 8006046:	fa4b f107 	asr.w	r1, fp, r7
 800604a:	420e      	tst	r6, r1
 800604c:	f040 82ed 	bne.w	800662a <_DrawBitmap+0xf22>
 8006050:	3701      	adds	r7, #1
 8006052:	2f08      	cmp	r7, #8
 8006054:	f108 0801 	add.w	r8, r8, #1
 8006058:	f000 82fc 	beq.w	8006654 <_DrawBitmap+0xf4c>
 800605c:	f1b9 0901 	subs.w	r9, r9, #1
 8006060:	f43f abaa 	beq.w	80057b8 <_DrawBitmap+0xb0>
 8006064:	46c4      	mov	ip, r8
 8006066:	46a8      	mov	r8, r5
 8006068:	9d0c      	ldr	r5, [sp, #48]	; 0x30
 800606a:	e00f      	b.n	800608c <_DrawBitmap+0x984>
 800606c:	2e08      	cmp	r6, #8
 800606e:	d02c      	beq.n	80060ca <_DrawBitmap+0x9c2>
 8006070:	7822      	ldrb	r2, [r4, #0]
 8006072:	fa4b f006 	asr.w	r0, fp, r6
 8006076:	4202      	tst	r2, r0
 8006078:	d12e      	bne.n	80060d8 <_DrawBitmap+0x9d0>
 800607a:	1c77      	adds	r7, r6, #1
 800607c:	2f08      	cmp	r7, #8
 800607e:	f10a 0c01 	add.w	ip, sl, #1
 8006082:	d03e      	beq.n	8006102 <_DrawBitmap+0x9fa>
 8006084:	f1b9 0901 	subs.w	r9, r9, #1
 8006088:	f43f ab96 	beq.w	80057b8 <_DrawBitmap+0xb0>
 800608c:	7820      	ldrb	r0, [r4, #0]
 800608e:	fa4b f107 	asr.w	r1, fp, r7
 8006092:	1c7e      	adds	r6, r7, #1
 8006094:	4208      	tst	r0, r1
 8006096:	f10c 0a01 	add.w	sl, ip, #1
 800609a:	f109 39ff 	add.w	r9, r9, #4294967295
 800609e:	d0e5      	beq.n	800606c <_DrawBitmap+0x964>
 80060a0:	4661      	mov	r1, ip
 80060a2:	f8d8 70ec 	ldr.w	r7, [r8, #236]	; 0xec
 80060a6:	9a04      	ldr	r2, [sp, #16]
 80060a8:	f8cd c00c 	str.w	ip, [sp, #12]
 80060ac:	4628      	mov	r0, r5
 80060ae:	47b8      	blx	r7
 80060b0:	f8d8 3028 	ldr.w	r3, [r8, #40]	; 0x28
 80060b4:	f8dd c00c 	ldr.w	ip, [sp, #12]
 80060b8:	f8d8 70f0 	ldr.w	r7, [r8, #240]	; 0xf0
 80060bc:	9a04      	ldr	r2, [sp, #16]
 80060be:	4043      	eors	r3, r0
 80060c0:	4661      	mov	r1, ip
 80060c2:	4628      	mov	r0, r5
 80060c4:	47b8      	blx	r7
 80060c6:	2e08      	cmp	r6, #8
 80060c8:	d1d2      	bne.n	8006070 <_DrawBitmap+0x968>
 80060ca:	3401      	adds	r4, #1
 80060cc:	2600      	movs	r6, #0
 80060ce:	7822      	ldrb	r2, [r4, #0]
 80060d0:	fa4b f006 	asr.w	r0, fp, r6
 80060d4:	4202      	tst	r2, r0
 80060d6:	d0d0      	beq.n	800607a <_DrawBitmap+0x972>
 80060d8:	4651      	mov	r1, sl
 80060da:	9a04      	ldr	r2, [sp, #16]
 80060dc:	f8d8 30ec 	ldr.w	r3, [r8, #236]	; 0xec
 80060e0:	4628      	mov	r0, r5
 80060e2:	4798      	blx	r3
 80060e4:	f8d8 1028 	ldr.w	r1, [r8, #40]	; 0x28
 80060e8:	f8d8 70f0 	ldr.w	r7, [r8, #240]	; 0xf0
 80060ec:	9a04      	ldr	r2, [sp, #16]
 80060ee:	ea80 0301 	eor.w	r3, r0, r1
 80060f2:	4651      	mov	r1, sl
 80060f4:	4628      	mov	r0, r5
 80060f6:	47b8      	blx	r7
 80060f8:	1c77      	adds	r7, r6, #1
 80060fa:	2f08      	cmp	r7, #8
 80060fc:	f10a 0c01 	add.w	ip, sl, #1
 8006100:	d1c0      	bne.n	8006084 <_DrawBitmap+0x97c>
 8006102:	3401      	adds	r4, #1
 8006104:	2700      	movs	r7, #0
 8006106:	e7bd      	b.n	8006084 <_DrawBitmap+0x97c>
 8006108:	6eee      	ldr	r6, [r5, #108]	; 0x6c
 800610a:	9a0e      	ldr	r2, [sp, #56]	; 0x38
 800610c:	9608      	str	r6, [sp, #32]
 800610e:	f04f 0a00 	mov.w	sl, #0
 8006112:	46ac      	mov	ip, r5
 8006114:	4625      	mov	r5, r4
 8006116:	920f      	str	r2, [sp, #60]	; 0x3c
 8006118:	f8dd 8024 	ldr.w	r8, [sp, #36]	; 0x24
 800611c:	9e20      	ldr	r6, [sp, #128]	; 0x80
 800611e:	f8dd 9038 	ldr.w	r9, [sp, #56]	; 0x38
 8006122:	4654      	mov	r4, sl
 8006124:	46ab      	mov	fp, r5
 8006126:	e018      	b.n	800615a <_DrawBitmap+0xa52>
 8006128:	b924      	cbnz	r4, 8006134 <_DrawBitmap+0xa2c>
 800612a:	f8dc 506c 	ldr.w	r5, [ip, #108]	; 0x6c
 800612e:	f8cd 903c 	str.w	r9, [sp, #60]	; 0x3c
 8006132:	9508      	str	r5, [sp, #32]
 8006134:	9808      	ldr	r0, [sp, #32]
 8006136:	9a0a      	ldr	r2, [sp, #40]	; 0x28
 8006138:	f820 2b02 	strh.w	r2, [r0], #2
 800613c:	f10a 0a01 	add.w	sl, sl, #1
 8006140:	9008      	str	r0, [sp, #32]
 8006142:	2401      	movs	r4, #1
 8006144:	3601      	adds	r6, #1
 8006146:	2e08      	cmp	r6, #8
 8006148:	bf04      	itt	eq
 800614a:	f10b 0b01 	addeq.w	fp, fp, #1
 800614e:	2600      	moveq	r6, #0
 8006150:	f1b8 0801 	subs.w	r8, r8, #1
 8006154:	f109 0901 	add.w	r9, r9, #1
 8006158:	d00b      	beq.n	8006172 <_DrawBitmap+0xa6a>
 800615a:	2380      	movs	r3, #128	; 0x80
 800615c:	f89b 0000 	ldrb.w	r0, [fp]
 8006160:	4133      	asrs	r3, r6
 8006162:	ea10 0503 	ands.w	r5, r0, r3
 8006166:	d1df      	bne.n	8006128 <_DrawBitmap+0xa20>
 8006168:	2c01      	cmp	r4, #1
 800616a:	f000 813a 	beq.w	80063e2 <_DrawBitmap+0xcda>
 800616e:	462c      	mov	r4, r5
 8006170:	e7e8      	b.n	8006144 <_DrawBitmap+0xa3c>
 8006172:	4665      	mov	r5, ip
 8006174:	f1ba 0f00 	cmp.w	sl, #0
 8006178:	f43f ab1e 	beq.w	80057b8 <_DrawBitmap+0xb0>
 800617c:	9b04      	ldr	r3, [sp, #16]
 800617e:	990f      	ldr	r1, [sp, #60]	; 0x3c
 8006180:	9300      	str	r3, [sp, #0]
 8006182:	f8dc 40a8 	ldr.w	r4, [ip, #168]	; 0xa8
 8006186:	461a      	mov	r2, r3
 8006188:	4660      	mov	r0, ip
 800618a:	9b11      	ldr	r3, [sp, #68]	; 0x44
 800618c:	47a0      	blx	r4
 800618e:	f01a 0f01 	tst.w	sl, #1
 8006192:	6eec      	ldr	r4, [r5, #108]	; 0x6c
 8006194:	6eab      	ldr	r3, [r5, #104]	; 0x68
 8006196:	4641      	mov	r1, r8
 8006198:	d014      	beq.n	80061c4 <_DrawBitmap+0xabc>
 800619a:	f834 0b02 	ldrh.w	r0, [r4], #2
 800619e:	0a01      	lsrs	r1, r0, #8
 80061a0:	7019      	strb	r1, [r3, #0]
 80061a2:	2101      	movs	r1, #1
 80061a4:	7058      	strb	r0, [r3, #1]
 80061a6:	4688      	mov	r8, r1
 80061a8:	3302      	adds	r3, #2
 80061aa:	e00b      	b.n	80061c4 <_DrawBitmap+0xabc>
 80061ac:	f834 6b02 	ldrh.w	r6, [r4], #2
 80061b0:	1c41      	adds	r1, r0, #1
 80061b2:	1c93      	adds	r3, r2, #2
 80061b4:	0a30      	lsrs	r0, r6, #8
 80061b6:	29fa      	cmp	r1, #250	; 0xfa
 80061b8:	7010      	strb	r0, [r2, #0]
 80061ba:	7056      	strb	r6, [r2, #1]
 80061bc:	f000 824d 	beq.w	800665a <_DrawBitmap+0xf52>
 80061c0:	f108 0801 	add.w	r8, r8, #1
 80061c4:	1c48      	adds	r0, r1, #1
 80061c6:	45d0      	cmp	r8, sl
 80061c8:	f103 0202 	add.w	r2, r3, #2
 80061cc:	f108 0801 	add.w	r8, r8, #1
 80061d0:	f43f aaec 	beq.w	80057ac <_DrawBitmap+0xa4>
 80061d4:	f834 1b02 	ldrh.w	r1, [r4], #2
 80061d8:	0a0e      	lsrs	r6, r1, #8
 80061da:	28fa      	cmp	r0, #250	; 0xfa
 80061dc:	701e      	strb	r6, [r3, #0]
 80061de:	7059      	strb	r1, [r3, #1]
 80061e0:	d1e4      	bne.n	80061ac <_DrawBitmap+0xaa4>
 80061e2:	6ea8      	ldr	r0, [r5, #104]	; 0x68
 80061e4:	f8d5 3118 	ldr.w	r3, [r5, #280]	; 0x118
 80061e8:	f44f 71fa 	mov.w	r1, #500	; 0x1f4
 80061ec:	4798      	blx	r3
 80061ee:	6eaa      	ldr	r2, [r5, #104]	; 0x68
 80061f0:	2000      	movs	r0, #0
 80061f2:	e7db      	b.n	80061ac <_DrawBitmap+0xaa4>
 80061f4:	3401      	adds	r4, #1
 80061f6:	2600      	movs	r6, #0
 80061f8:	e543      	b.n	8005c82 <_DrawBitmap+0x57a>
 80061fa:	f894 9001 	ldrb.w	r9, [r4, #1]
 80061fe:	f04f 0a00 	mov.w	sl, #0
 8006202:	3401      	adds	r4, #1
 8006204:	e4bb      	b.n	8005b7e <_DrawBitmap+0x476>
 8006206:	f894 9001 	ldrb.w	r9, [r4, #1]
 800620a:	f04f 0a00 	mov.w	sl, #0
 800620e:	3401      	adds	r4, #1
 8006210:	e403      	b.n	8005a1a <_DrawBitmap+0x312>
 8006212:	3401      	adds	r4, #1
 8006214:	2600      	movs	r6, #0
 8006216:	e54d      	b.n	8005cb4 <_DrawBitmap+0x5ac>
 8006218:	9f04      	ldr	r7, [sp, #16]
 800621a:	990f      	ldr	r1, [sp, #60]	; 0x3c
 800621c:	9700      	str	r7, [sp, #0]
 800621e:	f8d5 70a8 	ldr.w	r7, [r5, #168]	; 0xa8
 8006222:	9a04      	ldr	r2, [sp, #16]
 8006224:	f8cd c00c 	str.w	ip, [sp, #12]
 8006228:	f10a 33ff 	add.w	r3, sl, #4294967295
 800622c:	4628      	mov	r0, r5
 800622e:	47b8      	blx	r7
 8006230:	f8dd c00c 	ldr.w	ip, [sp, #12]
 8006234:	6eef      	ldr	r7, [r5, #108]	; 0x6c
 8006236:	6eab      	ldr	r3, [r5, #104]	; 0x68
 8006238:	f01b 0f01 	tst.w	fp, #1
 800623c:	4661      	mov	r1, ip
 800623e:	d029      	beq.n	8006294 <_DrawBitmap+0xb8c>
 8006240:	f837 2b02 	ldrh.w	r2, [r7], #2
 8006244:	4621      	mov	r1, r4
 8006246:	0a10      	lsrs	r0, r2, #8
 8006248:	f04f 0c01 	mov.w	ip, #1
 800624c:	7018      	strb	r0, [r3, #0]
 800624e:	705a      	strb	r2, [r3, #1]
 8006250:	1c48      	adds	r0, r1, #1
 8006252:	3302      	adds	r3, #2
 8006254:	45dc      	cmp	ip, fp
 8006256:	f103 0202 	add.w	r2, r3, #2
 800625a:	f10c 0401 	add.w	r4, ip, #1
 800625e:	d120      	bne.n	80062a2 <_DrawBitmap+0xb9a>
 8006260:	2900      	cmp	r1, #0
 8006262:	f040 8153 	bne.w	800650c <_DrawBitmap+0xe04>
 8006266:	468b      	mov	fp, r1
 8006268:	460c      	mov	r4, r1
 800626a:	e665      	b.n	8005f38 <_DrawBitmap+0x830>
 800626c:	f8d5 2118 	ldr.w	r2, [r5, #280]	; 0x118
 8006270:	6ea8      	ldr	r0, [r5, #104]	; 0x68
 8006272:	f44f 71fa 	mov.w	r1, #500	; 0x1f4
 8006276:	4790      	blx	r2
 8006278:	6eaa      	ldr	r2, [r5, #104]	; 0x68
 800627a:	2000      	movs	r0, #0
 800627c:	f837 3b02 	ldrh.w	r3, [r7], #2
 8006280:	1c41      	adds	r1, r0, #1
 8006282:	7053      	strb	r3, [r2, #1]
 8006284:	0a18      	lsrs	r0, r3, #8
 8006286:	1c93      	adds	r3, r2, #2
 8006288:	29fa      	cmp	r1, #250	; 0xfa
 800628a:	7010      	strb	r0, [r2, #0]
 800628c:	f000 8172 	beq.w	8006574 <_DrawBitmap+0xe6c>
 8006290:	f104 0c01 	add.w	ip, r4, #1
 8006294:	1c48      	adds	r0, r1, #1
 8006296:	45dc      	cmp	ip, fp
 8006298:	f103 0202 	add.w	r2, r3, #2
 800629c:	f10c 0401 	add.w	r4, ip, #1
 80062a0:	d0de      	beq.n	8006260 <_DrawBitmap+0xb58>
 80062a2:	f837 1b02 	ldrh.w	r1, [r7], #2
 80062a6:	28fa      	cmp	r0, #250	; 0xfa
 80062a8:	ea4f 2e11 	mov.w	lr, r1, lsr #8
 80062ac:	f883 e000 	strb.w	lr, [r3]
 80062b0:	7059      	strb	r1, [r3, #1]
 80062b2:	d1e3      	bne.n	800627c <_DrawBitmap+0xb74>
 80062b4:	e7da      	b.n	800626c <_DrawBitmap+0xb64>
 80062b6:	9f04      	ldr	r7, [sp, #16]
 80062b8:	990f      	ldr	r1, [sp, #60]	; 0x3c
 80062ba:	9700      	str	r7, [sp, #0]
 80062bc:	f8d5 70a8 	ldr.w	r7, [r5, #168]	; 0xa8
 80062c0:	9a04      	ldr	r2, [sp, #16]
 80062c2:	f8cd c00c 	str.w	ip, [sp, #12]
 80062c6:	f10a 33ff 	add.w	r3, sl, #4294967295
 80062ca:	4628      	mov	r0, r5
 80062cc:	47b8      	blx	r7
 80062ce:	f8dd c00c 	ldr.w	ip, [sp, #12]
 80062d2:	6eef      	ldr	r7, [r5, #108]	; 0x6c
 80062d4:	6eab      	ldr	r3, [r5, #104]	; 0x68
 80062d6:	f01b 0f01 	tst.w	fp, #1
 80062da:	4661      	mov	r1, ip
 80062dc:	d029      	beq.n	8006332 <_DrawBitmap+0xc2a>
 80062de:	f837 2b02 	ldrh.w	r2, [r7], #2
 80062e2:	0a11      	lsrs	r1, r2, #8
 80062e4:	7019      	strb	r1, [r3, #0]
 80062e6:	f04f 0c01 	mov.w	ip, #1
 80062ea:	4621      	mov	r1, r4
 80062ec:	705a      	strb	r2, [r3, #1]
 80062ee:	1c48      	adds	r0, r1, #1
 80062f0:	3302      	adds	r3, #2
 80062f2:	45dc      	cmp	ip, fp
 80062f4:	f103 0202 	add.w	r2, r3, #2
 80062f8:	f10c 0401 	add.w	r4, ip, #1
 80062fc:	d120      	bne.n	8006340 <_DrawBitmap+0xc38>
 80062fe:	2900      	cmp	r1, #0
 8006300:	f040 80f1 	bne.w	80064e6 <_DrawBitmap+0xdde>
 8006304:	468b      	mov	fp, r1
 8006306:	460c      	mov	r4, r1
 8006308:	e58f      	b.n	8005e2a <_DrawBitmap+0x722>
 800630a:	f8d5 2118 	ldr.w	r2, [r5, #280]	; 0x118
 800630e:	6ea8      	ldr	r0, [r5, #104]	; 0x68
 8006310:	f44f 71fa 	mov.w	r1, #500	; 0x1f4
 8006314:	4790      	blx	r2
 8006316:	6eaa      	ldr	r2, [r5, #104]	; 0x68
 8006318:	2000      	movs	r0, #0
 800631a:	f837 3b02 	ldrh.w	r3, [r7], #2
 800631e:	1c41      	adds	r1, r0, #1
 8006320:	7053      	strb	r3, [r2, #1]
 8006322:	0a18      	lsrs	r0, r3, #8
 8006324:	1c93      	adds	r3, r2, #2
 8006326:	29fa      	cmp	r1, #250	; 0xfa
 8006328:	7010      	strb	r0, [r2, #0]
 800632a:	f000 812c 	beq.w	8006586 <_DrawBitmap+0xe7e>
 800632e:	f104 0c01 	add.w	ip, r4, #1
 8006332:	1c48      	adds	r0, r1, #1
 8006334:	45dc      	cmp	ip, fp
 8006336:	f103 0202 	add.w	r2, r3, #2
 800633a:	f10c 0401 	add.w	r4, ip, #1
 800633e:	d0de      	beq.n	80062fe <_DrawBitmap+0xbf6>
 8006340:	f837 1b02 	ldrh.w	r1, [r7], #2
 8006344:	28fa      	cmp	r0, #250	; 0xfa
 8006346:	ea4f 2e11 	mov.w	lr, r1, lsr #8
 800634a:	f883 e000 	strb.w	lr, [r3]
 800634e:	7059      	strb	r1, [r3, #1]
 8006350:	d1e3      	bne.n	800631a <_DrawBitmap+0xc12>
 8006352:	e7da      	b.n	800630a <_DrawBitmap+0xc02>
 8006354:	9804      	ldr	r0, [sp, #16]
 8006356:	9908      	ldr	r1, [sp, #32]
 8006358:	9000      	str	r0, [sp, #0]
 800635a:	1e63      	subs	r3, r4, #1
 800635c:	9a04      	ldr	r2, [sp, #16]
 800635e:	9603      	str	r6, [sp, #12]
 8006360:	4658      	mov	r0, fp
 8006362:	f8db 60a8 	ldr.w	r6, [fp, #168]	; 0xa8
 8006366:	47b0      	blx	r6
 8006368:	f8dd c00c 	ldr.w	ip, [sp, #12]
 800636c:	f8db 206c 	ldr.w	r2, [fp, #108]	; 0x6c
 8006370:	f8db 3068 	ldr.w	r3, [fp, #104]	; 0x68
 8006374:	f018 0f01 	tst.w	r8, #1
 8006378:	4661      	mov	r1, ip
 800637a:	f000 80ae 	beq.w	80064da <_DrawBitmap+0xdd2>
 800637e:	f832 1b02 	ldrh.w	r1, [r2], #2
 8006382:	0a08      	lsrs	r0, r1, #8
 8006384:	7059      	strb	r1, [r3, #1]
 8006386:	7018      	strb	r0, [r3, #0]
 8006388:	4629      	mov	r1, r5
 800638a:	3302      	adds	r3, #2
 800638c:	f04f 0601 	mov.w	r6, #1
 8006390:	4615      	mov	r5, r2
 8006392:	1c48      	adds	r0, r1, #1
 8006394:	4546      	cmp	r6, r8
 8006396:	f103 0202 	add.w	r2, r3, #2
 800639a:	f106 0601 	add.w	r6, r6, #1
 800639e:	d01a      	beq.n	80063d6 <_DrawBitmap+0xcce>
 80063a0:	f835 1b02 	ldrh.w	r1, [r5], #2
 80063a4:	28fa      	cmp	r0, #250	; 0xfa
 80063a6:	ea4f 2e11 	mov.w	lr, r1, lsr #8
 80063aa:	f883 e000 	strb.w	lr, [r3]
 80063ae:	7059      	strb	r1, [r3, #1]
 80063b0:	f000 80d5 	beq.w	800655e <_DrawBitmap+0xe56>
 80063b4:	f835 3b02 	ldrh.w	r3, [r5], #2
 80063b8:	1c41      	adds	r1, r0, #1
 80063ba:	7053      	strb	r3, [r2, #1]
 80063bc:	0a18      	lsrs	r0, r3, #8
 80063be:	1c93      	adds	r3, r2, #2
 80063c0:	29fa      	cmp	r1, #250	; 0xfa
 80063c2:	7010      	strb	r0, [r2, #0]
 80063c4:	d053      	beq.n	800646e <_DrawBitmap+0xd66>
 80063c6:	3601      	adds	r6, #1
 80063c8:	1c48      	adds	r0, r1, #1
 80063ca:	4546      	cmp	r6, r8
 80063cc:	f103 0202 	add.w	r2, r3, #2
 80063d0:	f106 0601 	add.w	r6, r6, #1
 80063d4:	d1e4      	bne.n	80063a0 <_DrawBitmap+0xc98>
 80063d6:	2900      	cmp	r1, #0
 80063d8:	f040 808e 	bne.w	80064f8 <_DrawBitmap+0xdf0>
 80063dc:	4688      	mov	r8, r1
 80063de:	460d      	mov	r5, r1
 80063e0:	e4b7      	b.n	8005d52 <_DrawBitmap+0x64a>
 80063e2:	9a04      	ldr	r2, [sp, #16]
 80063e4:	990f      	ldr	r1, [sp, #60]	; 0x3c
 80063e6:	9200      	str	r2, [sp, #0]
 80063e8:	f8dc 70a8 	ldr.w	r7, [ip, #168]	; 0xa8
 80063ec:	f8cd c00c 	str.w	ip, [sp, #12]
 80063f0:	4660      	mov	r0, ip
 80063f2:	f109 33ff 	add.w	r3, r9, #4294967295
 80063f6:	47b8      	blx	r7
 80063f8:	f8dd c00c 	ldr.w	ip, [sp, #12]
 80063fc:	f01a 0f01 	tst.w	sl, #1
 8006400:	f8dc 706c 	ldr.w	r7, [ip, #108]	; 0x6c
 8006404:	f8dc 3068 	ldr.w	r3, [ip, #104]	; 0x68
 8006408:	4629      	mov	r1, r5
 800640a:	d069      	beq.n	80064e0 <_DrawBitmap+0xdd8>
 800640c:	f837 0b02 	ldrh.w	r0, [r7], #2
 8006410:	0a01      	lsrs	r1, r0, #8
 8006412:	7019      	strb	r1, [r3, #0]
 8006414:	7058      	strb	r0, [r3, #1]
 8006416:	4621      	mov	r1, r4
 8006418:	3302      	adds	r3, #2
 800641a:	2401      	movs	r4, #1
 800641c:	4665      	mov	r5, ip
 800641e:	1c48      	adds	r0, r1, #1
 8006420:	4554      	cmp	r4, sl
 8006422:	f103 0202 	add.w	r2, r3, #2
 8006426:	f104 0401 	add.w	r4, r4, #1
 800642a:	d01a      	beq.n	8006462 <_DrawBitmap+0xd5a>
 800642c:	f837 1b02 	ldrh.w	r1, [r7], #2
 8006430:	28fa      	cmp	r0, #250	; 0xfa
 8006432:	ea4f 2e11 	mov.w	lr, r1, lsr #8
 8006436:	f883 e000 	strb.w	lr, [r3]
 800643a:	7059      	strb	r1, [r3, #1]
 800643c:	f000 80ac 	beq.w	8006598 <_DrawBitmap+0xe90>
 8006440:	f837 3b02 	ldrh.w	r3, [r7], #2
 8006444:	1c41      	adds	r1, r0, #1
 8006446:	7053      	strb	r3, [r2, #1]
 8006448:	0a18      	lsrs	r0, r3, #8
 800644a:	1c93      	adds	r3, r2, #2
 800644c:	29fa      	cmp	r1, #250	; 0xfa
 800644e:	7010      	strb	r0, [r2, #0]
 8006450:	d019      	beq.n	8006486 <_DrawBitmap+0xd7e>
 8006452:	3401      	adds	r4, #1
 8006454:	1c48      	adds	r0, r1, #1
 8006456:	4554      	cmp	r4, sl
 8006458:	f103 0202 	add.w	r2, r3, #2
 800645c:	f104 0401 	add.w	r4, r4, #1
 8006460:	d1e4      	bne.n	800642c <_DrawBitmap+0xd24>
 8006462:	46ac      	mov	ip, r5
 8006464:	2900      	cmp	r1, #0
 8006466:	d15a      	bne.n	800651e <_DrawBitmap+0xe16>
 8006468:	468a      	mov	sl, r1
 800646a:	460c      	mov	r4, r1
 800646c:	e66a      	b.n	8006144 <_DrawBitmap+0xa3c>
 800646e:	f44f 71fa 	mov.w	r1, #500	; 0x1f4
 8006472:	f8db 2118 	ldr.w	r2, [fp, #280]	; 0x118
 8006476:	f8db 0068 	ldr.w	r0, [fp, #104]	; 0x68
 800647a:	4790      	blx	r2
 800647c:	3601      	adds	r6, #1
 800647e:	f8db 3068 	ldr.w	r3, [fp, #104]	; 0x68
 8006482:	2100      	movs	r1, #0
 8006484:	e7a0      	b.n	80063c8 <_DrawBitmap+0xcc0>
 8006486:	f44f 71fa 	mov.w	r1, #500	; 0x1f4
 800648a:	f8d5 2118 	ldr.w	r2, [r5, #280]	; 0x118
 800648e:	6ea8      	ldr	r0, [r5, #104]	; 0x68
 8006490:	4790      	blx	r2
 8006492:	3401      	adds	r4, #1
 8006494:	6eab      	ldr	r3, [r5, #104]	; 0x68
 8006496:	2100      	movs	r1, #0
 8006498:	e7dc      	b.n	8006454 <_DrawBitmap+0xd4c>
 800649a:	f44f 71fa 	mov.w	r1, #500	; 0x1f4
 800649e:	f8d5 2118 	ldr.w	r2, [r5, #280]	; 0x118
 80064a2:	6ea8      	ldr	r0, [r5, #104]	; 0x68
 80064a4:	4790      	blx	r2
 80064a6:	3701      	adds	r7, #1
 80064a8:	6eab      	ldr	r3, [r5, #104]	; 0x68
 80064aa:	2100      	movs	r1, #0
 80064ac:	e47f      	b.n	8005dae <_DrawBitmap+0x6a6>
 80064ae:	9b09      	ldr	r3, [sp, #36]	; 0x24
 80064b0:	f894 9001 	ldrb.w	r9, [r4, #1]
 80064b4:	46da      	mov	sl, fp
 80064b6:	3401      	adds	r4, #1
 80064b8:	f1b3 0b01 	subs.w	fp, r3, #1
 80064bc:	f47f aa68 	bne.w	8005990 <_DrawBitmap+0x288>
 80064c0:	f7ff b97a 	b.w	80057b8 <_DrawBitmap+0xb0>
 80064c4:	9b09      	ldr	r3, [sp, #36]	; 0x24
 80064c6:	f894 9001 	ldrb.w	r9, [r4, #1]
 80064ca:	46da      	mov	sl, fp
 80064cc:	3401      	adds	r4, #1
 80064ce:	f1b3 0b01 	subs.w	fp, r3, #1
 80064d2:	f47f ab0f 	bne.w	8005af4 <_DrawBitmap+0x3ec>
 80064d6:	f7ff b96f 	b.w	80057b8 <_DrawBitmap+0xb0>
 80064da:	4615      	mov	r5, r2
 80064dc:	4666      	mov	r6, ip
 80064de:	e758      	b.n	8006392 <_DrawBitmap+0xc8a>
 80064e0:	462c      	mov	r4, r5
 80064e2:	4665      	mov	r5, ip
 80064e4:	e79b      	b.n	800641e <_DrawBitmap+0xd16>
 80064e6:	f8d5 3118 	ldr.w	r3, [r5, #280]	; 0x118
 80064ea:	6ea8      	ldr	r0, [r5, #104]	; 0x68
 80064ec:	0049      	lsls	r1, r1, #1
 80064ee:	f04f 0b00 	mov.w	fp, #0
 80064f2:	4798      	blx	r3
 80064f4:	465c      	mov	r4, fp
 80064f6:	e498      	b.n	8005e2a <_DrawBitmap+0x722>
 80064f8:	f8db 3118 	ldr.w	r3, [fp, #280]	; 0x118
 80064fc:	f8db 0068 	ldr.w	r0, [fp, #104]	; 0x68
 8006500:	0049      	lsls	r1, r1, #1
 8006502:	f04f 0800 	mov.w	r8, #0
 8006506:	4798      	blx	r3
 8006508:	4645      	mov	r5, r8
 800650a:	e422      	b.n	8005d52 <_DrawBitmap+0x64a>
 800650c:	f8d5 3118 	ldr.w	r3, [r5, #280]	; 0x118
 8006510:	6ea8      	ldr	r0, [r5, #104]	; 0x68
 8006512:	0049      	lsls	r1, r1, #1
 8006514:	f04f 0b00 	mov.w	fp, #0
 8006518:	4798      	blx	r3
 800651a:	465c      	mov	r4, fp
 800651c:	e50c      	b.n	8005f38 <_DrawBitmap+0x830>
 800651e:	f8d5 3118 	ldr.w	r3, [r5, #280]	; 0x118
 8006522:	6ea8      	ldr	r0, [r5, #104]	; 0x68
 8006524:	9503      	str	r5, [sp, #12]
 8006526:	0049      	lsls	r1, r1, #1
 8006528:	f04f 0a00 	mov.w	sl, #0
 800652c:	4798      	blx	r3
 800652e:	4654      	mov	r4, sl
 8006530:	f8dd c00c 	ldr.w	ip, [sp, #12]
 8006534:	e606      	b.n	8006144 <_DrawBitmap+0xa3c>
 8006536:	f834 6b02 	ldrh.w	r6, [r4], #2
 800653a:	0a31      	lsrs	r1, r6, #8
 800653c:	7019      	strb	r1, [r3, #0]
 800653e:	2101      	movs	r1, #1
 8006540:	705e      	strb	r6, [r3, #1]
 8006542:	4688      	mov	r8, r1
 8006544:	3302      	adds	r3, #2
 8006546:	4666      	mov	r6, ip
 8006548:	e546      	b.n	8005fd8 <_DrawBitmap+0x8d0>
 800654a:	f834 6b02 	ldrh.w	r6, [r4], #2
 800654e:	0a31      	lsrs	r1, r6, #8
 8006550:	7019      	strb	r1, [r3, #0]
 8006552:	2101      	movs	r1, #1
 8006554:	705e      	strb	r6, [r3, #1]
 8006556:	4688      	mov	r8, r1
 8006558:	3302      	adds	r3, #2
 800655a:	4666      	mov	r6, ip
 800655c:	e4b2      	b.n	8005ec4 <_DrawBitmap+0x7bc>
 800655e:	f8db 2118 	ldr.w	r2, [fp, #280]	; 0x118
 8006562:	f8db 0068 	ldr.w	r0, [fp, #104]	; 0x68
 8006566:	f44f 71fa 	mov.w	r1, #500	; 0x1f4
 800656a:	4790      	blx	r2
 800656c:	f8db 2068 	ldr.w	r2, [fp, #104]	; 0x68
 8006570:	2000      	movs	r0, #0
 8006572:	e71f      	b.n	80063b4 <_DrawBitmap+0xcac>
 8006574:	f44f 71fa 	mov.w	r1, #500	; 0x1f4
 8006578:	f8d5 2118 	ldr.w	r2, [r5, #280]	; 0x118
 800657c:	6ea8      	ldr	r0, [r5, #104]	; 0x68
 800657e:	4790      	blx	r2
 8006580:	6eab      	ldr	r3, [r5, #104]	; 0x68
 8006582:	2100      	movs	r1, #0
 8006584:	e684      	b.n	8006290 <_DrawBitmap+0xb88>
 8006586:	f44f 71fa 	mov.w	r1, #500	; 0x1f4
 800658a:	f8d5 2118 	ldr.w	r2, [r5, #280]	; 0x118
 800658e:	6ea8      	ldr	r0, [r5, #104]	; 0x68
 8006590:	4790      	blx	r2
 8006592:	6eab      	ldr	r3, [r5, #104]	; 0x68
 8006594:	2100      	movs	r1, #0
 8006596:	e6ca      	b.n	800632e <_DrawBitmap+0xc26>
 8006598:	f8d5 2118 	ldr.w	r2, [r5, #280]	; 0x118
 800659c:	6ea8      	ldr	r0, [r5, #104]	; 0x68
 800659e:	f44f 71fa 	mov.w	r1, #500	; 0x1f4
 80065a2:	4790      	blx	r2
 80065a4:	6eaa      	ldr	r2, [r5, #104]	; 0x68
 80065a6:	2000      	movs	r0, #0
 80065a8:	e74a      	b.n	8006440 <_DrawBitmap+0xd38>
 80065aa:	6ea8      	ldr	r0, [r5, #104]	; 0x68
 80065ac:	f8d5 3118 	ldr.w	r3, [r5, #280]	; 0x118
 80065b0:	f44f 71fa 	mov.w	r1, #500	; 0x1f4
 80065b4:	4798      	blx	r3
 80065b6:	6eaa      	ldr	r2, [r5, #104]	; 0x68
 80065b8:	2000      	movs	r0, #0
 80065ba:	e408      	b.n	8005dce <_DrawBitmap+0x6c6>
 80065bc:	f44f 71fa 	mov.w	r1, #500	; 0x1f4
 80065c0:	f8d5 2118 	ldr.w	r2, [r5, #280]	; 0x118
 80065c4:	6ea8      	ldr	r0, [r5, #104]	; 0x68
 80065c6:	4790      	blx	r2
 80065c8:	6eab      	ldr	r3, [r5, #104]	; 0x68
 80065ca:	2100      	movs	r1, #0
 80065cc:	e502      	b.n	8005fd4 <_DrawBitmap+0x8cc>
 80065ce:	f44f 71fa 	mov.w	r1, #500	; 0x1f4
 80065d2:	f8d5 2118 	ldr.w	r2, [r5, #280]	; 0x118
 80065d6:	6ea8      	ldr	r0, [r5, #104]	; 0x68
 80065d8:	4790      	blx	r2
 80065da:	6eab      	ldr	r3, [r5, #104]	; 0x68
 80065dc:	2100      	movs	r1, #0
 80065de:	e46f      	b.n	8005ec0 <_DrawBitmap+0x7b8>
 80065e0:	f894 9001 	ldrb.w	r9, [r4, #1]
 80065e4:	f04f 0a00 	mov.w	sl, #0
 80065e8:	3401      	adds	r4, #1
 80065ea:	f7ff b9f3 	b.w	80059d4 <_DrawBitmap+0x2cc>
 80065ee:	f894 9001 	ldrb.w	r9, [r4, #1]
 80065f2:	f04f 0a00 	mov.w	sl, #0
 80065f6:	3401      	adds	r4, #1
 80065f8:	f7ff ba9e 	b.w	8005b38 <_DrawBitmap+0x430>
 80065fc:	990e      	ldr	r1, [sp, #56]	; 0x38
 80065fe:	9a04      	ldr	r2, [sp, #16]
 8006600:	f8d5 30ec 	ldr.w	r3, [r5, #236]	; 0xec
 8006604:	980c      	ldr	r0, [sp, #48]	; 0x30
 8006606:	4798      	blx	r3
 8006608:	6aa9      	ldr	r1, [r5, #40]	; 0x28
 800660a:	f8d5 70f0 	ldr.w	r7, [r5, #240]	; 0xf0
 800660e:	9a04      	ldr	r2, [sp, #16]
 8006610:	ea80 0301 	eor.w	r3, r0, r1
 8006614:	990e      	ldr	r1, [sp, #56]	; 0x38
 8006616:	980c      	ldr	r0, [sp, #48]	; 0x30
 8006618:	47b8      	blx	r7
 800661a:	e505      	b.n	8006028 <_DrawBitmap+0x920>
 800661c:	3401      	adds	r4, #1
 800661e:	2700      	movs	r7, #0
 8006620:	e50a      	b.n	8006038 <_DrawBitmap+0x930>
 8006622:	3401      	adds	r4, #1
 8006624:	2600      	movs	r6, #0
 8006626:	f7ff bb11 	b.w	8005c4c <_DrawBitmap+0x544>
 800662a:	4641      	mov	r1, r8
 800662c:	9a04      	ldr	r2, [sp, #16]
 800662e:	f8d5 30ec 	ldr.w	r3, [r5, #236]	; 0xec
 8006632:	980c      	ldr	r0, [sp, #48]	; 0x30
 8006634:	4798      	blx	r3
 8006636:	6aaa      	ldr	r2, [r5, #40]	; 0x28
 8006638:	f8d5 60f0 	ldr.w	r6, [r5, #240]	; 0xf0
 800663c:	ea80 0302 	eor.w	r3, r0, r2
 8006640:	4641      	mov	r1, r8
 8006642:	980c      	ldr	r0, [sp, #48]	; 0x30
 8006644:	9a04      	ldr	r2, [sp, #16]
 8006646:	3701      	adds	r7, #1
 8006648:	47b0      	blx	r6
 800664a:	2f08      	cmp	r7, #8
 800664c:	f108 0801 	add.w	r8, r8, #1
 8006650:	f47f ad04 	bne.w	800605c <_DrawBitmap+0x954>
 8006654:	3401      	adds	r4, #1
 8006656:	2700      	movs	r7, #0
 8006658:	e500      	b.n	800605c <_DrawBitmap+0x954>
 800665a:	f44f 71fa 	mov.w	r1, #500	; 0x1f4
 800665e:	f8d5 2118 	ldr.w	r2, [r5, #280]	; 0x118
 8006662:	6ea8      	ldr	r0, [r5, #104]	; 0x68
 8006664:	4790      	blx	r2
 8006666:	6eab      	ldr	r3, [r5, #104]	; 0x68
 8006668:	2100      	movs	r1, #0
 800666a:	e5a9      	b.n	80061c0 <_DrawBitmap+0xab8>

0800666c <GUIDRV_FlexColor_SetMode16bppC0B8>:
 800666c:	b510      	push	{r4, lr}
 800666e:	4604      	mov	r4, r0
 8006670:	f000 fb68 	bl	8006d44 <GUIDRV_FlexColor__InitOnce>
 8006674:	68a4      	ldr	r4, [r4, #8]
 8006676:	f8d4 20c8 	ldr.w	r2, [r4, #200]	; 0xc8
 800667a:	f8d4 3094 	ldr.w	r3, [r4, #148]	; 0x94
 800667e:	f8c4 20fc 	str.w	r2, [r4, #252]	; 0xfc
 8006682:	f245 7009 	movw	r0, #22281	; 0x5709
 8006686:	f245 3109 	movw	r1, #21257	; 0x5309
 800668a:	f646 4285 	movw	r2, #27781	; 0x6c85
 800668e:	f6c0 0000 	movt	r0, #2048	; 0x800
 8006692:	f6c0 0100 	movt	r1, #2048	; 0x800
 8006696:	f6c0 0200 	movt	r2, #2048	; 0x800
 800669a:	f8c4 00e4 	str.w	r0, [r4, #228]	; 0xe4
 800669e:	f8c4 10e8 	str.w	r1, [r4, #232]	; 0xe8
 80066a2:	f8c4 20ec 	str.w	r2, [r4, #236]	; 0xec
 80066a6:	f646 30ed 	movw	r0, #27629	; 0x6bed
 80066aa:	f245 21e1 	movw	r1, #21217	; 0x52e1
 80066ae:	f245 22ed 	movw	r2, #21229	; 0x52ed
 80066b2:	f6c0 0000 	movt	r0, #2048	; 0x800
 80066b6:	f6c0 0100 	movt	r1, #2048	; 0x800
 80066ba:	f6c0 0200 	movt	r2, #2048	; 0x800
 80066be:	f8c4 00f0 	str.w	r0, [r4, #240]	; 0xf0
 80066c2:	f8c4 10a0 	str.w	r1, [r4, #160]	; 0xa0
 80066c6:	4620      	mov	r0, r4
 80066c8:	f8c4 20a4 	str.w	r2, [r4, #164]	; 0xa4
 80066cc:	2108      	movs	r1, #8
 80066ce:	4798      	blx	r3
 80066d0:	f64f 00c0 	movw	r0, #63680	; 0xf8c0
 80066d4:	2310      	movs	r3, #16
 80066d6:	f6c0 0000 	movt	r0, #2048	; 0x800
 80066da:	63a3      	str	r3, [r4, #56]	; 0x38
 80066dc:	6460      	str	r0, [r4, #68]	; 0x44
 80066de:	bd10      	pop	{r4, pc}

080066e0 <_Log2PhysX_X0Y0S0>:
 80066e0:	4608      	mov	r0, r1
 80066e2:	4770      	bx	lr

080066e4 <_Log2PhysX_X1Y0S0>:
 80066e4:	6800      	ldr	r0, [r0, #0]
 80066e6:	1a41      	subs	r1, r0, r1
 80066e8:	1e48      	subs	r0, r1, #1
 80066ea:	4770      	bx	lr

080066ec <_Log2PhysX_X0Y1S0>:
 80066ec:	4608      	mov	r0, r1
 80066ee:	4770      	bx	lr

080066f0 <_Log2PhysX_X1Y1S0>:
 80066f0:	6800      	ldr	r0, [r0, #0]
 80066f2:	1a41      	subs	r1, r0, r1
 80066f4:	1e48      	subs	r0, r1, #1
 80066f6:	4770      	bx	lr

080066f8 <_Log2PhysX_X0Y0S1>:
 80066f8:	4610      	mov	r0, r2
 80066fa:	4770      	bx	lr

080066fc <_Log2PhysX_X1Y0S1>:
 80066fc:	6840      	ldr	r0, [r0, #4]
 80066fe:	1a81      	subs	r1, r0, r2
 8006700:	1e48      	subs	r0, r1, #1
 8006702:	4770      	bx	lr

08006704 <_Log2PhysX_X0Y1S1>:
 8006704:	4610      	mov	r0, r2
 8006706:	4770      	bx	lr

08006708 <_Log2PhysX_X1Y1S1>:
 8006708:	6840      	ldr	r0, [r0, #4]
 800670a:	1a81      	subs	r1, r0, r2
 800670c:	1e48      	subs	r0, r1, #1
 800670e:	4770      	bx	lr

08006710 <_Log2PhysY_X0Y0S0>:
 8006710:	4610      	mov	r0, r2
 8006712:	4770      	bx	lr

08006714 <_Log2PhysY_X1Y0S0>:
 8006714:	4610      	mov	r0, r2
 8006716:	4770      	bx	lr

08006718 <_Log2PhysY_X0Y1S0>:
 8006718:	6840      	ldr	r0, [r0, #4]
 800671a:	1a81      	subs	r1, r0, r2
 800671c:	1e48      	subs	r0, r1, #1
 800671e:	4770      	bx	lr

08006720 <_Log2PhysY_X1Y1S0>:
 8006720:	6840      	ldr	r0, [r0, #4]
 8006722:	1a81      	subs	r1, r0, r2
 8006724:	1e48      	subs	r0, r1, #1
 8006726:	4770      	bx	lr

08006728 <_Log2PhysY_X0Y0S1>:
 8006728:	4608      	mov	r0, r1
 800672a:	4770      	bx	lr

0800672c <_Log2PhysY_X1Y0S1>:
 800672c:	4608      	mov	r0, r1
 800672e:	4770      	bx	lr

08006730 <_Log2PhysY_X0Y1S1>:
 8006730:	6800      	ldr	r0, [r0, #0]
 8006732:	1a41      	subs	r1, r0, r1
 8006734:	1e48      	subs	r0, r1, #1
 8006736:	4770      	bx	lr

08006738 <_Log2PhysY_X1Y1S1>:
 8006738:	6800      	ldr	r0, [r0, #0]
 800673a:	1a41      	subs	r1, r0, r1
 800673c:	1e48      	subs	r0, r1, #1
 800673e:	4770      	bx	lr

08006740 <_SetPixelIndex>:
 8006740:	b510      	push	{r4, lr}
 8006742:	6884      	ldr	r4, [r0, #8]
 8006744:	f8d4 40f0 	ldr.w	r4, [r4, #240]	; 0xf0
 8006748:	47a0      	blx	r4
 800674a:	bd10      	pop	{r4, pc}

0800674c <_GetPixelIndex>:
 800674c:	b508      	push	{r3, lr}
 800674e:	6883      	ldr	r3, [r0, #8]
 8006750:	f8d3 30ec 	ldr.w	r3, [r3, #236]	; 0xec
 8006754:	4798      	blx	r3
 8006756:	bd08      	pop	{r3, pc}

08006758 <_XorPixel>:
 8006758:	b5f0      	push	{r4, r5, r6, r7, lr}
 800675a:	6885      	ldr	r5, [r0, #8]
 800675c:	b083      	sub	sp, #12
 800675e:	f8d5 30ec 	ldr.w	r3, [r5, #236]	; 0xec
 8006762:	4604      	mov	r4, r0
 8006764:	460f      	mov	r7, r1
 8006766:	4616      	mov	r6, r2
 8006768:	4798      	blx	r3
 800676a:	9001      	str	r0, [sp, #4]
 800676c:	f8dd e004 	ldr.w	lr, [sp, #4]
 8006770:	68a0      	ldr	r0, [r4, #8]
 8006772:	6aab      	ldr	r3, [r5, #40]	; 0x28
 8006774:	f8d0 50f0 	ldr.w	r5, [r0, #240]	; 0xf0
 8006778:	4639      	mov	r1, r7
 800677a:	4620      	mov	r0, r4
 800677c:	4632      	mov	r2, r6
 800677e:	ea8e 0303 	eor.w	r3, lr, r3
 8006782:	47a8      	blx	r5
 8006784:	b003      	add	sp, #12
 8006786:	bdf0      	pop	{r4, r5, r6, r7, pc}

08006788 <_DrawHLine>:
 8006788:	b510      	push	{r4, lr}
 800678a:	b082      	sub	sp, #8
 800678c:	6884      	ldr	r4, [r0, #8]
 800678e:	9200      	str	r2, [sp, #0]
 8006790:	f8d4 40e8 	ldr.w	r4, [r4, #232]	; 0xe8
 8006794:	47a0      	blx	r4
 8006796:	b002      	add	sp, #8
 8006798:	bd10      	pop	{r4, pc}
 800679a:	bf00      	nop

0800679c <_DrawVLine>:
 800679c:	b510      	push	{r4, lr}
 800679e:	b082      	sub	sp, #8
 80067a0:	6884      	ldr	r4, [r0, #8]
 80067a2:	9300      	str	r3, [sp, #0]
 80067a4:	f8d4 40e8 	ldr.w	r4, [r4, #232]	; 0xe8
 80067a8:	460b      	mov	r3, r1
 80067aa:	47a0      	blx	r4
 80067ac:	b002      	add	sp, #8
 80067ae:	bd10      	pop	{r4, pc}

080067b0 <_FillRect>:
 80067b0:	b530      	push	{r4, r5, lr}
 80067b2:	b083      	sub	sp, #12
 80067b4:	6885      	ldr	r5, [r0, #8]
 80067b6:	9c06      	ldr	r4, [sp, #24]
 80067b8:	9400      	str	r4, [sp, #0]
 80067ba:	f8d5 40e8 	ldr.w	r4, [r5, #232]	; 0xe8
 80067be:	47a0      	blx	r4
 80067c0:	b003      	add	sp, #12
 80067c2:	bd30      	pop	{r4, r5, pc}

080067c4 <_DrawBitmap>:
 80067c4:	b530      	push	{r4, r5, lr}
 80067c6:	b087      	sub	sp, #28
 80067c8:	6885      	ldr	r5, [r0, #8]
 80067ca:	9c0a      	ldr	r4, [sp, #40]	; 0x28
 80067cc:	9400      	str	r4, [sp, #0]
 80067ce:	9c0b      	ldr	r4, [sp, #44]	; 0x2c
 80067d0:	9401      	str	r4, [sp, #4]
 80067d2:	9c0c      	ldr	r4, [sp, #48]	; 0x30
 80067d4:	9402      	str	r4, [sp, #8]
 80067d6:	9c0d      	ldr	r4, [sp, #52]	; 0x34
 80067d8:	9403      	str	r4, [sp, #12]
 80067da:	9c0e      	ldr	r4, [sp, #56]	; 0x38
 80067dc:	9404      	str	r4, [sp, #16]
 80067de:	9c0f      	ldr	r4, [sp, #60]	; 0x3c
 80067e0:	9405      	str	r4, [sp, #20]
 80067e2:	f8d5 40e4 	ldr.w	r4, [r5, #228]	; 0xe4
 80067e6:	47a0      	blx	r4
 80067e8:	b007      	add	sp, #28
 80067ea:	bd30      	pop	{r4, r5, pc}

080067ec <_GetDevFunc_SetRect>:
 80067ec:	4770      	bx	lr
 80067ee:	bf00      	nop

080067f0 <_GetDevFunc_SetRectOutside>:
 80067f0:	b570      	push	{r4, r5, r6, lr}
 80067f2:	b082      	sub	sp, #8
 80067f4:	6885      	ldr	r5, [r0, #8]
 80067f6:	9c07      	ldr	r4, [sp, #28]
 80067f8:	b124      	cbz	r4, 8006804 <_GetDevFunc_SetRectOutside+0x14>
 80067fa:	4c0d      	ldr	r4, [pc, #52]	; (8006830 <_GetDevFunc_SetRectOutside+0x40>)
 80067fc:	6820      	ldr	r0, [r4, #0]
 80067fe:	b148      	cbz	r0, 8006814 <_GetDevFunc_SetRectOutside+0x24>
 8006800:	b002      	add	sp, #8
 8006802:	bd70      	pop	{r4, r5, r6, pc}
 8006804:	4b0a      	ldr	r3, [pc, #40]	; (8006830 <_GetDevFunc_SetRectOutside+0x40>)
 8006806:	681a      	ldr	r2, [r3, #0]
 8006808:	2a00      	cmp	r2, #0
 800680a:	d0f9      	beq.n	8006800 <_GetDevFunc_SetRectOutside+0x10>
 800680c:	f8c5 20a8 	str.w	r2, [r5, #168]	; 0xa8
 8006810:	601c      	str	r4, [r3, #0]
 8006812:	e7f5      	b.n	8006800 <_GetDevFunc_SetRectOutside+0x10>
 8006814:	9e06      	ldr	r6, [sp, #24]
 8006816:	9600      	str	r6, [sp, #0]
 8006818:	f8d5 60a8 	ldr.w	r6, [r5, #168]	; 0xa8
 800681c:	4628      	mov	r0, r5
 800681e:	47b0      	blx	r6
 8006820:	f8d5 10a8 	ldr.w	r1, [r5, #168]	; 0xa8
 8006824:	4b03      	ldr	r3, [pc, #12]	; (8006834 <_GetDevFunc_SetRectOutside+0x44>)
 8006826:	6021      	str	r1, [r4, #0]
 8006828:	f8c5 30a8 	str.w	r3, [r5, #168]	; 0xa8
 800682c:	e7e8      	b.n	8006800 <_GetDevFunc_SetRectOutside+0x10>
 800682e:	bf00      	nop
 8006830:	1ffe89a0 	.word	0x1ffe89a0
 8006834:	080067ed 	.word	0x080067ed

08006838 <_ReadPixelCust_16bpp>:
 8006838:	6c02      	ldr	r2, [r0, #64]	; 0x40
 800683a:	b508      	push	{r3, lr}
 800683c:	f8d0 30d4 	ldr.w	r3, [r0, #212]	; 0xd4
 8006840:	6990      	ldr	r0, [r2, #24]
 8006842:	4798      	blx	r3
 8006844:	bd08      	pop	{r3, pc}
 8006846:	bf00      	nop

08006848 <_ReadPixelCust_18bpp>:
 8006848:	6c02      	ldr	r2, [r0, #64]	; 0x40
 800684a:	b508      	push	{r3, lr}
 800684c:	f8d0 30d8 	ldr.w	r3, [r0, #216]	; 0xd8
 8006850:	6990      	ldr	r0, [r2, #24]
 8006852:	4798      	blx	r3
 8006854:	bd08      	pop	{r3, pc}
 8006856:	bf00      	nop

08006858 <_ReadRectCust_16bpp>:
 8006858:	e92d 43f0 	stmdb	sp!, {r4, r5, r6, r7, r8, r9, lr}
 800685c:	b083      	sub	sp, #12
 800685e:	6884      	ldr	r4, [r0, #8]
 8006860:	9d0a      	ldr	r5, [sp, #40]	; 0x28
 8006862:	9500      	str	r5, [sp, #0]
 8006864:	4620      	mov	r0, r4
 8006866:	f8d4 60a8 	ldr.w	r6, [r4, #168]	; 0xa8
 800686a:	4691      	mov	r9, r2
 800686c:	4698      	mov	r8, r3
 800686e:	460f      	mov	r7, r1
 8006870:	47b0      	blx	r6
 8006872:	6c22      	ldr	r2, [r4, #64]	; 0x40
 8006874:	f8d4 30dc 	ldr.w	r3, [r4, #220]	; 0xdc
 8006878:	6990      	ldr	r0, [r2, #24]
 800687a:	990b      	ldr	r1, [sp, #44]	; 0x2c
 800687c:	ebc9 0505 	rsb	r5, r9, r5
 8006880:	ebc7 0708 	rsb	r7, r7, r8
 8006884:	1c6a      	adds	r2, r5, #1
 8006886:	fb07 2202 	mla	r2, r7, r2, r2
 800688a:	4798      	blx	r3
 800688c:	b003      	add	sp, #12
 800688e:	e8bd 83f0 	ldmia.w	sp!, {r4, r5, r6, r7, r8, r9, pc}
 8006892:	bf00      	nop

08006894 <_ReadRectCust_18bpp>:
 8006894:	e92d 43f0 	stmdb	sp!, {r4, r5, r6, r7, r8, r9, lr}
 8006898:	b083      	sub	sp, #12
 800689a:	6884      	ldr	r4, [r0, #8]
 800689c:	9d0a      	ldr	r5, [sp, #40]	; 0x28
 800689e:	9500      	str	r5, [sp, #0]
 80068a0:	4620      	mov	r0, r4
 80068a2:	f8d4 60a8 	ldr.w	r6, [r4, #168]	; 0xa8
 80068a6:	4691      	mov	r9, r2
 80068a8:	4698      	mov	r8, r3
 80068aa:	460f      	mov	r7, r1
 80068ac:	47b0      	blx	r6
 80068ae:	6c22      	ldr	r2, [r4, #64]	; 0x40
 80068b0:	f8d4 30e0 	ldr.w	r3, [r4, #224]	; 0xe0
 80068b4:	6990      	ldr	r0, [r2, #24]
 80068b6:	990b      	ldr	r1, [sp, #44]	; 0x2c
 80068b8:	ebc9 0505 	rsb	r5, r9, r5
 80068bc:	ebc7 0708 	rsb	r7, r7, r8
 80068c0:	1c6a      	adds	r2, r5, #1
 80068c2:	fb07 2202 	mla	r2, r7, r2, r2
 80068c6:	4798      	blx	r3
 80068c8:	b003      	add	sp, #12
 80068ca:	e8bd 83f0 	ldmia.w	sp!, {r4, r5, r6, r7, r8, r9, pc}
 80068ce:	bf00      	nop

080068d0 <_GetDevFunc>:
 80068d0:	3901      	subs	r1, #1
 80068d2:	2917      	cmp	r1, #23
 80068d4:	d80f      	bhi.n	80068f6 <_GetDevFunc+0x26>
 80068d6:	e8df f001 	tbb	[pc, r1]
 80068da:	0e10      	.short	0x0e10
 80068dc:	0e0e0e0e 	.word	0x0e0e0e0e
 80068e0:	150e0e0e 	.word	0x150e0e0e
 80068e4:	0e1b1917 	.word	0x0e1b1917
 80068e8:	0e0e0e0e 	.word	0x0e0e0e0e
 80068ec:	200e0e0e 	.word	0x200e0e0e
 80068f0:	0c22      	.short	0x0c22
 80068f2:	480d      	ldr	r0, [pc, #52]	; (8006928 <_GetDevFunc+0x58>)
 80068f4:	4770      	bx	lr
 80068f6:	2000      	movs	r0, #0
 80068f8:	4770      	bx	lr
 80068fa:	6803      	ldr	r3, [r0, #0]
 80068fc:	6898      	ldr	r0, [r3, #8]
 80068fe:	f8d0 00fc 	ldr.w	r0, [r0, #252]	; 0xfc
 8006902:	4770      	bx	lr
 8006904:	4809      	ldr	r0, [pc, #36]	; (800692c <_GetDevFunc+0x5c>)
 8006906:	4770      	bx	lr
 8006908:	4809      	ldr	r0, [pc, #36]	; (8006930 <_GetDevFunc+0x60>)
 800690a:	4770      	bx	lr
 800690c:	4809      	ldr	r0, [pc, #36]	; (8006934 <_GetDevFunc+0x64>)
 800690e:	4770      	bx	lr
 8006910:	6802      	ldr	r2, [r0, #0]
 8006912:	6891      	ldr	r1, [r2, #8]
 8006914:	f8d1 00f4 	ldr.w	r0, [r1, #244]	; 0xf4
 8006918:	4770      	bx	lr
 800691a:	4807      	ldr	r0, [pc, #28]	; (8006938 <_GetDevFunc+0x68>)
 800691c:	4770      	bx	lr
 800691e:	6803      	ldr	r3, [r0, #0]
 8006920:	6898      	ldr	r0, [r3, #8]
 8006922:	f8d0 00f8 	ldr.w	r0, [r0, #248]	; 0xf8
 8006926:	4770      	bx	lr
 8006928:	080067f1 	.word	0x080067f1
 800692c:	08006a2d 	.word	0x08006a2d
 8006930:	08006bad 	.word	0x08006bad
 8006934:	08006b35 	.word	0x08006b35
 8006938:	08006a6d 	.word	0x08006a6d

0800693c <_GetDevProp>:
 800693c:	3901      	subs	r1, #1
 800693e:	6880      	ldr	r0, [r0, #8]
 8006940:	290d      	cmp	r1, #13
 8006942:	d81f      	bhi.n	8006984 <_GetDevProp+0x48>
 8006944:	e8df f001 	tbb	[pc, r1]
 8006948:	27252321 	.word	0x27252321
 800694c:	291e1e1e 	.word	0x291e1e1e
 8006950:	070c0c0e 	.word	0x070c0c0e
 8006954:	1017      	.short	0x1017
 8006956:	b120      	cbz	r0, 8006962 <_GetDevProp+0x26>
 8006958:	6b42      	ldr	r2, [r0, #52]	; 0x34
 800695a:	f012 0001 	ands.w	r0, r2, #1
 800695e:	d000      	beq.n	8006962 <_GetDevProp+0x26>
 8006960:	2001      	movs	r0, #1
 8006962:	4770      	bx	lr
 8006964:	2000      	movs	r0, #0
 8006966:	4770      	bx	lr
 8006968:	2800      	cmp	r0, #0
 800696a:	d0fa      	beq.n	8006962 <_GetDevProp+0x26>
 800696c:	6b43      	ldr	r3, [r0, #52]	; 0x34
 800696e:	f013 0004 	ands.w	r0, r3, #4
 8006972:	d1f5      	bne.n	8006960 <_GetDevProp+0x24>
 8006974:	4770      	bx	lr
 8006976:	2800      	cmp	r0, #0
 8006978:	d0f3      	beq.n	8006962 <_GetDevProp+0x26>
 800697a:	6b40      	ldr	r0, [r0, #52]	; 0x34
 800697c:	f010 0002 	ands.w	r0, r0, #2
 8006980:	d1ee      	bne.n	8006960 <_GetDevProp+0x24>
 8006982:	4770      	bx	lr
 8006984:	f04f 30ff 	mov.w	r0, #4294967295
 8006988:	4770      	bx	lr
 800698a:	6800      	ldr	r0, [r0, #0]
 800698c:	4770      	bx	lr
 800698e:	6840      	ldr	r0, [r0, #4]
 8006990:	4770      	bx	lr
 8006992:	6880      	ldr	r0, [r0, #8]
 8006994:	4770      	bx	lr
 8006996:	68c0      	ldr	r0, [r0, #12]
 8006998:	4770      	bx	lr
 800699a:	6b80      	ldr	r0, [r0, #56]	; 0x38
 800699c:	4770      	bx	lr
 800699e:	bf00      	nop

080069a0 <_GetDevData>:
 80069a0:	6883      	ldr	r3, [r0, #8]
 80069a2:	2901      	cmp	r1, #1
 80069a4:	bf0c      	ite	eq
 80069a6:	6c58      	ldreq	r0, [r3, #68]	; 0x44
 80069a8:	2000      	movne	r0, #0
 80069aa:	4770      	bx	lr

080069ac <_GetRect>:
 80069ac:	6883      	ldr	r3, [r0, #8]
 80069ae:	e893 0005 	ldmia.w	r3, {r0, r2}
 80069b2:	2300      	movs	r3, #0
 80069b4:	3801      	subs	r0, #1
 80069b6:	3a01      	subs	r2, #1
 80069b8:	800b      	strh	r3, [r1, #0]
 80069ba:	804b      	strh	r3, [r1, #2]
 80069bc:	8088      	strh	r0, [r1, #4]
 80069be:	80ca      	strh	r2, [r1, #6]
 80069c0:	4770      	bx	lr
 80069c2:	bf00      	nop

080069c4 <GUIDRV_FlexColor__SetLog2Phys>:
 80069c4:	b4f0      	push	{r4, r5, r6, r7}
 80069c6:	f64f 052c 	movw	r5, #63532	; 0xf82c
 80069ca:	f6c0 0500 	movt	r5, #2048	; 0x800
 80069ce:	462e      	mov	r6, r5
 80069d0:	4607      	mov	r7, r0
 80069d2:	ce0f      	ldmia	r6!, {r0, r1, r2, r3}
 80069d4:	b090      	sub	sp, #64	; 0x40
 80069d6:	466c      	mov	r4, sp
 80069d8:	c40f      	stmia	r4!, {r0, r1, r2, r3}
 80069da:	e896 000f 	ldmia.w	r6, {r0, r1, r2, r3}
 80069de:	3520      	adds	r5, #32
 80069e0:	e884 000f 	stmia.w	r4, {r0, r1, r2, r3}
 80069e4:	cd0f      	ldmia	r5!, {r0, r1, r2, r3}
 80069e6:	ac08      	add	r4, sp, #32
 80069e8:	c40f      	stmia	r4!, {r0, r1, r2, r3}
 80069ea:	e895 000f 	ldmia.w	r5, {r0, r1, r2, r3}
 80069ee:	6b7e      	ldr	r6, [r7, #52]	; 0x34
 80069f0:	f10d 0c40 	add.w	ip, sp, #64	; 0x40
 80069f4:	eb0c 0586 	add.w	r5, ip, r6, lsl #2
 80069f8:	e884 000f 	stmia.w	r4, {r0, r1, r2, r3}
 80069fc:	f855 3c40 	ldr.w	r3, [r5, #-64]
 8006a00:	f855 0c20 	ldr.w	r0, [r5, #-32]
 8006a04:	f8c7 3100 	str.w	r3, [r7, #256]	; 0x100
 8006a08:	f8c7 0104 	str.w	r0, [r7, #260]	; 0x104
 8006a0c:	b010      	add	sp, #64	; 0x40
 8006a0e:	bcf0      	pop	{r4, r5, r6, r7}
 8006a10:	4770      	bx	lr
 8006a12:	bf00      	nop

08006a14 <_SetOrg>:
 8006a14:	b500      	push	{lr}
 8006a16:	b083      	sub	sp, #12
 8006a18:	e88d 0006 	stmia.w	sp, {r1, r2}
 8006a1c:	6980      	ldr	r0, [r0, #24]
 8006a1e:	2103      	movs	r1, #3
 8006a20:	466a      	mov	r2, sp
 8006a22:	f7fb f86b 	bl	8001afc <LCD_X_DisplayDriver>
 8006a26:	b003      	add	sp, #12
 8006a28:	bd00      	pop	{pc}
 8006a2a:	bf00      	nop

08006a2c <_GetDevFunc_SetVSize>:
 8006a2c:	b5f8      	push	{r3, r4, r5, r6, r7, lr}
 8006a2e:	6884      	ldr	r4, [r0, #8]
 8006a30:	4605      	mov	r5, r0
 8006a32:	460f      	mov	r7, r1
 8006a34:	4616      	mov	r6, r2
 8006a36:	b114      	cbz	r4, 8006a3e <_GetDevFunc_SetVSize+0x12>
 8006a38:	60a7      	str	r7, [r4, #8]
 8006a3a:	60e6      	str	r6, [r4, #12]
 8006a3c:	bdf8      	pop	{r3, r4, r5, r6, r7, pc}
 8006a3e:	f44f 70ba 	mov.w	r0, #372	; 0x174
 8006a42:	f001 ff29 	bl	8008898 <GUI_ALLOC_GetFixedBlock>
 8006a46:	4621      	mov	r1, r4
 8006a48:	60a8      	str	r0, [r5, #8]
 8006a4a:	f44f 72ba 	mov.w	r2, #372	; 0x174
 8006a4e:	f000 fa41 	bl	8006ed4 <GUI__memset>
 8006a52:	68ab      	ldr	r3, [r5, #8]
 8006a54:	4904      	ldr	r1, [pc, #16]	; (8006a68 <_GetDevFunc_SetVSize+0x3c>)
 8006a56:	641d      	str	r5, [r3, #64]	; 0x40
 8006a58:	2202      	movs	r2, #2
 8006a5a:	2001      	movs	r0, #1
 8006a5c:	84da      	strh	r2, [r3, #38]	; 0x26
 8006a5e:	6218      	str	r0, [r3, #32]
 8006a60:	f8c3 1108 	str.w	r1, [r3, #264]	; 0x108
 8006a64:	68ac      	ldr	r4, [r5, #8]
 8006a66:	e7e7      	b.n	8006a38 <_GetDevFunc_SetVSize+0xc>
 8006a68:	080069c5 	.word	0x080069c5

08006a6c <_SetDevFunc>:
 8006a6c:	b5f8      	push	{r3, r4, r5, r6, r7, lr}
 8006a6e:	6884      	ldr	r4, [r0, #8]
 8006a70:	4606      	mov	r6, r0
 8006a72:	460d      	mov	r5, r1
 8006a74:	4617      	mov	r7, r2
 8006a76:	b304      	cbz	r4, 8006aba <_SetDevFunc+0x4e>
 8006a78:	2d26      	cmp	r5, #38	; 0x26
 8006a7a:	d011      	beq.n	8006aa0 <_SetDevFunc+0x34>
 8006a7c:	2d27      	cmp	r5, #39	; 0x27
 8006a7e:	d000      	beq.n	8006a82 <_SetDevFunc+0x16>
 8006a80:	bdf8      	pop	{r3, r4, r5, r6, r7, pc}
 8006a82:	6ba3      	ldr	r3, [r4, #56]	; 0x38
 8006a84:	2b10      	cmp	r3, #16
 8006a86:	d037      	beq.n	8006af8 <_SetDevFunc+0x8c>
 8006a88:	2b12      	cmp	r3, #18
 8006a8a:	d1f9      	bne.n	8006a80 <_SetDevFunc+0x14>
 8006a8c:	2f00      	cmp	r7, #0
 8006a8e:	d03c      	beq.n	8006b0a <_SetDevFunc+0x9e>
 8006a90:	4a23      	ldr	r2, [pc, #140]	; (8006b20 <_SetDevFunc+0xb4>)
 8006a92:	f8c4 70e0 	str.w	r7, [r4, #224]	; 0xe0
 8006a96:	f8c4 20cc 	str.w	r2, [r4, #204]	; 0xcc
 8006a9a:	f8c4 20d0 	str.w	r2, [r4, #208]	; 0xd0
 8006a9e:	bdf8      	pop	{r3, r4, r5, r6, r7, pc}
 8006aa0:	6ba1      	ldr	r1, [r4, #56]	; 0x38
 8006aa2:	2910      	cmp	r1, #16
 8006aa4:	d020      	beq.n	8006ae8 <_SetDevFunc+0x7c>
 8006aa6:	2912      	cmp	r1, #18
 8006aa8:	d1ea      	bne.n	8006a80 <_SetDevFunc+0x14>
 8006aaa:	4b1e      	ldr	r3, [pc, #120]	; (8006b24 <_SetDevFunc+0xb8>)
 8006aac:	f8c4 70d8 	str.w	r7, [r4, #216]	; 0xd8
 8006ab0:	f8c4 30bc 	str.w	r3, [r4, #188]	; 0xbc
 8006ab4:	f8c4 30c0 	str.w	r3, [r4, #192]	; 0xc0
 8006ab8:	bdf8      	pop	{r3, r4, r5, r6, r7, pc}
 8006aba:	f44f 70ba 	mov.w	r0, #372	; 0x174
 8006abe:	f001 feeb 	bl	8008898 <GUI_ALLOC_GetFixedBlock>
 8006ac2:	4621      	mov	r1, r4
 8006ac4:	60b0      	str	r0, [r6, #8]
 8006ac6:	f44f 72ba 	mov.w	r2, #372	; 0x174
 8006aca:	f000 fa03 	bl	8006ed4 <GUI__memset>
 8006ace:	68b3      	ldr	r3, [r6, #8]
 8006ad0:	4915      	ldr	r1, [pc, #84]	; (8006b28 <_SetDevFunc+0xbc>)
 8006ad2:	641e      	str	r6, [r3, #64]	; 0x40
 8006ad4:	2202      	movs	r2, #2
 8006ad6:	2001      	movs	r0, #1
 8006ad8:	84da      	strh	r2, [r3, #38]	; 0x26
 8006ada:	6218      	str	r0, [r3, #32]
 8006adc:	f8c3 1108 	str.w	r1, [r3, #264]	; 0x108
 8006ae0:	68b4      	ldr	r4, [r6, #8]
 8006ae2:	2c00      	cmp	r4, #0
 8006ae4:	d1c8      	bne.n	8006a78 <_SetDevFunc+0xc>
 8006ae6:	bdf8      	pop	{r3, r4, r5, r6, r7, pc}
 8006ae8:	4a10      	ldr	r2, [pc, #64]	; (8006b2c <_SetDevFunc+0xc0>)
 8006aea:	f8c4 70d4 	str.w	r7, [r4, #212]	; 0xd4
 8006aee:	f8c4 20b8 	str.w	r2, [r4, #184]	; 0xb8
 8006af2:	f8c4 20b4 	str.w	r2, [r4, #180]	; 0xb4
 8006af6:	bdf8      	pop	{r3, r4, r5, r6, r7, pc}
 8006af8:	b167      	cbz	r7, 8006b14 <_SetDevFunc+0xa8>
 8006afa:	480d      	ldr	r0, [pc, #52]	; (8006b30 <_SetDevFunc+0xc4>)
 8006afc:	f8c4 70dc 	str.w	r7, [r4, #220]	; 0xdc
 8006b00:	f8c4 00c8 	str.w	r0, [r4, #200]	; 0xc8
 8006b04:	f8c4 00c4 	str.w	r0, [r4, #196]	; 0xc4
 8006b08:	bdf8      	pop	{r3, r4, r5, r6, r7, pc}
 8006b0a:	f8c4 70cc 	str.w	r7, [r4, #204]	; 0xcc
 8006b0e:	f8c4 70d0 	str.w	r7, [r4, #208]	; 0xd0
 8006b12:	e7b5      	b.n	8006a80 <_SetDevFunc+0x14>
 8006b14:	f8c4 70c8 	str.w	r7, [r4, #200]	; 0xc8
 8006b18:	f8c4 70c4 	str.w	r7, [r4, #196]	; 0xc4
 8006b1c:	bdf8      	pop	{r3, r4, r5, r6, r7, pc}
 8006b1e:	bf00      	nop
 8006b20:	08006895 	.word	0x08006895
 8006b24:	08006849 	.word	0x08006849
 8006b28:	080069c5 	.word	0x080069c5
 8006b2c:	08006839 	.word	0x08006839
 8006b30:	08006859 	.word	0x08006859

08006b34 <_GetDevFunc_Init>:
 8006b34:	b538      	push	{r3, r4, r5, lr}
 8006b36:	6884      	ldr	r4, [r0, #8]
 8006b38:	4605      	mov	r5, r0
 8006b3a:	b304      	cbz	r4, 8006b7e <_GetDevFunc_Init+0x4a>
 8006b3c:	f44f 70fa 	mov.w	r0, #500	; 0x1f4
 8006b40:	f001 feaa 	bl	8008898 <GUI_ALLOC_GetFixedBlock>
 8006b44:	6ba2      	ldr	r2, [r4, #56]	; 0x38
 8006b46:	6823      	ldr	r3, [r4, #0]
 8006b48:	66a0      	str	r0, [r4, #104]	; 0x68
 8006b4a:	1dd0      	adds	r0, r2, #7
 8006b4c:	10c0      	asrs	r0, r0, #3
 8006b4e:	fb03 f000 	mul.w	r0, r3, r0
 8006b52:	f001 fea1 	bl	8008898 <GUI_ALLOC_GetFixedBlock>
 8006b56:	2200      	movs	r2, #0
 8006b58:	2101      	movs	r1, #1
 8006b5a:	66e0      	str	r0, [r4, #108]	; 0x6c
 8006b5c:	69a8      	ldr	r0, [r5, #24]
 8006b5e:	f7fa ffcd 	bl	8001afc <LCD_X_DisplayDriver>
 8006b62:	f8d4 1108 	ldr.w	r1, [r4, #264]	; 0x108
 8006b66:	4605      	mov	r5, r0
 8006b68:	4620      	mov	r0, r4
 8006b6a:	4788      	blx	r1
 8006b6c:	4620      	mov	r0, r4
 8006b6e:	f8d4 20b0 	ldr.w	r2, [r4, #176]	; 0xb0
 8006b72:	4790      	blx	r2
 8006b74:	2d00      	cmp	r5, #0
 8006b76:	bfd4      	ite	le
 8006b78:	2000      	movle	r0, #0
 8006b7a:	2001      	movgt	r0, #1
 8006b7c:	bd38      	pop	{r3, r4, r5, pc}
 8006b7e:	f44f 70ba 	mov.w	r0, #372	; 0x174
 8006b82:	f001 fe89 	bl	8008898 <GUI_ALLOC_GetFixedBlock>
 8006b86:	4621      	mov	r1, r4
 8006b88:	60a8      	str	r0, [r5, #8]
 8006b8a:	f44f 72ba 	mov.w	r2, #372	; 0x174
 8006b8e:	f000 f9a1 	bl	8006ed4 <GUI__memset>
 8006b92:	68ab      	ldr	r3, [r5, #8]
 8006b94:	4904      	ldr	r1, [pc, #16]	; (8006ba8 <_GetDevFunc_Init+0x74>)
 8006b96:	641d      	str	r5, [r3, #64]	; 0x40
 8006b98:	2202      	movs	r2, #2
 8006b9a:	2001      	movs	r0, #1
 8006b9c:	84da      	strh	r2, [r3, #38]	; 0x26
 8006b9e:	6218      	str	r0, [r3, #32]
 8006ba0:	f8c3 1108 	str.w	r1, [r3, #264]	; 0x108
 8006ba4:	68ac      	ldr	r4, [r5, #8]
 8006ba6:	e7c9      	b.n	8006b3c <_GetDevFunc_Init+0x8>
 8006ba8:	080069c5 	.word	0x080069c5

08006bac <_GetDevFunc_SetSize>:
 8006bac:	b5f8      	push	{r3, r4, r5, r6, r7, lr}
 8006bae:	6884      	ldr	r4, [r0, #8]
 8006bb0:	4605      	mov	r5, r0
 8006bb2:	460f      	mov	r7, r1
 8006bb4:	4616      	mov	r6, r2
 8006bb6:	b114      	cbz	r4, 8006bbe <_GetDevFunc_SetSize+0x12>
 8006bb8:	6027      	str	r7, [r4, #0]
 8006bba:	6066      	str	r6, [r4, #4]
 8006bbc:	bdf8      	pop	{r3, r4, r5, r6, r7, pc}
 8006bbe:	f44f 70ba 	mov.w	r0, #372	; 0x174
 8006bc2:	f001 fe69 	bl	8008898 <GUI_ALLOC_GetFixedBlock>
 8006bc6:	4621      	mov	r1, r4
 8006bc8:	60a8      	str	r0, [r5, #8]
 8006bca:	f44f 72ba 	mov.w	r2, #372	; 0x174
 8006bce:	f000 f981 	bl	8006ed4 <GUI__memset>
 8006bd2:	68ab      	ldr	r3, [r5, #8]
 8006bd4:	4904      	ldr	r1, [pc, #16]	; (8006be8 <_GetDevFunc_SetSize+0x3c>)
 8006bd6:	641d      	str	r5, [r3, #64]	; 0x40
 8006bd8:	2202      	movs	r2, #2
 8006bda:	2001      	movs	r0, #1
 8006bdc:	84da      	strh	r2, [r3, #38]	; 0x26
 8006bde:	6218      	str	r0, [r3, #32]
 8006be0:	f8c3 1108 	str.w	r1, [r3, #264]	; 0x108
 8006be4:	68ac      	ldr	r4, [r5, #8]
 8006be6:	e7e7      	b.n	8006bb8 <_GetDevFunc_SetSize+0xc>
 8006be8:	080069c5 	.word	0x080069c5

08006bec <GUIDRV_FlexColor__SetPixelIndexNoCache>:
 8006bec:	e92d 41f0 	stmdb	sp!, {r4, r5, r6, r7, r8, lr}
 8006bf0:	6884      	ldr	r4, [r0, #8]
 8006bf2:	8ce0      	ldrh	r0, [r4, #38]	; 0x26
 8006bf4:	f000 0502 	and.w	r5, r0, #2
 8006bf8:	b2a8      	uxth	r0, r5
 8006bfa:	b082      	sub	sp, #8
 8006bfc:	4688      	mov	r8, r1
 8006bfe:	4617      	mov	r7, r2
 8006c00:	461d      	mov	r5, r3
 8006c02:	b338      	cbz	r0, 8006c54 <GUIDRV_FlexColor__SetPixelIndexNoCache+0x68>
 8006c04:	f8d4 6100 	ldr.w	r6, [r4, #256]	; 0x100
 8006c08:	4620      	mov	r0, r4
 8006c0a:	47b0      	blx	r6
 8006c0c:	4641      	mov	r1, r8
 8006c0e:	4606      	mov	r6, r0
 8006c10:	f8d4 3104 	ldr.w	r3, [r4, #260]	; 0x104
 8006c14:	463a      	mov	r2, r7
 8006c16:	4620      	mov	r0, r4
 8006c18:	4798      	blx	r3
 8006c1a:	6921      	ldr	r1, [r4, #16]
 8006c1c:	69a2      	ldr	r2, [r4, #24]
 8006c1e:	42b1      	cmp	r1, r6
 8006c20:	4680      	mov	r8, r0
 8006c22:	bfd4      	ite	le
 8006c24:	2100      	movle	r1, #0
 8006c26:	2101      	movgt	r1, #1
 8006c28:	6960      	ldr	r0, [r4, #20]
 8006c2a:	42b2      	cmp	r2, r6
 8006c2c:	bfac      	ite	ge
 8006c2e:	460b      	movge	r3, r1
 8006c30:	f041 0301 	orrlt.w	r3, r1, #1
 8006c34:	4540      	cmp	r0, r8
 8006c36:	bfd4      	ite	le
 8006c38:	4619      	movle	r1, r3
 8006c3a:	f043 0101 	orrgt.w	r1, r3, #1
 8006c3e:	b9a9      	cbnz	r1, 8006c6c <GUIDRV_FlexColor__SetPixelIndexNoCache+0x80>
 8006c40:	69e2      	ldr	r2, [r4, #28]
 8006c42:	4542      	cmp	r2, r8
 8006c44:	db12      	blt.n	8006c6c <GUIDRV_FlexColor__SetPixelIndexNoCache+0x80>
 8006c46:	f8d4 30ac 	ldr.w	r3, [r4, #172]	; 0xac
 8006c4a:	4620      	mov	r0, r4
 8006c4c:	4631      	mov	r1, r6
 8006c4e:	4642      	mov	r2, r8
 8006c50:	4798      	blx	r3
 8006c52:	e003      	b.n	8006c5c <GUIDRV_FlexColor__SetPixelIndexNoCache+0x70>
 8006c54:	f8d4 30ac 	ldr.w	r3, [r4, #172]	; 0xac
 8006c58:	4620      	mov	r0, r4
 8006c5a:	4798      	blx	r3
 8006c5c:	f8d4 20a4 	ldr.w	r2, [r4, #164]	; 0xa4
 8006c60:	4620      	mov	r0, r4
 8006c62:	4629      	mov	r1, r5
 8006c64:	4790      	blx	r2
 8006c66:	b002      	add	sp, #8
 8006c68:	e8bd 81f0 	ldmia.w	sp!, {r4, r5, r6, r7, r8, pc}
 8006c6c:	6867      	ldr	r7, [r4, #4]
 8006c6e:	6823      	ldr	r3, [r4, #0]
 8006c70:	1e78      	subs	r0, r7, #1
 8006c72:	9000      	str	r0, [sp, #0]
 8006c74:	2100      	movs	r1, #0
 8006c76:	f8d4 70a8 	ldr.w	r7, [r4, #168]	; 0xa8
 8006c7a:	4620      	mov	r0, r4
 8006c7c:	460a      	mov	r2, r1
 8006c7e:	3b01      	subs	r3, #1
 8006c80:	47b8      	blx	r7
 8006c82:	e7e0      	b.n	8006c46 <GUIDRV_FlexColor__SetPixelIndexNoCache+0x5a>

08006c84 <GUIDRV_FlexColor__GetPixelIndexNoCache>:
 8006c84:	b5f0      	push	{r4, r5, r6, r7, lr}
 8006c86:	6884      	ldr	r4, [r0, #8]
 8006c88:	8ce3      	ldrh	r3, [r4, #38]	; 0x26
 8006c8a:	f003 0002 	and.w	r0, r3, #2
 8006c8e:	b285      	uxth	r5, r0
 8006c90:	b083      	sub	sp, #12
 8006c92:	460f      	mov	r7, r1
 8006c94:	4616      	mov	r6, r2
 8006c96:	2d00      	cmp	r5, #0
 8006c98:	d03b      	beq.n	8006d12 <GUIDRV_FlexColor__GetPixelIndexNoCache+0x8e>
 8006c9a:	f8d4 5100 	ldr.w	r5, [r4, #256]	; 0x100
 8006c9e:	4620      	mov	r0, r4
 8006ca0:	47a8      	blx	r5
 8006ca2:	f8d4 3104 	ldr.w	r3, [r4, #260]	; 0x104
 8006ca6:	4632      	mov	r2, r6
 8006ca8:	4605      	mov	r5, r0
 8006caa:	4639      	mov	r1, r7
 8006cac:	4620      	mov	r0, r4
 8006cae:	4798      	blx	r3
 8006cb0:	f8d4 3098 	ldr.w	r3, [r4, #152]	; 0x98
 8006cb4:	4606      	mov	r6, r0
 8006cb6:	b11b      	cbz	r3, 8006cc0 <GUIDRV_FlexColor__GetPixelIndexNoCache+0x3c>
 8006cb8:	4620      	mov	r0, r4
 8006cba:	2101      	movs	r1, #1
 8006cbc:	2200      	movs	r2, #0
 8006cbe:	4798      	blx	r3
 8006cc0:	6920      	ldr	r0, [r4, #16]
 8006cc2:	69a2      	ldr	r2, [r4, #24]
 8006cc4:	6961      	ldr	r1, [r4, #20]
 8006cc6:	42a8      	cmp	r0, r5
 8006cc8:	bfd4      	ite	le
 8006cca:	2000      	movle	r0, #0
 8006ccc:	2001      	movgt	r0, #1
 8006cce:	42aa      	cmp	r2, r5
 8006cd0:	bfac      	ite	ge
 8006cd2:	4603      	movge	r3, r0
 8006cd4:	f040 0301 	orrlt.w	r3, r0, #1
 8006cd8:	42b1      	cmp	r1, r6
 8006cda:	bfd4      	ite	le
 8006cdc:	4618      	movle	r0, r3
 8006cde:	f043 0001 	orrgt.w	r0, r3, #1
 8006ce2:	2800      	cmp	r0, #0
 8006ce4:	d121      	bne.n	8006d2a <GUIDRV_FlexColor__GetPixelIndexNoCache+0xa6>
 8006ce6:	69e2      	ldr	r2, [r4, #28]
 8006ce8:	42b2      	cmp	r2, r6
 8006cea:	db1e      	blt.n	8006d2a <GUIDRV_FlexColor__GetPixelIndexNoCache+0xa6>
 8006cec:	4629      	mov	r1, r5
 8006cee:	4620      	mov	r0, r4
 8006cf0:	4632      	mov	r2, r6
 8006cf2:	f8d4 50ac 	ldr.w	r5, [r4, #172]	; 0xac
 8006cf6:	47a8      	blx	r5
 8006cf8:	f8d4 20a0 	ldr.w	r2, [r4, #160]	; 0xa0
 8006cfc:	4620      	mov	r0, r4
 8006cfe:	4790      	blx	r2
 8006d00:	f8d4 3098 	ldr.w	r3, [r4, #152]	; 0x98
 8006d04:	4605      	mov	r5, r0
 8006d06:	b16b      	cbz	r3, 8006d24 <GUIDRV_FlexColor__GetPixelIndexNoCache+0xa0>
 8006d08:	4620      	mov	r0, r4
 8006d0a:	2100      	movs	r1, #0
 8006d0c:	2201      	movs	r2, #1
 8006d0e:	4798      	blx	r3
 8006d10:	e008      	b.n	8006d24 <GUIDRV_FlexColor__GetPixelIndexNoCache+0xa0>
 8006d12:	4620      	mov	r0, r4
 8006d14:	f8d4 30ac 	ldr.w	r3, [r4, #172]	; 0xac
 8006d18:	4798      	blx	r3
 8006d1a:	f8d4 10a0 	ldr.w	r1, [r4, #160]	; 0xa0
 8006d1e:	4620      	mov	r0, r4
 8006d20:	4788      	blx	r1
 8006d22:	4605      	mov	r5, r0
 8006d24:	4628      	mov	r0, r5
 8006d26:	b003      	add	sp, #12
 8006d28:	bdf0      	pop	{r4, r5, r6, r7, pc}
 8006d2a:	6867      	ldr	r7, [r4, #4]
 8006d2c:	6823      	ldr	r3, [r4, #0]
 8006d2e:	1e79      	subs	r1, r7, #1
 8006d30:	9100      	str	r1, [sp, #0]
 8006d32:	2100      	movs	r1, #0
 8006d34:	f8d4 70a8 	ldr.w	r7, [r4, #168]	; 0xa8
 8006d38:	4620      	mov	r0, r4
 8006d3a:	460a      	mov	r2, r1
 8006d3c:	3b01      	subs	r3, #1
 8006d3e:	47b8      	blx	r7
 8006d40:	e7d4      	b.n	8006cec <GUIDRV_FlexColor__GetPixelIndexNoCache+0x68>
 8006d42:	bf00      	nop

08006d44 <GUIDRV_FlexColor__InitOnce>:
 8006d44:	b538      	push	{r3, r4, r5, lr}
 8006d46:	6885      	ldr	r5, [r0, #8]
 8006d48:	4604      	mov	r4, r0
 8006d4a:	b105      	cbz	r5, 8006d4e <GUIDRV_FlexColor__InitOnce+0xa>
 8006d4c:	bd38      	pop	{r3, r4, r5, pc}
 8006d4e:	f44f 70ba 	mov.w	r0, #372	; 0x174
 8006d52:	f001 fda1 	bl	8008898 <GUI_ALLOC_GetFixedBlock>
 8006d56:	4629      	mov	r1, r5
 8006d58:	60a0      	str	r0, [r4, #8]
 8006d5a:	f44f 72ba 	mov.w	r2, #372	; 0x174
 8006d5e:	f000 f8b9 	bl	8006ed4 <GUI__memset>
 8006d62:	68a3      	ldr	r3, [r4, #8]
 8006d64:	4904      	ldr	r1, [pc, #16]	; (8006d78 <GUIDRV_FlexColor__InitOnce+0x34>)
 8006d66:	641c      	str	r4, [r3, #64]	; 0x40
 8006d68:	2202      	movs	r2, #2
 8006d6a:	2001      	movs	r0, #1
 8006d6c:	84da      	strh	r2, [r3, #38]	; 0x26
 8006d6e:	6218      	str	r0, [r3, #32]
 8006d70:	f8c3 1108 	str.w	r1, [r3, #264]	; 0x108
 8006d74:	bd38      	pop	{r3, r4, r5, pc}
 8006d76:	bf00      	nop
 8006d78:	080069c5 	.word	0x080069c5

08006d7c <GUIDRV_FlexColor_Config>:
 8006d7c:	b570      	push	{r4, r5, r6, lr}
 8006d7e:	6884      	ldr	r4, [r0, #8]
 8006d80:	4606      	mov	r6, r0
 8006d82:	460d      	mov	r5, r1
 8006d84:	b1b4      	cbz	r4, 8006db4 <GUIDRV_FlexColor_Config+0x38>
 8006d86:	e895 000e 	ldmia.w	r5, {r1, r2, r3}
 8006d8a:	6363      	str	r3, [r4, #52]	; 0x34
 8006d8c:	075b      	lsls	r3, r3, #29
 8006d8e:	62e1      	str	r1, [r4, #44]	; 0x2c
 8006d90:	6322      	str	r2, [r4, #48]	; 0x30
 8006d92:	d507      	bpl.n	8006da4 <GUIDRV_FlexColor_Config+0x28>
 8006d94:	e894 0005 	ldmia.w	r4, {r0, r2}
 8006d98:	68a1      	ldr	r1, [r4, #8]
 8006d9a:	68e3      	ldr	r3, [r4, #12]
 8006d9c:	6022      	str	r2, [r4, #0]
 8006d9e:	6060      	str	r0, [r4, #4]
 8006da0:	60a3      	str	r3, [r4, #8]
 8006da2:	60e1      	str	r1, [r4, #12]
 8006da4:	89aa      	ldrh	r2, [r5, #12]
 8006da6:	6928      	ldr	r0, [r5, #16]
 8006da8:	84a2      	strh	r2, [r4, #36]	; 0x24
 8006daa:	b110      	cbz	r0, 8006db2 <GUIDRV_FlexColor_Config+0x36>
 8006dac:	ea20 71e0 	bic.w	r1, r0, r0, asr #31
 8006db0:	6221      	str	r1, [r4, #32]
 8006db2:	bd70      	pop	{r4, r5, r6, pc}
 8006db4:	f44f 70ba 	mov.w	r0, #372	; 0x174
 8006db8:	f001 fd6e 	bl	8008898 <GUI_ALLOC_GetFixedBlock>
 8006dbc:	4621      	mov	r1, r4
 8006dbe:	60b0      	str	r0, [r6, #8]
 8006dc0:	f44f 72ba 	mov.w	r2, #372	; 0x174
 8006dc4:	f000 f886 	bl	8006ed4 <GUI__memset>
 8006dc8:	68b3      	ldr	r3, [r6, #8]
 8006dca:	4905      	ldr	r1, [pc, #20]	; (8006de0 <GUIDRV_FlexColor_Config+0x64>)
 8006dcc:	641e      	str	r6, [r3, #64]	; 0x40
 8006dce:	2202      	movs	r2, #2
 8006dd0:	2001      	movs	r0, #1
 8006dd2:	84da      	strh	r2, [r3, #38]	; 0x26
 8006dd4:	6218      	str	r0, [r3, #32]
 8006dd6:	f8c3 1108 	str.w	r1, [r3, #264]	; 0x108
 8006dda:	68b4      	ldr	r4, [r6, #8]
 8006ddc:	e7d3      	b.n	8006d86 <GUIDRV_FlexColor_Config+0xa>
 8006dde:	bf00      	nop
 8006de0:	080069c5 	.word	0x080069c5

08006de4 <GUIDRV_FlexColor_SetFunc>:
 8006de4:	e92d 41f0 	stmdb	sp!, {r4, r5, r6, r7, r8, lr}
 8006de8:	6885      	ldr	r5, [r0, #8]
 8006dea:	4604      	mov	r4, r0
 8006dec:	4688      	mov	r8, r1
 8006dee:	4616      	mov	r6, r2
 8006df0:	461f      	mov	r7, r3
 8006df2:	b17d      	cbz	r5, 8006e14 <GUIDRV_FlexColor_SetFunc+0x30>
 8006df4:	4641      	mov	r1, r8
 8006df6:	2268      	movs	r2, #104	; 0x68
 8006df8:	f505 7086 	add.w	r0, r5, #268	; 0x10c
 8006dfc:	f006 fe38 	bl	800da70 <memcpy>
 8006e00:	4620      	mov	r0, r4
 8006e02:	47b0      	blx	r6
 8006e04:	4620      	mov	r0, r4
 8006e06:	47b8      	blx	r7
 8006e08:	6923      	ldr	r3, [r4, #16]
 8006e0a:	689a      	ldr	r2, [r3, #8]
 8006e0c:	4790      	blx	r2
 8006e0e:	62a8      	str	r0, [r5, #40]	; 0x28
 8006e10:	e8bd 81f0 	ldmia.w	sp!, {r4, r5, r6, r7, r8, pc}
 8006e14:	f44f 70ba 	mov.w	r0, #372	; 0x174
 8006e18:	f001 fd3e 	bl	8008898 <GUI_ALLOC_GetFixedBlock>
 8006e1c:	4629      	mov	r1, r5
 8006e1e:	60a0      	str	r0, [r4, #8]
 8006e20:	f44f 72ba 	mov.w	r2, #372	; 0x174
 8006e24:	f000 f856 	bl	8006ed4 <GUI__memset>
 8006e28:	68a3      	ldr	r3, [r4, #8]
 8006e2a:	4905      	ldr	r1, [pc, #20]	; (8006e40 <GUIDRV_FlexColor_SetFunc+0x5c>)
 8006e2c:	641c      	str	r4, [r3, #64]	; 0x40
 8006e2e:	2202      	movs	r2, #2
 8006e30:	2001      	movs	r0, #1
 8006e32:	84da      	strh	r2, [r3, #38]	; 0x26
 8006e34:	6218      	str	r0, [r3, #32]
 8006e36:	f8c3 1108 	str.w	r1, [r3, #264]	; 0x108
 8006e3a:	68a5      	ldr	r5, [r4, #8]
 8006e3c:	e7da      	b.n	8006df4 <GUIDRV_FlexColor_SetFunc+0x10>
 8006e3e:	bf00      	nop
 8006e40:	080069c5 	.word	0x080069c5

08006e44 <LCD_SetVSizeEx>:
 8006e44:	b530      	push	{r4, r5, lr}
 8006e46:	b083      	sub	sp, #12
 8006e48:	460d      	mov	r5, r1
 8006e4a:	4614      	mov	r4, r2
 8006e4c:	f000 f9de 	bl	800720c <GUI_DEVICE__GetpDriver>
 8006e50:	9001      	str	r0, [sp, #4]
 8006e52:	b168      	cbz	r0, 8006e70 <LCD_SetVSizeEx+0x2c>
 8006e54:	68c3      	ldr	r3, [r0, #12]
 8006e56:	210a      	movs	r1, #10
 8006e58:	6a5a      	ldr	r2, [r3, #36]	; 0x24
 8006e5a:	a801      	add	r0, sp, #4
 8006e5c:	4790      	blx	r2
 8006e5e:	4603      	mov	r3, r0
 8006e60:	b130      	cbz	r0, 8006e70 <LCD_SetVSizeEx+0x2c>
 8006e62:	9801      	ldr	r0, [sp, #4]
 8006e64:	4629      	mov	r1, r5
 8006e66:	4622      	mov	r2, r4
 8006e68:	4798      	blx	r3
 8006e6a:	2000      	movs	r0, #0
 8006e6c:	b003      	add	sp, #12
 8006e6e:	bd30      	pop	{r4, r5, pc}
 8006e70:	2001      	movs	r0, #1
 8006e72:	e7fb      	b.n	8006e6c <LCD_SetVSizeEx+0x28>

08006e74 <LCD_SetSizeEx>:
 8006e74:	b530      	push	{r4, r5, lr}
 8006e76:	b083      	sub	sp, #12
 8006e78:	460d      	mov	r5, r1
 8006e7a:	4614      	mov	r4, r2
 8006e7c:	f000 f9c6 	bl	800720c <GUI_DEVICE__GetpDriver>
 8006e80:	9001      	str	r0, [sp, #4]
 8006e82:	b168      	cbz	r0, 8006ea0 <LCD_SetSizeEx+0x2c>
 8006e84:	68c3      	ldr	r3, [r0, #12]
 8006e86:	210b      	movs	r1, #11
 8006e88:	6a5a      	ldr	r2, [r3, #36]	; 0x24
 8006e8a:	a801      	add	r0, sp, #4
 8006e8c:	4790      	blx	r2
 8006e8e:	4603      	mov	r3, r0
 8006e90:	b130      	cbz	r0, 8006ea0 <LCD_SetSizeEx+0x2c>
 8006e92:	9801      	ldr	r0, [sp, #4]
 8006e94:	4629      	mov	r1, r5
 8006e96:	4622      	mov	r2, r4
 8006e98:	4798      	blx	r3
 8006e9a:	2000      	movs	r0, #0
 8006e9c:	b003      	add	sp, #12
 8006e9e:	bd30      	pop	{r4, r5, pc}
 8006ea0:	2001      	movs	r0, #1
 8006ea2:	e7fb      	b.n	8006e9c <LCD_SetSizeEx+0x28>

08006ea4 <LCD_SetLUTEntryEx>:
 8006ea4:	b530      	push	{r4, r5, lr}
 8006ea6:	b083      	sub	sp, #12
 8006ea8:	460d      	mov	r5, r1
 8006eaa:	4614      	mov	r4, r2
 8006eac:	f000 f9ae 	bl	800720c <GUI_DEVICE__GetpDriver>
 8006eb0:	9001      	str	r0, [sp, #4]
 8006eb2:	b168      	cbz	r0, 8006ed0 <LCD_SetLUTEntryEx+0x2c>
 8006eb4:	68c3      	ldr	r3, [r0, #12]
 8006eb6:	2110      	movs	r1, #16
 8006eb8:	6a5a      	ldr	r2, [r3, #36]	; 0x24
 8006eba:	a801      	add	r0, sp, #4
 8006ebc:	4790      	blx	r2
 8006ebe:	4603      	mov	r3, r0
 8006ec0:	b130      	cbz	r0, 8006ed0 <LCD_SetLUTEntryEx+0x2c>
 8006ec2:	9801      	ldr	r0, [sp, #4]
 8006ec4:	4629      	mov	r1, r5
 8006ec6:	4622      	mov	r2, r4
 8006ec8:	4798      	blx	r3
 8006eca:	2000      	movs	r0, #0
 8006ecc:	b003      	add	sp, #12
 8006ece:	bd30      	pop	{r4, r5, pc}
 8006ed0:	2001      	movs	r0, #1
 8006ed2:	e7fb      	b.n	8006ecc <LCD_SetLUTEntryEx+0x28>

08006ed4 <GUI__memset>:
 8006ed4:	e92d 03f0 	stmdb	sp!, {r4, r5, r6, r7, r8, r9}
 8006ed8:	2a00      	cmp	r2, #0
 8006eda:	f000 80cf 	beq.w	800707c <GUI__memset+0x1a8>
 8006ede:	f010 0f03 	tst.w	r0, #3
 8006ee2:	4603      	mov	r3, r0
 8006ee4:	d00d      	beq.n	8006f02 <GUI__memset+0x2e>
 8006ee6:	1e54      	subs	r4, r2, #1
 8006ee8:	f014 0f01 	tst.w	r4, #1
 8006eec:	f000 80d5 	beq.w	800709a <GUI__memset+0x1c6>
 8006ef0:	4603      	mov	r3, r0
 8006ef2:	4622      	mov	r2, r4
 8006ef4:	f803 1b01 	strb.w	r1, [r3], #1
 8006ef8:	f013 0f03 	tst.w	r3, #3
 8006efc:	4618      	mov	r0, r3
 8006efe:	f040 80cc 	bne.w	800709a <GUI__memset+0x1c6>
 8006f02:	0897      	lsrs	r7, r2, #2
 8006f04:	d048      	beq.n	8006f98 <GUI__memset+0xc4>
 8006f06:	eb01 2401 	add.w	r4, r1, r1, lsl #8
 8006f0a:	2f03      	cmp	r7, #3
 8006f0c:	f002 0203 	and.w	r2, r2, #3
 8006f10:	eb04 4304 	add.w	r3, r4, r4, lsl #16
 8006f14:	dd28      	ble.n	8006f68 <GUI__memset+0x94>
 8006f16:	1f3d      	subs	r5, r7, #4
 8006f18:	462e      	mov	r6, r5
 8006f1a:	2e03      	cmp	r6, #3
 8006f1c:	6003      	str	r3, [r0, #0]
 8006f1e:	6043      	str	r3, [r0, #4]
 8006f20:	6083      	str	r3, [r0, #8]
 8006f22:	60c3      	str	r3, [r0, #12]
 8006f24:	f3c5 0580 	ubfx	r5, r5, #2, #1
 8006f28:	f100 0410 	add.w	r4, r0, #16
 8006f2c:	dd14      	ble.n	8006f58 <GUI__memset+0x84>
 8006f2e:	b13d      	cbz	r5, 8006f40 <GUI__memset+0x6c>
 8006f30:	3e04      	subs	r6, #4
 8006f32:	6023      	str	r3, [r4, #0]
 8006f34:	6063      	str	r3, [r4, #4]
 8006f36:	60a3      	str	r3, [r4, #8]
 8006f38:	60e3      	str	r3, [r4, #12]
 8006f3a:	3410      	adds	r4, #16
 8006f3c:	2e03      	cmp	r6, #3
 8006f3e:	dd0b      	ble.n	8006f58 <GUI__memset+0x84>
 8006f40:	3e08      	subs	r6, #8
 8006f42:	6023      	str	r3, [r4, #0]
 8006f44:	6063      	str	r3, [r4, #4]
 8006f46:	60a3      	str	r3, [r4, #8]
 8006f48:	60e3      	str	r3, [r4, #12]
 8006f4a:	6123      	str	r3, [r4, #16]
 8006f4c:	6163      	str	r3, [r4, #20]
 8006f4e:	61a3      	str	r3, [r4, #24]
 8006f50:	61e3      	str	r3, [r4, #28]
 8006f52:	3420      	adds	r4, #32
 8006f54:	2e03      	cmp	r6, #3
 8006f56:	dcf3      	bgt.n	8006f40 <GUI__memset+0x6c>
 8006f58:	3f04      	subs	r7, #4
 8006f5a:	08bc      	lsrs	r4, r7, #2
 8006f5c:	1c65      	adds	r5, r4, #1
 8006f5e:	ebb7 0784 	subs.w	r7, r7, r4, lsl #2
 8006f62:	eb00 1005 	add.w	r0, r0, r5, lsl #4
 8006f66:	d015      	beq.n	8006f94 <GUI__memset+0xc0>
 8006f68:	1e7e      	subs	r6, r7, #1
 8006f6a:	4604      	mov	r4, r0
 8006f6c:	4635      	mov	r5, r6
 8006f6e:	f844 3b04 	str.w	r3, [r4], #4
 8006f72:	f006 0601 	and.w	r6, r6, #1
 8006f76:	b15d      	cbz	r5, 8006f90 <GUI__memset+0xbc>
 8006f78:	b11e      	cbz	r6, 8006f82 <GUI__memset+0xae>
 8006f7a:	3d01      	subs	r5, #1
 8006f7c:	f844 3b04 	str.w	r3, [r4], #4
 8006f80:	d006      	beq.n	8006f90 <GUI__memset+0xbc>
 8006f82:	4626      	mov	r6, r4
 8006f84:	f846 3b04 	str.w	r3, [r6], #4
 8006f88:	6063      	str	r3, [r4, #4]
 8006f8a:	1d34      	adds	r4, r6, #4
 8006f8c:	3d02      	subs	r5, #2
 8006f8e:	d1f8      	bne.n	8006f82 <GUI__memset+0xae>
 8006f90:	eb00 0087 	add.w	r0, r0, r7, lsl #2
 8006f94:	2a00      	cmp	r2, #0
 8006f96:	d071      	beq.n	800707c <GUI__memset+0x1a8>
 8006f98:	4243      	negs	r3, r0
 8006f9a:	f003 0703 	and.w	r7, r3, #3
 8006f9e:	4297      	cmp	r7, r2
 8006fa0:	bf28      	it	cs
 8006fa2:	4617      	movcs	r7, r2
 8006fa4:	2a03      	cmp	r2, #3
 8006fa6:	bf98      	it	ls
 8006fa8:	4617      	movls	r7, r2
 8006faa:	4691      	mov	r9, r2
 8006fac:	2f00      	cmp	r7, #0
 8006fae:	d07b      	beq.n	80070a8 <GUI__memset+0x1d4>
 8006fb0:	4603      	mov	r3, r0
 8006fb2:	43c5      	mvns	r5, r0
 8006fb4:	f803 1b01 	strb.w	r1, [r3], #1
 8006fb8:	1944      	adds	r4, r0, r5
 8006fba:	1a1d      	subs	r5, r3, r0
 8006fbc:	19e6      	adds	r6, r4, r7
 8006fbe:	3a01      	subs	r2, #1
 8006fc0:	42bd      	cmp	r5, r7
 8006fc2:	f006 0401 	and.w	r4, r6, #1
 8006fc6:	461e      	mov	r6, r3
 8006fc8:	d211      	bcs.n	8006fee <GUI__memset+0x11a>
 8006fca:	b134      	cbz	r4, 8006fda <GUI__memset+0x106>
 8006fcc:	f803 1b01 	strb.w	r1, [r3], #1
 8006fd0:	1a1c      	subs	r4, r3, r0
 8006fd2:	3a01      	subs	r2, #1
 8006fd4:	42bc      	cmp	r4, r7
 8006fd6:	461e      	mov	r6, r3
 8006fd8:	d209      	bcs.n	8006fee <GUI__memset+0x11a>
 8006fda:	461c      	mov	r4, r3
 8006fdc:	3a02      	subs	r2, #2
 8006fde:	f804 1b01 	strb.w	r1, [r4], #1
 8006fe2:	7059      	strb	r1, [r3, #1]
 8006fe4:	1c63      	adds	r3, r4, #1
 8006fe6:	1a1c      	subs	r4, r3, r0
 8006fe8:	42bc      	cmp	r4, r7
 8006fea:	461e      	mov	r6, r3
 8006fec:	d3f5      	bcc.n	8006fda <GUI__memset+0x106>
 8006fee:	45b9      	cmp	r9, r7
 8006ff0:	d044      	beq.n	800707c <GUI__memset+0x1a8>
 8006ff2:	ebc7 0909 	rsb	r9, r7, r9
 8006ff6:	ea4f 0c99 	mov.w	ip, r9, lsr #2
 8006ffa:	ea4f 088c 	mov.w	r8, ip, lsl #2
 8006ffe:	f1bc 0f00 	cmp.w	ip, #0
 8007002:	d025      	beq.n	8007050 <GUI__memset+0x17c>
 8007004:	2500      	movs	r5, #0
 8007006:	f361 0507 	bfi	r5, r1, #0, #8
 800700a:	f361 250f 	bfi	r5, r1, #8, #8
 800700e:	2401      	movs	r4, #1
 8007010:	f361 4517 	bfi	r5, r1, #16, #8
 8007014:	19c0      	adds	r0, r0, r7
 8007016:	f361 651f 	bfi	r5, r1, #24, #8
 800701a:	f10c 33ff 	add.w	r3, ip, #4294967295
 800701e:	4564      	cmp	r4, ip
 8007020:	f840 5b04 	str.w	r5, [r0], #4
 8007024:	ea03 0304 	and.w	r3, r3, r4
 8007028:	d20d      	bcs.n	8007046 <GUI__memset+0x172>
 800702a:	b123      	cbz	r3, 8007036 <GUI__memset+0x162>
 800702c:	2402      	movs	r4, #2
 800702e:	4564      	cmp	r4, ip
 8007030:	f840 5b04 	str.w	r5, [r0], #4
 8007034:	d207      	bcs.n	8007046 <GUI__memset+0x172>
 8007036:	4603      	mov	r3, r0
 8007038:	3402      	adds	r4, #2
 800703a:	f843 5b04 	str.w	r5, [r3], #4
 800703e:	6045      	str	r5, [r0, #4]
 8007040:	1d18      	adds	r0, r3, #4
 8007042:	4564      	cmp	r4, ip
 8007044:	d3f7      	bcc.n	8007036 <GUI__memset+0x162>
 8007046:	45c1      	cmp	r9, r8
 8007048:	4446      	add	r6, r8
 800704a:	ebc8 0202 	rsb	r2, r8, r2
 800704e:	d015      	beq.n	800707c <GUI__memset+0x1a8>
 8007050:	4633      	mov	r3, r6
 8007052:	18b2      	adds	r2, r6, r2
 8007054:	f803 1b01 	strb.w	r1, [r3], #1
 8007058:	43f6      	mvns	r6, r6
 800705a:	1990      	adds	r0, r2, r6
 800705c:	4293      	cmp	r3, r2
 800705e:	f000 0601 	and.w	r6, r0, #1
 8007062:	d00b      	beq.n	800707c <GUI__memset+0x1a8>
 8007064:	b11e      	cbz	r6, 800706e <GUI__memset+0x19a>
 8007066:	f803 1b01 	strb.w	r1, [r3], #1
 800706a:	4293      	cmp	r3, r2
 800706c:	d006      	beq.n	800707c <GUI__memset+0x1a8>
 800706e:	4618      	mov	r0, r3
 8007070:	f800 1b01 	strb.w	r1, [r0], #1
 8007074:	7059      	strb	r1, [r3, #1]
 8007076:	1c43      	adds	r3, r0, #1
 8007078:	4293      	cmp	r3, r2
 800707a:	d1f8      	bne.n	800706e <GUI__memset+0x19a>
 800707c:	e8bd 03f0 	ldmia.w	sp!, {r4, r5, r6, r7, r8, r9}
 8007080:	4770      	bx	lr
 8007082:	f010 0f03 	tst.w	r0, #3
 8007086:	f43f af3c 	beq.w	8006f02 <GUI__memset+0x2e>
 800708a:	f803 1b01 	strb.w	r1, [r3], #1
 800708e:	3a01      	subs	r2, #1
 8007090:	f013 0f03 	tst.w	r3, #3
 8007094:	4618      	mov	r0, r3
 8007096:	f43f af34 	beq.w	8006f02 <GUI__memset+0x2e>
 800709a:	4618      	mov	r0, r3
 800709c:	3a01      	subs	r2, #1
 800709e:	f800 1b01 	strb.w	r1, [r0], #1
 80070a2:	4603      	mov	r3, r0
 80070a4:	d1ed      	bne.n	8007082 <GUI__memset+0x1ae>
 80070a6:	e7e9      	b.n	800707c <GUI__memset+0x1a8>
 80070a8:	4606      	mov	r6, r0
 80070aa:	e7a2      	b.n	8006ff2 <GUI__memset+0x11e>

080070ac <GUI_SetFont>:
 80070ac:	4b03      	ldr	r3, [pc, #12]	; (80070bc <GUI_SetFont+0x10>)
 80070ae:	6819      	ldr	r1, [r3, #0]
 80070b0:	4602      	mov	r2, r0
 80070b2:	69c8      	ldr	r0, [r1, #28]
 80070b4:	b102      	cbz	r2, 80070b8 <GUI_SetFont+0xc>
 80070b6:	61ca      	str	r2, [r1, #28]
 80070b8:	4770      	bx	lr
 80070ba:	bf00      	nop
 80070bc:	1ffe8808 	.word	0x1ffe8808

080070c0 <GUI_SetColor>:
 80070c0:	f004 bb1e 	b.w	800b700 <LCD_SetColor>

080070c4 <GUI_DispStringAt>:
 80070c4:	f648 0308 	movw	r3, #34824	; 0x8808
 80070c8:	f6c1 73fe 	movt	r3, #8190	; 0x1ffe
 80070cc:	681b      	ldr	r3, [r3, #0]
 80070ce:	8459      	strh	r1, [r3, #34]	; 0x22
 80070d0:	849a      	strh	r2, [r3, #36]	; 0x24
 80070d2:	f000 b801 	b.w	80070d8 <GUI_DispString>
 80070d6:	bf00      	nop

080070d8 <GUI_DispString>:
 80070d8:	e92d 4ff0 	stmdb	sp!, {r4, r5, r6, r7, r8, r9, sl, fp, lr}
 80070dc:	4604      	mov	r4, r0
 80070de:	b085      	sub	sp, #20
 80070e0:	2800      	cmp	r0, #0
 80070e2:	d06f      	beq.n	80071c4 <GUI_DispString+0xec>
 80070e4:	f8df 8120 	ldr.w	r8, [pc, #288]	; 8007208 <GUI_DispString+0x130>
 80070e8:	f000 fc56 	bl	8007998 <GUI_GetFontDistY>
 80070ec:	f8d8 3000 	ldr.w	r3, [r8]
 80070f0:	4681      	mov	r9, r0
 80070f2:	8c58      	ldrh	r0, [r3, #34]	; 0x22
 80070f4:	9000      	str	r0, [sp, #0]
 80070f6:	f000 fc37 	bl	8007968 <GUI_GetYAdjust>
 80070fa:	f8d8 2000 	ldr.w	r2, [r8]
 80070fe:	8c91      	ldrh	r1, [r2, #36]	; 0x24
 8007100:	b280      	uxth	r0, r0
 8007102:	1a0b      	subs	r3, r1, r0
 8007104:	b29b      	uxth	r3, r3
 8007106:	8493      	strh	r3, [r2, #36]	; 0x24
 8007108:	7821      	ldrb	r1, [r4, #0]
 800710a:	9001      	str	r0, [sp, #4]
 800710c:	2900      	cmp	r1, #0
 800710e:	d053      	beq.n	80071b8 <GUI_DispString+0xe0>
 8007110:	fa1f f989 	uxth.w	r9, r9
 8007114:	46c2      	mov	sl, r8
 8007116:	f647 71ff 	movw	r1, #32767	; 0x7fff
 800711a:	4620      	mov	r0, r4
 800711c:	f000 fb7e 	bl	800781c <GUI__GetLineNumChars>
 8007120:	4605      	mov	r5, r0
 8007122:	4629      	mov	r1, r5
 8007124:	4620      	mov	r0, r4
 8007126:	f000 fbbf 	bl	80078a8 <GUI__GetLineDistX>
 800712a:	f8d8 3000 	ldr.w	r3, [r8]
 800712e:	8d9a      	ldrh	r2, [r3, #44]	; 0x2c
 8007130:	f002 0603 	and.w	r6, r2, #3
 8007134:	2e01      	cmp	r6, #1
 8007136:	d064      	beq.n	8007202 <GUI_DispString+0x12a>
 8007138:	2e02      	cmp	r6, #2
 800713a:	d05b      	beq.n	80071f4 <GUI_DispString+0x11c>
 800713c:	fa1f fb80 	uxth.w	fp, r0
 8007140:	f04f 0700 	mov.w	r7, #0
 8007144:	8c58      	ldrh	r0, [r3, #34]	; 0x22
 8007146:	8c9e      	ldrh	r6, [r3, #36]	; 0x24
 8007148:	1bc1      	subs	r1, r0, r7
 800714a:	fa1f fc81 	uxth.w	ip, r1
 800714e:	fa1f f78c 	uxth.w	r7, ip
 8007152:	f10b 32ff 	add.w	r2, fp, #4294967295
 8007156:	f106 3eff 	add.w	lr, r6, #4294967295
 800715a:	4494      	add	ip, r2
 800715c:	44ce      	add	lr, r9
 800715e:	aa02      	add	r2, sp, #8
 8007160:	4620      	mov	r0, r4
 8007162:	4629      	mov	r1, r5
 8007164:	845f      	strh	r7, [r3, #34]	; 0x22
 8007166:	f8ad c00c 	strh.w	ip, [sp, #12]
 800716a:	f8ad e00e 	strh.w	lr, [sp, #14]
 800716e:	f8ad 7008 	strh.w	r7, [sp, #8]
 8007172:	f8ad 600a 	strh.w	r6, [sp, #10]
 8007176:	f000 fbd7 	bl	8007928 <GUI__DispLine>
 800717a:	f8d8 3000 	ldr.w	r3, [r8]
 800717e:	f8bd 100a 	ldrh.w	r1, [sp, #10]
 8007182:	4620      	mov	r0, r4
 8007184:	8499      	strh	r1, [r3, #36]	; 0x24
 8007186:	4629      	mov	r1, r5
 8007188:	f004 fba8 	bl	800b8dc <GUI_UC__NumChars2NumBytes>
 800718c:	5c22      	ldrb	r2, [r4, r0]
 800718e:	2a0a      	cmp	r2, #10
 8007190:	eb04 0300 	add.w	r3, r4, r0
 8007194:	d019      	beq.n	80071ca <GUI_DispString+0xf2>
 8007196:	2a0d      	cmp	r2, #13
 8007198:	d017      	beq.n	80071ca <GUI_DispString+0xf2>
 800719a:	f8bd 0008 	ldrh.w	r0, [sp, #8]
 800719e:	f8da 2000 	ldr.w	r2, [sl]
 80071a2:	4483      	add	fp, r0
 80071a4:	f8a2 b022 	strh.w	fp, [r2, #34]	; 0x22
 80071a8:	7819      	ldrb	r1, [r3, #0]
 80071aa:	b119      	cbz	r1, 80071b4 <GUI_DispString+0xdc>
 80071ac:	7858      	ldrb	r0, [r3, #1]
 80071ae:	1c5c      	adds	r4, r3, #1
 80071b0:	2800      	cmp	r0, #0
 80071b2:	d1b0      	bne.n	8007116 <GUI_DispString+0x3e>
 80071b4:	8c93      	ldrh	r3, [r2, #36]	; 0x24
 80071b6:	9801      	ldr	r0, [sp, #4]
 80071b8:	8d91      	ldrh	r1, [r2, #44]	; 0x2c
 80071ba:	18c3      	adds	r3, r0, r3
 80071bc:	f021 0003 	bic.w	r0, r1, #3
 80071c0:	8493      	strh	r3, [r2, #36]	; 0x24
 80071c2:	8590      	strh	r0, [r2, #44]	; 0x2c
 80071c4:	b005      	add	sp, #20
 80071c6:	e8bd 8ff0 	ldmia.w	sp!, {r4, r5, r6, r7, r8, r9, sl, fp, pc}
 80071ca:	f8d8 2000 	ldr.w	r2, [r8]
 80071ce:	8d91      	ldrh	r1, [r2, #44]	; 0x2c
 80071d0:	f001 0103 	and.w	r1, r1, #3
 80071d4:	3901      	subs	r1, #1
 80071d6:	2901      	cmp	r1, #1
 80071d8:	bf8b      	itete	hi
 80071da:	8c11      	ldrhhi	r1, [r2, #32]
 80071dc:	9800      	ldrls	r0, [sp, #0]
 80071de:	8451      	strhhi	r1, [r2, #34]	; 0x22
 80071e0:	8450      	strhls	r0, [r2, #34]	; 0x22
 80071e2:	7819      	ldrb	r1, [r3, #0]
 80071e4:	290a      	cmp	r1, #10
 80071e6:	d1e0      	bne.n	80071aa <GUI_DispString+0xd2>
 80071e8:	8c90      	ldrh	r0, [r2, #36]	; 0x24
 80071ea:	eb09 0100 	add.w	r1, r9, r0
 80071ee:	8491      	strh	r1, [r2, #36]	; 0x24
 80071f0:	7819      	ldrb	r1, [r3, #0]
 80071f2:	e7da      	b.n	80071aa <GUI_DispString+0xd2>
 80071f4:	eb00 7cd0 	add.w	ip, r0, r0, lsr #31
 80071f8:	f3cc 074f 	ubfx	r7, ip, #1, #16
 80071fc:	fa1f fb80 	uxth.w	fp, r0
 8007200:	e7a0      	b.n	8007144 <GUI_DispString+0x6c>
 8007202:	b287      	uxth	r7, r0
 8007204:	46bb      	mov	fp, r7
 8007206:	e79d      	b.n	8007144 <GUI_DispString+0x6c>
 8007208:	1ffe8808 	.word	0x1ffe8808

0800720c <GUI_DEVICE__GetpDriver>:
 800720c:	2800      	cmp	r0, #0
 800720e:	dc0e      	bgt.n	800722e <GUI_DEVICE__GetpDriver+0x22>
 8007210:	4b08      	ldr	r3, [pc, #32]	; (8007234 <GUI_DEVICE__GetpDriver+0x28>)
 8007212:	f853 0020 	ldr.w	r0, [r3, r0, lsl #2]
 8007216:	b158      	cbz	r0, 8007230 <GUI_DEVICE__GetpDriver+0x24>
 8007218:	68c1      	ldr	r1, [r0, #12]
 800721a:	680a      	ldr	r2, [r1, #0]
 800721c:	b91a      	cbnz	r2, 8007226 <GUI_DEVICE__GetpDriver+0x1a>
 800721e:	e008      	b.n	8007232 <GUI_DEVICE__GetpDriver+0x26>
 8007220:	68c3      	ldr	r3, [r0, #12]
 8007222:	6819      	ldr	r1, [r3, #0]
 8007224:	b121      	cbz	r1, 8007230 <GUI_DEVICE__GetpDriver+0x24>
 8007226:	6800      	ldr	r0, [r0, #0]
 8007228:	2800      	cmp	r0, #0
 800722a:	d1f9      	bne.n	8007220 <GUI_DEVICE__GetpDriver+0x14>
 800722c:	4770      	bx	lr
 800722e:	2000      	movs	r0, #0
 8007230:	4770      	bx	lr
 8007232:	4770      	bx	lr
 8007234:	1ffe9d08 	.word	0x1ffe9d08

08007238 <GUI_DEVICE_Unlink>:
 8007238:	4a09      	ldr	r2, [pc, #36]	; (8007260 <GUI_DEVICE_Unlink+0x28>)
 800723a:	6981      	ldr	r1, [r0, #24]
 800723c:	f852 3021 	ldr.w	r3, [r2, r1, lsl #2]
 8007240:	4298      	cmp	r0, r3
 8007242:	6803      	ldr	r3, [r0, #0]
 8007244:	bf08      	it	eq
 8007246:	f842 3021 	streq.w	r3, [r2, r1, lsl #2]
 800724a:	6842      	ldr	r2, [r0, #4]
 800724c:	b10a      	cbz	r2, 8007252 <GUI_DEVICE_Unlink+0x1a>
 800724e:	6013      	str	r3, [r2, #0]
 8007250:	6803      	ldr	r3, [r0, #0]
 8007252:	b103      	cbz	r3, 8007256 <GUI_DEVICE_Unlink+0x1e>
 8007254:	605a      	str	r2, [r3, #4]
 8007256:	2100      	movs	r1, #0
 8007258:	6001      	str	r1, [r0, #0]
 800725a:	6041      	str	r1, [r0, #4]
 800725c:	4770      	bx	lr
 800725e:	bf00      	nop
 8007260:	1ffe9d08 	.word	0x1ffe9d08

08007264 <GUI_DEVICE_Link>:
 8007264:	b470      	push	{r4, r5, r6}
 8007266:	b110      	cbz	r0, 800726e <GUI_DEVICE_Link+0xa>
 8007268:	6984      	ldr	r4, [r0, #24]
 800726a:	2c00      	cmp	r4, #0
 800726c:	dd02      	ble.n	8007274 <GUI_DEVICE_Link+0x10>
 800726e:	2001      	movs	r0, #1
 8007270:	bc70      	pop	{r4, r5, r6}
 8007272:	4770      	bx	lr
 8007274:	4d1c      	ldr	r5, [pc, #112]	; (80072e8 <GUI_DEVICE_Link+0x84>)
 8007276:	f855 3024 	ldr.w	r3, [r5, r4, lsl #2]
 800727a:	b90b      	cbnz	r3, 8007280 <GUI_DEVICE_Link+0x1c>
 800727c:	e030      	b.n	80072e0 <GUI_DEVICE_Link+0x7c>
 800727e:	4613      	mov	r3, r2
 8007280:	685a      	ldr	r2, [r3, #4]
 8007282:	2a00      	cmp	r2, #0
 8007284:	d1fb      	bne.n	800727e <GUI_DEVICE_Link+0x1a>
 8007286:	68c1      	ldr	r1, [r0, #12]
 8007288:	68da      	ldr	r2, [r3, #12]
 800728a:	6809      	ldr	r1, [r1, #0]
 800728c:	6812      	ldr	r2, [r2, #0]
 800728e:	428a      	cmp	r2, r1
 8007290:	dd06      	ble.n	80072a0 <GUI_DEVICE_Link+0x3c>
 8007292:	681b      	ldr	r3, [r3, #0]
 8007294:	2b00      	cmp	r3, #0
 8007296:	d0ea      	beq.n	800726e <GUI_DEVICE_Link+0xa>
 8007298:	68da      	ldr	r2, [r3, #12]
 800729a:	6812      	ldr	r2, [r2, #0]
 800729c:	428a      	cmp	r2, r1
 800729e:	dcf8      	bgt.n	8007292 <GUI_DEVICE_Link+0x2e>
 80072a0:	4291      	cmp	r1, r2
 80072a2:	d00b      	beq.n	80072bc <GUI_DEVICE_Link+0x58>
 80072a4:	6859      	ldr	r1, [r3, #4]
 80072a6:	b1c1      	cbz	r1, 80072da <GUI_DEVICE_Link+0x76>
 80072a8:	6008      	str	r0, [r1, #0]
 80072aa:	6041      	str	r1, [r0, #4]
 80072ac:	4283      	cmp	r3, r0
 80072ae:	bf14      	ite	ne
 80072b0:	461a      	movne	r2, r3
 80072b2:	2200      	moveq	r2, #0
 80072b4:	6058      	str	r0, [r3, #4]
 80072b6:	6002      	str	r2, [r0, #0]
 80072b8:	2000      	movs	r0, #0
 80072ba:	e7d9      	b.n	8007270 <GUI_DEVICE_Link+0xc>
 80072bc:	8a82      	ldrh	r2, [r0, #20]
 80072be:	2a01      	cmp	r2, #1
 80072c0:	d1f0      	bne.n	80072a4 <GUI_DEVICE_Link+0x40>
 80072c2:	461e      	mov	r6, r3
 80072c4:	e004      	b.n	80072d0 <GUI_DEVICE_Link+0x6c>
 80072c6:	68de      	ldr	r6, [r3, #12]
 80072c8:	6832      	ldr	r2, [r6, #0]
 80072ca:	428a      	cmp	r2, r1
 80072cc:	461e      	mov	r6, r3
 80072ce:	dbe9      	blt.n	80072a4 <GUI_DEVICE_Link+0x40>
 80072d0:	681b      	ldr	r3, [r3, #0]
 80072d2:	2b00      	cmp	r3, #0
 80072d4:	d1f7      	bne.n	80072c6 <GUI_DEVICE_Link+0x62>
 80072d6:	4633      	mov	r3, r6
 80072d8:	e7e4      	b.n	80072a4 <GUI_DEVICE_Link+0x40>
 80072da:	f845 0024 	str.w	r0, [r5, r4, lsl #2]
 80072de:	e7e5      	b.n	80072ac <GUI_DEVICE_Link+0x48>
 80072e0:	f845 0024 	str.w	r0, [r5, r4, lsl #2]
 80072e4:	4618      	mov	r0, r3
 80072e6:	e7c3      	b.n	8007270 <GUI_DEVICE_Link+0xc>
 80072e8:	1ffe9d08 	.word	0x1ffe9d08

080072ec <GUI_DEVICE_CreateAndLink>:
 80072ec:	e92d 41f0 	stmdb	sp!, {r4, r5, r6, r7, r8, lr}
 80072f0:	1e1d      	subs	r5, r3, #0
 80072f2:	4607      	mov	r7, r0
 80072f4:	460e      	mov	r6, r1
 80072f6:	4690      	mov	r8, r2
 80072f8:	dc1c      	bgt.n	8007334 <GUI_DEVICE_CreateAndLink+0x48>
 80072fa:	201c      	movs	r0, #28
 80072fc:	f001 facc 	bl	8008898 <GUI_ALLOC_GetFixedBlock>
 8007300:	4604      	mov	r4, r0
 8007302:	b1b8      	cbz	r0, 8007334 <GUI_DEVICE_CreateAndLink+0x48>
 8007304:	b1d6      	cbz	r6, 800733c <GUI_DEVICE_CreateAndLink+0x50>
 8007306:	6106      	str	r6, [r0, #16]
 8007308:	2300      	movs	r3, #0
 800730a:	61a5      	str	r5, [r4, #24]
 800730c:	f8a4 8014 	strh.w	r8, [r4, #20]
 8007310:	60e7      	str	r7, [r4, #12]
 8007312:	6023      	str	r3, [r4, #0]
 8007314:	6063      	str	r3, [r4, #4]
 8007316:	60a3      	str	r3, [r4, #8]
 8007318:	4620      	mov	r0, r4
 800731a:	f7ff ffa3 	bl	8007264 <GUI_DEVICE_Link>
 800731e:	68e0      	ldr	r0, [r4, #12]
 8007320:	6801      	ldr	r1, [r0, #0]
 8007322:	b921      	cbnz	r1, 800732e <GUI_DEVICE_CreateAndLink+0x42>
 8007324:	4a0b      	ldr	r2, [pc, #44]	; (8007354 <GUI_DEVICE_CreateAndLink+0x68>)
 8007326:	6813      	ldr	r3, [r2, #0]
 8007328:	eb03 0585 	add.w	r5, r3, r5, lsl #2
 800732c:	646c      	str	r4, [r5, #68]	; 0x44
 800732e:	4620      	mov	r0, r4
 8007330:	e8bd 81f0 	ldmia.w	sp!, {r4, r5, r6, r7, r8, pc}
 8007334:	2400      	movs	r4, #0
 8007336:	4620      	mov	r0, r4
 8007338:	e8bd 81f0 	ldmia.w	sp!, {r4, r5, r6, r7, r8, pc}
 800733c:	4b06      	ldr	r3, [pc, #24]	; (8007358 <GUI_DEVICE_CreateAndLink+0x6c>)
 800733e:	f853 2025 	ldr.w	r2, [r3, r5, lsl #2]
 8007342:	b90a      	cbnz	r2, 8007348 <GUI_DEVICE_CreateAndLink+0x5c>
 8007344:	e7e0      	b.n	8007308 <GUI_DEVICE_CreateAndLink+0x1c>
 8007346:	4602      	mov	r2, r0
 8007348:	6810      	ldr	r0, [r2, #0]
 800734a:	2800      	cmp	r0, #0
 800734c:	d1fb      	bne.n	8007346 <GUI_DEVICE_CreateAndLink+0x5a>
 800734e:	6911      	ldr	r1, [r2, #16]
 8007350:	6121      	str	r1, [r4, #16]
 8007352:	e7d9      	b.n	8007308 <GUI_DEVICE_CreateAndLink+0x1c>
 8007354:	1ffe8808 	.word	0x1ffe8808
 8007358:	1ffe9d08 	.word	0x1ffe9d08

0800735c <_OnExit>:
 800735c:	f648 10bc 	movw	r0, #35260	; 0x89bc
 8007360:	f6c1 70fe 	movt	r0, #8190	; 0x1ffe
 8007364:	b510      	push	{r4, lr}
 8007366:	2400      	movs	r4, #0
 8007368:	f840 4b04 	str.w	r4, [r0], #4
 800736c:	4621      	mov	r1, r4
 800736e:	2258      	movs	r2, #88	; 0x58
 8007370:	f7ff fdb0 	bl	8006ed4 <GUI__memset>
 8007374:	f649 5008 	movw	r0, #40200	; 0x9d08
 8007378:	f6c1 70fe 	movt	r0, #8190	; 0x1ffe
 800737c:	4621      	mov	r1, r4
 800737e:	2204      	movs	r2, #4
 8007380:	e8bd 4010 	ldmia.w	sp!, {r4, lr}
 8007384:	f7ff bda6 	b.w	8006ed4 <GUI__memset>

08007388 <GUI_SetDefaultFont>:
 8007388:	f648 0300 	movw	r3, #34816	; 0x8800
 800738c:	f6c1 73fe 	movt	r3, #8190	; 0x1ffe
 8007390:	6058      	str	r0, [r3, #4]
 8007392:	4770      	bx	lr

08007394 <GUI_Clear>:
 8007394:	2000      	movs	r0, #0
 8007396:	b510      	push	{r4, lr}
 8007398:	4601      	mov	r1, r0
 800739a:	f004 fb1b 	bl	800b9d4 <GUI_GotoXY>
 800739e:	2004      	movs	r0, #4
 80073a0:	f003 faf2 	bl	800a988 <LCD_SetDrawMode>
 80073a4:	4604      	mov	r4, r0
 80073a6:	f24c 0001 	movw	r0, #49153	; 0xc001
 80073aa:	f6cf 70ff 	movt	r0, #65535	; 0xffff
 80073ae:	f643 72ff 	movw	r2, #16383	; 0x3fff
 80073b2:	4601      	mov	r1, r0
 80073b4:	4613      	mov	r3, r2
 80073b6:	f003 fb45 	bl	800aa44 <LCD_FillRect>
 80073ba:	4620      	mov	r0, r4
 80073bc:	e8bd 4010 	ldmia.w	sp!, {r4, lr}
 80073c0:	f003 bae2 	b.w	800a988 <LCD_SetDrawMode>

080073c4 <GUI_Init>:
 80073c4:	b5f8      	push	{r3, r4, r5, r6, r7, lr}
 80073c6:	4c24      	ldr	r4, [pc, #144]	; (8007458 <GUI_Init+0x94>)
 80073c8:	6823      	ldr	r3, [r4, #0]
 80073ca:	b963      	cbnz	r3, 80073e6 <GUI_Init+0x22>
 80073cc:	2001      	movs	r0, #1
 80073ce:	6020      	str	r0, [r4, #0]
 80073d0:	f7fa fb36 	bl	8001a40 <GUI_X_Config>
 80073d4:	f7fa fb48 	bl	8001a68 <LCD_X_Config>
 80073d8:	6e61      	ldr	r1, [r4, #100]	; 0x64
 80073da:	4a20      	ldr	r2, [pc, #128]	; (800745c <GUI_Init+0x98>)
 80073dc:	6621      	str	r1, [r4, #96]	; 0x60
 80073de:	f104 055c 	add.w	r5, r4, #92	; 0x5c
 80073e2:	65e2      	str	r2, [r4, #92]	; 0x5c
 80073e4:	6665      	str	r5, [r4, #100]	; 0x64
 80073e6:	4d1e      	ldr	r5, [pc, #120]	; (8007460 <GUI_Init+0x9c>)
 80073e8:	4f1e      	ldr	r7, [pc, #120]	; (8007464 <GUI_Init+0xa0>)
 80073ea:	262e      	movs	r6, #46	; 0x2e
 80073ec:	703e      	strb	r6, [r7, #0]
 80073ee:	f7fa fb39 	bl	8001a64 <GUI_X_Init>
 80073f2:	68ab      	ldr	r3, [r5, #8]
 80073f4:	4a1c      	ldr	r2, [pc, #112]	; (8007468 <GUI_Init+0xa4>)
 80073f6:	7c58      	ldrb	r0, [r3, #17]
 80073f8:	491c      	ldr	r1, [pc, #112]	; (800746c <GUI_Init+0xa8>)
 80073fa:	f852 0020 	ldr.w	r0, [r2, r0, lsl #2]
 80073fe:	639b      	str	r3, [r3, #56]	; 0x38
 8007400:	68c2      	ldr	r2, [r0, #12]
 8007402:	641b      	str	r3, [r3, #64]	; 0x40
 8007404:	1d1f      	adds	r7, r3, #4
 8007406:	f103 0608 	add.w	r6, r3, #8
 800740a:	63df      	str	r7, [r3, #60]	; 0x3c
 800740c:	61a6      	str	r6, [r4, #24]
 800740e:	6b13      	ldr	r3, [r2, #48]	; 0x30
 8007410:	4798      	blx	r3
 8007412:	6869      	ldr	r1, [r5, #4]
 8007414:	68aa      	ldr	r2, [r5, #8]
 8007416:	6221      	str	r1, [r4, #32]
 8007418:	4915      	ldr	r1, [pc, #84]	; (8007470 <GUI_Init+0xac>)
 800741a:	3208      	adds	r2, #8
 800741c:	f06f 4370 	mvn.w	r3, #4026531840	; 0xf0000000
 8007420:	2000      	movs	r0, #0
 8007422:	6521      	str	r1, [r4, #80]	; 0x50
 8007424:	61a2      	str	r2, [r4, #24]
 8007426:	2103      	movs	r1, #3
 8007428:	2201      	movs	r2, #1
 800742a:	7722      	strb	r2, [r4, #28]
 800742c:	6363      	str	r3, [r4, #52]	; 0x34
 800742e:	63a3      	str	r3, [r4, #56]	; 0x38
 8007430:	f884 1054 	strb.w	r1, [r4, #84]	; 0x54
 8007434:	f004 f95a 	bl	800b6ec <LCD_SetBkColor>
 8007438:	f06f 407f 	mvn.w	r0, #4278190080	; 0xff000000
 800743c:	f004 f960 	bl	800b700 <LCD_SetColor>
 8007440:	4c0c      	ldr	r4, [pc, #48]	; (8007474 <GUI_Init+0xb0>)
 8007442:	480d      	ldr	r0, [pc, #52]	; (8007478 <GUI_Init+0xb4>)
 8007444:	6004      	str	r4, [r0, #0]
 8007446:	f004 f8a1 	bl	800b58c <LCD_Init>
 800744a:	4604      	mov	r4, r0
 800744c:	2000      	movs	r0, #0
 800744e:	4601      	mov	r1, r0
 8007450:	f004 fa76 	bl	800b940 <GUI_SetOrg>
 8007454:	4620      	mov	r0, r4
 8007456:	bdf8      	pop	{r3, r4, r5, r6, r7, pc}
 8007458:	1ffe89bc 	.word	0x1ffe89bc
 800745c:	0800735d 	.word	0x0800735d
 8007460:	1ffe8800 	.word	0x1ffe8800
 8007464:	1ffe9cdd 	.word	0x1ffe9cdd
 8007468:	1ffe9d08 	.word	0x1ffe9d08
 800746c:	1ffe89c8 	.word	0x1ffe89c8
 8007470:	0800f8a0 	.word	0x0800f8a0
 8007474:	08010728 	.word	0x08010728
 8007478:	1ffe9d00 	.word	0x1ffe9d00

0800747c <GUI__RegisterExit>:
 800747c:	f648 13bc 	movw	r3, #35260	; 0x89bc
 8007480:	f6c1 73fe 	movt	r3, #8190	; 0x1ffe
 8007484:	6e5a      	ldr	r2, [r3, #100]	; 0x64
 8007486:	6658      	str	r0, [r3, #100]	; 0x64
 8007488:	6042      	str	r2, [r0, #4]
 800748a:	4770      	bx	lr

0800748c <GUIPROP_DispChar>:
 800748c:	e92d 4ff0 	stmdb	sp!, {r4, r5, r6, r7, r8, r9, sl, fp, lr}
 8007490:	4c3a      	ldr	r4, [pc, #232]	; (800757c <GUIPROP_DispChar+0xf0>)
 8007492:	6823      	ldr	r3, [r4, #0]
 8007494:	69da      	ldr	r2, [r3, #28]
 8007496:	8d5d      	ldrh	r5, [r3, #42]	; 0x2a
 8007498:	69d3      	ldr	r3, [r2, #28]
 800749a:	b089      	sub	sp, #36	; 0x24
 800749c:	b143      	cbz	r3, 80074b0 <GUIPROP_DispChar+0x24>
 800749e:	881a      	ldrh	r2, [r3, #0]
 80074a0:	4290      	cmp	r0, r2
 80074a2:	d302      	bcc.n	80074aa <GUIPROP_DispChar+0x1e>
 80074a4:	8859      	ldrh	r1, [r3, #2]
 80074a6:	4281      	cmp	r1, r0
 80074a8:	d205      	bcs.n	80074b6 <GUIPROP_DispChar+0x2a>
 80074aa:	689b      	ldr	r3, [r3, #8]
 80074ac:	2b00      	cmp	r3, #0
 80074ae:	d1f6      	bne.n	800749e <GUIPROP_DispChar+0x12>
 80074b0:	b009      	add	sp, #36	; 0x24
 80074b2:	e8bd 8ff0 	ldmia.w	sp!, {r4, r5, r6, r7, r8, r9, sl, fp, pc}
 80074b6:	685f      	ldr	r7, [r3, #4]
 80074b8:	ebc2 0800 	rsb	r8, r2, r0
 80074bc:	fa0f fa85 	sxth.w	sl, r5
 80074c0:	eb07 05c8 	add.w	r5, r7, r8, lsl #3
 80074c4:	4650      	mov	r0, sl
 80074c6:	f895 b002 	ldrb.w	fp, [r5, #2]
 80074ca:	f003 fa5d 	bl	800a988 <LCD_SetDrawMode>
 80074ce:	6826      	ldr	r6, [r4, #0]
 80074d0:	f817 2038 	ldrb.w	r2, [r7, r8, lsl #3]
 80074d4:	f8d6 e01c 	ldr.w	lr, [r6, #28]
 80074d8:	f9b6 1024 	ldrsh.w	r1, [r6, #36]	; 0x24
 80074dc:	f89e c01a 	ldrb.w	ip, [lr, #26]
 80074e0:	f89e 3018 	ldrb.w	r3, [lr, #24]
 80074e4:	4681      	mov	r9, r0
 80074e6:	f9b6 0022 	ldrsh.w	r0, [r6, #34]	; 0x22
 80074ea:	f8cd c000 	str.w	ip, [sp]
 80074ee:	f89e e01b 	ldrb.w	lr, [lr, #27]
 80074f2:	f8cd b00c 	str.w	fp, [sp, #12]
 80074f6:	f04f 0b01 	mov.w	fp, #1
 80074fa:	f8cd b008 	str.w	fp, [sp, #8]
 80074fe:	f8cd e004 	str.w	lr, [sp, #4]
 8007502:	9306      	str	r3, [sp, #24]
 8007504:	686b      	ldr	r3, [r5, #4]
 8007506:	9304      	str	r3, [sp, #16]
 8007508:	6bb6      	ldr	r6, [r6, #56]	; 0x38
 800750a:	9b06      	ldr	r3, [sp, #24]
 800750c:	9605      	str	r6, [sp, #20]
 800750e:	f003 fd41 	bl	800af94 <LCD_DrawBitmap>
 8007512:	6820      	ldr	r0, [r4, #0]
 8007514:	69c6      	ldr	r6, [r0, #28]
 8007516:	f896 b019 	ldrb.w	fp, [r6, #25]
 800751a:	7e32      	ldrb	r2, [r6, #24]
 800751c:	4593      	cmp	fp, r2
 800751e:	d921      	bls.n	8007564 <GUIPROP_DispChar+0xd8>
 8007520:	f1ba 0f02 	cmp.w	sl, #2
 8007524:	7ef6      	ldrb	r6, [r6, #27]
 8007526:	d01d      	beq.n	8007564 <GUIPROP_DispChar+0xd8>
 8007528:	9207      	str	r2, [sp, #28]
 800752a:	f004 fa65 	bl	800b9f8 <GUI_GetColor>
 800752e:	4682      	mov	sl, r0
 8007530:	f004 fa5a 	bl	800b9e8 <GUI_GetBkColor>
 8007534:	f7ff fdc4 	bl	80070c0 <GUI_SetColor>
 8007538:	4910      	ldr	r1, [pc, #64]	; (800757c <GUIPROP_DispChar+0xf0>)
 800753a:	f817 7038 	ldrb.w	r7, [r7, r8, lsl #3]
 800753e:	680b      	ldr	r3, [r1, #0]
 8007540:	9907      	ldr	r1, [sp, #28]
 8007542:	69da      	ldr	r2, [r3, #28]
 8007544:	f9b3 0022 	ldrsh.w	r0, [r3, #34]	; 0x22
 8007548:	7ed2      	ldrb	r2, [r2, #27]
 800754a:	f9b3 3024 	ldrsh.w	r3, [r3, #36]	; 0x24
 800754e:	fb07 0202 	mla	r2, r7, r2, r0
 8007552:	fb01 3106 	mla	r1, r1, r6, r3
 8007556:	fb0b 3306 	mla	r3, fp, r6, r3
 800755a:	f003 fa73 	bl	800aa44 <LCD_FillRect>
 800755e:	4650      	mov	r0, sl
 8007560:	f7ff fdae 	bl	80070c0 <GUI_SetColor>
 8007564:	4648      	mov	r0, r9
 8007566:	f003 fa0f 	bl	800a988 <LCD_SetDrawMode>
 800756a:	6823      	ldr	r3, [r4, #0]
 800756c:	7868      	ldrb	r0, [r5, #1]
 800756e:	69da      	ldr	r2, [r3, #28]
 8007570:	8c59      	ldrh	r1, [r3, #34]	; 0x22
 8007572:	7e92      	ldrb	r2, [r2, #26]
 8007574:	fb00 1002 	mla	r0, r0, r2, r1
 8007578:	8458      	strh	r0, [r3, #34]	; 0x22
 800757a:	e799      	b.n	80074b0 <GUIPROP_DispChar+0x24>
 800757c:	1ffe8808 	.word	0x1ffe8808

08007580 <GUIPROP_GetCharDistX>:
 8007580:	4b10      	ldr	r3, [pc, #64]	; (80075c4 <GUIPROP_GetCharDistX+0x44>)
 8007582:	b470      	push	{r4, r5, r6}
 8007584:	681a      	ldr	r2, [r3, #0]
 8007586:	69d5      	ldr	r5, [r2, #28]
 8007588:	69eb      	ldr	r3, [r5, #28]
 800758a:	b143      	cbz	r3, 800759e <GUIPROP_GetCharDistX+0x1e>
 800758c:	881a      	ldrh	r2, [r3, #0]
 800758e:	4290      	cmp	r0, r2
 8007590:	d302      	bcc.n	8007598 <GUIPROP_GetCharDistX+0x18>
 8007592:	885c      	ldrh	r4, [r3, #2]
 8007594:	4284      	cmp	r4, r0
 8007596:	d205      	bcs.n	80075a4 <GUIPROP_GetCharDistX+0x24>
 8007598:	689b      	ldr	r3, [r3, #8]
 800759a:	2b00      	cmp	r3, #0
 800759c:	d1f6      	bne.n	800758c <GUIPROP_GetCharDistX+0xc>
 800759e:	4618      	mov	r0, r3
 80075a0:	bc70      	pop	{r4, r5, r6}
 80075a2:	4770      	bx	lr
 80075a4:	685e      	ldr	r6, [r3, #4]
 80075a6:	7eac      	ldrb	r4, [r5, #26]
 80075a8:	1a82      	subs	r2, r0, r2
 80075aa:	eb06 00c2 	add.w	r0, r6, r2, lsl #3
 80075ae:	7843      	ldrb	r3, [r0, #1]
 80075b0:	fb13 f004 	smulbb	r0, r3, r4
 80075b4:	2900      	cmp	r1, #0
 80075b6:	d0f3      	beq.n	80075a0 <GUIPROP_GetCharDistX+0x20>
 80075b8:	f816 2032 	ldrb.w	r2, [r6, r2, lsl #3]
 80075bc:	fb14 f302 	smulbb	r3, r4, r2
 80075c0:	600b      	str	r3, [r1, #0]
 80075c2:	e7ed      	b.n	80075a0 <GUIPROP_GetCharDistX+0x20>
 80075c4:	1ffe8808 	.word	0x1ffe8808

080075c8 <GUIPROP_GetFontInfo>:
 80075c8:	2301      	movs	r3, #1
 80075ca:	800b      	strh	r3, [r1, #0]
 80075cc:	4770      	bx	lr
 80075ce:	bf00      	nop

080075d0 <GUIPROP_IsInFont>:
 80075d0:	69c0      	ldr	r0, [r0, #28]
 80075d2:	b150      	cbz	r0, 80075ea <GUIPROP_IsInFont+0x1a>
 80075d4:	8803      	ldrh	r3, [r0, #0]
 80075d6:	428b      	cmp	r3, r1
 80075d8:	d802      	bhi.n	80075e0 <GUIPROP_IsInFont+0x10>
 80075da:	8842      	ldrh	r2, [r0, #2]
 80075dc:	428a      	cmp	r2, r1
 80075de:	d203      	bcs.n	80075e8 <GUIPROP_IsInFont+0x18>
 80075e0:	6880      	ldr	r0, [r0, #8]
 80075e2:	2800      	cmp	r0, #0
 80075e4:	d1f6      	bne.n	80075d4 <GUIPROP_IsInFont+0x4>
 80075e6:	4770      	bx	lr
 80075e8:	2001      	movs	r0, #1
 80075ea:	4770      	bx	lr

080075ec <GUIMONO_DispChar>:
 80075ec:	e92d 4ff0 	stmdb	sp!, {r4, r5, r6, r7, r8, r9, sl, fp, lr}
 80075f0:	f8df b150 	ldr.w	fp, [pc, #336]	; 8007744 <GUIMONO_DispChar+0x158>
 80075f4:	f8db 3000 	ldr.w	r3, [fp]
 80075f8:	69d9      	ldr	r1, [r3, #28]
 80075fa:	f8b3 c022 	ldrh.w	ip, [r3, #34]	; 0x22
 80075fe:	69cc      	ldr	r4, [r1, #28]
 8007600:	8c9f      	ldrh	r7, [r3, #36]	; 0x24
 8007602:	89a2      	ldrh	r2, [r4, #12]
 8007604:	4282      	cmp	r2, r0
 8007606:	b08d      	sub	sp, #52	; 0x34
 8007608:	f200 8085 	bhi.w	8007716 <GUIMONO_DispChar+0x12a>
 800760c:	89e5      	ldrh	r5, [r4, #14]
 800760e:	4285      	cmp	r5, r0
 8007610:	f0c0 8081 	bcc.w	8007716 <GUIMONO_DispChar+0x12a>
 8007614:	1a82      	subs	r2, r0, r2
 8007616:	6826      	ldr	r6, [r4, #0]
 8007618:	f04f 30ff 	mov.w	r0, #4294967295
 800761c:	900a      	str	r0, [sp, #40]	; 0x28
 800761e:	1c50      	adds	r0, r2, #1
 8007620:	d071      	beq.n	8007706 <GUIMONO_DispChar+0x11a>
 8007622:	f8b3 a02a 	ldrh.w	sl, [r3, #42]	; 0x2a
 8007626:	7e0d      	ldrb	r5, [r1, #24]
 8007628:	7ca3      	ldrb	r3, [r4, #18]
 800762a:	f894 8010 	ldrb.w	r8, [r4, #16]
 800762e:	9207      	str	r2, [sp, #28]
 8007630:	fa0f f18a 	sxth.w	r1, sl
 8007634:	fb15 f303 	smulbb	r3, r5, r3
 8007638:	4608      	mov	r0, r1
 800763a:	fa0f f98c 	sxth.w	r9, ip
 800763e:	9109      	str	r1, [sp, #36]	; 0x24
 8007640:	9308      	str	r3, [sp, #32]
 8007642:	f003 f9a1 	bl	800a988 <LCD_SetDrawMode>
 8007646:	f8db 3000 	ldr.w	r3, [fp]
 800764a:	900b      	str	r0, [sp, #44]	; 0x2c
 800764c:	69da      	ldr	r2, [r3, #28]
 800764e:	7e90      	ldrb	r0, [r2, #26]
 8007650:	9000      	str	r0, [sp, #0]
 8007652:	7ed1      	ldrb	r1, [r2, #27]
 8007654:	9808      	ldr	r0, [sp, #32]
 8007656:	9101      	str	r1, [sp, #4]
 8007658:	2201      	movs	r2, #1
 800765a:	9202      	str	r2, [sp, #8]
 800765c:	9a07      	ldr	r2, [sp, #28]
 800765e:	7ca1      	ldrb	r1, [r4, #18]
 8007660:	fb00 6202 	mla	r2, r0, r2, r6
 8007664:	9103      	str	r1, [sp, #12]
 8007666:	9204      	str	r2, [sp, #16]
 8007668:	6b9b      	ldr	r3, [r3, #56]	; 0x38
 800766a:	b23f      	sxth	r7, r7
 800766c:	9305      	str	r3, [sp, #20]
 800766e:	4639      	mov	r1, r7
 8007670:	4648      	mov	r0, r9
 8007672:	4642      	mov	r2, r8
 8007674:	462b      	mov	r3, r5
 8007676:	f003 fc8d 	bl	800af94 <LCD_DrawBitmap>
 800767a:	990a      	ldr	r1, [sp, #40]	; 0x28
 800767c:	3101      	adds	r1, #1
 800767e:	d01c      	beq.n	80076ba <GUIMONO_DispChar+0xce>
 8007680:	f04a 0002 	orr.w	r0, sl, #2
 8007684:	b200      	sxth	r0, r0
 8007686:	f003 f97f 	bl	800a988 <LCD_SetDrawMode>
 800768a:	4a2e      	ldr	r2, [pc, #184]	; (8007744 <GUIMONO_DispChar+0x158>)
 800768c:	6813      	ldr	r3, [r2, #0]
 800768e:	69d8      	ldr	r0, [r3, #28]
 8007690:	7e81      	ldrb	r1, [r0, #26]
 8007692:	9100      	str	r1, [sp, #0]
 8007694:	7ec2      	ldrb	r2, [r0, #27]
 8007696:	990a      	ldr	r1, [sp, #40]	; 0x28
 8007698:	9201      	str	r2, [sp, #4]
 800769a:	2001      	movs	r0, #1
 800769c:	9002      	str	r0, [sp, #8]
 800769e:	9808      	ldr	r0, [sp, #32]
 80076a0:	7ca2      	ldrb	r2, [r4, #18]
 80076a2:	fb00 6601 	mla	r6, r0, r1, r6
 80076a6:	9203      	str	r2, [sp, #12]
 80076a8:	9604      	str	r6, [sp, #16]
 80076aa:	6b9b      	ldr	r3, [r3, #56]	; 0x38
 80076ac:	4648      	mov	r0, r9
 80076ae:	9305      	str	r3, [sp, #20]
 80076b0:	4639      	mov	r1, r7
 80076b2:	4642      	mov	r2, r8
 80076b4:	462b      	mov	r3, r5
 80076b6:	f003 fc6d 	bl	800af94 <LCD_DrawBitmap>
 80076ba:	f8db 2000 	ldr.w	r2, [fp]
 80076be:	69d1      	ldr	r1, [r2, #28]
 80076c0:	7e48      	ldrb	r0, [r1, #25]
 80076c2:	7e0b      	ldrb	r3, [r1, #24]
 80076c4:	4298      	cmp	r0, r3
 80076c6:	d916      	bls.n	80076f6 <GUIMONO_DispChar+0x10a>
 80076c8:	9a09      	ldr	r2, [sp, #36]	; 0x24
 80076ca:	2a02      	cmp	r2, #2
 80076cc:	d013      	beq.n	80076f6 <GUIMONO_DispChar+0x10a>
 80076ce:	f08a 0504 	eor.w	r5, sl, #4
 80076d2:	b228      	sxth	r0, r5
 80076d4:	f003 f958 	bl	800a988 <LCD_SetDrawMode>
 80076d8:	491a      	ldr	r1, [pc, #104]	; (8007744 <GUIMONO_DispChar+0x158>)
 80076da:	6808      	ldr	r0, [r1, #0]
 80076dc:	69c3      	ldr	r3, [r0, #28]
 80076de:	7e1d      	ldrb	r5, [r3, #24]
 80076e0:	7ed9      	ldrb	r1, [r3, #27]
 80076e2:	7e9a      	ldrb	r2, [r3, #26]
 80076e4:	7e5b      	ldrb	r3, [r3, #25]
 80076e6:	4648      	mov	r0, r9
 80076e8:	fb05 7101 	mla	r1, r5, r1, r7
 80076ec:	fb02 9208 	mla	r2, r2, r8, r9
 80076f0:	19db      	adds	r3, r3, r7
 80076f2:	f003 f9a7 	bl	800aa44 <LCD_FillRect>
 80076f6:	980b      	ldr	r0, [sp, #44]	; 0x2c
 80076f8:	b2c0      	uxtb	r0, r0
 80076fa:	f003 f945 	bl	800a988 <LCD_SetDrawMode>
 80076fe:	f8db 3000 	ldr.w	r3, [fp]
 8007702:	f8b3 c022 	ldrh.w	ip, [r3, #34]	; 0x22
 8007706:	7c61      	ldrb	r1, [r4, #17]
 8007708:	eb0c 0901 	add.w	r9, ip, r1
 800770c:	f8a3 9022 	strh.w	r9, [r3, #34]	; 0x22
 8007710:	b00d      	add	sp, #52	; 0x34
 8007712:	e8bd 8ff0 	ldmia.w	sp!, {r4, r5, r6, r7, r8, r9, sl, fp, pc}
 8007716:	68a5      	ldr	r5, [r4, #8]
 8007718:	6866      	ldr	r6, [r4, #4]
 800771a:	2d00      	cmp	r5, #0
 800771c:	d0f3      	beq.n	8007706 <GUIMONO_DispChar+0x11a>
 800771e:	882a      	ldrh	r2, [r5, #0]
 8007720:	4290      	cmp	r0, r2
 8007722:	d3f0      	bcc.n	8007706 <GUIMONO_DispChar+0x11a>
 8007724:	f8b5 8002 	ldrh.w	r8, [r5, #2]
 8007728:	4580      	cmp	r8, r0
 800772a:	d3ec      	bcc.n	8007706 <GUIMONO_DispChar+0x11a>
 800772c:	686d      	ldr	r5, [r5, #4]
 800772e:	1a80      	subs	r0, r0, r2
 8007730:	b282      	uxth	r2, r0
 8007732:	eb05 0082 	add.w	r0, r5, r2, lsl #2
 8007736:	f935 2022 	ldrsh.w	r2, [r5, r2, lsl #2]
 800773a:	f9b0 0002 	ldrsh.w	r0, [r0, #2]
 800773e:	900a      	str	r0, [sp, #40]	; 0x28
 8007740:	e76d      	b.n	800761e <GUIMONO_DispChar+0x32>
 8007742:	bf00      	nop
 8007744:	1ffe8808 	.word	0x1ffe8808

08007748 <GUIMONO_GetCharDistX>:
 8007748:	4b04      	ldr	r3, [pc, #16]	; (800775c <GUIMONO_GetCharDistX+0x14>)
 800774a:	6818      	ldr	r0, [r3, #0]
 800774c:	69c2      	ldr	r2, [r0, #28]
 800774e:	69d3      	ldr	r3, [r2, #28]
 8007750:	b109      	cbz	r1, 8007756 <GUIMONO_GetCharDistX+0xe>
 8007752:	7c18      	ldrb	r0, [r3, #16]
 8007754:	6008      	str	r0, [r1, #0]
 8007756:	7c58      	ldrb	r0, [r3, #17]
 8007758:	4770      	bx	lr
 800775a:	bf00      	nop
 800775c:	1ffe8808 	.word	0x1ffe8808

08007760 <GUIMONO_GetFontInfo>:
 8007760:	2302      	movs	r3, #2
 8007762:	800b      	strh	r3, [r1, #0]
 8007764:	4770      	bx	lr
 8007766:	bf00      	nop

08007768 <GUIMONO_IsInFont>:
 8007768:	69c3      	ldr	r3, [r0, #28]
 800776a:	899a      	ldrh	r2, [r3, #12]
 800776c:	428a      	cmp	r2, r1
 800776e:	d802      	bhi.n	8007776 <GUIMONO_IsInFont+0xe>
 8007770:	89d8      	ldrh	r0, [r3, #14]
 8007772:	4288      	cmp	r0, r1
 8007774:	d20d      	bcs.n	8007792 <GUIMONO_IsInFont+0x2a>
 8007776:	689b      	ldr	r3, [r3, #8]
 8007778:	b16b      	cbz	r3, 8007796 <GUIMONO_IsInFont+0x2e>
 800777a:	881a      	ldrh	r2, [r3, #0]
 800777c:	4291      	cmp	r1, r2
 800777e:	d30a      	bcc.n	8007796 <GUIMONO_IsInFont+0x2e>
 8007780:	8858      	ldrh	r0, [r3, #2]
 8007782:	4288      	cmp	r0, r1
 8007784:	d307      	bcc.n	8007796 <GUIMONO_IsInFont+0x2e>
 8007786:	1a89      	subs	r1, r1, r2
 8007788:	685b      	ldr	r3, [r3, #4]
 800778a:	f933 2021 	ldrsh.w	r2, [r3, r1, lsl #2]
 800778e:	2a00      	cmp	r2, #0
 8007790:	db01      	blt.n	8007796 <GUIMONO_IsInFont+0x2e>
 8007792:	2001      	movs	r0, #1
 8007794:	4770      	bx	lr
 8007796:	2000      	movs	r0, #0
 8007798:	4770      	bx	lr
 800779a:	bf00      	nop

0800779c <_Log2VisBuffered>:
 800779c:	4770      	bx	lr
 800779e:	bf00      	nop

080077a0 <_DispLine>:
 80077a0:	b570      	push	{r4, r5, r6, lr}
 80077a2:	b082      	sub	sp, #8
 80077a4:	ab02      	add	r3, sp, #8
 80077a6:	4c1a      	ldr	r4, [pc, #104]	; (8007810 <_DispLine+0x70>)
 80077a8:	f843 1d08 	str.w	r1, [r3, #-8]!
 80077ac:	4919      	ldr	r1, [pc, #100]	; (8007814 <_DispLine+0x74>)
 80077ae:	9001      	str	r0, [sp, #4]
 80077b0:	680d      	ldr	r5, [r1, #0]
 80077b2:	4669      	mov	r1, sp
 80077b4:	4616      	mov	r6, r2
 80077b6:	47a8      	blx	r5
 80077b8:	6822      	ldr	r2, [r4, #0]
 80077ba:	9001      	str	r0, [sp, #4]
 80077bc:	6950      	ldr	r0, [r2, #20]
 80077be:	b118      	cbz	r0, 80077c8 <_DispLine+0x28>
 80077c0:	4631      	mov	r1, r6
 80077c2:	f004 f8e9 	bl	800b998 <GUI_RectsIntersect>
 80077c6:	b168      	cbz	r0, 80077e4 <_DispLine+0x44>
 80077c8:	2001      	movs	r0, #1
 80077ca:	f004 f85f 	bl	800b88c <GUI__ManageCache>
 80077ce:	6820      	ldr	r0, [r4, #0]
 80077d0:	69c3      	ldr	r3, [r0, #28]
 80077d2:	6959      	ldr	r1, [r3, #20]
 80077d4:	b141      	cbz	r1, 80077e8 <_DispLine+0x48>
 80077d6:	688a      	ldr	r2, [r1, #8]
 80077d8:	9801      	ldr	r0, [sp, #4]
 80077da:	9900      	ldr	r1, [sp, #0]
 80077dc:	4790      	blx	r2
 80077de:	2000      	movs	r0, #0
 80077e0:	f004 f854 	bl	800b88c <GUI__ManageCache>
 80077e4:	b002      	add	sp, #8
 80077e6:	bd70      	pop	{r4, r5, r6, pc}
 80077e8:	4d0b      	ldr	r5, [pc, #44]	; (8007818 <_DispLine+0x78>)
 80077ea:	9a00      	ldr	r2, [sp, #0]
 80077ec:	1e53      	subs	r3, r2, #1
 80077ee:	2b00      	cmp	r3, #0
 80077f0:	a801      	add	r0, sp, #4
 80077f2:	9300      	str	r3, [sp, #0]
 80077f4:	dbf3      	blt.n	80077de <_DispLine+0x3e>
 80077f6:	f004 f85d 	bl	800b8b4 <GUI_UC__GetCharCodeInc>
 80077fa:	6821      	ldr	r1, [r4, #0]
 80077fc:	69ca      	ldr	r2, [r1, #28]
 80077fe:	6813      	ldr	r3, [r2, #0]
 8007800:	4606      	mov	r6, r0
 8007802:	4798      	blx	r3
 8007804:	6829      	ldr	r1, [r5, #0]
 8007806:	2900      	cmp	r1, #0
 8007808:	d0ef      	beq.n	80077ea <_DispLine+0x4a>
 800780a:	4630      	mov	r0, r6
 800780c:	4788      	blx	r1
 800780e:	e7ec      	b.n	80077ea <_DispLine+0x4a>
 8007810:	1ffe8808 	.word	0x1ffe8808
 8007814:	1ffe880c 	.word	0x1ffe880c
 8007818:	1ffe9cf8 	.word	0x1ffe9cf8

0800781c <GUI__GetLineNumChars>:
 800781c:	b570      	push	{r4, r5, r6, lr}
 800781e:	b082      	sub	sp, #8
 8007820:	460d      	mov	r5, r1
 8007822:	9001      	str	r0, [sp, #4]
 8007824:	4604      	mov	r4, r0
 8007826:	b140      	cbz	r0, 800783a <GUI__GetLineNumChars+0x1e>
 8007828:	4b1e      	ldr	r3, [pc, #120]	; (80078a4 <GUI__GetLineNumChars+0x88>)
 800782a:	681a      	ldr	r2, [r3, #0]
 800782c:	69d4      	ldr	r4, [r2, #28]
 800782e:	6963      	ldr	r3, [r4, #20]
 8007830:	b133      	cbz	r3, 8007840 <GUI__GetLineNumChars+0x24>
 8007832:	685a      	ldr	r2, [r3, #4]
 8007834:	b122      	cbz	r2, 8007840 <GUI__GetLineNumChars+0x24>
 8007836:	4790      	blx	r2
 8007838:	4604      	mov	r4, r0
 800783a:	4620      	mov	r0, r4
 800783c:	b002      	add	sp, #8
 800783e:	bd70      	pop	{r4, r5, r6, pc}
 8007840:	2400      	movs	r4, #0
 8007842:	2d00      	cmp	r5, #0
 8007844:	ddf9      	ble.n	800783a <GUI__GetLineNumChars+0x1e>
 8007846:	1e69      	subs	r1, r5, #1
 8007848:	a801      	add	r0, sp, #4
 800784a:	f001 0601 	and.w	r6, r1, #1
 800784e:	f004 f831 	bl	800b8b4 <GUI_UC__GetCharCodeInc>
 8007852:	2400      	movs	r4, #0
 8007854:	2800      	cmp	r0, #0
 8007856:	d0f0      	beq.n	800783a <GUI__GetLineNumChars+0x1e>
 8007858:	280a      	cmp	r0, #10
 800785a:	d0ee      	beq.n	800783a <GUI__GetLineNumChars+0x1e>
 800785c:	2401      	movs	r4, #1
 800785e:	42ac      	cmp	r4, r5
 8007860:	d0eb      	beq.n	800783a <GUI__GetLineNumChars+0x1e>
 8007862:	b1b6      	cbz	r6, 8007892 <GUI__GetLineNumChars+0x76>
 8007864:	a801      	add	r0, sp, #4
 8007866:	f004 f825 	bl	800b8b4 <GUI_UC__GetCharCodeInc>
 800786a:	2800      	cmp	r0, #0
 800786c:	d0e5      	beq.n	800783a <GUI__GetLineNumChars+0x1e>
 800786e:	280a      	cmp	r0, #10
 8007870:	d0e3      	beq.n	800783a <GUI__GetLineNumChars+0x1e>
 8007872:	2402      	movs	r4, #2
 8007874:	42ac      	cmp	r4, r5
 8007876:	d10c      	bne.n	8007892 <GUI__GetLineNumChars+0x76>
 8007878:	e7df      	b.n	800783a <GUI__GetLineNumChars+0x1e>
 800787a:	2b0a      	cmp	r3, #10
 800787c:	d0dd      	beq.n	800783a <GUI__GetLineNumChars+0x1e>
 800787e:	f004 f819 	bl	800b8b4 <GUI_UC__GetCharCodeInc>
 8007882:	3401      	adds	r4, #1
 8007884:	2800      	cmp	r0, #0
 8007886:	d0d8      	beq.n	800783a <GUI__GetLineNumChars+0x1e>
 8007888:	280a      	cmp	r0, #10
 800788a:	d0d6      	beq.n	800783a <GUI__GetLineNumChars+0x1e>
 800788c:	3401      	adds	r4, #1
 800788e:	42ac      	cmp	r4, r5
 8007890:	d0d3      	beq.n	800783a <GUI__GetLineNumChars+0x1e>
 8007892:	a801      	add	r0, sp, #4
 8007894:	f004 f80e 	bl	800b8b4 <GUI_UC__GetCharCodeInc>
 8007898:	4603      	mov	r3, r0
 800789a:	a801      	add	r0, sp, #4
 800789c:	2b00      	cmp	r3, #0
 800789e:	d1ec      	bne.n	800787a <GUI__GetLineNumChars+0x5e>
 80078a0:	e7cb      	b.n	800783a <GUI__GetLineNumChars+0x1e>
 80078a2:	bf00      	nop
 80078a4:	1ffe8808 	.word	0x1ffe8808

080078a8 <GUI__GetLineDistX>:
 80078a8:	b570      	push	{r4, r5, r6, lr}
 80078aa:	b084      	sub	sp, #16
 80078ac:	ab04      	add	r3, sp, #16
 80078ae:	4a1c      	ldr	r2, [pc, #112]	; (8007920 <GUI__GetLineDistX+0x78>)
 80078b0:	f843 1d10 	str.w	r1, [r3, #-16]!
 80078b4:	6814      	ldr	r4, [r2, #0]
 80078b6:	9001      	str	r0, [sp, #4]
 80078b8:	4669      	mov	r1, sp
 80078ba:	47a0      	blx	r4
 80078bc:	4604      	mov	r4, r0
 80078be:	9001      	str	r0, [sp, #4]
 80078c0:	b140      	cbz	r0, 80078d4 <GUI__GetLineDistX+0x2c>
 80078c2:	4918      	ldr	r1, [pc, #96]	; (8007924 <GUI__GetLineDistX+0x7c>)
 80078c4:	680b      	ldr	r3, [r1, #0]
 80078c6:	69da      	ldr	r2, [r3, #28]
 80078c8:	6951      	ldr	r1, [r2, #20]
 80078ca:	b129      	cbz	r1, 80078d8 <GUI__GetLineDistX+0x30>
 80078cc:	680b      	ldr	r3, [r1, #0]
 80078ce:	b11b      	cbz	r3, 80078d8 <GUI__GetLineDistX+0x30>
 80078d0:	9900      	ldr	r1, [sp, #0]
 80078d2:	4798      	blx	r3
 80078d4:	b004      	add	sp, #16
 80078d6:	bd70      	pop	{r4, r5, r6, pc}
 80078d8:	9800      	ldr	r0, [sp, #0]
 80078da:	1e45      	subs	r5, r0, #1
 80078dc:	2400      	movs	r4, #0
 80078de:	2d00      	cmp	r5, #0
 80078e0:	9500      	str	r5, [sp, #0]
 80078e2:	db19      	blt.n	8007918 <GUI__GetLineDistX+0x70>
 80078e4:	a801      	add	r0, sp, #4
 80078e6:	f003 ffe5 	bl	800b8b4 <GUI_UC__GetCharCodeInc>
 80078ea:	4605      	mov	r5, r0
 80078ec:	f000 f85c 	bl	80079a8 <GUI_GetCharDistX>
 80078f0:	9e00      	ldr	r6, [sp, #0]
 80078f2:	1e72      	subs	r2, r6, #1
 80078f4:	2a00      	cmp	r2, #0
 80078f6:	9200      	str	r2, [sp, #0]
 80078f8:	4404      	add	r4, r0
 80078fa:	daf3      	bge.n	80078e4 <GUI__GetLineDistX+0x3c>
 80078fc:	a904      	add	r1, sp, #16
 80078fe:	2600      	movs	r6, #0
 8007900:	f841 6d04 	str.w	r6, [r1, #-4]!
 8007904:	4628      	mov	r0, r5
 8007906:	f000 f85b 	bl	80079c0 <GUI_GetCharDistXEx>
 800790a:	9903      	ldr	r1, [sp, #12]
 800790c:	4288      	cmp	r0, r1
 800790e:	bfb8      	it	lt
 8007910:	ebc0 0601 	rsblt	r6, r0, r1
 8007914:	19a0      	adds	r0, r4, r6
 8007916:	e7dd      	b.n	80078d4 <GUI__GetLineDistX+0x2c>
 8007918:	2500      	movs	r5, #0
 800791a:	462c      	mov	r4, r5
 800791c:	e7ee      	b.n	80078fc <GUI__GetLineDistX+0x54>
 800791e:	bf00      	nop
 8007920:	1ffe880c 	.word	0x1ffe880c
 8007924:	1ffe8808 	.word	0x1ffe8808

08007928 <GUI__DispLine>:
 8007928:	b530      	push	{r4, r5, lr}
 800792a:	4b0d      	ldr	r3, [pc, #52]	; (8007960 <GUI__DispLine+0x38>)
 800792c:	681b      	ldr	r3, [r3, #0]
 800792e:	b083      	sub	sp, #12
 8007930:	4605      	mov	r5, r0
 8007932:	460c      	mov	r4, r1
 8007934:	b123      	cbz	r3, 8007940 <GUI__DispLine+0x18>
 8007936:	466a      	mov	r2, sp
 8007938:	f7ff ff32 	bl	80077a0 <_DispLine>
 800793c:	b003      	add	sp, #12
 800793e:	bd30      	pop	{r4, r5, pc}
 8007940:	6810      	ldr	r0, [r2, #0]
 8007942:	6851      	ldr	r1, [r2, #4]
 8007944:	466a      	mov	r2, sp
 8007946:	c203      	stmia	r2!, {r0, r1}
 8007948:	4806      	ldr	r0, [pc, #24]	; (8007964 <GUI__DispLine+0x3c>)
 800794a:	f8bd 3000 	ldrh.w	r3, [sp]
 800794e:	6801      	ldr	r1, [r0, #0]
 8007950:	f8bd 2002 	ldrh.w	r2, [sp, #2]
 8007954:	844b      	strh	r3, [r1, #34]	; 0x22
 8007956:	848a      	strh	r2, [r1, #36]	; 0x24
 8007958:	4628      	mov	r0, r5
 800795a:	4621      	mov	r1, r4
 800795c:	e7eb      	b.n	8007936 <GUI__DispLine+0xe>
 800795e:	bf00      	nop
 8007960:	1ffe9ce0 	.word	0x1ffe9ce0
 8007964:	1ffe8808 	.word	0x1ffe8808

08007968 <GUI_GetYAdjust>:
 8007968:	4b0a      	ldr	r3, [pc, #40]	; (8007994 <GUI_GetYAdjust+0x2c>)
 800796a:	681a      	ldr	r2, [r3, #0]
 800796c:	8d90      	ldrh	r0, [r2, #44]	; 0x2c
 800796e:	f000 010c 	and.w	r1, r0, #12
 8007972:	2908      	cmp	r1, #8
 8007974:	d005      	beq.n	8007982 <GUI_GetYAdjust+0x1a>
 8007976:	290c      	cmp	r1, #12
 8007978:	d003      	beq.n	8007982 <GUI_GetYAdjust+0x1a>
 800797a:	2904      	cmp	r1, #4
 800797c:	d005      	beq.n	800798a <GUI_GetYAdjust+0x22>
 800797e:	2000      	movs	r0, #0
 8007980:	4770      	bx	lr
 8007982:	69d0      	ldr	r0, [r2, #28]
 8007984:	7e01      	ldrb	r1, [r0, #24]
 8007986:	0848      	lsrs	r0, r1, #1
 8007988:	4770      	bx	lr
 800798a:	69d3      	ldr	r3, [r2, #28]
 800798c:	7e1a      	ldrb	r2, [r3, #24]
 800798e:	1e50      	subs	r0, r2, #1
 8007990:	4770      	bx	lr
 8007992:	bf00      	nop
 8007994:	1ffe8808 	.word	0x1ffe8808

08007998 <GUI_GetFontDistY>:
 8007998:	f648 0308 	movw	r3, #34824	; 0x8808
 800799c:	f6c1 73fe 	movt	r3, #8190	; 0x1ffe
 80079a0:	6818      	ldr	r0, [r3, #0]
 80079a2:	69c1      	ldr	r1, [r0, #28]
 80079a4:	7e48      	ldrb	r0, [r1, #25]
 80079a6:	4770      	bx	lr

080079a8 <GUI_GetCharDistX>:
 80079a8:	b508      	push	{r3, lr}
 80079aa:	f648 0308 	movw	r3, #34824	; 0x8808
 80079ae:	f6c1 73fe 	movt	r3, #8190	; 0x1ffe
 80079b2:	2100      	movs	r1, #0
 80079b4:	681a      	ldr	r2, [r3, #0]
 80079b6:	69d3      	ldr	r3, [r2, #28]
 80079b8:	685a      	ldr	r2, [r3, #4]
 80079ba:	4790      	blx	r2
 80079bc:	bd08      	pop	{r3, pc}
 80079be:	bf00      	nop

080079c0 <GUI_GetCharDistXEx>:
 80079c0:	b508      	push	{r3, lr}
 80079c2:	f648 0308 	movw	r3, #34824	; 0x8808
 80079c6:	f6c1 73fe 	movt	r3, #8190	; 0x1ffe
 80079ca:	681a      	ldr	r2, [r3, #0]
 80079cc:	69d3      	ldr	r3, [r2, #28]
 80079ce:	685a      	ldr	r2, [r3, #4]
 80079d0:	4790      	blx	r2
 80079d2:	bd08      	pop	{r3, pc}

080079d4 <_OnExit>:
 80079d4:	b538      	push	{r3, r4, r5, lr}
 80079d6:	f649 5414 	movw	r4, #40212	; 0x9d14
 80079da:	2500      	movs	r5, #0
 80079dc:	f6c1 74fe 	movt	r4, #8190	; 0x1ffe
 80079e0:	2280      	movs	r2, #128	; 0x80
 80079e2:	f104 0040 	add.w	r0, r4, #64	; 0x40
 80079e6:	4629      	mov	r1, r5
 80079e8:	f884 5028 	strb.w	r5, [r4, #40]	; 0x28
 80079ec:	f7ff fa72 	bl	8006ed4 <GUI__memset>
 80079f0:	4620      	mov	r0, r4
 80079f2:	4629      	mov	r1, r5
 80079f4:	22c0      	movs	r2, #192	; 0xc0
 80079f6:	f7ff fa6d 	bl	8006ed4 <GUI__memset>
 80079fa:	f648 2024 	movw	r0, #35364	; 0x8a24
 80079fe:	f6c1 70fe 	movt	r0, #8190	; 0x1ffe
 8007a02:	4629      	mov	r1, r5
 8007a04:	220c      	movs	r2, #12
 8007a06:	e8bd 4038 	ldmia.w	sp!, {r3, r4, r5, lr}
 8007a0a:	f7ff ba63 	b.w	8006ed4 <GUI__memset>
 8007a0e:	bf00      	nop

08007a10 <_AddFreeMemory>:
 8007a10:	4bb3      	ldr	r3, [pc, #716]	; (8007ce0 <_AddFreeMemory+0x2d0>)
 8007a12:	e92d 01f0 	stmdb	sp!, {r4, r5, r6, r7, r8}
 8007a16:	68dc      	ldr	r4, [r3, #12]
 8007a18:	6b9a      	ldr	r2, [r3, #56]	; 0x38
 8007a1a:	1e66      	subs	r6, r4, #1
 8007a1c:	1996      	adds	r6, r2, r6
 8007a1e:	180c      	adds	r4, r1, r0
 8007a20:	42a6      	cmp	r6, r4
 8007a22:	460d      	mov	r5, r1
 8007a24:	d303      	bcc.n	8007a2e <_AddFreeMemory+0x1e>
 8007a26:	580e      	ldr	r6, [r1, r0]
 8007a28:	2e00      	cmp	r6, #0
 8007a2a:	f000 80d4 	beq.w	8007bd6 <_AddFreeMemory+0x1c6>
 8007a2e:	428a      	cmp	r2, r1
 8007a30:	d205      	bcs.n	8007a3e <_AddFreeMemory+0x2e>
 8007a32:	f851 2c04 	ldr.w	r2, [r1, #-4]
 8007a36:	1a8c      	subs	r4, r1, r2
 8007a38:	6826      	ldr	r6, [r4, #0]
 8007a3a:	2e00      	cmp	r6, #0
 8007a3c:	d070      	beq.n	8007b20 <_AddFreeMemory+0x110>
 8007a3e:	f8d3 40b8 	ldr.w	r4, [r3, #184]	; 0xb8
 8007a42:	4ea7      	ldr	r6, [pc, #668]	; (8007ce0 <_AddFreeMemory+0x2d0>)
 8007a44:	42a0      	cmp	r0, r4
 8007a46:	f080 8115 	bcs.w	8007c74 <_AddFreeMemory+0x264>
 8007a4a:	f8d6 20b0 	ldr.w	r2, [r6, #176]	; 0xb0
 8007a4e:	4290      	cmp	r0, r2
 8007a50:	f080 8112 	bcs.w	8007c78 <_AddFreeMemory+0x268>
 8007a54:	f8d6 40a8 	ldr.w	r4, [r6, #168]	; 0xa8
 8007a58:	42a0      	cmp	r0, r4
 8007a5a:	f080 810f 	bcs.w	8007c7c <_AddFreeMemory+0x26c>
 8007a5e:	f8d6 20a0 	ldr.w	r2, [r6, #160]	; 0xa0
 8007a62:	4290      	cmp	r0, r2
 8007a64:	f080 810c 	bcs.w	8007c80 <_AddFreeMemory+0x270>
 8007a68:	f8d6 4098 	ldr.w	r4, [r6, #152]	; 0x98
 8007a6c:	42a0      	cmp	r0, r4
 8007a6e:	f080 8109 	bcs.w	8007c84 <_AddFreeMemory+0x274>
 8007a72:	f8d6 2090 	ldr.w	r2, [r6, #144]	; 0x90
 8007a76:	4290      	cmp	r0, r2
 8007a78:	f080 8106 	bcs.w	8007c88 <_AddFreeMemory+0x278>
 8007a7c:	f8d6 4088 	ldr.w	r4, [r6, #136]	; 0x88
 8007a80:	42a0      	cmp	r0, r4
 8007a82:	f080 8103 	bcs.w	8007c8c <_AddFreeMemory+0x27c>
 8007a86:	f8d6 2080 	ldr.w	r2, [r6, #128]	; 0x80
 8007a8a:	4290      	cmp	r0, r2
 8007a8c:	f080 8100 	bcs.w	8007c90 <_AddFreeMemory+0x280>
 8007a90:	6fb4      	ldr	r4, [r6, #120]	; 0x78
 8007a92:	42a0      	cmp	r0, r4
 8007a94:	f080 80fe 	bcs.w	8007c94 <_AddFreeMemory+0x284>
 8007a98:	6f36      	ldr	r6, [r6, #112]	; 0x70
 8007a9a:	42b0      	cmp	r0, r6
 8007a9c:	f080 8107 	bcs.w	8007cae <_AddFreeMemory+0x29e>
 8007aa0:	6e9c      	ldr	r4, [r3, #104]	; 0x68
 8007aa2:	4a8f      	ldr	r2, [pc, #572]	; (8007ce0 <_AddFreeMemory+0x2d0>)
 8007aa4:	42a0      	cmp	r0, r4
 8007aa6:	f080 8104 	bcs.w	8007cb2 <_AddFreeMemory+0x2a2>
 8007aaa:	6e16      	ldr	r6, [r2, #96]	; 0x60
 8007aac:	42b0      	cmp	r0, r6
 8007aae:	f080 8102 	bcs.w	8007cb6 <_AddFreeMemory+0x2a6>
 8007ab2:	6d94      	ldr	r4, [r2, #88]	; 0x58
 8007ab4:	42a0      	cmp	r0, r4
 8007ab6:	f080 8100 	bcs.w	8007cba <_AddFreeMemory+0x2aa>
 8007aba:	6d16      	ldr	r6, [r2, #80]	; 0x50
 8007abc:	42b0      	cmp	r0, r6
 8007abe:	f080 80fe 	bcs.w	8007cbe <_AddFreeMemory+0x2ae>
 8007ac2:	6c94      	ldr	r4, [r2, #72]	; 0x48
 8007ac4:	42a0      	cmp	r0, r4
 8007ac6:	f080 80fc 	bcs.w	8007cc2 <_AddFreeMemory+0x2b2>
 8007aca:	6c12      	ldr	r2, [r2, #64]	; 0x40
 8007acc:	4290      	cmp	r0, r2
 8007ace:	bf34      	ite	cc
 8007ad0:	f04f 34ff 	movcc.w	r4, #4294967295
 8007ad4:	2400      	movcs	r4, #0
 8007ad6:	3408      	adds	r4, #8
 8007ad8:	eb03 06c4 	add.w	r6, r3, r4, lsl #3
 8007adc:	182d      	adds	r5, r5, r0
 8007ade:	6872      	ldr	r2, [r6, #4]
 8007ae0:	6048      	str	r0, [r1, #4]
 8007ae2:	2600      	movs	r6, #0
 8007ae4:	600e      	str	r6, [r1, #0]
 8007ae6:	608a      	str	r2, [r1, #8]
 8007ae8:	6109      	str	r1, [r1, #16]
 8007aea:	f101 0608 	add.w	r6, r1, #8
 8007aee:	f845 0c04 	str.w	r0, [r5, #-4]
 8007af2:	b102      	cbz	r2, 8007af6 <_AddFreeMemory+0xe6>
 8007af4:	6056      	str	r6, [r2, #4]
 8007af6:	2500      	movs	r5, #0
 8007af8:	60cd      	str	r5, [r1, #12]
 8007afa:	681a      	ldr	r2, [r3, #0]
 8007afc:	f893 5029 	ldrb.w	r5, [r3, #41]	; 0x29
 8007b00:	4977      	ldr	r1, [pc, #476]	; (8007ce0 <_AddFreeMemory+0x2d0>)
 8007b02:	eb03 04c4 	add.w	r4, r3, r4, lsl #3
 8007b06:	1882      	adds	r2, r0, r2
 8007b08:	6066      	str	r6, [r4, #4]
 8007b0a:	601a      	str	r2, [r3, #0]
 8007b0c:	b92d      	cbnz	r5, 8007b1a <_AddFreeMemory+0x10a>
 8007b0e:	68cc      	ldr	r4, [r1, #12]
 8007b10:	688b      	ldr	r3, [r1, #8]
 8007b12:	1aa2      	subs	r2, r4, r2
 8007b14:	429a      	cmp	r2, r3
 8007b16:	bf88      	it	hi
 8007b18:	608a      	strhi	r2, [r1, #8]
 8007b1a:	e8bd 01f0 	ldmia.w	sp!, {r4, r5, r6, r7, r8}
 8007b1e:	4770      	bx	lr
 8007b20:	6862      	ldr	r2, [r4, #4]
 8007b22:	f8d3 50b8 	ldr.w	r5, [r3, #184]	; 0xb8
 8007b26:	496e      	ldr	r1, [pc, #440]	; (8007ce0 <_AddFreeMemory+0x2d0>)
 8007b28:	42aa      	cmp	r2, r5
 8007b2a:	4410      	add	r0, r2
 8007b2c:	f080 80cb 	bcs.w	8007cc6 <_AddFreeMemory+0x2b6>
 8007b30:	f8d1 70b0 	ldr.w	r7, [r1, #176]	; 0xb0
 8007b34:	42ba      	cmp	r2, r7
 8007b36:	f080 80ce 	bcs.w	8007cd6 <_AddFreeMemory+0x2c6>
 8007b3a:	f8d1 60a8 	ldr.w	r6, [r1, #168]	; 0xa8
 8007b3e:	42b2      	cmp	r2, r6
 8007b40:	f080 80d5 	bcs.w	8007cee <_AddFreeMemory+0x2de>
 8007b44:	f8d1 50a0 	ldr.w	r5, [r1, #160]	; 0xa0
 8007b48:	42aa      	cmp	r2, r5
 8007b4a:	f080 80ce 	bcs.w	8007cea <_AddFreeMemory+0x2da>
 8007b4e:	f8d1 7098 	ldr.w	r7, [r1, #152]	; 0x98
 8007b52:	42ba      	cmp	r2, r7
 8007b54:	f080 80cf 	bcs.w	8007cf6 <_AddFreeMemory+0x2e6>
 8007b58:	f8d1 6090 	ldr.w	r6, [r1, #144]	; 0x90
 8007b5c:	42b2      	cmp	r2, r6
 8007b5e:	f080 80c8 	bcs.w	8007cf2 <_AddFreeMemory+0x2e2>
 8007b62:	f8d1 5088 	ldr.w	r5, [r1, #136]	; 0x88
 8007b66:	42aa      	cmp	r2, r5
 8007b68:	f080 80cb 	bcs.w	8007d02 <_AddFreeMemory+0x2f2>
 8007b6c:	f8d1 1080 	ldr.w	r1, [r1, #128]	; 0x80
 8007b70:	428a      	cmp	r2, r1
 8007b72:	f080 80c4 	bcs.w	8007cfe <_AddFreeMemory+0x2ee>
 8007b76:	6f9f      	ldr	r7, [r3, #120]	; 0x78
 8007b78:	4e59      	ldr	r6, [pc, #356]	; (8007ce0 <_AddFreeMemory+0x2d0>)
 8007b7a:	42ba      	cmp	r2, r7
 8007b7c:	f080 80bd 	bcs.w	8007cfa <_AddFreeMemory+0x2ea>
 8007b80:	6f35      	ldr	r5, [r6, #112]	; 0x70
 8007b82:	42aa      	cmp	r2, r5
 8007b84:	f080 80d7 	bcs.w	8007d36 <_AddFreeMemory+0x326>
 8007b88:	6eb1      	ldr	r1, [r6, #104]	; 0x68
 8007b8a:	428a      	cmp	r2, r1
 8007b8c:	f080 80e1 	bcs.w	8007d52 <_AddFreeMemory+0x342>
 8007b90:	6e37      	ldr	r7, [r6, #96]	; 0x60
 8007b92:	42ba      	cmp	r2, r7
 8007b94:	f080 80db 	bcs.w	8007d4e <_AddFreeMemory+0x33e>
 8007b98:	6db5      	ldr	r5, [r6, #88]	; 0x58
 8007b9a:	42aa      	cmp	r2, r5
 8007b9c:	f080 80d5 	bcs.w	8007d4a <_AddFreeMemory+0x33a>
 8007ba0:	6d31      	ldr	r1, [r6, #80]	; 0x50
 8007ba2:	428a      	cmp	r2, r1
 8007ba4:	f080 80cf 	bcs.w	8007d46 <_AddFreeMemory+0x336>
 8007ba8:	6cb7      	ldr	r7, [r6, #72]	; 0x48
 8007baa:	42ba      	cmp	r2, r7
 8007bac:	f080 80d6 	bcs.w	8007d5c <_AddFreeMemory+0x34c>
 8007bb0:	6c36      	ldr	r6, [r6, #64]	; 0x40
 8007bb2:	42b2      	cmp	r2, r6
 8007bb4:	bf34      	ite	cc
 8007bb6:	f04f 37ff 	movcc.w	r7, #4294967295
 8007bba:	2700      	movcs	r7, #0
 8007bbc:	681d      	ldr	r5, [r3, #0]
 8007bbe:	68a1      	ldr	r1, [r4, #8]
 8007bc0:	68e6      	ldr	r6, [r4, #12]
 8007bc2:	1aaa      	subs	r2, r5, r2
 8007bc4:	601a      	str	r2, [r3, #0]
 8007bc6:	b101      	cbz	r1, 8007bca <_AddFreeMemory+0x1ba>
 8007bc8:	604e      	str	r6, [r1, #4]
 8007bca:	2e00      	cmp	r6, #0
 8007bcc:	d064      	beq.n	8007c98 <_AddFreeMemory+0x288>
 8007bce:	6031      	str	r1, [r6, #0]
 8007bd0:	4625      	mov	r5, r4
 8007bd2:	4621      	mov	r1, r4
 8007bd4:	e733      	b.n	8007a3e <_AddFreeMemory+0x2e>
 8007bd6:	f8d4 c004 	ldr.w	ip, [r4, #4]
 8007bda:	f8d3 70b8 	ldr.w	r7, [r3, #184]	; 0xb8
 8007bde:	45bc      	cmp	ip, r7
 8007be0:	4460      	add	r0, ip
 8007be2:	d272      	bcs.n	8007cca <_AddFreeMemory+0x2ba>
 8007be4:	f8d3 60b0 	ldr.w	r6, [r3, #176]	; 0xb0
 8007be8:	45b4      	cmp	ip, r6
 8007bea:	d27b      	bcs.n	8007ce4 <_AddFreeMemory+0x2d4>
 8007bec:	f8d3 70a8 	ldr.w	r7, [r3, #168]	; 0xa8
 8007bf0:	45bc      	cmp	ip, r7
 8007bf2:	d272      	bcs.n	8007cda <_AddFreeMemory+0x2ca>
 8007bf4:	f8d3 60a0 	ldr.w	r6, [r3, #160]	; 0xa0
 8007bf8:	45b4      	cmp	ip, r6
 8007bfa:	d269      	bcs.n	8007cd0 <_AddFreeMemory+0x2c0>
 8007bfc:	f8d3 7098 	ldr.w	r7, [r3, #152]	; 0x98
 8007c00:	45bc      	cmp	ip, r7
 8007c02:	f080 808c 	bcs.w	8007d1e <_AddFreeMemory+0x30e>
 8007c06:	f8d3 6090 	ldr.w	r6, [r3, #144]	; 0x90
 8007c0a:	45b4      	cmp	ip, r6
 8007c0c:	f080 8084 	bcs.w	8007d18 <_AddFreeMemory+0x308>
 8007c10:	f8d3 7088 	ldr.w	r7, [r3, #136]	; 0x88
 8007c14:	45bc      	cmp	ip, r7
 8007c16:	d27c      	bcs.n	8007d12 <_AddFreeMemory+0x302>
 8007c18:	f8d3 6080 	ldr.w	r6, [r3, #128]	; 0x80
 8007c1c:	45b4      	cmp	ip, r6
 8007c1e:	d275      	bcs.n	8007d0c <_AddFreeMemory+0x2fc>
 8007c20:	6f9f      	ldr	r7, [r3, #120]	; 0x78
 8007c22:	45bc      	cmp	ip, r7
 8007c24:	d26f      	bcs.n	8007d06 <_AddFreeMemory+0x2f6>
 8007c26:	6f1f      	ldr	r7, [r3, #112]	; 0x70
 8007c28:	45bc      	cmp	ip, r7
 8007c2a:	f080 8089 	bcs.w	8007d40 <_AddFreeMemory+0x330>
 8007c2e:	6e9f      	ldr	r7, [r3, #104]	; 0x68
 8007c30:	45bc      	cmp	ip, r7
 8007c32:	f080 8082 	bcs.w	8007d3a <_AddFreeMemory+0x32a>
 8007c36:	6e1f      	ldr	r7, [r3, #96]	; 0x60
 8007c38:	45bc      	cmp	ip, r7
 8007c3a:	d279      	bcs.n	8007d30 <_AddFreeMemory+0x320>
 8007c3c:	6d9f      	ldr	r7, [r3, #88]	; 0x58
 8007c3e:	45bc      	cmp	ip, r7
 8007c40:	d273      	bcs.n	8007d2a <_AddFreeMemory+0x31a>
 8007c42:	6d1f      	ldr	r7, [r3, #80]	; 0x50
 8007c44:	45bc      	cmp	ip, r7
 8007c46:	d26d      	bcs.n	8007d24 <_AddFreeMemory+0x314>
 8007c48:	6c9f      	ldr	r7, [r3, #72]	; 0x48
 8007c4a:	45bc      	cmp	ip, r7
 8007c4c:	f080 8083 	bcs.w	8007d56 <_AddFreeMemory+0x346>
 8007c50:	6c1e      	ldr	r6, [r3, #64]	; 0x40
 8007c52:	45b4      	cmp	ip, r6
 8007c54:	bf34      	ite	cc
 8007c56:	f04f 38ff 	movcc.w	r8, #4294967295
 8007c5a:	f04f 0800 	movcs.w	r8, #0
 8007c5e:	681e      	ldr	r6, [r3, #0]
 8007c60:	68a7      	ldr	r7, [r4, #8]
 8007c62:	68e4      	ldr	r4, [r4, #12]
 8007c64:	ebcc 0606 	rsb	r6, ip, r6
 8007c68:	601e      	str	r6, [r3, #0]
 8007c6a:	b107      	cbz	r7, 8007c6e <_AddFreeMemory+0x25e>
 8007c6c:	607c      	str	r4, [r7, #4]
 8007c6e:	b1cc      	cbz	r4, 8007ca4 <_AddFreeMemory+0x294>
 8007c70:	6027      	str	r7, [r4, #0]
 8007c72:	e6dc      	b.n	8007a2e <_AddFreeMemory+0x1e>
 8007c74:	240f      	movs	r4, #15
 8007c76:	e72e      	b.n	8007ad6 <_AddFreeMemory+0xc6>
 8007c78:	240e      	movs	r4, #14
 8007c7a:	e72c      	b.n	8007ad6 <_AddFreeMemory+0xc6>
 8007c7c:	240d      	movs	r4, #13
 8007c7e:	e72a      	b.n	8007ad6 <_AddFreeMemory+0xc6>
 8007c80:	240c      	movs	r4, #12
 8007c82:	e728      	b.n	8007ad6 <_AddFreeMemory+0xc6>
 8007c84:	240b      	movs	r4, #11
 8007c86:	e726      	b.n	8007ad6 <_AddFreeMemory+0xc6>
 8007c88:	240a      	movs	r4, #10
 8007c8a:	e724      	b.n	8007ad6 <_AddFreeMemory+0xc6>
 8007c8c:	2409      	movs	r4, #9
 8007c8e:	e722      	b.n	8007ad6 <_AddFreeMemory+0xc6>
 8007c90:	2408      	movs	r4, #8
 8007c92:	e720      	b.n	8007ad6 <_AddFreeMemory+0xc6>
 8007c94:	2407      	movs	r4, #7
 8007c96:	e71e      	b.n	8007ad6 <_AddFreeMemory+0xc6>
 8007c98:	eb03 07c7 	add.w	r7, r3, r7, lsl #3
 8007c9c:	4625      	mov	r5, r4
 8007c9e:	6479      	str	r1, [r7, #68]	; 0x44
 8007ca0:	4621      	mov	r1, r4
 8007ca2:	e6cc      	b.n	8007a3e <_AddFreeMemory+0x2e>
 8007ca4:	eb03 08c8 	add.w	r8, r3, r8, lsl #3
 8007ca8:	f8c8 7044 	str.w	r7, [r8, #68]	; 0x44
 8007cac:	e6bf      	b.n	8007a2e <_AddFreeMemory+0x1e>
 8007cae:	2406      	movs	r4, #6
 8007cb0:	e711      	b.n	8007ad6 <_AddFreeMemory+0xc6>
 8007cb2:	2405      	movs	r4, #5
 8007cb4:	e70f      	b.n	8007ad6 <_AddFreeMemory+0xc6>
 8007cb6:	2404      	movs	r4, #4
 8007cb8:	e70d      	b.n	8007ad6 <_AddFreeMemory+0xc6>
 8007cba:	2403      	movs	r4, #3
 8007cbc:	e70b      	b.n	8007ad6 <_AddFreeMemory+0xc6>
 8007cbe:	2402      	movs	r4, #2
 8007cc0:	e709      	b.n	8007ad6 <_AddFreeMemory+0xc6>
 8007cc2:	2401      	movs	r4, #1
 8007cc4:	e707      	b.n	8007ad6 <_AddFreeMemory+0xc6>
 8007cc6:	270f      	movs	r7, #15
 8007cc8:	e778      	b.n	8007bbc <_AddFreeMemory+0x1ac>
 8007cca:	f04f 080f 	mov.w	r8, #15
 8007cce:	e7c6      	b.n	8007c5e <_AddFreeMemory+0x24e>
 8007cd0:	f04f 080c 	mov.w	r8, #12
 8007cd4:	e7c3      	b.n	8007c5e <_AddFreeMemory+0x24e>
 8007cd6:	270e      	movs	r7, #14
 8007cd8:	e770      	b.n	8007bbc <_AddFreeMemory+0x1ac>
 8007cda:	f04f 080d 	mov.w	r8, #13
 8007cde:	e7be      	b.n	8007c5e <_AddFreeMemory+0x24e>
 8007ce0:	1ffe9d14 	.word	0x1ffe9d14
 8007ce4:	f04f 080e 	mov.w	r8, #14
 8007ce8:	e7b9      	b.n	8007c5e <_AddFreeMemory+0x24e>
 8007cea:	270c      	movs	r7, #12
 8007cec:	e766      	b.n	8007bbc <_AddFreeMemory+0x1ac>
 8007cee:	270d      	movs	r7, #13
 8007cf0:	e764      	b.n	8007bbc <_AddFreeMemory+0x1ac>
 8007cf2:	270a      	movs	r7, #10
 8007cf4:	e762      	b.n	8007bbc <_AddFreeMemory+0x1ac>
 8007cf6:	270b      	movs	r7, #11
 8007cf8:	e760      	b.n	8007bbc <_AddFreeMemory+0x1ac>
 8007cfa:	2707      	movs	r7, #7
 8007cfc:	e75e      	b.n	8007bbc <_AddFreeMemory+0x1ac>
 8007cfe:	2708      	movs	r7, #8
 8007d00:	e75c      	b.n	8007bbc <_AddFreeMemory+0x1ac>
 8007d02:	2709      	movs	r7, #9
 8007d04:	e75a      	b.n	8007bbc <_AddFreeMemory+0x1ac>
 8007d06:	f04f 0807 	mov.w	r8, #7
 8007d0a:	e7a8      	b.n	8007c5e <_AddFreeMemory+0x24e>
 8007d0c:	f04f 0808 	mov.w	r8, #8
 8007d10:	e7a5      	b.n	8007c5e <_AddFreeMemory+0x24e>
 8007d12:	f04f 0809 	mov.w	r8, #9
 8007d16:	e7a2      	b.n	8007c5e <_AddFreeMemory+0x24e>
 8007d18:	f04f 080a 	mov.w	r8, #10
 8007d1c:	e79f      	b.n	8007c5e <_AddFreeMemory+0x24e>
 8007d1e:	f04f 080b 	mov.w	r8, #11
 8007d22:	e79c      	b.n	8007c5e <_AddFreeMemory+0x24e>
 8007d24:	f04f 0802 	mov.w	r8, #2
 8007d28:	e799      	b.n	8007c5e <_AddFreeMemory+0x24e>
 8007d2a:	f04f 0803 	mov.w	r8, #3
 8007d2e:	e796      	b.n	8007c5e <_AddFreeMemory+0x24e>
 8007d30:	f04f 0804 	mov.w	r8, #4
 8007d34:	e793      	b.n	8007c5e <_AddFreeMemory+0x24e>
 8007d36:	2706      	movs	r7, #6
 8007d38:	e740      	b.n	8007bbc <_AddFreeMemory+0x1ac>
 8007d3a:	f04f 0805 	mov.w	r8, #5
 8007d3e:	e78e      	b.n	8007c5e <_AddFreeMemory+0x24e>
 8007d40:	f04f 0806 	mov.w	r8, #6
 8007d44:	e78b      	b.n	8007c5e <_AddFreeMemory+0x24e>
 8007d46:	2702      	movs	r7, #2
 8007d48:	e738      	b.n	8007bbc <_AddFreeMemory+0x1ac>
 8007d4a:	2703      	movs	r7, #3
 8007d4c:	e736      	b.n	8007bbc <_AddFreeMemory+0x1ac>
 8007d4e:	2704      	movs	r7, #4
 8007d50:	e734      	b.n	8007bbc <_AddFreeMemory+0x1ac>
 8007d52:	2705      	movs	r7, #5
 8007d54:	e732      	b.n	8007bbc <_AddFreeMemory+0x1ac>
 8007d56:	f04f 0801 	mov.w	r8, #1
 8007d5a:	e780      	b.n	8007c5e <_AddFreeMemory+0x24e>
 8007d5c:	2701      	movs	r7, #1
 8007d5e:	e72d      	b.n	8007bbc <_AddFreeMemory+0x1ac>

08007d60 <_RemoveHoles>:
 8007d60:	e92d 4ff0 	stmdb	sp!, {r4, r5, r6, r7, r8, r9, sl, fp, lr}
 8007d64:	f8df 81d0 	ldr.w	r8, [pc, #464]	; 8007f38 <_RemoveHoles+0x1d8>
 8007d68:	f8d8 4038 	ldr.w	r4, [r8, #56]	; 0x38
 8007d6c:	f8d8 700c 	ldr.w	r7, [r8, #12]
 8007d70:	e894 0060 	ldmia.w	r4, {r5, r6}
 8007d74:	1e79      	subs	r1, r7, #1
 8007d76:	b083      	sub	sp, #12
 8007d78:	4683      	mov	fp, r0
 8007d7a:	190f      	adds	r7, r1, r4
 8007d7c:	46c1      	mov	r9, r8
 8007d7e:	b135      	cbz	r5, 8007d8e <_RemoveHoles+0x2e>
 8007d80:	19a4      	adds	r4, r4, r6
 8007d82:	42a7      	cmp	r7, r4
 8007d84:	d914      	bls.n	8007db0 <_RemoveHoles+0x50>
 8007d86:	e894 0060 	ldmia.w	r4, {r5, r6}
 8007d8a:	2d00      	cmp	r5, #0
 8007d8c:	d1f8      	bne.n	8007d80 <_RemoveHoles+0x20>
 8007d8e:	1931      	adds	r1, r6, r4
 8007d90:	428f      	cmp	r7, r1
 8007d92:	d90d      	bls.n	8007db0 <_RemoveHoles+0x50>
 8007d94:	5935      	ldr	r5, [r6, r4]
 8007d96:	684b      	ldr	r3, [r1, #4]
 8007d98:	b175      	cbz	r5, 8007db8 <_RemoveHoles+0x58>
 8007d9a:	f8d8 2034 	ldr.w	r2, [r8, #52]	; 0x34
 8007d9e:	f812 0035 	ldrb.w	r0, [r2, r5, lsl #3]
 8007da2:	2801      	cmp	r0, #1
 8007da4:	eb02 02c5 	add.w	r2, r2, r5, lsl #3
 8007da8:	d00c      	beq.n	8007dc4 <_RemoveHoles+0x64>
 8007daa:	461e      	mov	r6, r3
 8007dac:	460c      	mov	r4, r1
 8007dae:	e7e6      	b.n	8007d7e <_RemoveHoles+0x1e>
 8007db0:	2001      	movs	r0, #1
 8007db2:	b003      	add	sp, #12
 8007db4:	e8bd 8ff0 	ldmia.w	sp!, {r4, r5, r6, r7, r8, r9, sl, fp, pc}
 8007db8:	461e      	mov	r6, r3
 8007dba:	460c      	mov	r4, r1
 8007dbc:	1931      	adds	r1, r6, r4
 8007dbe:	428f      	cmp	r7, r1
 8007dc0:	d8e8      	bhi.n	8007d94 <_RemoveHoles+0x34>
 8007dc2:	e7f5      	b.n	8007db0 <_RemoveHoles+0x50>
 8007dc4:	f8d9 00b8 	ldr.w	r0, [r9, #184]	; 0xb8
 8007dc8:	f8d9 a02c 	ldr.w	sl, [r9, #44]	; 0x2c
 8007dcc:	42b0      	cmp	r0, r6
 8007dce:	d978      	bls.n	8007ec2 <_RemoveHoles+0x162>
 8007dd0:	f8d9 00b0 	ldr.w	r0, [r9, #176]	; 0xb0
 8007dd4:	42b0      	cmp	r0, r6
 8007dd6:	d977      	bls.n	8007ec8 <_RemoveHoles+0x168>
 8007dd8:	f8d9 00a8 	ldr.w	r0, [r9, #168]	; 0xa8
 8007ddc:	42b0      	cmp	r0, r6
 8007dde:	d97d      	bls.n	8007edc <_RemoveHoles+0x17c>
 8007de0:	f8d9 00a0 	ldr.w	r0, [r9, #160]	; 0xa0
 8007de4:	42b0      	cmp	r0, r6
 8007de6:	d974      	bls.n	8007ed2 <_RemoveHoles+0x172>
 8007de8:	f8d9 0098 	ldr.w	r0, [r9, #152]	; 0x98
 8007dec:	42b0      	cmp	r0, r6
 8007dee:	f240 8085 	bls.w	8007efc <_RemoveHoles+0x19c>
 8007df2:	f8d9 0090 	ldr.w	r0, [r9, #144]	; 0x90
 8007df6:	42b0      	cmp	r0, r6
 8007df8:	d97b      	bls.n	8007ef2 <_RemoveHoles+0x192>
 8007dfa:	f8d8 0088 	ldr.w	r0, [r8, #136]	; 0x88
 8007dfe:	42b0      	cmp	r0, r6
 8007e00:	d974      	bls.n	8007eec <_RemoveHoles+0x18c>
 8007e02:	f8d9 0080 	ldr.w	r0, [r9, #128]	; 0x80
 8007e06:	4286      	cmp	r6, r0
 8007e08:	d26b      	bcs.n	8007ee2 <_RemoveHoles+0x182>
 8007e0a:	f8d9 0078 	ldr.w	r0, [r9, #120]	; 0x78
 8007e0e:	4286      	cmp	r6, r0
 8007e10:	f080 8087 	bcs.w	8007f22 <_RemoveHoles+0x1c2>
 8007e14:	f8d9 0070 	ldr.w	r0, [r9, #112]	; 0x70
 8007e18:	4286      	cmp	r6, r0
 8007e1a:	d27d      	bcs.n	8007f18 <_RemoveHoles+0x1b8>
 8007e1c:	f8d9 0068 	ldr.w	r0, [r9, #104]	; 0x68
 8007e20:	4286      	cmp	r6, r0
 8007e22:	d276      	bcs.n	8007f12 <_RemoveHoles+0x1b2>
 8007e24:	f8d9 0060 	ldr.w	r0, [r9, #96]	; 0x60
 8007e28:	4286      	cmp	r6, r0
 8007e2a:	d26d      	bcs.n	8007f08 <_RemoveHoles+0x1a8>
 8007e2c:	f8d9 0058 	ldr.w	r0, [r9, #88]	; 0x58
 8007e30:	4286      	cmp	r6, r0
 8007e32:	d266      	bcs.n	8007f02 <_RemoveHoles+0x1a2>
 8007e34:	f8d9 0050 	ldr.w	r0, [r9, #80]	; 0x50
 8007e38:	4286      	cmp	r6, r0
 8007e3a:	d278      	bcs.n	8007f2e <_RemoveHoles+0x1ce>
 8007e3c:	f8d9 0048 	ldr.w	r0, [r9, #72]	; 0x48
 8007e40:	4286      	cmp	r6, r0
 8007e42:	d271      	bcs.n	8007f28 <_RemoveHoles+0x1c8>
 8007e44:	f8d9 0040 	ldr.w	r0, [r9, #64]	; 0x40
 8007e48:	4286      	cmp	r6, r0
 8007e4a:	bf34      	ite	cc
 8007e4c:	f04f 30ff 	movcc.w	r0, #4294967295
 8007e50:	2000      	movcs	r0, #0
 8007e52:	9001      	str	r0, [sp, #4]
 8007e54:	f8d8 0000 	ldr.w	r0, [r8]
 8007e58:	f8d4 e008 	ldr.w	lr, [r4, #8]
 8007e5c:	f8d4 c00c 	ldr.w	ip, [r4, #12]
 8007e60:	1b80      	subs	r0, r0, r6
 8007e62:	f8c8 0000 	str.w	r0, [r8]
 8007e66:	f1be 0f00 	cmp.w	lr, #0
 8007e6a:	d001      	beq.n	8007e70 <_RemoveHoles+0x110>
 8007e6c:	f8ce c004 	str.w	ip, [lr, #4]
 8007e70:	f1bc 0f00 	cmp.w	ip, #0
 8007e74:	d01e      	beq.n	8007eb4 <_RemoveHoles+0x154>
 8007e76:	f8cc e000 	str.w	lr, [ip]
 8007e7a:	6054      	str	r4, [r2, #4]
 8007e7c:	4620      	mov	r0, r4
 8007e7e:	461a      	mov	r2, r3
 8007e80:	9300      	str	r3, [sp, #0]
 8007e82:	f005 fe00 	bl	800da86 <memmove>
 8007e86:	4555      	cmp	r5, sl
 8007e88:	9900      	ldr	r1, [sp, #0]
 8007e8a:	d00d      	beq.n	8007ea8 <_RemoveHoles+0x148>
 8007e8c:	1864      	adds	r4, r4, r1
 8007e8e:	4630      	mov	r0, r6
 8007e90:	4621      	mov	r1, r4
 8007e92:	f7ff fdbd 	bl	8007a10 <_AddFreeMemory>
 8007e96:	f1bb 0f00 	cmp.w	fp, #0
 8007e9a:	f43f af72 	beq.w	8007d82 <_RemoveHoles+0x22>
 8007e9e:	4558      	cmp	r0, fp
 8007ea0:	f4ff af6f 	bcc.w	8007d82 <_RemoveHoles+0x22>
 8007ea4:	2000      	movs	r0, #0
 8007ea6:	e784      	b.n	8007db2 <_RemoveHoles+0x52>
 8007ea8:	f8d8 3034 	ldr.w	r3, [r8, #52]	; 0x34
 8007eac:	1b9a      	subs	r2, r3, r6
 8007eae:	f8c8 2034 	str.w	r2, [r8, #52]	; 0x34
 8007eb2:	e7eb      	b.n	8007e8c <_RemoveHoles+0x12c>
 8007eb4:	f8dd c004 	ldr.w	ip, [sp, #4]
 8007eb8:	eb08 00cc 	add.w	r0, r8, ip, lsl #3
 8007ebc:	f8c0 e044 	str.w	lr, [r0, #68]	; 0x44
 8007ec0:	e7db      	b.n	8007e7a <_RemoveHoles+0x11a>
 8007ec2:	200f      	movs	r0, #15
 8007ec4:	9001      	str	r0, [sp, #4]
 8007ec6:	e7c5      	b.n	8007e54 <_RemoveHoles+0xf4>
 8007ec8:	f04f 0c0e 	mov.w	ip, #14
 8007ecc:	f8cd c004 	str.w	ip, [sp, #4]
 8007ed0:	e7c0      	b.n	8007e54 <_RemoveHoles+0xf4>
 8007ed2:	f04f 0e0c 	mov.w	lr, #12
 8007ed6:	f8cd e004 	str.w	lr, [sp, #4]
 8007eda:	e7bb      	b.n	8007e54 <_RemoveHoles+0xf4>
 8007edc:	200d      	movs	r0, #13
 8007ede:	9001      	str	r0, [sp, #4]
 8007ee0:	e7b8      	b.n	8007e54 <_RemoveHoles+0xf4>
 8007ee2:	f04f 0e08 	mov.w	lr, #8
 8007ee6:	f8cd e004 	str.w	lr, [sp, #4]
 8007eea:	e7b3      	b.n	8007e54 <_RemoveHoles+0xf4>
 8007eec:	2009      	movs	r0, #9
 8007eee:	9001      	str	r0, [sp, #4]
 8007ef0:	e7b0      	b.n	8007e54 <_RemoveHoles+0xf4>
 8007ef2:	f04f 0c0a 	mov.w	ip, #10
 8007ef6:	f8cd c004 	str.w	ip, [sp, #4]
 8007efa:	e7ab      	b.n	8007e54 <_RemoveHoles+0xf4>
 8007efc:	200b      	movs	r0, #11
 8007efe:	9001      	str	r0, [sp, #4]
 8007f00:	e7a8      	b.n	8007e54 <_RemoveHoles+0xf4>
 8007f02:	2003      	movs	r0, #3
 8007f04:	9001      	str	r0, [sp, #4]
 8007f06:	e7a5      	b.n	8007e54 <_RemoveHoles+0xf4>
 8007f08:	f04f 0e04 	mov.w	lr, #4
 8007f0c:	f8cd e004 	str.w	lr, [sp, #4]
 8007f10:	e7a0      	b.n	8007e54 <_RemoveHoles+0xf4>
 8007f12:	2005      	movs	r0, #5
 8007f14:	9001      	str	r0, [sp, #4]
 8007f16:	e79d      	b.n	8007e54 <_RemoveHoles+0xf4>
 8007f18:	f04f 0c06 	mov.w	ip, #6
 8007f1c:	f8cd c004 	str.w	ip, [sp, #4]
 8007f20:	e798      	b.n	8007e54 <_RemoveHoles+0xf4>
 8007f22:	2007      	movs	r0, #7
 8007f24:	9001      	str	r0, [sp, #4]
 8007f26:	e795      	b.n	8007e54 <_RemoveHoles+0xf4>
 8007f28:	2001      	movs	r0, #1
 8007f2a:	9001      	str	r0, [sp, #4]
 8007f2c:	e792      	b.n	8007e54 <_RemoveHoles+0xf4>
 8007f2e:	f04f 0c02 	mov.w	ip, #2
 8007f32:	f8cd c004 	str.w	ip, [sp, #4]
 8007f36:	e78d      	b.n	8007e54 <_RemoveHoles+0xf4>
 8007f38:	1ffe9d14 	.word	0x1ffe9d14

08007f3c <_Alloc>:
 8007f3c:	e92d 43f8 	stmdb	sp!, {r3, r4, r5, r6, r7, r8, r9, lr}
 8007f40:	4cb2      	ldr	r4, [pc, #712]	; (800820c <_Alloc+0x2d0>)
 8007f42:	f894 3028 	ldrb.w	r3, [r4, #40]	; 0x28
 8007f46:	4605      	mov	r5, r0
 8007f48:	b90b      	cbnz	r3, 8007f4e <_Alloc+0x12>
 8007f4a:	f000 f9f3 	bl	8008334 <_InitOnce.part.0>
 8007f4e:	6c26      	ldr	r6, [r4, #64]	; 0x40
 8007f50:	42b5      	cmp	r5, r6
 8007f52:	d302      	bcc.n	8007f5a <_Alloc+0x1e>
 8007f54:	1ce8      	adds	r0, r5, #3
 8007f56:	f020 0603 	bic.w	r6, r0, #3
 8007f5a:	6821      	ldr	r1, [r4, #0]
 8007f5c:	4dab      	ldr	r5, [pc, #684]	; (800820c <_Alloc+0x2d0>)
 8007f5e:	360c      	adds	r6, #12
 8007f60:	42b1      	cmp	r1, r6
 8007f62:	d203      	bcs.n	8007f6c <_Alloc+0x30>
 8007f64:	2500      	movs	r5, #0
 8007f66:	4628      	mov	r0, r5
 8007f68:	e8bd 83f8 	ldmia.w	sp!, {r3, r4, r5, r6, r7, r8, r9, pc}
 8007f6c:	6868      	ldr	r0, [r5, #4]
 8007f6e:	6b2a      	ldr	r2, [r5, #48]	; 0x30
 8007f70:	4290      	cmp	r0, r2
 8007f72:	d971      	bls.n	8008058 <_Alloc+0x11c>
 8007f74:	6a65      	ldr	r5, [r4, #36]	; 0x24
 8007f76:	6b62      	ldr	r2, [r4, #52]	; 0x34
 8007f78:	ea4f 08c5 	mov.w	r8, r5, lsl #3
 8007f7c:	1e43      	subs	r3, r0, #1
 8007f7e:	eb02 0108 	add.w	r1, r2, r8
 8007f82:	6063      	str	r3, [r4, #4]
 8007f84:	6848      	ldr	r0, [r1, #4]
 8007f86:	2301      	movs	r3, #1
 8007f88:	6260      	str	r0, [r4, #36]	; 0x24
 8007f8a:	f802 3035 	strb.w	r3, [r2, r5, lsl #3]
 8007f8e:	2d00      	cmp	r5, #0
 8007f90:	d0e8      	beq.n	8007f64 <_Alloc+0x28>
 8007f92:	f8df 9278 	ldr.w	r9, [pc, #632]	; 800820c <_Alloc+0x2d0>
 8007f96:	f8d4 70b8 	ldr.w	r7, [r4, #184]	; 0xb8
 8007f9a:	42be      	cmp	r6, r7
 8007f9c:	d268      	bcs.n	8008070 <_Alloc+0x134>
 8007f9e:	f8d9 20b0 	ldr.w	r2, [r9, #176]	; 0xb0
 8007fa2:	4296      	cmp	r6, r2
 8007fa4:	f080 80e2 	bcs.w	800816c <_Alloc+0x230>
 8007fa8:	f8d9 10a8 	ldr.w	r1, [r9, #168]	; 0xa8
 8007fac:	428e      	cmp	r6, r1
 8007fae:	f080 80df 	bcs.w	8008170 <_Alloc+0x234>
 8007fb2:	f8d9 00a0 	ldr.w	r0, [r9, #160]	; 0xa0
 8007fb6:	4286      	cmp	r6, r0
 8007fb8:	f080 80dc 	bcs.w	8008174 <_Alloc+0x238>
 8007fbc:	f8d9 3098 	ldr.w	r3, [r9, #152]	; 0x98
 8007fc0:	429e      	cmp	r6, r3
 8007fc2:	f080 80d9 	bcs.w	8008178 <_Alloc+0x23c>
 8007fc6:	f8d9 2090 	ldr.w	r2, [r9, #144]	; 0x90
 8007fca:	4296      	cmp	r6, r2
 8007fcc:	f080 80d6 	bcs.w	800817c <_Alloc+0x240>
 8007fd0:	f8d9 1088 	ldr.w	r1, [r9, #136]	; 0x88
 8007fd4:	428e      	cmp	r6, r1
 8007fd6:	f080 80d3 	bcs.w	8008180 <_Alloc+0x244>
 8007fda:	f8d9 0080 	ldr.w	r0, [r9, #128]	; 0x80
 8007fde:	4286      	cmp	r6, r0
 8007fe0:	f080 80d2 	bcs.w	8008188 <_Alloc+0x24c>
 8007fe4:	f8d9 3078 	ldr.w	r3, [r9, #120]	; 0x78
 8007fe8:	429e      	cmp	r6, r3
 8007fea:	f080 80cb 	bcs.w	8008184 <_Alloc+0x248>
 8007fee:	f8d9 2070 	ldr.w	r2, [r9, #112]	; 0x70
 8007ff2:	4296      	cmp	r6, r2
 8007ff4:	f080 80d1 	bcs.w	800819a <_Alloc+0x25e>
 8007ff8:	6ea1      	ldr	r1, [r4, #104]	; 0x68
 8007ffa:	428e      	cmp	r6, r1
 8007ffc:	f080 80cb 	bcs.w	8008196 <_Alloc+0x25a>
 8008000:	f8d9 0060 	ldr.w	r0, [r9, #96]	; 0x60
 8008004:	4286      	cmp	r6, r0
 8008006:	f080 80ca 	bcs.w	800819e <_Alloc+0x262>
 800800a:	f8d9 3058 	ldr.w	r3, [r9, #88]	; 0x58
 800800e:	429e      	cmp	r6, r3
 8008010:	f080 80c7 	bcs.w	80081a2 <_Alloc+0x266>
 8008014:	f8d9 2050 	ldr.w	r2, [r9, #80]	; 0x50
 8008018:	4296      	cmp	r6, r2
 800801a:	f080 80c4 	bcs.w	80081a6 <_Alloc+0x26a>
 800801e:	f8d9 1048 	ldr.w	r1, [r9, #72]	; 0x48
 8008022:	428e      	cmp	r6, r1
 8008024:	f080 80c1 	bcs.w	80081aa <_Alloc+0x26e>
 8008028:	f8d9 0040 	ldr.w	r0, [r9, #64]	; 0x40
 800802c:	4286      	cmp	r6, r0
 800802e:	f080 80be 	bcs.w	80081ae <_Alloc+0x272>
 8008032:	4630      	mov	r0, r6
 8008034:	f7ff fe94 	bl	8007d60 <_RemoveHoles>
 8008038:	2800      	cmp	r0, #0
 800803a:	d0ac      	beq.n	8007f96 <_Alloc+0x5a>
 800803c:	6b62      	ldr	r2, [r4, #52]	; 0x34
 800803e:	6860      	ldr	r0, [r4, #4]
 8008040:	6a61      	ldr	r1, [r4, #36]	; 0x24
 8008042:	eb02 0608 	add.w	r6, r2, r8
 8008046:	2300      	movs	r3, #0
 8008048:	3001      	adds	r0, #1
 800804a:	6060      	str	r0, [r4, #4]
 800804c:	6071      	str	r1, [r6, #4]
 800804e:	f802 3008 	strb.w	r3, [r2, r8]
 8008052:	6265      	str	r5, [r4, #36]	; 0x24
 8008054:	461d      	mov	r5, r3
 8008056:	e786      	b.n	8007f66 <_Alloc+0x2a>
 8008058:	1e53      	subs	r3, r2, #1
 800805a:	632b      	str	r3, [r5, #48]	; 0x30
 800805c:	f000 f8d8 	bl	8008210 <_EnlargeBlocks>
 8008060:	6b29      	ldr	r1, [r5, #48]	; 0x30
 8008062:	1c4a      	adds	r2, r1, #1
 8008064:	632a      	str	r2, [r5, #48]	; 0x30
 8008066:	2800      	cmp	r0, #0
 8008068:	f47f af7c 	bne.w	8007f64 <_Alloc+0x28>
 800806c:	6868      	ldr	r0, [r5, #4]
 800806e:	e781      	b.n	8007f74 <_Alloc+0x38>
 8008070:	200f      	movs	r0, #15
 8008072:	eb04 0cc0 	add.w	ip, r4, r0, lsl #3
 8008076:	2100      	movs	r1, #0
 8008078:	eb0c 0301 	add.w	r3, ip, r1
 800807c:	6c5a      	ldr	r2, [r3, #68]	; 0x44
 800807e:	b162      	cbz	r2, 800809a <_Alloc+0x15e>
 8008080:	6893      	ldr	r3, [r2, #8]
 8008082:	b153      	cbz	r3, 800809a <_Alloc+0x15e>
 8008084:	685a      	ldr	r2, [r3, #4]
 8008086:	4296      	cmp	r6, r2
 8008088:	d804      	bhi.n	8008094 <_Alloc+0x158>
 800808a:	e00b      	b.n	80080a4 <_Alloc+0x168>
 800808c:	689b      	ldr	r3, [r3, #8]
 800808e:	685a      	ldr	r2, [r3, #4]
 8008090:	4296      	cmp	r6, r2
 8008092:	d907      	bls.n	80080a4 <_Alloc+0x168>
 8008094:	689b      	ldr	r3, [r3, #8]
 8008096:	2b00      	cmp	r3, #0
 8008098:	d1f8      	bne.n	800808c <_Alloc+0x150>
 800809a:	3001      	adds	r0, #1
 800809c:	3108      	adds	r1, #8
 800809e:	280f      	cmp	r0, #15
 80080a0:	d9ea      	bls.n	8008078 <_Alloc+0x13c>
 80080a2:	e7c6      	b.n	8008032 <_Alloc+0xf6>
 80080a4:	6c21      	ldr	r1, [r4, #64]	; 0x40
 80080a6:	ebc6 0c02 	rsb	ip, r6, r2
 80080aa:	f101 000c 	add.w	r0, r1, #12
 80080ae:	4584      	cmp	ip, r0
 80080b0:	bf2c      	ite	cs
 80080b2:	4630      	movcs	r0, r6
 80080b4:	4610      	movcc	r0, r2
 80080b6:	42ba      	cmp	r2, r7
 80080b8:	f080 8081 	bcs.w	80081be <_Alloc+0x282>
 80080bc:	f8d4 70b0 	ldr.w	r7, [r4, #176]	; 0xb0
 80080c0:	4e52      	ldr	r6, [pc, #328]	; (800820c <_Alloc+0x2d0>)
 80080c2:	42ba      	cmp	r2, r7
 80080c4:	d278      	bcs.n	80081b8 <_Alloc+0x27c>
 80080c6:	f8d6 70a8 	ldr.w	r7, [r6, #168]	; 0xa8
 80080ca:	42ba      	cmp	r2, r7
 80080cc:	d271      	bcs.n	80081b2 <_Alloc+0x276>
 80080ce:	f8d6 70a0 	ldr.w	r7, [r6, #160]	; 0xa0
 80080d2:	42ba      	cmp	r2, r7
 80080d4:	f080 8088 	bcs.w	80081e8 <_Alloc+0x2ac>
 80080d8:	f8d6 7098 	ldr.w	r7, [r6, #152]	; 0x98
 80080dc:	42ba      	cmp	r2, r7
 80080de:	f080 808f 	bcs.w	8008200 <_Alloc+0x2c4>
 80080e2:	f8d6 7090 	ldr.w	r7, [r6, #144]	; 0x90
 80080e6:	42ba      	cmp	r2, r7
 80080e8:	f080 8087 	bcs.w	80081fa <_Alloc+0x2be>
 80080ec:	f8d6 7088 	ldr.w	r7, [r6, #136]	; 0x88
 80080f0:	42ba      	cmp	r2, r7
 80080f2:	d27f      	bcs.n	80081f4 <_Alloc+0x2b8>
 80080f4:	f8d6 7080 	ldr.w	r7, [r6, #128]	; 0x80
 80080f8:	42ba      	cmp	r2, r7
 80080fa:	d278      	bcs.n	80081ee <_Alloc+0x2b2>
 80080fc:	6fb7      	ldr	r7, [r6, #120]	; 0x78
 80080fe:	42ba      	cmp	r2, r7
 8008100:	d269      	bcs.n	80081d6 <_Alloc+0x29a>
 8008102:	6f36      	ldr	r6, [r6, #112]	; 0x70
 8008104:	42b2      	cmp	r2, r6
 8008106:	d263      	bcs.n	80081d0 <_Alloc+0x294>
 8008108:	6ea6      	ldr	r6, [r4, #104]	; 0x68
 800810a:	4f40      	ldr	r7, [pc, #256]	; (800820c <_Alloc+0x2d0>)
 800810c:	42b2      	cmp	r2, r6
 800810e:	d25c      	bcs.n	80081ca <_Alloc+0x28e>
 8008110:	6e3e      	ldr	r6, [r7, #96]	; 0x60
 8008112:	42b2      	cmp	r2, r6
 8008114:	d256      	bcs.n	80081c4 <_Alloc+0x288>
 8008116:	6dbe      	ldr	r6, [r7, #88]	; 0x58
 8008118:	42b2      	cmp	r2, r6
 800811a:	d262      	bcs.n	80081e2 <_Alloc+0x2a6>
 800811c:	6d3e      	ldr	r6, [r7, #80]	; 0x50
 800811e:	42b2      	cmp	r2, r6
 8008120:	d25c      	bcs.n	80081dc <_Alloc+0x2a0>
 8008122:	6cbf      	ldr	r7, [r7, #72]	; 0x48
 8008124:	42ba      	cmp	r2, r7
 8008126:	d26e      	bcs.n	8008206 <_Alloc+0x2ca>
 8008128:	4291      	cmp	r1, r2
 800812a:	bf8c      	ite	hi
 800812c:	f04f 3cff 	movhi.w	ip, #4294967295
 8008130:	f04f 0c00 	movls.w	ip, #0
 8008134:	6827      	ldr	r7, [r4, #0]
 8008136:	689e      	ldr	r6, [r3, #8]
 8008138:	68d9      	ldr	r1, [r3, #12]
 800813a:	1abf      	subs	r7, r7, r2
 800813c:	6027      	str	r7, [r4, #0]
 800813e:	b106      	cbz	r6, 8008142 <_Alloc+0x206>
 8008140:	6071      	str	r1, [r6, #4]
 8008142:	b319      	cbz	r1, 800818c <_Alloc+0x250>
 8008144:	600e      	str	r6, [r1, #0]
 8008146:	6b64      	ldr	r4, [r4, #52]	; 0x34
 8008148:	1819      	adds	r1, r3, r0
 800814a:	44a0      	add	r8, r4
 800814c:	2400      	movs	r4, #0
 800814e:	4290      	cmp	r0, r2
 8008150:	f8c8 3004 	str.w	r3, [r8, #4]
 8008154:	601d      	str	r5, [r3, #0]
 8008156:	6058      	str	r0, [r3, #4]
 8008158:	609c      	str	r4, [r3, #8]
 800815a:	611b      	str	r3, [r3, #16]
 800815c:	f841 0c04 	str.w	r0, [r1, #-4]
 8008160:	f6bf af01 	bge.w	8007f66 <_Alloc+0x2a>
 8008164:	1a10      	subs	r0, r2, r0
 8008166:	f7ff fc53 	bl	8007a10 <_AddFreeMemory>
 800816a:	e6fc      	b.n	8007f66 <_Alloc+0x2a>
 800816c:	200e      	movs	r0, #14
 800816e:	e780      	b.n	8008072 <_Alloc+0x136>
 8008170:	200d      	movs	r0, #13
 8008172:	e77e      	b.n	8008072 <_Alloc+0x136>
 8008174:	200c      	movs	r0, #12
 8008176:	e77c      	b.n	8008072 <_Alloc+0x136>
 8008178:	200b      	movs	r0, #11
 800817a:	e77a      	b.n	8008072 <_Alloc+0x136>
 800817c:	200a      	movs	r0, #10
 800817e:	e778      	b.n	8008072 <_Alloc+0x136>
 8008180:	2009      	movs	r0, #9
 8008182:	e776      	b.n	8008072 <_Alloc+0x136>
 8008184:	2007      	movs	r0, #7
 8008186:	e774      	b.n	8008072 <_Alloc+0x136>
 8008188:	2008      	movs	r0, #8
 800818a:	e772      	b.n	8008072 <_Alloc+0x136>
 800818c:	eb04 0ccc 	add.w	ip, r4, ip, lsl #3
 8008190:	f8cc 6044 	str.w	r6, [ip, #68]	; 0x44
 8008194:	e7d7      	b.n	8008146 <_Alloc+0x20a>
 8008196:	2005      	movs	r0, #5
 8008198:	e76b      	b.n	8008072 <_Alloc+0x136>
 800819a:	2006      	movs	r0, #6
 800819c:	e769      	b.n	8008072 <_Alloc+0x136>
 800819e:	2004      	movs	r0, #4
 80081a0:	e767      	b.n	8008072 <_Alloc+0x136>
 80081a2:	2003      	movs	r0, #3
 80081a4:	e765      	b.n	8008072 <_Alloc+0x136>
 80081a6:	2002      	movs	r0, #2
 80081a8:	e763      	b.n	8008072 <_Alloc+0x136>
 80081aa:	2001      	movs	r0, #1
 80081ac:	e761      	b.n	8008072 <_Alloc+0x136>
 80081ae:	2000      	movs	r0, #0
 80081b0:	e75f      	b.n	8008072 <_Alloc+0x136>
 80081b2:	f04f 0c0d 	mov.w	ip, #13
 80081b6:	e7bd      	b.n	8008134 <_Alloc+0x1f8>
 80081b8:	f04f 0c0e 	mov.w	ip, #14
 80081bc:	e7ba      	b.n	8008134 <_Alloc+0x1f8>
 80081be:	f04f 0c0f 	mov.w	ip, #15
 80081c2:	e7b7      	b.n	8008134 <_Alloc+0x1f8>
 80081c4:	f04f 0c04 	mov.w	ip, #4
 80081c8:	e7b4      	b.n	8008134 <_Alloc+0x1f8>
 80081ca:	f04f 0c05 	mov.w	ip, #5
 80081ce:	e7b1      	b.n	8008134 <_Alloc+0x1f8>
 80081d0:	f04f 0c06 	mov.w	ip, #6
 80081d4:	e7ae      	b.n	8008134 <_Alloc+0x1f8>
 80081d6:	f04f 0c07 	mov.w	ip, #7
 80081da:	e7ab      	b.n	8008134 <_Alloc+0x1f8>
 80081dc:	f04f 0c02 	mov.w	ip, #2
 80081e0:	e7a8      	b.n	8008134 <_Alloc+0x1f8>
 80081e2:	f04f 0c03 	mov.w	ip, #3
 80081e6:	e7a5      	b.n	8008134 <_Alloc+0x1f8>
 80081e8:	f04f 0c0c 	mov.w	ip, #12
 80081ec:	e7a2      	b.n	8008134 <_Alloc+0x1f8>
 80081ee:	f04f 0c08 	mov.w	ip, #8
 80081f2:	e79f      	b.n	8008134 <_Alloc+0x1f8>
 80081f4:	f04f 0c09 	mov.w	ip, #9
 80081f8:	e79c      	b.n	8008134 <_Alloc+0x1f8>
 80081fa:	f04f 0c0a 	mov.w	ip, #10
 80081fe:	e799      	b.n	8008134 <_Alloc+0x1f8>
 8008200:	f04f 0c0b 	mov.w	ip, #11
 8008204:	e796      	b.n	8008134 <_Alloc+0x1f8>
 8008206:	f04f 0c01 	mov.w	ip, #1
 800820a:	e793      	b.n	8008134 <_Alloc+0x1f8>
 800820c:	1ffe9d14 	.word	0x1ffe9d14

08008210 <_EnlargeBlocks>:
 8008210:	e92d 47f0 	stmdb	sp!, {r4, r5, r6, r7, r8, r9, sl, lr}
 8008214:	4c45      	ldr	r4, [pc, #276]	; (800832c <_EnlargeBlocks+0x11c>)
 8008216:	6ae3      	ldr	r3, [r4, #44]	; 0x2c
 8008218:	b98b      	cbnz	r3, 800823e <_EnlargeBlocks+0x2e>
 800821a:	4945      	ldr	r1, [pc, #276]	; (8008330 <_EnlargeBlocks+0x120>)
 800821c:	688a      	ldr	r2, [r1, #8]
 800821e:	684d      	ldr	r5, [r1, #4]
 8008220:	f102 0308 	add.w	r3, r2, #8
 8008224:	fbb5 f0f3 	udiv	r0, r5, r3
 8008228:	f100 0802 	add.w	r8, r0, #2
 800822c:	ea4f 00c8 	mov.w	r0, r8, lsl #3
 8008230:	f7ff fe84 	bl	8007f3c <_Alloc>
 8008234:	4605      	mov	r5, r0
 8008236:	b970      	cbnz	r0, 8008256 <_EnlargeBlocks+0x46>
 8008238:	2001      	movs	r0, #1
 800823a:	e8bd 87f0 	ldmia.w	sp!, {r4, r5, r6, r7, r8, r9, sl, pc}
 800823e:	6920      	ldr	r0, [r4, #16]
 8008240:	f100 0804 	add.w	r8, r0, #4
 8008244:	eb08 08d0 	add.w	r8, r8, r0, lsr #3
 8008248:	ea4f 00c8 	mov.w	r0, r8, lsl #3
 800824c:	f7ff fe76 	bl	8007f3c <_Alloc>
 8008250:	4605      	mov	r5, r0
 8008252:	2800      	cmp	r0, #0
 8008254:	d0f0      	beq.n	8008238 <_EnlargeBlocks+0x28>
 8008256:	6b61      	ldr	r1, [r4, #52]	; 0x34
 8008258:	6926      	ldr	r6, [r4, #16]
 800825a:	f8d4 a02c 	ldr.w	sl, [r4, #44]	; 0x2c
 800825e:	eb01 07c0 	add.w	r7, r1, r0, lsl #3
 8008262:	687a      	ldr	r2, [r7, #4]
 8008264:	f102 0908 	add.w	r9, r2, #8
 8008268:	4648      	mov	r0, r9
 800826a:	00f2      	lsls	r2, r6, #3
 800826c:	f005 fc00 	bl	800da70 <memcpy>
 8008270:	f8d4 c010 	ldr.w	ip, [r4, #16]
 8008274:	f8c4 9034 	str.w	r9, [r4, #52]	; 0x34
 8008278:	f108 37ff 	add.w	r7, r8, #4294967295
 800827c:	45bc      	cmp	ip, r7
 800827e:	62e5      	str	r5, [r4, #44]	; 0x2c
 8008280:	d23e      	bcs.n	8008300 <_EnlargeBlocks+0xf0>
 8008282:	f10c 0301 	add.w	r3, ip, #1
 8008286:	eb09 06cc 	add.w	r6, r9, ip, lsl #3
 800828a:	ea6f 010c 	mvn.w	r1, ip
 800828e:	19cd      	adds	r5, r1, r7
 8008290:	2208      	movs	r2, #8
 8008292:	42bb      	cmp	r3, r7
 8008294:	6073      	str	r3, [r6, #4]
 8008296:	f005 0001 	and.w	r0, r5, #1
 800829a:	d011      	beq.n	80082c0 <_EnlargeBlocks+0xb0>
 800829c:	b120      	cbz	r0, 80082a8 <_EnlargeBlocks+0x98>
 800829e:	3301      	adds	r3, #1
 80082a0:	2210      	movs	r2, #16
 80082a2:	42bb      	cmp	r3, r7
 80082a4:	60f3      	str	r3, [r6, #12]
 80082a6:	d00b      	beq.n	80082c0 <_EnlargeBlocks+0xb0>
 80082a8:	f102 0108 	add.w	r1, r2, #8
 80082ac:	1c5d      	adds	r5, r3, #1
 80082ae:	18b2      	adds	r2, r6, r2
 80082b0:	3302      	adds	r3, #2
 80082b2:	1870      	adds	r0, r6, r1
 80082b4:	42bb      	cmp	r3, r7
 80082b6:	6055      	str	r5, [r2, #4]
 80082b8:	f101 0208 	add.w	r2, r1, #8
 80082bc:	6043      	str	r3, [r0, #4]
 80082be:	d1f3      	bne.n	80082a8 <_EnlargeBlocks+0x98>
 80082c0:	eb09 06c3 	add.w	r6, r9, r3, lsl #3
 80082c4:	2500      	movs	r5, #0
 80082c6:	6075      	str	r5, [r6, #4]
 80082c8:	6863      	ldr	r3, [r4, #4]
 80082ca:	4e18      	ldr	r6, [pc, #96]	; (800832c <_EnlargeBlocks+0x11c>)
 80082cc:	f8c4 c024 	str.w	ip, [r4, #36]	; 0x24
 80082d0:	ebcc 0103 	rsb	r1, ip, r3
 80082d4:	eb01 0208 	add.w	r2, r1, r8
 80082d8:	6062      	str	r2, [r4, #4]
 80082da:	f8c4 8010 	str.w	r8, [r4, #16]
 80082de:	f1ba 0f00 	cmp.w	sl, #0
 80082e2:	d102      	bne.n	80082ea <_EnlargeBlocks+0xda>
 80082e4:	4650      	mov	r0, sl
 80082e6:	e8bd 87f0 	ldmia.w	sp!, {r4, r5, r6, r7, r8, r9, sl, pc}
 80082ea:	f819 003a 	ldrb.w	r0, [r9, sl, lsl #3]
 80082ee:	ea4f 04ca 	mov.w	r4, sl, lsl #3
 80082f2:	44a1      	add	r9, r4
 80082f4:	b110      	cbz	r0, 80082fc <_EnlargeBlocks+0xec>
 80082f6:	2801      	cmp	r0, #1
 80082f8:	d904      	bls.n	8008304 <_EnlargeBlocks+0xf4>
 80082fa:	4628      	mov	r0, r5
 80082fc:	e8bd 87f0 	ldmia.w	sp!, {r4, r5, r6, r7, r8, r9, sl, pc}
 8008300:	4663      	mov	r3, ip
 8008302:	e7dd      	b.n	80082c0 <_EnlargeBlocks+0xb0>
 8008304:	f8d9 1004 	ldr.w	r1, [r9, #4]
 8008308:	6848      	ldr	r0, [r1, #4]
 800830a:	f7ff fb81 	bl	8007a10 <_AddFreeMemory>
 800830e:	6b73      	ldr	r3, [r6, #52]	; 0x34
 8008310:	6870      	ldr	r0, [r6, #4]
 8008312:	6a72      	ldr	r2, [r6, #36]	; 0x24
 8008314:	191c      	adds	r4, r3, r4
 8008316:	1c41      	adds	r1, r0, #1
 8008318:	6071      	str	r1, [r6, #4]
 800831a:	4628      	mov	r0, r5
 800831c:	6062      	str	r2, [r4, #4]
 800831e:	f803 503a 	strb.w	r5, [r3, sl, lsl #3]
 8008322:	f8c6 a024 	str.w	sl, [r6, #36]	; 0x24
 8008326:	e8bd 87f0 	ldmia.w	sp!, {r4, r5, r6, r7, r8, r9, sl, pc}
 800832a:	bf00      	nop
 800832c:	1ffe9d14 	.word	0x1ffe9d14
 8008330:	1ffe8a24 	.word	0x1ffe8a24

08008334 <_InitOnce.part.0>:
 8008334:	e92d 4ff8 	stmdb	sp!, {r3, r4, r5, r6, r7, r8, r9, sl, fp, lr}
 8008338:	4fb8      	ldr	r7, [pc, #736]	; (800861c <_InitOnce.part.0+0x2e8>)
 800833a:	4cb9      	ldr	r4, [pc, #740]	; (8008620 <_InitOnce.part.0+0x2ec>)
 800833c:	687b      	ldr	r3, [r7, #4]
 800833e:	683e      	ldr	r6, [r7, #0]
 8008340:	f5b3 5f20 	cmp.w	r3, #10240	; 0x2800
 8008344:	bf34      	ite	cc
 8008346:	469e      	movcc	lr, r3
 8008348:	f44f 5e20 	movcs.w	lr, #10240	; 0x2800
 800834c:	ea4f 0c9e 	mov.w	ip, lr, lsr #2
 8008350:	f248 0281 	movw	r2, #32897	; 0x8081
 8008354:	2001      	movs	r0, #1
 8008356:	f884 0028 	strb.w	r0, [r4, #40]	; 0x28
 800835a:	4665      	mov	r5, ip
 800835c:	f04f 0a00 	mov.w	sl, #0
 8008360:	f2c8 0280 	movt	r2, #32896	; 0x8080
 8008364:	f1bc 0f00 	cmp.w	ip, #0
 8008368:	f000 826e 	beq.w	8008848 <_InitOnce.part.0+0x514>
 800836c:	fba2 010a 	umull	r0, r1, r2, sl
 8008370:	09cb      	lsrs	r3, r1, #7
 8008372:	ebc3 2003 	rsb	r0, r3, r3, lsl #8
 8008376:	46b0      	mov	r8, r6
 8008378:	ebc0 010a 	rsb	r1, r0, sl
 800837c:	ebc5 030a 	rsb	r3, r5, sl
 8008380:	43d8      	mvns	r0, r3
 8008382:	f848 1b04 	str.w	r1, [r8], #4
 8008386:	f10a 0301 	add.w	r3, sl, #1
 800838a:	f248 0981 	movw	r9, #32897	; 0x8081
 800838e:	429d      	cmp	r5, r3
 8008390:	f000 0101 	and.w	r1, r0, #1
 8008394:	f2c8 0980 	movt	r9, #32896	; 0x8080
 8008398:	f108 0804 	add.w	r8, r8, #4
 800839c:	d02c      	beq.n	80083f8 <_InitOnce.part.0+0xc4>
 800839e:	b161      	cbz	r1, 80083ba <_InitOnce.part.0+0x86>
 80083a0:	fba2 0103 	umull	r0, r1, r2, r3
 80083a4:	09c8      	lsrs	r0, r1, #7
 80083a6:	ebc0 2100 	rsb	r1, r0, r0, lsl #8
 80083aa:	1a58      	subs	r0, r3, r1
 80083ac:	3301      	adds	r3, #1
 80083ae:	429d      	cmp	r5, r3
 80083b0:	f848 0c04 	str.w	r0, [r8, #-4]
 80083b4:	f108 0804 	add.w	r8, r8, #4
 80083b8:	d01e      	beq.n	80083f8 <_InitOnce.part.0+0xc4>
 80083ba:	1c58      	adds	r0, r3, #1
 80083bc:	fba2 1b03 	umull	r1, fp, r2, r3
 80083c0:	fba2 1900 	umull	r1, r9, r2, r0
 80083c4:	ea4f 1bdb 	mov.w	fp, fp, lsr #7
 80083c8:	ea4f 19d9 	mov.w	r9, r9, lsr #7
 80083cc:	4641      	mov	r1, r8
 80083ce:	ebc9 2909 	rsb	r9, r9, r9, lsl #8
 80083d2:	ebcb 2b0b 	rsb	fp, fp, fp, lsl #8
 80083d6:	ebcb 0b03 	rsb	fp, fp, r3
 80083da:	ebc9 0300 	rsb	r3, r9, r0
 80083de:	f848 bc04 	str.w	fp, [r8, #-4]
 80083e2:	f841 3b04 	str.w	r3, [r1], #4
 80083e6:	1c43      	adds	r3, r0, #1
 80083e8:	f248 0981 	movw	r9, #32897	; 0x8081
 80083ec:	429d      	cmp	r5, r3
 80083ee:	f2c8 0980 	movt	r9, #32896	; 0x8080
 80083f2:	f101 0804 	add.w	r8, r1, #4
 80083f6:	d1e0      	bne.n	80083ba <_InitOnce.part.0+0x86>
 80083f8:	fba9 300a 	umull	r3, r0, r9, sl
 80083fc:	ea4f 11d0 	mov.w	r1, r0, lsr #7
 8008400:	ebc1 2901 	rsb	r9, r1, r1, lsl #8
 8008404:	6833      	ldr	r3, [r6, #0]
 8008406:	ebc9 090a 	rsb	r9, r9, sl
 800840a:	454b      	cmp	r3, r9
 800840c:	d115      	bne.n	800843a <_InitOnce.part.0+0x106>
 800840e:	f10a 0a01 	add.w	sl, sl, #1
 8008412:	ebca 0005 	rsb	r0, sl, r5
 8008416:	07c0      	lsls	r0, r0, #31
 8008418:	4631      	mov	r1, r6
 800841a:	4653      	mov	r3, sl
 800841c:	d56b      	bpl.n	80084f6 <_InitOnce.part.0+0x1c2>
 800841e:	fba2 b30a 	umull	fp, r3, r2, sl
 8008422:	4631      	mov	r1, r6
 8008424:	09d8      	lsrs	r0, r3, #7
 8008426:	ebc0 2300 	rsb	r3, r0, r0, lsl #8
 800842a:	f851 8f04 	ldr.w	r8, [r1, #4]!
 800842e:	ebc3 000a 	rsb	r0, r3, sl
 8008432:	4580      	cmp	r8, r0
 8008434:	f10a 0301 	add.w	r3, sl, #1
 8008438:	d05d      	beq.n	80084f6 <_InitOnce.part.0+0x1c2>
 800843a:	68b9      	ldr	r1, [r7, #8]
 800843c:	4877      	ldr	r0, [pc, #476]	; (800861c <_InitOnce.part.0+0x2e8>)
 800843e:	b911      	cbnz	r1, 8008446 <_InitOnce.part.0+0x112>
 8008440:	6845      	ldr	r5, [r0, #4]
 8008442:	08ab      	lsrs	r3, r5, #2
 8008444:	6083      	str	r3, [r0, #8]
 8008446:	4a77      	ldr	r2, [pc, #476]	; (8008624 <_InitOnce.part.0+0x2f0>)
 8008448:	4877      	ldr	r0, [pc, #476]	; (8008628 <_InitOnce.part.0+0x2f4>)
 800844a:	60fa      	str	r2, [r7, #12]
 800844c:	f7ff f816 	bl	800747c <GUI__RegisterExit>
 8008450:	225a      	movs	r2, #90	; 0x5a
 8008452:	6222      	str	r2, [r4, #32]
 8008454:	2210      	movs	r2, #16
 8008456:	6422      	str	r2, [r4, #64]	; 0x40
 8008458:	2220      	movs	r2, #32
 800845a:	64a2      	str	r2, [r4, #72]	; 0x48
 800845c:	2240      	movs	r2, #64	; 0x40
 800845e:	6522      	str	r2, [r4, #80]	; 0x50
 8008460:	2280      	movs	r2, #128	; 0x80
 8008462:	65a2      	str	r2, [r4, #88]	; 0x58
 8008464:	f44f 7280 	mov.w	r2, #256	; 0x100
 8008468:	6622      	str	r2, [r4, #96]	; 0x60
 800846a:	f44f 7200 	mov.w	r2, #512	; 0x200
 800846e:	66a2      	str	r2, [r4, #104]	; 0x68
 8008470:	f44f 6280 	mov.w	r2, #1024	; 0x400
 8008474:	6722      	str	r2, [r4, #112]	; 0x70
 8008476:	f44f 6200 	mov.w	r2, #2048	; 0x800
 800847a:	67a2      	str	r2, [r4, #120]	; 0x78
 800847c:	f44f 5280 	mov.w	r2, #4096	; 0x1000
 8008480:	f8c4 2080 	str.w	r2, [r4, #128]	; 0x80
 8008484:	f44f 5200 	mov.w	r2, #8192	; 0x2000
 8008488:	f8c4 2088 	str.w	r2, [r4, #136]	; 0x88
 800848c:	f44f 4280 	mov.w	r2, #16384	; 0x4000
 8008490:	f8c4 2090 	str.w	r2, [r4, #144]	; 0x90
 8008494:	f44f 4200 	mov.w	r2, #32768	; 0x8000
 8008498:	6878      	ldr	r0, [r7, #4]
 800849a:	f8c4 2098 	str.w	r2, [r4, #152]	; 0x98
 800849e:	f44f 3280 	mov.w	r2, #65536	; 0x10000
 80084a2:	6839      	ldr	r1, [r7, #0]
 80084a4:	f8c4 20a0 	str.w	r2, [r4, #160]	; 0xa0
 80084a8:	f44f 3200 	mov.w	r2, #131072	; 0x20000
 80084ac:	f1a0 0514 	sub.w	r5, r0, #20
 80084b0:	f8c4 20a8 	str.w	r2, [r4, #168]	; 0xa8
 80084b4:	f44f 2280 	mov.w	r2, #262144	; 0x40000
 80084b8:	194b      	adds	r3, r1, r5
 80084ba:	f8c4 20b0 	str.w	r2, [r4, #176]	; 0xb0
 80084be:	f44f 2200 	mov.w	r2, #524288	; 0x80000
 80084c2:	2501      	movs	r5, #1
 80084c4:	f8c4 20b8 	str.w	r2, [r4, #184]	; 0xb8
 80084c8:	2202      	movs	r2, #2
 80084ca:	6122      	str	r2, [r4, #16]
 80084cc:	6363      	str	r3, [r4, #52]	; 0x34
 80084ce:	63a1      	str	r1, [r4, #56]	; 0x38
 80084d0:	60e0      	str	r0, [r4, #12]
 80084d2:	605d      	str	r5, [r3, #4]
 80084d4:	6265      	str	r5, [r4, #36]	; 0x24
 80084d6:	6065      	str	r5, [r4, #4]
 80084d8:	f7ff fa9a 	bl	8007a10 <_AddFreeMemory>
 80084dc:	f7ff fe98 	bl	8008210 <_EnlargeBlocks>
 80084e0:	6325      	str	r5, [r4, #48]	; 0x30
 80084e2:	e8bd 8ff8 	ldmia.w	sp!, {r3, r4, r5, r6, r7, r8, r9, sl, fp, pc}
 80084e6:	f851 9f04 	ldr.w	r9, [r1, #4]!
 80084ea:	45c1      	cmp	r9, r8
 80084ec:	d1a5      	bne.n	800843a <_InitOnce.part.0+0x106>
 80084ee:	f851 8f04 	ldr.w	r8, [r1, #4]!
 80084f2:	4580      	cmp	r8, r0
 80084f4:	d1a1      	bne.n	800843a <_InitOnce.part.0+0x106>
 80084f6:	fba2 8003 	umull	r8, r0, r2, r3
 80084fa:	09c0      	lsrs	r0, r0, #7
 80084fc:	ebc0 2000 	rsb	r0, r0, r0, lsl #8
 8008500:	ebc0 0803 	rsb	r8, r0, r3
 8008504:	42ab      	cmp	r3, r5
 8008506:	f103 0301 	add.w	r3, r3, #1
 800850a:	fba2 9003 	umull	r9, r0, r2, r3
 800850e:	ea4f 10d0 	mov.w	r0, r0, lsr #7
 8008512:	ebc0 2000 	rsb	r0, r0, r0, lsl #8
 8008516:	ebc0 0003 	rsb	r0, r0, r3
 800851a:	f103 0301 	add.w	r3, r3, #1
 800851e:	d1e2      	bne.n	80084e6 <_InitOnce.part.0+0x1b2>
 8008520:	3501      	adds	r5, #1
 8008522:	f1ba 0f02 	cmp.w	sl, #2
 8008526:	f47f af1d 	bne.w	8008364 <_InitOnce.part.0+0x30>
 800852a:	ea4f 0c5e 	mov.w	ip, lr, lsr #1
 800852e:	f248 0281 	movw	r2, #32897	; 0x8081
 8008532:	4665      	mov	r5, ip
 8008534:	f04f 0b00 	mov.w	fp, #0
 8008538:	f2c8 0280 	movt	r2, #32896	; 0x8080
 800853c:	f1bc 0f00 	cmp.w	ip, #0
 8008540:	f000 8185 	beq.w	800884e <_InitOnce.part.0+0x51a>
 8008544:	fba2 a10b 	umull	sl, r1, r2, fp
 8008548:	09cb      	lsrs	r3, r1, #7
 800854a:	ebc3 2003 	rsb	r0, r3, r3, lsl #8
 800854e:	46b2      	mov	sl, r6
 8008550:	ebc0 010b 	rsb	r1, r0, fp
 8008554:	ebc5 030b 	rsb	r3, r5, fp
 8008558:	43d8      	mvns	r0, r3
 800855a:	f82a 1b02 	strh.w	r1, [sl], #2
 800855e:	f10b 0301 	add.w	r3, fp, #1
 8008562:	f248 0981 	movw	r9, #32897	; 0x8081
 8008566:	429d      	cmp	r5, r3
 8008568:	f000 0101 	and.w	r1, r0, #1
 800856c:	f2c8 0980 	movt	r9, #32896	; 0x8080
 8008570:	f10a 0802 	add.w	r8, sl, #2
 8008574:	d02c      	beq.n	80085d0 <_InitOnce.part.0+0x29c>
 8008576:	b161      	cbz	r1, 8008592 <_InitOnce.part.0+0x25e>
 8008578:	fba2 a003 	umull	sl, r0, r2, r3
 800857c:	09c1      	lsrs	r1, r0, #7
 800857e:	ebc1 2001 	rsb	r0, r1, r1, lsl #8
 8008582:	1a19      	subs	r1, r3, r0
 8008584:	3301      	adds	r3, #1
 8008586:	429d      	cmp	r5, r3
 8008588:	f828 1c02 	strh.w	r1, [r8, #-2]
 800858c:	f108 0802 	add.w	r8, r8, #2
 8008590:	d01e      	beq.n	80085d0 <_InitOnce.part.0+0x29c>
 8008592:	1c58      	adds	r0, r3, #1
 8008594:	fba2 1a03 	umull	r1, sl, r2, r3
 8008598:	fba2 1900 	umull	r1, r9, r2, r0
 800859c:	ea4f 1ada 	mov.w	sl, sl, lsr #7
 80085a0:	ea4f 19d9 	mov.w	r9, r9, lsr #7
 80085a4:	4641      	mov	r1, r8
 80085a6:	ebc9 2909 	rsb	r9, r9, r9, lsl #8
 80085aa:	ebca 2a0a 	rsb	sl, sl, sl, lsl #8
 80085ae:	ebca 0a03 	rsb	sl, sl, r3
 80085b2:	ebc9 0000 	rsb	r0, r9, r0
 80085b6:	f828 ac02 	strh.w	sl, [r8, #-2]
 80085ba:	3302      	adds	r3, #2
 80085bc:	f821 0b02 	strh.w	r0, [r1], #2
 80085c0:	f248 0981 	movw	r9, #32897	; 0x8081
 80085c4:	429d      	cmp	r5, r3
 80085c6:	f2c8 0980 	movt	r9, #32896	; 0x8080
 80085ca:	f101 0802 	add.w	r8, r1, #2
 80085ce:	d1e0      	bne.n	8008592 <_InitOnce.part.0+0x25e>
 80085d0:	fba9 310b 	umull	r3, r1, r9, fp
 80085d4:	ea4f 13d1 	mov.w	r3, r1, lsr #7
 80085d8:	ebc3 2903 	rsb	r9, r3, r3, lsl #8
 80085dc:	ebc9 000b 	rsb	r0, r9, fp
 80085e0:	8831      	ldrh	r1, [r6, #0]
 80085e2:	b283      	uxth	r3, r0
 80085e4:	4299      	cmp	r1, r3
 80085e6:	f47f af28 	bne.w	800843a <_InitOnce.part.0+0x106>
 80085ea:	f10b 0b01 	add.w	fp, fp, #1
 80085ee:	ebcb 0005 	rsb	r0, fp, r5
 80085f2:	07c0      	lsls	r0, r0, #31
 80085f4:	4631      	mov	r1, r6
 80085f6:	465b      	mov	r3, fp
 80085f8:	d522      	bpl.n	8008640 <_InitOnce.part.0+0x30c>
 80085fa:	fba2 030b 	umull	r0, r3, r2, fp
 80085fe:	09d8      	lsrs	r0, r3, #7
 8008600:	4631      	mov	r1, r6
 8008602:	ebc0 2300 	rsb	r3, r0, r0, lsl #8
 8008606:	ebc3 000b 	rsb	r0, r3, fp
 800860a:	f831 8f02 	ldrh.w	r8, [r1, #2]!
 800860e:	b280      	uxth	r0, r0
 8008610:	4580      	cmp	r8, r0
 8008612:	f10b 0301 	add.w	r3, fp, #1
 8008616:	d013      	beq.n	8008640 <_InitOnce.part.0+0x30c>
 8008618:	e70f      	b.n	800843a <_InitOnce.part.0+0x106>
 800861a:	bf00      	nop
 800861c:	1ffe8a24 	.word	0x1ffe8a24
 8008620:	1ffe9d14 	.word	0x1ffe9d14
 8008624:	080079d5 	.word	0x080079d5
 8008628:	1ffe8a30 	.word	0x1ffe8a30
 800862c:	f831 9f02 	ldrh.w	r9, [r1, #2]!
 8008630:	45c1      	cmp	r9, r8
 8008632:	f47f af02 	bne.w	800843a <_InitOnce.part.0+0x106>
 8008636:	f831 8f02 	ldrh.w	r8, [r1, #2]!
 800863a:	4580      	cmp	r8, r0
 800863c:	f47f aefd 	bne.w	800843a <_InitOnce.part.0+0x106>
 8008640:	fba2 8003 	umull	r8, r0, r2, r3
 8008644:	09c0      	lsrs	r0, r0, #7
 8008646:	ebc0 2000 	rsb	r0, r0, r0, lsl #8
 800864a:	ebc0 0803 	rsb	r8, r0, r3
 800864e:	429d      	cmp	r5, r3
 8008650:	f103 0301 	add.w	r3, r3, #1
 8008654:	fba2 9003 	umull	r9, r0, r2, r3
 8008658:	ea4f 10d0 	mov.w	r0, r0, lsr #7
 800865c:	ebc0 2000 	rsb	r0, r0, r0, lsl #8
 8008660:	ebc0 0003 	rsb	r0, r0, r3
 8008664:	fa1f f888 	uxth.w	r8, r8
 8008668:	b280      	uxth	r0, r0
 800866a:	f103 0301 	add.w	r3, r3, #1
 800866e:	d1dd      	bne.n	800862c <_InitOnce.part.0+0x2f8>
 8008670:	3501      	adds	r5, #1
 8008672:	f1bb 0f02 	cmp.w	fp, #2
 8008676:	f47f af61 	bne.w	800853c <_InitOnce.part.0+0x208>
 800867a:	f248 0181 	movw	r1, #32897	; 0x8081
 800867e:	eb0e 0206 	add.w	r2, lr, r6
 8008682:	2500      	movs	r5, #0
 8008684:	f2c8 0180 	movt	r1, #32896	; 0x8080
 8008688:	f102 3cff 	add.w	ip, r2, #4294967295
 800868c:	f1be 0f00 	cmp.w	lr, #0
 8008690:	f000 80e5 	beq.w	800885e <_InitOnce.part.0+0x52a>
 8008694:	43e8      	mvns	r0, r5
 8008696:	eb05 0a0e 	add.w	sl, r5, lr
 800869a:	ebc5 0806 	rsb	r8, r5, r6
 800869e:	fba1 b905 	umull	fp, r9, r1, r5
 80086a2:	1c6b      	adds	r3, r5, #1
 80086a4:	eb00 020a 	add.w	r2, r0, sl
 80086a8:	eb05 19d9 	add.w	r9, r5, r9, lsr #7
 80086ac:	f248 0081 	movw	r0, #32897	; 0x8081
 80086b0:	4553      	cmp	r3, sl
 80086b2:	f808 9005 	strb.w	r9, [r8, r5]
 80086b6:	f002 0201 	and.w	r2, r2, #1
 80086ba:	f2c8 0080 	movt	r0, #32896	; 0x8080
 80086be:	d01d      	beq.n	80086fc <_InitOnce.part.0+0x3c8>
 80086c0:	b142      	cbz	r2, 80086d4 <_InitOnce.part.0+0x3a0>
 80086c2:	fba1 b203 	umull	fp, r2, r1, r3
 80086c6:	eb03 12d2 	add.w	r2, r3, r2, lsr #7
 80086ca:	f808 2003 	strb.w	r2, [r8, r3]
 80086ce:	3301      	adds	r3, #1
 80086d0:	4553      	cmp	r3, sl
 80086d2:	d013      	beq.n	80086fc <_InitOnce.part.0+0x3c8>
 80086d4:	fba1 9003 	umull	r9, r0, r1, r3
 80086d8:	1c5a      	adds	r2, r3, #1
 80086da:	eb03 10d0 	add.w	r0, r3, r0, lsr #7
 80086de:	f808 0003 	strb.w	r0, [r8, r3]
 80086e2:	fba1 b902 	umull	fp, r9, r1, r2
 80086e6:	3302      	adds	r3, #2
 80086e8:	f248 0081 	movw	r0, #32897	; 0x8081
 80086ec:	eb02 19d9 	add.w	r9, r2, r9, lsr #7
 80086f0:	4553      	cmp	r3, sl
 80086f2:	f808 9002 	strb.w	r9, [r8, r2]
 80086f6:	f2c8 0080 	movt	r0, #32896	; 0x8080
 80086fa:	d1eb      	bne.n	80086d4 <_InitOnce.part.0+0x3a0>
 80086fc:	fba0 2305 	umull	r2, r3, r0, r5
 8008700:	eb05 10d3 	add.w	r0, r5, r3, lsr #7
 8008704:	7832      	ldrb	r2, [r6, #0]
 8008706:	f000 03ff 	and.w	r3, r0, #255	; 0xff
 800870a:	429a      	cmp	r2, r3
 800870c:	f47f ae95 	bne.w	800843a <_InitOnce.part.0+0x106>
 8008710:	ebc6 020c 	rsb	r2, r6, ip
 8008714:	07d2      	lsls	r2, r2, #31
 8008716:	4633      	mov	r3, r6
 8008718:	ebc6 0005 	rsb	r0, r6, r5
 800871c:	d528      	bpl.n	8008770 <_InitOnce.part.0+0x43c>
 800871e:	4633      	mov	r3, r6
 8008720:	f813 8f01 	ldrb.w	r8, [r3, #1]!
 8008724:	18c2      	adds	r2, r0, r3
 8008726:	fba1 b902 	umull	fp, r9, r1, r2
 800872a:	eb02 12d9 	add.w	r2, r2, r9, lsr #7
 800872e:	f002 02ff 	and.w	r2, r2, #255	; 0xff
 8008732:	4590      	cmp	r8, r2
 8008734:	f47f ae81 	bne.w	800843a <_InitOnce.part.0+0x106>
 8008738:	4563      	cmp	r3, ip
 800873a:	461a      	mov	r2, r3
 800873c:	d01b      	beq.n	8008776 <_InitOnce.part.0+0x442>
 800873e:	f812 8f01 	ldrb.w	r8, [r2, #1]!
 8008742:	4613      	mov	r3, r2
 8008744:	1882      	adds	r2, r0, r2
 8008746:	fba1 a902 	umull	sl, r9, r1, r2
 800874a:	eb02 12d9 	add.w	r2, r2, r9, lsr #7
 800874e:	f002 02ff 	and.w	r2, r2, #255	; 0xff
 8008752:	4590      	cmp	r8, r2
 8008754:	f47f ae71 	bne.w	800843a <_InitOnce.part.0+0x106>
 8008758:	f813 8f01 	ldrb.w	r8, [r3, #1]!
 800875c:	18c2      	adds	r2, r0, r3
 800875e:	fba1 a902 	umull	sl, r9, r1, r2
 8008762:	eb02 12d9 	add.w	r2, r2, r9, lsr #7
 8008766:	f002 02ff 	and.w	r2, r2, #255	; 0xff
 800876a:	4590      	cmp	r8, r2
 800876c:	f47f ae65 	bne.w	800843a <_InitOnce.part.0+0x106>
 8008770:	4563      	cmp	r3, ip
 8008772:	461a      	mov	r2, r3
 8008774:	d1e3      	bne.n	800873e <_InitOnce.part.0+0x40a>
 8008776:	3501      	adds	r5, #1
 8008778:	2d02      	cmp	r5, #2
 800877a:	d187      	bne.n	800868c <_InitOnce.part.0+0x358>
 800877c:	4271      	negs	r1, r6
 800877e:	f001 0003 	and.w	r0, r1, #3
 8008782:	4570      	cmp	r0, lr
 8008784:	bf28      	it	cs
 8008786:	4670      	movcs	r0, lr
 8008788:	f1be 0f03 	cmp.w	lr, #3
 800878c:	bf98      	it	ls
 800878e:	4670      	movls	r0, lr
 8008790:	d860      	bhi.n	8008854 <_InitOnce.part.0+0x520>
 8008792:	4633      	mov	r3, r6
 8008794:	2500      	movs	r5, #0
 8008796:	2201      	movs	r2, #1
 8008798:	f803 5b01 	strb.w	r5, [r3], #1
 800879c:	1e41      	subs	r1, r0, #1
 800879e:	4282      	cmp	r2, r0
 80087a0:	ea01 0102 	and.w	r1, r1, r2
 80087a4:	469b      	mov	fp, r3
 80087a6:	d20f      	bcs.n	80087c8 <_InitOnce.part.0+0x494>
 80087a8:	b129      	cbz	r1, 80087b6 <_InitOnce.part.0+0x482>
 80087aa:	f803 5b01 	strb.w	r5, [r3], #1
 80087ae:	2202      	movs	r2, #2
 80087b0:	4282      	cmp	r2, r0
 80087b2:	469b      	mov	fp, r3
 80087b4:	d208      	bcs.n	80087c8 <_InitOnce.part.0+0x494>
 80087b6:	4619      	mov	r1, r3
 80087b8:	3202      	adds	r2, #2
 80087ba:	f801 5b01 	strb.w	r5, [r1], #1
 80087be:	705d      	strb	r5, [r3, #1]
 80087c0:	1c4b      	adds	r3, r1, #1
 80087c2:	4282      	cmp	r2, r0
 80087c4:	469b      	mov	fp, r3
 80087c6:	d3f6      	bcc.n	80087b6 <_InitOnce.part.0+0x482>
 80087c8:	4586      	cmp	lr, r0
 80087ca:	f43f ae36 	beq.w	800843a <_InitOnce.part.0+0x106>
 80087ce:	ebc0 090e 	rsb	r9, r0, lr
 80087d2:	ea4f 0599 	mov.w	r5, r9, lsr #2
 80087d6:	ea4f 0885 	mov.w	r8, r5, lsl #2
 80087da:	b1e5      	cbz	r5, 8008816 <_InitOnce.part.0+0x4e2>
 80087dc:	1836      	adds	r6, r6, r0
 80087de:	2101      	movs	r1, #1
 80087e0:	2000      	movs	r0, #0
 80087e2:	1e6b      	subs	r3, r5, #1
 80087e4:	42a9      	cmp	r1, r5
 80087e6:	f846 0b04 	str.w	r0, [r6], #4
 80087ea:	ea03 0301 	and.w	r3, r3, r1
 80087ee:	d20d      	bcs.n	800880c <_InitOnce.part.0+0x4d8>
 80087f0:	b123      	cbz	r3, 80087fc <_InitOnce.part.0+0x4c8>
 80087f2:	2102      	movs	r1, #2
 80087f4:	42a9      	cmp	r1, r5
 80087f6:	f846 0b04 	str.w	r0, [r6], #4
 80087fa:	d207      	bcs.n	800880c <_InitOnce.part.0+0x4d8>
 80087fc:	4633      	mov	r3, r6
 80087fe:	3102      	adds	r1, #2
 8008800:	f843 0b04 	str.w	r0, [r3], #4
 8008804:	6070      	str	r0, [r6, #4]
 8008806:	1d1e      	adds	r6, r3, #4
 8008808:	42a9      	cmp	r1, r5
 800880a:	d3f7      	bcc.n	80087fc <_InitOnce.part.0+0x4c8>
 800880c:	45c1      	cmp	r9, r8
 800880e:	44c3      	add	fp, r8
 8008810:	4442      	add	r2, r8
 8008812:	f43f ae12 	beq.w	800843a <_InitOnce.part.0+0x106>
 8008816:	43d5      	mvns	r5, r2
 8008818:	ebc2 010b 	rsb	r1, r2, fp
 800881c:	1c53      	adds	r3, r2, #1
 800881e:	2000      	movs	r0, #0
 8008820:	4475      	add	r5, lr
 8008822:	459e      	cmp	lr, r3
 8008824:	5488      	strb	r0, [r1, r2]
 8008826:	f005 0201 	and.w	r2, r5, #1
 800882a:	f67f ae06 	bls.w	800843a <_InitOnce.part.0+0x106>
 800882e:	b122      	cbz	r2, 800883a <_InitOnce.part.0+0x506>
 8008830:	54c8      	strb	r0, [r1, r3]
 8008832:	3301      	adds	r3, #1
 8008834:	459e      	cmp	lr, r3
 8008836:	f67f ae00 	bls.w	800843a <_InitOnce.part.0+0x106>
 800883a:	1c5d      	adds	r5, r3, #1
 800883c:	54c8      	strb	r0, [r1, r3]
 800883e:	3302      	adds	r3, #2
 8008840:	459e      	cmp	lr, r3
 8008842:	5548      	strb	r0, [r1, r5]
 8008844:	d8f9      	bhi.n	800883a <_InitOnce.part.0+0x506>
 8008846:	e5f8      	b.n	800843a <_InitOnce.part.0+0x106>
 8008848:	f10a 0a01 	add.w	sl, sl, #1
 800884c:	e668      	b.n	8008520 <_InitOnce.part.0+0x1ec>
 800884e:	f10b 0b01 	add.w	fp, fp, #1
 8008852:	e70d      	b.n	8008670 <_InitOnce.part.0+0x33c>
 8008854:	2800      	cmp	r0, #0
 8008856:	d19c      	bne.n	8008792 <_InitOnce.part.0+0x45e>
 8008858:	46b3      	mov	fp, r6
 800885a:	4602      	mov	r2, r0
 800885c:	e7b7      	b.n	80087ce <_InitOnce.part.0+0x49a>
 800885e:	f1c5 0101 	rsb	r1, r5, #1
 8008862:	3501      	adds	r5, #1
 8008864:	2d02      	cmp	r5, #2
 8008866:	f001 0301 	and.w	r3, r1, #1
 800886a:	f43f ade6 	beq.w	800843a <_InitOnce.part.0+0x106>
 800886e:	b11b      	cbz	r3, 8008878 <_InitOnce.part.0+0x544>
 8008870:	3501      	adds	r5, #1
 8008872:	2d02      	cmp	r5, #2
 8008874:	f43f ade1 	beq.w	800843a <_InitOnce.part.0+0x106>
 8008878:	3502      	adds	r5, #2
 800887a:	2d02      	cmp	r5, #2
 800887c:	f43f addd 	beq.w	800843a <_InitOnce.part.0+0x106>
 8008880:	e7fa      	b.n	8008878 <_InitOnce.part.0+0x544>
 8008882:	bf00      	nop

08008884 <GUI_ALLOC_FreeFixedBlock>:
 8008884:	b128      	cbz	r0, 8008892 <GUI_ALLOC_FreeFixedBlock+0xe>
 8008886:	4a03      	ldr	r2, [pc, #12]	; (8008894 <GUI_ALLOC_FreeFixedBlock+0x10>)
 8008888:	6bd3      	ldr	r3, [r2, #60]	; 0x3c
 800888a:	6003      	str	r3, [r0, #0]
 800888c:	b103      	cbz	r3, 8008890 <GUI_ALLOC_FreeFixedBlock+0xc>
 800888e:	6058      	str	r0, [r3, #4]
 8008890:	63d0      	str	r0, [r2, #60]	; 0x3c
 8008892:	4770      	bx	lr
 8008894:	1ffe9d14 	.word	0x1ffe9d14

08008898 <GUI_ALLOC_GetFixedBlock>:
 8008898:	e92d 41f0 	stmdb	sp!, {r4, r5, r6, r7, r8, lr}
 800889c:	4e63      	ldr	r6, [pc, #396]	; (8008a2c <GUI_ALLOC_GetFixedBlock+0x194>)
 800889e:	f896 3028 	ldrb.w	r3, [r6, #40]	; 0x28
 80088a2:	4605      	mov	r5, r0
 80088a4:	b90b      	cbnz	r3, 80088aa <GUI_ALLOC_GetFixedBlock+0x12>
 80088a6:	f7ff fd45 	bl	8008334 <_InitOnce.part.0>
 80088aa:	1ce8      	adds	r0, r5, #3
 80088ac:	f020 0103 	bic.w	r1, r0, #3
 80088b0:	6c34      	ldr	r4, [r6, #64]	; 0x40
 80088b2:	6bf0      	ldr	r0, [r6, #60]	; 0x3c
 80088b4:	1d0d      	adds	r5, r1, #4
 80088b6:	42a5      	cmp	r5, r4
 80088b8:	bf38      	it	cc
 80088ba:	4625      	movcc	r5, r4
 80088bc:	b160      	cbz	r0, 80088d8 <GUI_ALLOC_GetFixedBlock+0x40>
 80088be:	f850 3c04 	ldr.w	r3, [r0, #-4]
 80088c2:	429d      	cmp	r5, r3
 80088c4:	4604      	mov	r4, r0
 80088c6:	d104      	bne.n	80088d2 <GUI_ALLOC_GetFixedBlock+0x3a>
 80088c8:	e014      	b.n	80088f4 <GUI_ALLOC_GetFixedBlock+0x5c>
 80088ca:	f854 1c04 	ldr.w	r1, [r4, #-4]
 80088ce:	428d      	cmp	r5, r1
 80088d0:	d010      	beq.n	80088f4 <GUI_ALLOC_GetFixedBlock+0x5c>
 80088d2:	6824      	ldr	r4, [r4, #0]
 80088d4:	2c00      	cmp	r4, #0
 80088d6:	d1f8      	bne.n	80088ca <GUI_ALLOC_GetFixedBlock+0x32>
 80088d8:	6bb2      	ldr	r2, [r6, #56]	; 0x38
 80088da:	68f0      	ldr	r0, [r6, #12]
 80088dc:	1814      	adds	r4, r2, r0
 80088de:	f854 1c04 	ldr.w	r1, [r4, #-4]
 80088e2:	1a61      	subs	r1, r4, r1
 80088e4:	680b      	ldr	r3, [r1, #0]
 80088e6:	b9b3      	cbnz	r3, 8008916 <GUI_ALLOC_GetFixedBlock+0x7e>
 80088e8:	f8d1 8004 	ldr.w	r8, [r1, #4]
 80088ec:	4545      	cmp	r5, r8
 80088ee:	dd1d      	ble.n	800892c <GUI_ALLOC_GetFixedBlock+0x94>
 80088f0:	2400      	movs	r4, #0
 80088f2:	e008      	b.n	8008906 <GUI_ALLOC_GetFixedBlock+0x6e>
 80088f4:	6822      	ldr	r2, [r4, #0]
 80088f6:	b10a      	cbz	r2, 80088fc <GUI_ALLOC_GetFixedBlock+0x64>
 80088f8:	6863      	ldr	r3, [r4, #4]
 80088fa:	6053      	str	r3, [r2, #4]
 80088fc:	6861      	ldr	r1, [r4, #4]
 80088fe:	b101      	cbz	r1, 8008902 <GUI_ALLOC_GetFixedBlock+0x6a>
 8008900:	600a      	str	r2, [r1, #0]
 8008902:	42a0      	cmp	r0, r4
 8008904:	d002      	beq.n	800890c <GUI_ALLOC_GetFixedBlock+0x74>
 8008906:	4620      	mov	r0, r4
 8008908:	e8bd 81f0 	ldmia.w	sp!, {r4, r5, r6, r7, r8, pc}
 800890c:	6820      	ldr	r0, [r4, #0]
 800890e:	63f0      	str	r0, [r6, #60]	; 0x3c
 8008910:	4620      	mov	r0, r4
 8008912:	e8bd 81f0 	ldmia.w	sp!, {r4, r5, r6, r7, r8, pc}
 8008916:	2000      	movs	r0, #0
 8008918:	f7ff fa22 	bl	8007d60 <_RemoveHoles>
 800891c:	f854 2c04 	ldr.w	r2, [r4, #-4]
 8008920:	1aa1      	subs	r1, r4, r2
 8008922:	6808      	ldr	r0, [r1, #0]
 8008924:	2800      	cmp	r0, #0
 8008926:	d0df      	beq.n	80088e8 <GUI_ALLOC_GetFixedBlock+0x50>
 8008928:	2400      	movs	r4, #0
 800892a:	e7ec      	b.n	8008906 <GUI_ALLOC_GetFixedBlock+0x6e>
 800892c:	f8d6 70b8 	ldr.w	r7, [r6, #184]	; 0xb8
 8008930:	4b3e      	ldr	r3, [pc, #248]	; (8008a2c <GUI_ALLOC_GetFixedBlock+0x194>)
 8008932:	ebc5 0008 	rsb	r0, r5, r8
 8008936:	1d04      	adds	r4, r0, #4
 8008938:	45b8      	cmp	r8, r7
 800893a:	440c      	add	r4, r1
 800893c:	d274      	bcs.n	8008a28 <GUI_ALLOC_GetFixedBlock+0x190>
 800893e:	f8d3 20b0 	ldr.w	r2, [r3, #176]	; 0xb0
 8008942:	4590      	cmp	r8, r2
 8008944:	d26e      	bcs.n	8008a24 <GUI_ALLOC_GetFixedBlock+0x18c>
 8008946:	f8d3 70a8 	ldr.w	r7, [r3, #168]	; 0xa8
 800894a:	45b8      	cmp	r8, r7
 800894c:	d268      	bcs.n	8008a20 <GUI_ALLOC_GetFixedBlock+0x188>
 800894e:	f8d3 20a0 	ldr.w	r2, [r3, #160]	; 0xa0
 8008952:	4590      	cmp	r8, r2
 8008954:	d262      	bcs.n	8008a1c <GUI_ALLOC_GetFixedBlock+0x184>
 8008956:	f8d3 7098 	ldr.w	r7, [r3, #152]	; 0x98
 800895a:	45b8      	cmp	r8, r7
 800895c:	d25c      	bcs.n	8008a18 <GUI_ALLOC_GetFixedBlock+0x180>
 800895e:	f8d3 2090 	ldr.w	r2, [r3, #144]	; 0x90
 8008962:	4590      	cmp	r8, r2
 8008964:	d256      	bcs.n	8008a14 <GUI_ALLOC_GetFixedBlock+0x17c>
 8008966:	f8d3 7088 	ldr.w	r7, [r3, #136]	; 0x88
 800896a:	45b8      	cmp	r8, r7
 800896c:	d250      	bcs.n	8008a10 <GUI_ALLOC_GetFixedBlock+0x178>
 800896e:	f8d3 2080 	ldr.w	r2, [r3, #128]	; 0x80
 8008972:	4590      	cmp	r8, r2
 8008974:	d24a      	bcs.n	8008a0c <GUI_ALLOC_GetFixedBlock+0x174>
 8008976:	6f9b      	ldr	r3, [r3, #120]	; 0x78
 8008978:	4598      	cmp	r8, r3
 800897a:	d245      	bcs.n	8008a08 <GUI_ALLOC_GetFixedBlock+0x170>
 800897c:	6f37      	ldr	r7, [r6, #112]	; 0x70
 800897e:	4a2b      	ldr	r2, [pc, #172]	; (8008a2c <GUI_ALLOC_GetFixedBlock+0x194>)
 8008980:	45b8      	cmp	r8, r7
 8008982:	d23f      	bcs.n	8008a04 <GUI_ALLOC_GetFixedBlock+0x16c>
 8008984:	6e93      	ldr	r3, [r2, #104]	; 0x68
 8008986:	4598      	cmp	r8, r3
 8008988:	d23a      	bcs.n	8008a00 <GUI_ALLOC_GetFixedBlock+0x168>
 800898a:	6e17      	ldr	r7, [r2, #96]	; 0x60
 800898c:	45b8      	cmp	r8, r7
 800898e:	d235      	bcs.n	80089fc <GUI_ALLOC_GetFixedBlock+0x164>
 8008990:	6d93      	ldr	r3, [r2, #88]	; 0x58
 8008992:	4598      	cmp	r8, r3
 8008994:	d230      	bcs.n	80089f8 <GUI_ALLOC_GetFixedBlock+0x160>
 8008996:	6d17      	ldr	r7, [r2, #80]	; 0x50
 8008998:	45b8      	cmp	r8, r7
 800899a:	d22b      	bcs.n	80089f4 <GUI_ALLOC_GetFixedBlock+0x15c>
 800899c:	6c93      	ldr	r3, [r2, #72]	; 0x48
 800899e:	4598      	cmp	r8, r3
 80089a0:	d226      	bcs.n	80089f0 <GUI_ALLOC_GetFixedBlock+0x158>
 80089a2:	6c12      	ldr	r2, [r2, #64]	; 0x40
 80089a4:	4590      	cmp	r8, r2
 80089a6:	bf34      	ite	cc
 80089a8:	f04f 32ff 	movcc.w	r2, #4294967295
 80089ac:	2200      	movcs	r2, #0
 80089ae:	6833      	ldr	r3, [r6, #0]
 80089b0:	688f      	ldr	r7, [r1, #8]
 80089b2:	f8d1 c00c 	ldr.w	ip, [r1, #12]
 80089b6:	ebc8 0803 	rsb	r8, r8, r3
 80089ba:	f8c6 8000 	str.w	r8, [r6]
 80089be:	b10f      	cbz	r7, 80089c4 <GUI_ALLOC_GetFixedBlock+0x12c>
 80089c0:	f8c7 c004 	str.w	ip, [r7, #4]
 80089c4:	f1bc 0f00 	cmp.w	ip, #0
 80089c8:	d00e      	beq.n	80089e8 <GUI_ALLOC_GetFixedBlock+0x150>
 80089ca:	f8cc 7000 	str.w	r7, [ip]
 80089ce:	68f2      	ldr	r2, [r6, #12]
 80089d0:	6973      	ldr	r3, [r6, #20]
 80089d2:	1b52      	subs	r2, r2, r5
 80089d4:	18eb      	adds	r3, r5, r3
 80089d6:	60f2      	str	r2, [r6, #12]
 80089d8:	6173      	str	r3, [r6, #20]
 80089da:	b910      	cbnz	r0, 80089e2 <GUI_ALLOC_GetFixedBlock+0x14a>
 80089dc:	f844 5c04 	str.w	r5, [r4, #-4]
 80089e0:	e791      	b.n	8008906 <GUI_ALLOC_GetFixedBlock+0x6e>
 80089e2:	f7ff f815 	bl	8007a10 <_AddFreeMemory>
 80089e6:	e7f9      	b.n	80089dc <GUI_ALLOC_GetFixedBlock+0x144>
 80089e8:	eb06 02c2 	add.w	r2, r6, r2, lsl #3
 80089ec:	6457      	str	r7, [r2, #68]	; 0x44
 80089ee:	e7ee      	b.n	80089ce <GUI_ALLOC_GetFixedBlock+0x136>
 80089f0:	2201      	movs	r2, #1
 80089f2:	e7dc      	b.n	80089ae <GUI_ALLOC_GetFixedBlock+0x116>
 80089f4:	2202      	movs	r2, #2
 80089f6:	e7da      	b.n	80089ae <GUI_ALLOC_GetFixedBlock+0x116>
 80089f8:	2203      	movs	r2, #3
 80089fa:	e7d8      	b.n	80089ae <GUI_ALLOC_GetFixedBlock+0x116>
 80089fc:	2204      	movs	r2, #4
 80089fe:	e7d6      	b.n	80089ae <GUI_ALLOC_GetFixedBlock+0x116>
 8008a00:	2205      	movs	r2, #5
 8008a02:	e7d4      	b.n	80089ae <GUI_ALLOC_GetFixedBlock+0x116>
 8008a04:	2206      	movs	r2, #6
 8008a06:	e7d2      	b.n	80089ae <GUI_ALLOC_GetFixedBlock+0x116>
 8008a08:	2207      	movs	r2, #7
 8008a0a:	e7d0      	b.n	80089ae <GUI_ALLOC_GetFixedBlock+0x116>
 8008a0c:	2208      	movs	r2, #8
 8008a0e:	e7ce      	b.n	80089ae <GUI_ALLOC_GetFixedBlock+0x116>
 8008a10:	2209      	movs	r2, #9
 8008a12:	e7cc      	b.n	80089ae <GUI_ALLOC_GetFixedBlock+0x116>
 8008a14:	220a      	movs	r2, #10
 8008a16:	e7ca      	b.n	80089ae <GUI_ALLOC_GetFixedBlock+0x116>
 8008a18:	220b      	movs	r2, #11
 8008a1a:	e7c8      	b.n	80089ae <GUI_ALLOC_GetFixedBlock+0x116>
 8008a1c:	220c      	movs	r2, #12
 8008a1e:	e7c6      	b.n	80089ae <GUI_ALLOC_GetFixedBlock+0x116>
 8008a20:	220d      	movs	r2, #13
 8008a22:	e7c4      	b.n	80089ae <GUI_ALLOC_GetFixedBlock+0x116>
 8008a24:	220e      	movs	r2, #14
 8008a26:	e7c2      	b.n	80089ae <GUI_ALLOC_GetFixedBlock+0x116>
 8008a28:	220f      	movs	r2, #15
 8008a2a:	e7c0      	b.n	80089ae <GUI_ALLOC_GetFixedBlock+0x116>
 8008a2c:	1ffe9d14 	.word	0x1ffe9d14

08008a30 <GUI_ALLOC_AllocNoInit>:
 8008a30:	b900      	cbnz	r0, 8008a34 <GUI_ALLOC_AllocNoInit+0x4>
 8008a32:	4770      	bx	lr
 8008a34:	f7ff ba82 	b.w	8007f3c <_Alloc>

08008a38 <GUI_ALLOC_LockH>:
 8008a38:	4a07      	ldr	r2, [pc, #28]	; (8008a58 <GUI_ALLOC_LockH+0x20>)
 8008a3a:	69d1      	ldr	r1, [r2, #28]
 8008a3c:	6b53      	ldr	r3, [r2, #52]	; 0x34
 8008a3e:	3101      	adds	r1, #1
 8008a40:	61d1      	str	r1, [r2, #28]
 8008a42:	f813 2030 	ldrb.w	r2, [r3, r0, lsl #3]
 8008a46:	3201      	adds	r2, #1
 8008a48:	eb03 01c0 	add.w	r1, r3, r0, lsl #3
 8008a4c:	f803 2030 	strb.w	r2, [r3, r0, lsl #3]
 8008a50:	b108      	cbz	r0, 8008a56 <GUI_ALLOC_LockH+0x1e>
 8008a52:	6848      	ldr	r0, [r1, #4]
 8008a54:	3008      	adds	r0, #8
 8008a56:	4770      	bx	lr
 8008a58:	1ffe9d14 	.word	0x1ffe9d14

08008a5c <GUI_ALLOC_UnlockH>:
 8008a5c:	b430      	push	{r4, r5}
 8008a5e:	4602      	mov	r2, r0
 8008a60:	4b0a      	ldr	r3, [pc, #40]	; (8008a8c <GUI_ALLOC_UnlockH+0x30>)
 8008a62:	6800      	ldr	r0, [r0, #0]
 8008a64:	6b59      	ldr	r1, [r3, #52]	; 0x34
 8008a66:	f850 0c08 	ldr.w	r0, [r0, #-8]
 8008a6a:	f811 4030 	ldrb.w	r4, [r1, r0, lsl #3]
 8008a6e:	2c01      	cmp	r4, #1
 8008a70:	d903      	bls.n	8008a7a <GUI_ALLOC_UnlockH+0x1e>
 8008a72:	69dd      	ldr	r5, [r3, #28]
 8008a74:	b10d      	cbz	r5, 8008a7a <GUI_ALLOC_UnlockH+0x1e>
 8008a76:	3d01      	subs	r5, #1
 8008a78:	61dd      	str	r5, [r3, #28]
 8008a7a:	2300      	movs	r3, #0
 8008a7c:	3c01      	subs	r4, #1
 8008a7e:	f801 4030 	strb.w	r4, [r1, r0, lsl #3]
 8008a82:	4618      	mov	r0, r3
 8008a84:	6013      	str	r3, [r2, #0]
 8008a86:	bc30      	pop	{r4, r5}
 8008a88:	4770      	bx	lr
 8008a8a:	bf00      	nop
 8008a8c:	1ffe9d14 	.word	0x1ffe9d14

08008a90 <GUI_ALLOC_AssignMemory>:
 8008a90:	f648 2324 	movw	r3, #35364	; 0x8a24
 8008a94:	f6c1 73fe 	movt	r3, #8190	; 0x1ffe
 8008a98:	f021 0103 	bic.w	r1, r1, #3
 8008a9c:	e883 0003 	stmia.w	r3, {r0, r1}
 8008aa0:	4770      	bx	lr
 8008aa2:	bf00      	nop

08008aa4 <GUI_ALLOC_SetAvBlockSize>:
 8008aa4:	2810      	cmp	r0, #16
 8008aa6:	4b06      	ldr	r3, [pc, #24]	; (8008ac0 <GUI_ALLOC_SetAvBlockSize+0x1c>)
 8008aa8:	d906      	bls.n	8008ab8 <GUI_ALLOC_SetAvBlockSize+0x14>
 8008aaa:	685a      	ldr	r2, [r3, #4]
 8008aac:	0851      	lsrs	r1, r2, #1
 8008aae:	4288      	cmp	r0, r1
 8008ab0:	bf28      	it	cs
 8008ab2:	4608      	movcs	r0, r1
 8008ab4:	6098      	str	r0, [r3, #8]
 8008ab6:	4770      	bx	lr
 8008ab8:	2010      	movs	r0, #16
 8008aba:	6098      	str	r0, [r3, #8]
 8008abc:	4770      	bx	lr
 8008abe:	bf00      	nop
 8008ac0:	1ffe8a24 	.word	0x1ffe8a24

08008ac4 <GUI_ALLOC_Free>:
 8008ac4:	b570      	push	{r4, r5, r6, lr}
 8008ac6:	4604      	mov	r4, r0
 8008ac8:	b900      	cbnz	r0, 8008acc <GUI_ALLOC_Free+0x8>
 8008aca:	bd70      	pop	{r4, r5, r6, pc}
 8008acc:	4d0c      	ldr	r5, [pc, #48]	; (8008b00 <GUI_ALLOC_Free+0x3c>)
 8008ace:	6b6b      	ldr	r3, [r5, #52]	; 0x34
 8008ad0:	f813 2030 	ldrb.w	r2, [r3, r0, lsl #3]
 8008ad4:	00c6      	lsls	r6, r0, #3
 8008ad6:	1998      	adds	r0, r3, r6
 8008ad8:	2a00      	cmp	r2, #0
 8008ada:	d0f6      	beq.n	8008aca <GUI_ALLOC_Free+0x6>
 8008adc:	2a01      	cmp	r2, #1
 8008ade:	d8f4      	bhi.n	8008aca <GUI_ALLOC_Free+0x6>
 8008ae0:	6841      	ldr	r1, [r0, #4]
 8008ae2:	6848      	ldr	r0, [r1, #4]
 8008ae4:	f7fe ff94 	bl	8007a10 <_AddFreeMemory>
 8008ae8:	6b6b      	ldr	r3, [r5, #52]	; 0x34
 8008aea:	6869      	ldr	r1, [r5, #4]
 8008aec:	6a6a      	ldr	r2, [r5, #36]	; 0x24
 8008aee:	199e      	adds	r6, r3, r6
 8008af0:	1c48      	adds	r0, r1, #1
 8008af2:	2100      	movs	r1, #0
 8008af4:	6068      	str	r0, [r5, #4]
 8008af6:	6072      	str	r2, [r6, #4]
 8008af8:	f803 1034 	strb.w	r1, [r3, r4, lsl #3]
 8008afc:	626c      	str	r4, [r5, #36]	; 0x24
 8008afe:	e7e4      	b.n	8008aca <GUI_ALLOC_Free+0x6>
 8008b00:	1ffe9d14 	.word	0x1ffe9d14

08008b04 <LCD_Index2Color_M565>:
 8008b04:	f240 5308 	movw	r3, #1288	; 0x508
 8008b08:	b410      	push	{r4}
 8008b0a:	f6c0 0301 	movt	r3, #2049	; 0x801
 8008b0e:	f3c0 24c4 	ubfx	r4, r0, #11, #5
 8008b12:	f000 011f 	and.w	r1, r0, #31
 8008b16:	f240 42c8 	movw	r2, #1224	; 0x4c8
 8008b1a:	f3c0 1045 	ubfx	r0, r0, #5, #6
 8008b1e:	f6c0 0201 	movt	r2, #2049	; 0x801
 8008b22:	5c59      	ldrb	r1, [r3, r1]
 8008b24:	5d1b      	ldrb	r3, [r3, r4]
 8008b26:	5c12      	ldrb	r2, [r2, r0]
 8008b28:	eb03 4001 	add.w	r0, r3, r1, lsl #16
 8008b2c:	eb00 2002 	add.w	r0, r0, r2, lsl #8
 8008b30:	bc10      	pop	{r4}
 8008b32:	4770      	bx	lr

08008b34 <_Color2Index_M565>:
 8008b34:	f240 6328 	movw	r3, #1576	; 0x628
 8008b38:	b410      	push	{r4}
 8008b3a:	f6c0 0301 	movt	r3, #2049	; 0x801
 8008b3e:	f3c0 4407 	ubfx	r4, r0, #16, #8
 8008b42:	b2c1      	uxtb	r1, r0
 8008b44:	f240 5228 	movw	r2, #1320	; 0x528
 8008b48:	f3c0 2007 	ubfx	r0, r0, #8, #8
 8008b4c:	f6c0 0201 	movt	r2, #2049	; 0x801
 8008b50:	5c59      	ldrb	r1, [r3, r1]
 8008b52:	5d1b      	ldrb	r3, [r3, r4]
 8008b54:	5c12      	ldrb	r2, [r2, r0]
 8008b56:	eb03 20c1 	add.w	r0, r3, r1, lsl #11
 8008b5a:	eb00 1042 	add.w	r0, r0, r2, lsl #5
 8008b5e:	bc10      	pop	{r4}
 8008b60:	4770      	bx	lr
 8008b62:	bf00      	nop

08008b64 <_GetIndexMask_M565>:
 8008b64:	f64f 70ff 	movw	r0, #65535	; 0xffff
 8008b68:	4770      	bx	lr
 8008b6a:	bf00      	nop

08008b6c <_Color2IndexBulk>:
 8008b6c:	e92d 4ff8 	stmdb	sp!, {r3, r4, r5, r6, r7, r8, r9, sl, fp, lr}
 8008b70:	4c35      	ldr	r4, [pc, #212]	; (8008c48 <_Color2IndexBulk+0xdc>)
 8008b72:	6824      	ldr	r4, [r4, #0]
 8008b74:	460e      	mov	r6, r1
 8008b76:	4615      	mov	r5, r2
 8008b78:	461f      	mov	r7, r3
 8008b7a:	b114      	cbz	r4, 8008b82 <_Color2IndexBulk+0x16>
 8008b7c:	47a0      	blx	r4
 8008b7e:	e8bd 8ff8 	ldmia.w	sp!, {r3, r4, r5, r6, r7, r8, r9, sl, fp, pc}
 8008b82:	f850 1b04 	ldr.w	r1, [r0], #4
 8008b86:	4c31      	ldr	r4, [pc, #196]	; (8008c4c <_Color2IndexBulk+0xe0>)
 8008b88:	4b31      	ldr	r3, [pc, #196]	; (8008c50 <_Color2IndexBulk+0xe4>)
 8008b8a:	f3c1 4c07 	ubfx	ip, r1, #16, #8
 8008b8e:	fa5f f881 	uxtb.w	r8, r1
 8008b92:	f3c1 2207 	ubfx	r2, r1, #8, #8
 8008b96:	f814 1008 	ldrb.w	r1, [r4, r8]
 8008b9a:	f814 800c 	ldrb.w	r8, [r4, ip]
 8008b9e:	f813 c002 	ldrb.w	ip, [r3, r2]
 8008ba2:	1e6a      	subs	r2, r5, #1
 8008ba4:	eb08 25c1 	add.w	r5, r8, r1, lsl #11
 8008ba8:	eb05 114c 	add.w	r1, r5, ip, lsl #5
 8008bac:	4615      	mov	r5, r2
 8008bae:	8031      	strh	r1, [r6, #0]
 8008bb0:	f002 0201 	and.w	r2, r2, #1
 8008bb4:	19f1      	adds	r1, r6, r7
 8008bb6:	2d00      	cmp	r5, #0
 8008bb8:	d041      	beq.n	8008c3e <_Color2IndexBulk+0xd2>
 8008bba:	b1a2      	cbz	r2, 8008be6 <_Color2IndexBulk+0x7a>
 8008bbc:	f850 6b04 	ldr.w	r6, [r0], #4
 8008bc0:	fa5f f886 	uxtb.w	r8, r6
 8008bc4:	f3c6 4c07 	ubfx	ip, r6, #16, #8
 8008bc8:	f3c6 2607 	ubfx	r6, r6, #8, #8
 8008bcc:	f814 2008 	ldrb.w	r2, [r4, r8]
 8008bd0:	f814 c00c 	ldrb.w	ip, [r4, ip]
 8008bd4:	5d9e      	ldrb	r6, [r3, r6]
 8008bd6:	eb0c 22c2 	add.w	r2, ip, r2, lsl #11
 8008bda:	eb02 1246 	add.w	r2, r2, r6, lsl #5
 8008bde:	3d01      	subs	r5, #1
 8008be0:	800a      	strh	r2, [r1, #0]
 8008be2:	4439      	add	r1, r7
 8008be4:	d02d      	beq.n	8008c42 <_Color2IndexBulk+0xd6>
 8008be6:	4602      	mov	r2, r0
 8008be8:	6840      	ldr	r0, [r0, #4]
 8008bea:	f852 6b04 	ldr.w	r6, [r2], #4
 8008bee:	fa5f f886 	uxtb.w	r8, r6
 8008bf2:	f3c6 4a07 	ubfx	sl, r6, #16, #8
 8008bf6:	fa5f f980 	uxtb.w	r9, r0
 8008bfa:	f3c0 4c07 	ubfx	ip, r0, #16, #8
 8008bfe:	f3c6 2607 	ubfx	r6, r6, #8, #8
 8008c02:	f3c0 2b07 	ubfx	fp, r0, #8, #8
 8008c06:	f814 8008 	ldrb.w	r8, [r4, r8]
 8008c0a:	f814 a00a 	ldrb.w	sl, [r4, sl]
 8008c0e:	f814 000c 	ldrb.w	r0, [r4, ip]
 8008c12:	5d9e      	ldrb	r6, [r3, r6]
 8008c14:	f814 9009 	ldrb.w	r9, [r4, r9]
 8008c18:	f813 c00b 	ldrb.w	ip, [r3, fp]
 8008c1c:	eb0a 28c8 	add.w	r8, sl, r8, lsl #11
 8008c20:	eb00 29c9 	add.w	r9, r0, r9, lsl #11
 8008c24:	eb08 1046 	add.w	r0, r8, r6, lsl #5
 8008c28:	8008      	strh	r0, [r1, #0]
 8008c2a:	eb09 164c 	add.w	r6, r9, ip, lsl #5
 8008c2e:	1d10      	adds	r0, r2, #4
 8008c30:	3d02      	subs	r5, #2
 8008c32:	53ce      	strh	r6, [r1, r7]
 8008c34:	eb01 0147 	add.w	r1, r1, r7, lsl #1
 8008c38:	d1d5      	bne.n	8008be6 <_Color2IndexBulk+0x7a>
 8008c3a:	e8bd 8ff8 	ldmia.w	sp!, {r3, r4, r5, r6, r7, r8, r9, sl, fp, pc}
 8008c3e:	e8bd 8ff8 	ldmia.w	sp!, {r3, r4, r5, r6, r7, r8, r9, sl, fp, pc}
 8008c42:	e8bd 8ff8 	ldmia.w	sp!, {r3, r4, r5, r6, r7, r8, r9, sl, fp, pc}
 8008c46:	bf00      	nop
 8008c48:	1ffe8a38 	.word	0x1ffe8a38
 8008c4c:	08010628 	.word	0x08010628
 8008c50:	08010528 	.word	0x08010528

08008c54 <_Index2ColorBulk>:
 8008c54:	e92d 43f8 	stmdb	sp!, {r3, r4, r5, r6, r7, r8, r9, lr}
 8008c58:	4c2a      	ldr	r4, [pc, #168]	; (8008d04 <_Index2ColorBulk+0xb0>)
 8008c5a:	6864      	ldr	r4, [r4, #4]
 8008c5c:	4607      	mov	r7, r0
 8008c5e:	460e      	mov	r6, r1
 8008c60:	461d      	mov	r5, r3
 8008c62:	b114      	cbz	r4, 8008c6a <_Index2ColorBulk+0x16>
 8008c64:	47a0      	blx	r4
 8008c66:	e8bd 83f8 	ldmia.w	sp!, {r3, r4, r5, r6, r7, r8, r9, pc}
 8008c6a:	f102 32ff 	add.w	r2, r2, #4294967295
 8008c6e:	fb02 0003 	mla	r0, r2, r3, r0
 8008c72:	425b      	negs	r3, r3
 8008c74:	07d5      	lsls	r5, r2, #31
 8008c76:	eb01 0182 	add.w	r1, r1, r2, lsl #2
 8008c7a:	4c23      	ldr	r4, [pc, #140]	; (8008d08 <_Index2ColorBulk+0xb4>)
 8008c7c:	4e23      	ldr	r6, [pc, #140]	; (8008d0c <_Index2ColorBulk+0xb8>)
 8008c7e:	d52a      	bpl.n	8008cd6 <_Index2ColorBulk+0x82>
 8008c80:	8805      	ldrh	r5, [r0, #0]
 8008c82:	f005 081f 	and.w	r8, r5, #31
 8008c86:	ea4f 2cd5 	mov.w	ip, r5, lsr #11
 8008c8a:	f3c5 1745 	ubfx	r7, r5, #5, #6
 8008c8e:	f814 5008 	ldrb.w	r5, [r4, r8]
 8008c92:	f814 800c 	ldrb.w	r8, [r4, ip]
 8008c96:	5df7      	ldrb	r7, [r6, r7]
 8008c98:	eb08 4505 	add.w	r5, r8, r5, lsl #16
 8008c9c:	eb05 2707 	add.w	r7, r5, r7, lsl #8
 8008ca0:	f841 7904 	str.w	r7, [r1], #-4
 8008ca4:	18c0      	adds	r0, r0, r3
 8008ca6:	3a01      	subs	r2, #1
 8008ca8:	e015      	b.n	8008cd6 <_Index2ColorBulk+0x82>
 8008caa:	5ac0      	ldrh	r0, [r0, r3]
 8008cac:	ea4f 28d0 	mov.w	r8, r0, lsr #11
 8008cb0:	f000 091f 	and.w	r9, r0, #31
 8008cb4:	f3c0 1c45 	ubfx	ip, r0, #5, #6
 8008cb8:	f814 8008 	ldrb.w	r8, [r4, r8]
 8008cbc:	f814 0009 	ldrb.w	r0, [r4, r9]
 8008cc0:	f816 c00c 	ldrb.w	ip, [r6, ip]
 8008cc4:	eb08 4000 	add.w	r0, r8, r0, lsl #16
 8008cc8:	eb00 200c 	add.w	r0, r0, ip, lsl #8
 8008ccc:	f841 0c04 	str.w	r0, [r1, #-4]
 8008cd0:	3a02      	subs	r2, #2
 8008cd2:	18f8      	adds	r0, r7, r3
 8008cd4:	1f29      	subs	r1, r5, #4
 8008cd6:	8805      	ldrh	r5, [r0, #0]
 8008cd8:	f005 0c1f 	and.w	ip, r5, #31
 8008cdc:	0aef      	lsrs	r7, r5, #11
 8008cde:	f3c5 1545 	ubfx	r5, r5, #5, #6
 8008ce2:	f814 800c 	ldrb.w	r8, [r4, ip]
 8008ce6:	5de7      	ldrb	r7, [r4, r7]
 8008ce8:	f816 c005 	ldrb.w	ip, [r6, r5]
 8008cec:	eb07 4708 	add.w	r7, r7, r8, lsl #16
 8008cf0:	460d      	mov	r5, r1
 8008cf2:	eb07 270c 	add.w	r7, r7, ip, lsl #8
 8008cf6:	f845 7904 	str.w	r7, [r5], #-4
 8008cfa:	18c7      	adds	r7, r0, r3
 8008cfc:	2a00      	cmp	r2, #0
 8008cfe:	d1d4      	bne.n	8008caa <_Index2ColorBulk+0x56>
 8008d00:	e8bd 83f8 	ldmia.w	sp!, {r3, r4, r5, r6, r7, r8, r9, pc}
 8008d04:	1ffe8a38 	.word	0x1ffe8a38
 8008d08:	08010508 	.word	0x08010508
 8008d0c:	080104c8 	.word	0x080104c8

08008d10 <_GetDevData>:
 8008d10:	f64f 00c0 	movw	r0, #63680	; 0xf8c0
 8008d14:	f6c0 0000 	movt	r0, #2048	; 0x800
 8008d18:	2901      	cmp	r1, #1
 8008d1a:	bf18      	it	ne
 8008d1c:	2000      	movne	r0, #0
 8008d1e:	4770      	bx	lr

08008d20 <_GetDevFunc>:
 8008d20:	f64b 3059 	movw	r0, #47961	; 0xbb59
 8008d24:	f6c0 0000 	movt	r0, #2048	; 0x800
 8008d28:	2916      	cmp	r1, #22
 8008d2a:	bf18      	it	ne
 8008d2c:	2000      	movne	r0, #0
 8008d2e:	4770      	bx	lr

08008d30 <_SetOrg>:
 8008d30:	6800      	ldr	r0, [r0, #0]
 8008d32:	b508      	push	{r3, lr}
 8008d34:	b110      	cbz	r0, 8008d3c <_SetOrg+0xc>
 8008d36:	68c3      	ldr	r3, [r0, #12]
 8008d38:	6a1b      	ldr	r3, [r3, #32]
 8008d3a:	4798      	blx	r3
 8008d3c:	bd08      	pop	{r3, pc}
 8008d3e:	bf00      	nop

08008d40 <_GetDevProp>:
 8008d40:	6800      	ldr	r0, [r0, #0]
 8008d42:	b508      	push	{r3, lr}
 8008d44:	b118      	cbz	r0, 8008d4e <_GetDevProp+0xe>
 8008d46:	68c3      	ldr	r3, [r0, #12]
 8008d48:	6a9a      	ldr	r2, [r3, #40]	; 0x28
 8008d4a:	4790      	blx	r2
 8008d4c:	bd08      	pop	{r3, pc}
 8008d4e:	f04f 30ff 	mov.w	r0, #4294967295
 8008d52:	bd08      	pop	{r3, pc}

08008d54 <_GetRect>:
 8008d54:	b570      	push	{r4, r5, r6, lr}
 8008d56:	b082      	sub	sp, #8
 8008d58:	6880      	ldr	r0, [r0, #8]
 8008d5a:	460c      	mov	r4, r1
 8008d5c:	f7ff fe6c 	bl	8008a38 <GUI_ALLOC_LockH>
 8008d60:	4603      	mov	r3, r0
 8008d62:	a802      	add	r0, sp, #8
 8008d64:	8899      	ldrh	r1, [r3, #4]
 8008d66:	88da      	ldrh	r2, [r3, #6]
 8008d68:	891d      	ldrh	r5, [r3, #8]
 8008d6a:	895e      	ldrh	r6, [r3, #10]
 8008d6c:	f840 3d04 	str.w	r3, [r0, #-4]!
 8008d70:	194d      	adds	r5, r1, r5
 8008d72:	1993      	adds	r3, r2, r6
 8008d74:	3d01      	subs	r5, #1
 8008d76:	3b01      	subs	r3, #1
 8008d78:	8021      	strh	r1, [r4, #0]
 8008d7a:	8062      	strh	r2, [r4, #2]
 8008d7c:	80a5      	strh	r5, [r4, #4]
 8008d7e:	80e3      	strh	r3, [r4, #6]
 8008d80:	f7ff fe6c 	bl	8008a5c <GUI_ALLOC_UnlockH>
 8008d84:	b002      	add	sp, #8
 8008d86:	bd70      	pop	{r4, r5, r6, pc}

08008d88 <_DrawBitmap>:
 8008d88:	e92d 4ff0 	stmdb	sp!, {r4, r5, r6, r7, r8, r9, sl, fp, lr}
 8008d8c:	f648 0608 	movw	r6, #34824	; 0x8808
 8008d90:	f6c1 76fe 	movt	r6, #8190	; 0x1ffe
 8008d94:	b09f      	sub	sp, #124	; 0x7c
 8008d96:	6834      	ldr	r4, [r6, #0]
 8008d98:	9013      	str	r0, [sp, #76]	; 0x4c
 8008d9a:	6ca0      	ldr	r0, [r4, #72]	; 0x48
 8008d9c:	9d28      	ldr	r5, [sp, #160]	; 0xa0
 8008d9e:	930a      	str	r3, [sp, #40]	; 0x28
 8008da0:	460c      	mov	r4, r1
 8008da2:	4616      	mov	r6, r2
 8008da4:	f7ff fe48 	bl	8008a38 <GUI_ALLOC_LockH>
 8008da8:	901b      	str	r0, [sp, #108]	; 0x6c
 8008daa:	6940      	ldr	r0, [r0, #20]
 8008dac:	2800      	cmp	r0, #0
 8008dae:	f040 8291 	bne.w	80092d4 <_DrawBitmap+0x54c>
 8008db2:	af1e      	add	r7, sp, #120	; 0x78
 8008db4:	901c      	str	r0, [sp, #112]	; 0x70
 8008db6:	f857 3d0c 	ldr.w	r3, [r7, #-12]!
 8008dba:	68d9      	ldr	r1, [r3, #12]
 8008dbc:	9711      	str	r7, [sp, #68]	; 0x44
 8008dbe:	4638      	mov	r0, r7
 8008dc0:	910c      	str	r1, [sp, #48]	; 0x30
 8008dc2:	f7ff fe4b 	bl	8008a5c <GUI_ALLOC_UnlockH>
 8008dc6:	9a2c      	ldr	r2, [sp, #176]	; 0xb0
 8008dc8:	981c      	ldr	r0, [sp, #112]	; 0x70
 8008dca:	18a4      	adds	r4, r4, r2
 8008dcc:	9409      	str	r4, [sp, #36]	; 0x24
 8008dce:	2800      	cmp	r0, #0
 8008dd0:	f000 87af 	beq.w	8009d32 <_DrawBitmap+0xfaa>
 8008dd4:	f648 0e08 	movw	lr, #34824	; 0x8808
 8008dd8:	f6c1 7efe 	movt	lr, #8190	; 0x1ffe
 8008ddc:	f8de 3000 	ldr.w	r3, [lr]
 8008de0:	7c1f      	ldrb	r7, [r3, #16]
 8008de2:	07bc      	lsls	r4, r7, #30
 8008de4:	f000 830c 	beq.w	8009400 <_DrawBitmap+0x678>
 8008de8:	6c98      	ldr	r0, [r3, #72]	; 0x48
 8008dea:	f7ff fe25 	bl	8008a38 <GUI_ALLOC_LockH>
 8008dee:	4602      	mov	r2, r0
 8008df0:	a81e      	add	r0, sp, #120	; 0x78
 8008df2:	f9b2 4006 	ldrsh.w	r4, [r2, #6]
 8008df6:	68d1      	ldr	r1, [r2, #12]
 8008df8:	f9b2 9004 	ldrsh.w	r9, [r2, #4]
 8008dfc:	f840 2d04 	str.w	r2, [r0, #-4]!
 8008e00:	f102 0718 	add.w	r7, r2, #24
 8008e04:	1b33      	subs	r3, r6, r4
 8008e06:	fb01 7203 	mla	r2, r1, r3, r7
 8008e0a:	9909      	ldr	r1, [sp, #36]	; 0x24
 8008e0c:	ebc9 0901 	rsb	r9, r9, r1
 8008e10:	eb02 0749 	add.w	r7, r2, r9, lsl #1
 8008e14:	9705      	str	r7, [sp, #20]
 8008e16:	f7ff fe21 	bl	8008a5c <GUI_ALLOC_UnlockH>
 8008e1a:	9f29      	ldr	r7, [sp, #164]	; 0xa4
 8008e1c:	2f10      	cmp	r7, #16
 8008e1e:	f000 825c 	beq.w	80092da <_DrawBitmap+0x552>
 8008e22:	2f17      	cmp	r7, #23
 8008e24:	f340 8092 	ble.w	8008f4c <_DrawBitmap+0x1c4>
 8008e28:	2d00      	cmp	r5, #0
 8008e2a:	9c1c      	ldr	r4, [sp, #112]	; 0x70
 8008e2c:	f340 8087 	ble.w	8008f3e <_DrawBitmap+0x1b6>
 8008e30:	9f2b      	ldr	r7, [sp, #172]	; 0xac
 8008e32:	f8dd 904c 	ldr.w	r9, [sp, #76]	; 0x4c
 8008e36:	f107 0804 	add.w	r8, r7, #4
 8008e3a:	1975      	adds	r5, r6, r5
 8008e3c:	9506      	str	r5, [sp, #24]
 8008e3e:	f8cd 8010 	str.w	r8, [sp, #16]
 8008e42:	9a04      	ldr	r2, [sp, #16]
 8008e44:	2a04      	cmp	r2, #4
 8008e46:	d06b      	beq.n	8008f20 <_DrawBitmap+0x198>
 8008e48:	9805      	ldr	r0, [sp, #20]
 8008e4a:	2800      	cmp	r0, #0
 8008e4c:	d068      	beq.n	8008f20 <_DrawBitmap+0x198>
 8008e4e:	2c00      	cmp	r4, #0
 8008e50:	f000 811a 	beq.w	8009088 <_DrawBitmap+0x300>
 8008e54:	68a7      	ldr	r7, [r4, #8]
 8008e56:	9b0a      	ldr	r3, [sp, #40]	; 0x28
 8008e58:	687d      	ldr	r5, [r7, #4]
 8008e5a:	9909      	ldr	r1, [sp, #36]	; 0x24
 8008e5c:	4632      	mov	r2, r6
 8008e5e:	4620      	mov	r0, r4
 8008e60:	47a8      	blx	r5
 8008e62:	f8d9 2010 	ldr.w	r2, [r9, #16]
 8008e66:	f8dd b010 	ldr.w	fp, [sp, #16]
 8008e6a:	6811      	ldr	r1, [r2, #0]
 8008e6c:	f85b 0c04 	ldr.w	r0, [fp, #-4]
 8008e70:	4788      	blx	r1
 8008e72:	9d05      	ldr	r5, [sp, #20]
 8008e74:	68a3      	ldr	r3, [r4, #8]
 8008e76:	f825 0b02 	strh.w	r0, [r5], #2
 8008e7a:	980a      	ldr	r0, [sp, #40]	; 0x28
 8008e7c:	681b      	ldr	r3, [r3, #0]
 8008e7e:	9909      	ldr	r1, [sp, #36]	; 0x24
 8008e80:	f100 37ff 	add.w	r7, r0, #4294967295
 8008e84:	4632      	mov	r2, r6
 8008e86:	4620      	mov	r0, r4
 8008e88:	4798      	blx	r3
 8008e8a:	9a09      	ldr	r2, [sp, #36]	; 0x24
 8008e8c:	f8dd 8010 	ldr.w	r8, [sp, #16]
 8008e90:	46ba      	mov	sl, r7
 8008e92:	f007 0b01 	and.w	fp, r7, #1
 8008e96:	f108 0804 	add.w	r8, r8, #4
 8008e9a:	1c57      	adds	r7, r2, #1
 8008e9c:	f1ba 0f00 	cmp.w	sl, #0
 8008ea0:	d03d      	beq.n	8008f1e <_DrawBitmap+0x196>
 8008ea2:	f1bb 0f00 	cmp.w	fp, #0
 8008ea6:	d013      	beq.n	8008ed0 <_DrawBitmap+0x148>
 8008ea8:	f8d9 1010 	ldr.w	r1, [r9, #16]
 8008eac:	f858 0c04 	ldr.w	r0, [r8, #-4]
 8008eb0:	680b      	ldr	r3, [r1, #0]
 8008eb2:	4798      	blx	r3
 8008eb4:	68a2      	ldr	r2, [r4, #8]
 8008eb6:	f825 0b02 	strh.w	r0, [r5], #2
 8008eba:	4639      	mov	r1, r7
 8008ebc:	6813      	ldr	r3, [r2, #0]
 8008ebe:	4620      	mov	r0, r4
 8008ec0:	4632      	mov	r2, r6
 8008ec2:	4798      	blx	r3
 8008ec4:	3701      	adds	r7, #1
 8008ec6:	f1ba 0a01 	subs.w	sl, sl, #1
 8008eca:	f108 0804 	add.w	r8, r8, #4
 8008ece:	d026      	beq.n	8008f1e <_DrawBitmap+0x196>
 8008ed0:	f8d9 1010 	ldr.w	r1, [r9, #16]
 8008ed4:	f858 0c04 	ldr.w	r0, [r8, #-4]
 8008ed8:	680a      	ldr	r2, [r1, #0]
 8008eda:	4790      	blx	r2
 8008edc:	46ab      	mov	fp, r5
 8008ede:	68a3      	ldr	r3, [r4, #8]
 8008ee0:	f82b 0b02 	strh.w	r0, [fp], #2
 8008ee4:	4639      	mov	r1, r7
 8008ee6:	681b      	ldr	r3, [r3, #0]
 8008ee8:	4632      	mov	r2, r6
 8008eea:	4620      	mov	r0, r4
 8008eec:	4798      	blx	r3
 8008eee:	f8d9 1010 	ldr.w	r1, [r9, #16]
 8008ef2:	f858 0b04 	ldr.w	r0, [r8], #4
 8008ef6:	680a      	ldr	r2, [r1, #0]
 8008ef8:	4790      	blx	r2
 8008efa:	68a3      	ldr	r3, [r4, #8]
 8008efc:	8068      	strh	r0, [r5, #2]
 8008efe:	1c7d      	adds	r5, r7, #1
 8008f00:	4629      	mov	r1, r5
 8008f02:	681f      	ldr	r7, [r3, #0]
 8008f04:	4620      	mov	r0, r4
 8008f06:	4632      	mov	r2, r6
 8008f08:	f10a 3aff 	add.w	sl, sl, #4294967295
 8008f0c:	47b8      	blx	r7
 8008f0e:	1c6f      	adds	r7, r5, #1
 8008f10:	f1ba 0a01 	subs.w	sl, sl, #1
 8008f14:	f10b 0502 	add.w	r5, fp, #2
 8008f18:	f108 0804 	add.w	r8, r8, #4
 8008f1c:	d1d8      	bne.n	8008ed0 <_DrawBitmap+0x148>
 8008f1e:	9c1c      	ldr	r4, [sp, #112]	; 0x70
 8008f20:	9805      	ldr	r0, [sp, #20]
 8008f22:	f8dd e010 	ldr.w	lr, [sp, #16]
 8008f26:	9f0c      	ldr	r7, [sp, #48]	; 0x30
 8008f28:	9a2a      	ldr	r2, [sp, #168]	; 0xa8
 8008f2a:	9d06      	ldr	r5, [sp, #24]
 8008f2c:	3601      	adds	r6, #1
 8008f2e:	19c1      	adds	r1, r0, r7
 8008f30:	eb0e 0c02 	add.w	ip, lr, r2
 8008f34:	42ae      	cmp	r6, r5
 8008f36:	9105      	str	r1, [sp, #20]
 8008f38:	f8cd c010 	str.w	ip, [sp, #16]
 8008f3c:	d181      	bne.n	8008e42 <_DrawBitmap+0xba>
 8008f3e:	b114      	cbz	r4, 8008f46 <_DrawBitmap+0x1be>
 8008f40:	a81c      	add	r0, sp, #112	; 0x70
 8008f42:	f7ff fd8b 	bl	8008a5c <GUI_ALLOC_UnlockH>
 8008f46:	b01f      	add	sp, #124	; 0x7c
 8008f48:	e8bd 8ff0 	ldmia.w	sp!, {r4, r5, r6, r7, r8, r9, sl, fp, pc}
 8008f4c:	2f08      	cmp	r7, #8
 8008f4e:	f000 86ff 	beq.w	8009d50 <_DrawBitmap+0xfc8>
 8008f52:	48a0      	ldr	r0, [pc, #640]	; (80091d4 <_DrawBitmap+0x44c>)
 8008f54:	9f2d      	ldr	r7, [sp, #180]	; 0xb4
 8008f56:	2f00      	cmp	r7, #0
 8008f58:	bf08      	it	eq
 8008f5a:	4607      	moveq	r7, r0
 8008f5c:	2d00      	cmp	r5, #0
 8008f5e:	970d      	str	r7, [sp, #52]	; 0x34
 8008f60:	f340 8249 	ble.w	80093f6 <_DrawBitmap+0x66e>
 8008f64:	9604      	str	r6, [sp, #16]
 8008f66:	9e2c      	ldr	r6, [sp, #176]	; 0xb0
 8008f68:	9f2b      	ldr	r7, [sp, #172]	; 0xac
 8008f6a:	f8dd e010 	ldr.w	lr, [sp, #16]
 8008f6e:	0071      	lsls	r1, r6, #1
 8008f70:	f1c6 0204 	rsb	r2, r6, #4
 8008f74:	f1c6 0302 	rsb	r3, r6, #2
 8008f78:	ea4f 0c86 	mov.w	ip, r6, lsl #2
 8008f7c:	9e05      	ldr	r6, [sp, #20]
 8008f7e:	9114      	str	r1, [sp, #80]	; 0x50
 8008f80:	1c78      	adds	r0, r7, #1
 8008f82:	1cb1      	adds	r1, r6, #2
 8008f84:	4475      	add	r5, lr
 8008f86:	b2d2      	uxtb	r2, r2
 8008f88:	b2db      	uxtb	r3, r3
 8008f8a:	f8cd c054 	str.w	ip, [sp, #84]	; 0x54
 8008f8e:	900e      	str	r0, [sp, #56]	; 0x38
 8008f90:	910f      	str	r1, [sp, #60]	; 0x3c
 8008f92:	9512      	str	r5, [sp, #72]	; 0x48
 8008f94:	9216      	str	r2, [sp, #88]	; 0x58
 8008f96:	9317      	str	r3, [sp, #92]	; 0x5c
 8008f98:	e019      	b.n	8008fce <_DrawBitmap+0x246>
 8008f9a:	2804      	cmp	r0, #4
 8008f9c:	f000 811c 	beq.w	80091d8 <_DrawBitmap+0x450>
 8008fa0:	2801      	cmp	r0, #1
 8008fa2:	f000 80ab 	beq.w	80090fc <_DrawBitmap+0x374>
 8008fa6:	9804      	ldr	r0, [sp, #16]
 8008fa8:	9e2a      	ldr	r6, [sp, #168]	; 0xa8
 8008faa:	992b      	ldr	r1, [sp, #172]	; 0xac
 8008fac:	9d0e      	ldr	r5, [sp, #56]	; 0x38
 8008fae:	9a0f      	ldr	r2, [sp, #60]	; 0x3c
 8008fb0:	1c43      	adds	r3, r0, #1
 8008fb2:	198f      	adds	r7, r1, r6
 8008fb4:	9304      	str	r3, [sp, #16]
 8008fb6:	972b      	str	r7, [sp, #172]	; 0xac
 8008fb8:	f8dd c010 	ldr.w	ip, [sp, #16]
 8008fbc:	9812      	ldr	r0, [sp, #72]	; 0x48
 8008fbe:	19af      	adds	r7, r5, r6
 8008fc0:	9d0c      	ldr	r5, [sp, #48]	; 0x30
 8008fc2:	970e      	str	r7, [sp, #56]	; 0x38
 8008fc4:	1956      	adds	r6, r2, r5
 8008fc6:	4584      	cmp	ip, r0
 8008fc8:	960f      	str	r6, [sp, #60]	; 0x3c
 8008fca:	f000 8214 	beq.w	80093f6 <_DrawBitmap+0x66e>
 8008fce:	9829      	ldr	r0, [sp, #164]	; 0xa4
 8008fd0:	9f0f      	ldr	r7, [sp, #60]	; 0x3c
 8008fd2:	2802      	cmp	r0, #2
 8008fd4:	f1a7 0c02 	sub.w	ip, r7, #2
 8008fd8:	d1df      	bne.n	8008f9a <_DrawBitmap+0x212>
 8008fda:	f648 0408 	movw	r4, #34824	; 0x8808
 8008fde:	f6c1 74fe 	movt	r4, #8190	; 0x1ffe
 8008fe2:	9d0e      	ldr	r5, [sp, #56]	; 0x38
 8008fe4:	6820      	ldr	r0, [r4, #0]
 8008fe6:	f815 2c01 	ldrb.w	r2, [r5, #-1]
 8008fea:	7c03      	ldrb	r3, [r0, #16]
 8008fec:	9e14      	ldr	r6, [sp, #80]	; 0x50
 8008fee:	9f1c      	ldr	r7, [sp, #112]	; 0x70
 8008ff0:	9c16      	ldr	r4, [sp, #88]	; 0x58
 8008ff2:	f003 0103 	and.w	r1, r3, #3
 8008ff6:	fa02 f206 	lsl.w	r2, r2, r6
 8008ffa:	2901      	cmp	r1, #1
 8008ffc:	b2d5      	uxtb	r5, r2
 8008ffe:	f000 8640 	beq.w	8009c82 <_DrawBitmap+0xefa>
 8009002:	f080 8206 	bcs.w	8009412 <_DrawBitmap+0x68a>
 8009006:	9f2b      	ldr	r7, [sp, #172]	; 0xac
 8009008:	9e0a      	ldr	r6, [sp, #40]	; 0x28
 800900a:	f8dd 8034 	ldr.w	r8, [sp, #52]	; 0x34
 800900e:	42b4      	cmp	r4, r6
 8009010:	bfc8      	it	gt
 8009012:	b2f4      	uxtbgt	r4, r6
 8009014:	09a9      	lsrs	r1, r5, #6
 8009016:	4663      	mov	r3, ip
 8009018:	f858 1021 	ldr.w	r1, [r8, r1, lsl #2]
 800901c:	1e60      	subs	r0, r4, #1
 800901e:	00ad      	lsls	r5, r5, #2
 8009020:	f823 1b02 	strh.w	r1, [r3], #2
 8009024:	f000 0101 	and.w	r1, r0, #1
 8009028:	f010 00ff 	ands.w	r0, r0, #255	; 0xff
 800902c:	ebc4 0606 	rsb	r6, r4, r6
 8009030:	b2ea      	uxtb	r2, r5
 8009032:	d01e      	beq.n	8009072 <_DrawBitmap+0x2ea>
 8009034:	b151      	cbz	r1, 800904c <_DrawBitmap+0x2c4>
 8009036:	0995      	lsrs	r5, r2, #6
 8009038:	3801      	subs	r0, #1
 800903a:	f858 1025 	ldr.w	r1, [r8, r5, lsl #2]
 800903e:	0092      	lsls	r2, r2, #2
 8009040:	f010 00ff 	ands.w	r0, r0, #255	; 0xff
 8009044:	f823 1b02 	strh.w	r1, [r3], #2
 8009048:	b2d2      	uxtb	r2, r2
 800904a:	d012      	beq.n	8009072 <_DrawBitmap+0x2ea>
 800904c:	0995      	lsrs	r5, r2, #6
 800904e:	0091      	lsls	r1, r2, #2
 8009050:	b2ca      	uxtb	r2, r1
 8009052:	f858 9025 	ldr.w	r9, [r8, r5, lsl #2]
 8009056:	4619      	mov	r1, r3
 8009058:	0995      	lsrs	r5, r2, #6
 800905a:	f821 9b02 	strh.w	r9, [r1], #2
 800905e:	f858 5025 	ldr.w	r5, [r8, r5, lsl #2]
 8009062:	3802      	subs	r0, #2
 8009064:	0092      	lsls	r2, r2, #2
 8009066:	805d      	strh	r5, [r3, #2]
 8009068:	1c8b      	adds	r3, r1, #2
 800906a:	f010 00ff 	ands.w	r0, r0, #255	; 0xff
 800906e:	b2d2      	uxtb	r2, r2
 8009070:	d1ec      	bne.n	800904c <_DrawBitmap+0x2c4>
 8009072:	1e63      	subs	r3, r4, #1
 8009074:	b2d9      	uxtb	r1, r3
 8009076:	1c4d      	adds	r5, r1, #1
 8009078:	eb0c 0c45 	add.w	ip, ip, r5, lsl #1
 800907c:	2e00      	cmp	r6, #0
 800907e:	d092      	beq.n	8008fa6 <_DrawBitmap+0x21e>
 8009080:	f817 5f01 	ldrb.w	r5, [r7, #1]!
 8009084:	2404      	movs	r4, #4
 8009086:	e7c2      	b.n	800900e <_DrawBitmap+0x286>
 8009088:	f8d9 4010 	ldr.w	r4, [r9, #16]
 800908c:	9d04      	ldr	r5, [sp, #16]
 800908e:	6821      	ldr	r1, [r4, #0]
 8009090:	f855 0c04 	ldr.w	r0, [r5, #-4]
 8009094:	4788      	blx	r1
 8009096:	9b0a      	ldr	r3, [sp, #40]	; 0x28
 8009098:	9c05      	ldr	r4, [sp, #20]
 800909a:	1e5f      	subs	r7, r3, #1
 800909c:	46ba      	mov	sl, r7
 800909e:	f007 0201 	and.w	r2, r7, #1
 80090a2:	f824 0b02 	strh.w	r0, [r4], #2
 80090a6:	1d2f      	adds	r7, r5, #4
 80090a8:	f1ba 0f00 	cmp.w	sl, #0
 80090ac:	f43f af37 	beq.w	8008f1e <_DrawBitmap+0x196>
 80090b0:	b162      	cbz	r2, 80090cc <_DrawBitmap+0x344>
 80090b2:	f8d9 5010 	ldr.w	r5, [r9, #16]
 80090b6:	f857 0c04 	ldr.w	r0, [r7, #-4]
 80090ba:	6829      	ldr	r1, [r5, #0]
 80090bc:	4788      	blx	r1
 80090be:	3704      	adds	r7, #4
 80090c0:	f1ba 0a01 	subs.w	sl, sl, #1
 80090c4:	f824 0b02 	strh.w	r0, [r4], #2
 80090c8:	f43f af29 	beq.w	8008f1e <_DrawBitmap+0x196>
 80090cc:	f8d9 3010 	ldr.w	r3, [r9, #16]
 80090d0:	f857 0c04 	ldr.w	r0, [r7, #-4]
 80090d4:	681a      	ldr	r2, [r3, #0]
 80090d6:	4790      	blx	r2
 80090d8:	4625      	mov	r5, r4
 80090da:	f8d9 1010 	ldr.w	r1, [r9, #16]
 80090de:	f825 0b02 	strh.w	r0, [r5], #2
 80090e2:	680b      	ldr	r3, [r1, #0]
 80090e4:	f857 0b04 	ldr.w	r0, [r7], #4
 80090e8:	4798      	blx	r3
 80090ea:	f10a 3aff 	add.w	sl, sl, #4294967295
 80090ee:	8060      	strh	r0, [r4, #2]
 80090f0:	3704      	adds	r7, #4
 80090f2:	1cac      	adds	r4, r5, #2
 80090f4:	f1ba 0a01 	subs.w	sl, sl, #1
 80090f8:	d1e8      	bne.n	80090cc <_DrawBitmap+0x344>
 80090fa:	e710      	b.n	8008f1e <_DrawBitmap+0x196>
 80090fc:	f648 0408 	movw	r4, #34824	; 0x8808
 8009100:	f6c1 74fe 	movt	r4, #8190	; 0x1ffe
 8009104:	f240 39bc 	movw	r9, #956	; 0x3bc
 8009108:	6826      	ldr	r6, [r4, #0]
 800910a:	6cb0      	ldr	r0, [r6, #72]	; 0x48
 800910c:	f8cd c008 	str.w	ip, [sp, #8]
 8009110:	f7ff fc92 	bl	8008a38 <GUI_ALLOC_LockH>
 8009114:	6821      	ldr	r1, [r4, #0]
 8009116:	9d0e      	ldr	r5, [sp, #56]	; 0x38
 8009118:	7c0b      	ldrb	r3, [r1, #16]
 800911a:	f815 2c01 	ldrb.w	r2, [r5, #-1]
 800911e:	992c      	ldr	r1, [sp, #176]	; 0xb0
 8009120:	901b      	str	r0, [sp, #108]	; 0x6c
 8009122:	f6c0 0901 	movt	r9, #2049	; 0x801
 8009126:	f003 0003 	and.w	r0, r3, #3
 800912a:	f819 4002 	ldrb.w	r4, [r9, r2]
 800912e:	9f1c      	ldr	r7, [sp, #112]	; 0x70
 8009130:	9e0a      	ldr	r6, [sp, #40]	; 0x28
 8009132:	f8dd c008 	ldr.w	ip, [sp, #8]
 8009136:	2802      	cmp	r0, #2
 8009138:	f1c1 0908 	rsb	r9, r1, #8
 800913c:	fa44 f401 	asr.w	r4, r4, r1
 8009140:	f000 84e5 	beq.w	8009b0e <_DrawBitmap+0xd86>
 8009144:	2803      	cmp	r0, #3
 8009146:	f000 83d7 	beq.w	80098f8 <_DrawBitmap+0xb70>
 800914a:	2801      	cmp	r0, #1
 800914c:	f000 83d4 	beq.w	80098f8 <_DrawBitmap+0xb70>
 8009150:	9d2b      	ldr	r5, [sp, #172]	; 0xac
 8009152:	46a8      	mov	r8, r5
 8009154:	9d0d      	ldr	r5, [sp, #52]	; 0x34
 8009156:	46ce      	mov	lr, r9
 8009158:	4637      	mov	r7, r6
 800915a:	f004 0601 	and.w	r6, r4, #1
 800915e:	4577      	cmp	r7, lr
 8009160:	bf38      	it	cc
 8009162:	46be      	movcc	lr, r7
 8009164:	f10e 33ff 	add.w	r3, lr, #4294967295
 8009168:	f855 0026 	ldr.w	r0, [r5, r6, lsl #2]
 800916c:	4662      	mov	r2, ip
 800916e:	4619      	mov	r1, r3
 8009170:	f003 0601 	and.w	r6, r3, #1
 8009174:	ebce 0707 	rsb	r7, lr, r7
 8009178:	f822 0b02 	strh.w	r0, [r2], #2
 800917c:	0863      	lsrs	r3, r4, #1
 800917e:	b1c9      	cbz	r1, 80091b4 <_DrawBitmap+0x42c>
 8009180:	b146      	cbz	r6, 8009194 <_DrawBitmap+0x40c>
 8009182:	f003 0001 	and.w	r0, r3, #1
 8009186:	08a3      	lsrs	r3, r4, #2
 8009188:	f855 6020 	ldr.w	r6, [r5, r0, lsl #2]
 800918c:	3901      	subs	r1, #1
 800918e:	f822 6b02 	strh.w	r6, [r2], #2
 8009192:	d00f      	beq.n	80091b4 <_DrawBitmap+0x42c>
 8009194:	f003 0401 	and.w	r4, r3, #1
 8009198:	4610      	mov	r0, r2
 800919a:	f855 6024 	ldr.w	r6, [r5, r4, lsl #2]
 800919e:	f3c3 0440 	ubfx	r4, r3, #1, #1
 80091a2:	f820 6b02 	strh.w	r6, [r0], #2
 80091a6:	f855 4024 	ldr.w	r4, [r5, r4, lsl #2]
 80091aa:	089b      	lsrs	r3, r3, #2
 80091ac:	8054      	strh	r4, [r2, #2]
 80091ae:	1c82      	adds	r2, r0, #2
 80091b0:	3902      	subs	r1, #2
 80091b2:	d1ef      	bne.n	8009194 <_DrawBitmap+0x40c>
 80091b4:	eb0c 0c4e 	add.w	ip, ip, lr, lsl #1
 80091b8:	2f00      	cmp	r7, #0
 80091ba:	f000 8087 	beq.w	80092cc <_DrawBitmap+0x544>
 80091be:	f240 33bc 	movw	r3, #956	; 0x3bc
 80091c2:	f818 2f01 	ldrb.w	r2, [r8, #1]!
 80091c6:	f6c0 0301 	movt	r3, #2049	; 0x801
 80091ca:	f04f 0e08 	mov.w	lr, #8
 80091ce:	5c9c      	ldrb	r4, [r3, r2]
 80091d0:	e7c3      	b.n	800915a <_DrawBitmap+0x3d2>
 80091d2:	bf00      	nop
 80091d4:	0800f8f4 	.word	0x0800f8f4
 80091d8:	f648 0508 	movw	r5, #34824	; 0x8808
 80091dc:	f6c1 75fe 	movt	r5, #8190	; 0x1ffe
 80091e0:	9915      	ldr	r1, [sp, #84]	; 0x54
 80091e2:	6828      	ldr	r0, [r5, #0]
 80091e4:	9d0e      	ldr	r5, [sp, #56]	; 0x38
 80091e6:	7c03      	ldrb	r3, [r0, #16]
 80091e8:	f815 2c01 	ldrb.w	r2, [r5, #-1]
 80091ec:	f8dd a070 	ldr.w	sl, [sp, #112]	; 0x70
 80091f0:	f003 0603 	and.w	r6, r3, #3
 80091f4:	fa02 f201 	lsl.w	r2, r2, r1
 80091f8:	2e01      	cmp	r6, #1
 80091fa:	fa5f f982 	uxtb.w	r9, r2
 80091fe:	f000 832d 	beq.w	800985c <_DrawBitmap+0xad4>
 8009202:	f080 8205 	bcs.w	8009610 <_DrawBitmap+0x888>
 8009206:	9f2c      	ldr	r7, [sp, #176]	; 0xb0
 8009208:	2f00      	cmp	r7, #0
 800920a:	f040 8315 	bne.w	8009838 <_DrawBitmap+0xab0>
 800920e:	990a      	ldr	r1, [sp, #40]	; 0x28
 8009210:	9d2b      	ldr	r5, [sp, #172]	; 0xac
 8009212:	2901      	cmp	r1, #1
 8009214:	dd4f      	ble.n	80092b6 <_DrawBitmap+0x52e>
 8009216:	ea4f 1419 	mov.w	r4, r9, lsr #4
 800921a:	9f0d      	ldr	r7, [sp, #52]	; 0x34
 800921c:	4662      	mov	r2, ip
 800921e:	f857 3024 	ldr.w	r3, [r7, r4, lsl #2]
 8009222:	f009 090f 	and.w	r9, r9, #15
 8009226:	f822 3b04 	strh.w	r3, [r2], #4
 800922a:	f857 0029 	ldr.w	r0, [r7, r9, lsl #2]
 800922e:	462b      	mov	r3, r5
 8009230:	f822 0c02 	strh.w	r0, [r2, #-2]
 8009234:	104e      	asrs	r6, r1, #1
 8009236:	f813 9f01 	ldrb.w	r9, [r3, #1]!
 800923a:	19a8      	adds	r0, r5, r6
 800923c:	43ed      	mvns	r5, r5
 800923e:	182c      	adds	r4, r5, r0
 8009240:	3204      	adds	r2, #4
 8009242:	4283      	cmp	r3, r0
 8009244:	f001 0101 	and.w	r1, r1, #1
 8009248:	f004 0401 	and.w	r4, r4, #1
 800924c:	d031      	beq.n	80092b2 <_DrawBitmap+0x52a>
 800924e:	b18c      	cbz	r4, 8009274 <_DrawBitmap+0x4ec>
 8009250:	ea4f 1719 	mov.w	r7, r9, lsr #4
 8009254:	9d0d      	ldr	r5, [sp, #52]	; 0x34
 8009256:	f009 090f 	and.w	r9, r9, #15
 800925a:	f855 4027 	ldr.w	r4, [r5, r7, lsl #2]
 800925e:	f855 7029 	ldr.w	r7, [r5, r9, lsl #2]
 8009262:	f822 4c04 	strh.w	r4, [r2, #-4]
 8009266:	f822 7c02 	strh.w	r7, [r2, #-2]
 800926a:	f813 9f01 	ldrb.w	r9, [r3, #1]!
 800926e:	3204      	adds	r2, #4
 8009270:	4283      	cmp	r3, r0
 8009272:	d01e      	beq.n	80092b2 <_DrawBitmap+0x52a>
 8009274:	9c0d      	ldr	r4, [sp, #52]	; 0x34
 8009276:	ea4f 1519 	mov.w	r5, r9, lsr #4
 800927a:	f009 090f 	and.w	r9, r9, #15
 800927e:	f854 7025 	ldr.w	r7, [r4, r5, lsl #2]
 8009282:	f854 5029 	ldr.w	r5, [r4, r9, lsl #2]
 8009286:	f822 7c04 	strh.w	r7, [r2, #-4]
 800928a:	f822 5c02 	strh.w	r5, [r2, #-2]
 800928e:	f813 5f01 	ldrb.w	r5, [r3, #1]!
 8009292:	092f      	lsrs	r7, r5, #4
 8009294:	f005 050f 	and.w	r5, r5, #15
 8009298:	f854 7027 	ldr.w	r7, [r4, r7, lsl #2]
 800929c:	f822 7b04 	strh.w	r7, [r2], #4
 80092a0:	f854 7025 	ldr.w	r7, [r4, r5, lsl #2]
 80092a4:	f822 7c02 	strh.w	r7, [r2, #-2]
 80092a8:	f813 9f01 	ldrb.w	r9, [r3, #1]!
 80092ac:	3204      	adds	r2, #4
 80092ae:	4283      	cmp	r3, r0
 80092b0:	d1e1      	bne.n	8009276 <_DrawBitmap+0x4ee>
 80092b2:	eb0c 0c86 	add.w	ip, ip, r6, lsl #2
 80092b6:	2900      	cmp	r1, #0
 80092b8:	f43f ae75 	beq.w	8008fa6 <_DrawBitmap+0x21e>
 80092bc:	ea4f 1919 	mov.w	r9, r9, lsr #4
 80092c0:	9b0d      	ldr	r3, [sp, #52]	; 0x34
 80092c2:	f853 0029 	ldr.w	r0, [r3, r9, lsl #2]
 80092c6:	f8ac 0000 	strh.w	r0, [ip]
 80092ca:	e66c      	b.n	8008fa6 <_DrawBitmap+0x21e>
 80092cc:	9811      	ldr	r0, [sp, #68]	; 0x44
 80092ce:	f7ff fbc5 	bl	8008a5c <GUI_ALLOC_UnlockH>
 80092d2:	e668      	b.n	8008fa6 <_DrawBitmap+0x21e>
 80092d4:	f7ff fbb0 	bl	8008a38 <GUI_ALLOC_LockH>
 80092d8:	e56b      	b.n	8008db2 <_DrawBitmap+0x2a>
 80092da:	2d00      	cmp	r5, #0
 80092dc:	f340 8786 	ble.w	800a1ec <_DrawBitmap+0x1464>
 80092e0:	43f4      	mvns	r4, r6
 80092e2:	19ad      	adds	r5, r5, r6
 80092e4:	f8dd 9028 	ldr.w	r9, [sp, #40]	; 0x28
 80092e8:	982b      	ldr	r0, [sp, #172]	; 0xac
 80092ea:	f8dd a070 	ldr.w	sl, [sp, #112]	; 0x70
 80092ee:	1963      	adds	r3, r4, r5
 80092f0:	f003 0701 	and.w	r7, r3, #1
 80092f4:	ea4f 0449 	mov.w	r4, r9, lsl #1
 80092f8:	b1a0      	cbz	r0, 8009324 <_DrawBitmap+0x59c>
 80092fa:	9805      	ldr	r0, [sp, #20]
 80092fc:	b190      	cbz	r0, 8009324 <_DrawBitmap+0x59c>
 80092fe:	992b      	ldr	r1, [sp, #172]	; 0xac
 8009300:	4622      	mov	r2, r4
 8009302:	f004 fbb5 	bl	800da70 <memcpy>
 8009306:	f1ba 0f00 	cmp.w	sl, #0
 800930a:	f000 8767 	beq.w	800a1dc <_DrawBitmap+0x1454>
 800930e:	f8da 1008 	ldr.w	r1, [sl, #8]
 8009312:	9b0a      	ldr	r3, [sp, #40]	; 0x28
 8009314:	f8d1 8004 	ldr.w	r8, [r1, #4]
 8009318:	9909      	ldr	r1, [sp, #36]	; 0x24
 800931a:	4650      	mov	r0, sl
 800931c:	4632      	mov	r2, r6
 800931e:	47c0      	blx	r8
 8009320:	f8dd a070 	ldr.w	sl, [sp, #112]	; 0x70
 8009324:	f106 0801 	add.w	r8, r6, #1
 8009328:	9a2a      	ldr	r2, [sp, #168]	; 0xa8
 800932a:	9e2b      	ldr	r6, [sp, #172]	; 0xac
 800932c:	9b05      	ldr	r3, [sp, #20]
 800932e:	980c      	ldr	r0, [sp, #48]	; 0x30
 8009330:	45a8      	cmp	r8, r5
 8009332:	4416      	add	r6, r2
 8009334:	eb03 0900 	add.w	r9, r3, r0
 8009338:	d058      	beq.n	80093ec <_DrawBitmap+0x664>
 800933a:	2f00      	cmp	r7, #0
 800933c:	f000 8504 	beq.w	8009d48 <_DrawBitmap+0xfc0>
 8009340:	b1ae      	cbz	r6, 800936e <_DrawBitmap+0x5e6>
 8009342:	f1b9 0f00 	cmp.w	r9, #0
 8009346:	d012      	beq.n	800936e <_DrawBitmap+0x5e6>
 8009348:	4648      	mov	r0, r9
 800934a:	4631      	mov	r1, r6
 800934c:	4622      	mov	r2, r4
 800934e:	f004 fb8f 	bl	800da70 <memcpy>
 8009352:	f1ba 0f00 	cmp.w	sl, #0
 8009356:	f000 8745 	beq.w	800a1e4 <_DrawBitmap+0x145c>
 800935a:	f8da 7008 	ldr.w	r7, [sl, #8]
 800935e:	9909      	ldr	r1, [sp, #36]	; 0x24
 8009360:	687f      	ldr	r7, [r7, #4]
 8009362:	9b0a      	ldr	r3, [sp, #40]	; 0x28
 8009364:	4650      	mov	r0, sl
 8009366:	4642      	mov	r2, r8
 8009368:	47b8      	blx	r7
 800936a:	f8dd a070 	ldr.w	sl, [sp, #112]	; 0x70
 800936e:	9a0c      	ldr	r2, [sp, #48]	; 0x30
 8009370:	992a      	ldr	r1, [sp, #168]	; 0xa8
 8009372:	f108 0801 	add.w	r8, r8, #1
 8009376:	45a8      	cmp	r8, r5
 8009378:	440e      	add	r6, r1
 800937a:	4491      	add	r9, r2
 800937c:	bf18      	it	ne
 800937e:	4693      	movne	fp, r2
 8009380:	d034      	beq.n	80093ec <_DrawBitmap+0x664>
 8009382:	4643      	mov	r3, r8
 8009384:	464f      	mov	r7, r9
 8009386:	f8dd 90a8 	ldr.w	r9, [sp, #168]	; 0xa8
 800938a:	46a8      	mov	r8, r5
 800938c:	4655      	mov	r5, sl
 800938e:	469a      	mov	sl, r3
 8009390:	b176      	cbz	r6, 80093b0 <_DrawBitmap+0x628>
 8009392:	b16f      	cbz	r7, 80093b0 <_DrawBitmap+0x628>
 8009394:	4638      	mov	r0, r7
 8009396:	4631      	mov	r1, r6
 8009398:	4622      	mov	r2, r4
 800939a:	f004 fb69 	bl	800da70 <memcpy>
 800939e:	b135      	cbz	r5, 80093ae <_DrawBitmap+0x626>
 80093a0:	68a9      	ldr	r1, [r5, #8]
 80093a2:	9b0a      	ldr	r3, [sp, #40]	; 0x28
 80093a4:	4628      	mov	r0, r5
 80093a6:	4652      	mov	r2, sl
 80093a8:	684d      	ldr	r5, [r1, #4]
 80093aa:	9909      	ldr	r1, [sp, #36]	; 0x24
 80093ac:	47a8      	blx	r5
 80093ae:	9d1c      	ldr	r5, [sp, #112]	; 0x70
 80093b0:	eb16 0609 	adds.w	r6, r6, r9
 80093b4:	445f      	add	r7, fp
 80093b6:	f10a 0a01 	add.w	sl, sl, #1
 80093ba:	d010      	beq.n	80093de <_DrawBitmap+0x656>
 80093bc:	b17f      	cbz	r7, 80093de <_DrawBitmap+0x656>
 80093be:	4638      	mov	r0, r7
 80093c0:	4631      	mov	r1, r6
 80093c2:	4622      	mov	r2, r4
 80093c4:	f004 fb54 	bl	800da70 <memcpy>
 80093c8:	2d00      	cmp	r5, #0
 80093ca:	f000 8245 	beq.w	8009858 <_DrawBitmap+0xad0>
 80093ce:	68aa      	ldr	r2, [r5, #8]
 80093d0:	9909      	ldr	r1, [sp, #36]	; 0x24
 80093d2:	9b0a      	ldr	r3, [sp, #40]	; 0x28
 80093d4:	4628      	mov	r0, r5
 80093d6:	6855      	ldr	r5, [r2, #4]
 80093d8:	4652      	mov	r2, sl
 80093da:	47a8      	blx	r5
 80093dc:	9d1c      	ldr	r5, [sp, #112]	; 0x70
 80093de:	f10a 0a01 	add.w	sl, sl, #1
 80093e2:	45c2      	cmp	sl, r8
 80093e4:	444e      	add	r6, r9
 80093e6:	445f      	add	r7, fp
 80093e8:	d1d2      	bne.n	8009390 <_DrawBitmap+0x608>
 80093ea:	46aa      	mov	sl, r5
 80093ec:	f1ba 0f00 	cmp.w	sl, #0
 80093f0:	f47f ada6 	bne.w	8008f40 <_DrawBitmap+0x1b8>
 80093f4:	e5a7      	b.n	8008f46 <_DrawBitmap+0x1be>
 80093f6:	9b1c      	ldr	r3, [sp, #112]	; 0x70
 80093f8:	2b00      	cmp	r3, #0
 80093fa:	f47f ada1 	bne.w	8008f40 <_DrawBitmap+0x1b8>
 80093fe:	e5a2      	b.n	8008f46 <_DrawBitmap+0x1be>
 8009400:	9b0a      	ldr	r3, [sp, #40]	; 0x28
 8009402:	9500      	str	r5, [sp, #0]
 8009404:	9909      	ldr	r1, [sp, #36]	; 0x24
 8009406:	4632      	mov	r2, r6
 8009408:	f003 fb3c 	bl	800ca84 <GUI_USAGE_AddRect>
 800940c:	487f      	ldr	r0, [pc, #508]	; (800960c <_DrawBitmap+0x884>)
 800940e:	6803      	ldr	r3, [r0, #0]
 8009410:	e4ea      	b.n	8008de8 <_DrawBitmap+0x60>
 8009412:	2902      	cmp	r1, #2
 8009414:	f47f adc7 	bne.w	8008fa6 <_DrawBitmap+0x21e>
 8009418:	f8dd a028 	ldr.w	sl, [sp, #40]	; 0x28
 800941c:	982b      	ldr	r0, [sp, #172]	; 0xac
 800941e:	9a09      	ldr	r2, [sp, #36]	; 0x24
 8009420:	9007      	str	r0, [sp, #28]
 8009422:	4554      	cmp	r4, sl
 8009424:	bfc8      	it	gt
 8009426:	fa5f f48a 	uxtbgt.w	r4, sl
 800942a:	9205      	str	r2, [sp, #20]
 800942c:	f8cd c018 	str.w	ip, [sp, #24]
 8009430:	ebc4 0a0a 	rsb	sl, r4, sl
 8009434:	2f00      	cmp	r7, #0
 8009436:	f000 8096 	beq.w	8009566 <_DrawBitmap+0x7de>
 800943a:	9b06      	ldr	r3, [sp, #24]
 800943c:	f104 3bff 	add.w	fp, r4, #4294967295
 8009440:	f015 0fc0 	tst.w	r5, #192	; 0xc0
 8009444:	f103 0802 	add.w	r8, r3, #2
 8009448:	f00b 0b01 	and.w	fp, fp, #1
 800944c:	d00b      	beq.n	8009466 <_DrawBitmap+0x6de>
 800944e:	09a9      	lsrs	r1, r5, #6
 8009450:	9e0d      	ldr	r6, [sp, #52]	; 0x34
 8009452:	68b8      	ldr	r0, [r7, #8]
 8009454:	f856 2021 	ldr.w	r2, [r6, r1, lsl #2]
 8009458:	6803      	ldr	r3, [r0, #0]
 800945a:	9905      	ldr	r1, [sp, #20]
 800945c:	f828 2c02 	strh.w	r2, [r8, #-2]
 8009460:	4638      	mov	r0, r7
 8009462:	9a04      	ldr	r2, [sp, #16]
 8009464:	4798      	blx	r3
 8009466:	9905      	ldr	r1, [sp, #20]
 8009468:	f104 3cff 	add.w	ip, r4, #4294967295
 800946c:	00ad      	lsls	r5, r5, #2
 800946e:	1c4e      	adds	r6, r1, #1
 8009470:	f01c 09ff 	ands.w	r9, ip, #255	; 0xff
 8009474:	b2ed      	uxtb	r5, r5
 8009476:	f108 0802 	add.w	r8, r8, #2
 800947a:	d057      	beq.n	800952c <_DrawBitmap+0x7a4>
 800947c:	f1bb 0f00 	cmp.w	fp, #0
 8009480:	d019      	beq.n	80094b6 <_DrawBitmap+0x72e>
 8009482:	f015 0fc0 	tst.w	r5, #192	; 0xc0
 8009486:	d00c      	beq.n	80094a2 <_DrawBitmap+0x71a>
 8009488:	09a8      	lsrs	r0, r5, #6
 800948a:	f8dd e034 	ldr.w	lr, [sp, #52]	; 0x34
 800948e:	68bb      	ldr	r3, [r7, #8]
 8009490:	f85e 2020 	ldr.w	r2, [lr, r0, lsl #2]
 8009494:	681b      	ldr	r3, [r3, #0]
 8009496:	f828 2c02 	strh.w	r2, [r8, #-2]
 800949a:	4638      	mov	r0, r7
 800949c:	4631      	mov	r1, r6
 800949e:	9a04      	ldr	r2, [sp, #16]
 80094a0:	4798      	blx	r3
 80094a2:	f109 39ff 	add.w	r9, r9, #4294967295
 80094a6:	00ad      	lsls	r5, r5, #2
 80094a8:	3601      	adds	r6, #1
 80094aa:	f019 09ff 	ands.w	r9, r9, #255	; 0xff
 80094ae:	b2ed      	uxtb	r5, r5
 80094b0:	f108 0802 	add.w	r8, r8, #2
 80094b4:	d03a      	beq.n	800952c <_DrawBitmap+0x7a4>
 80094b6:	4631      	mov	r1, r6
 80094b8:	9e04      	ldr	r6, [sp, #16]
 80094ba:	9410      	str	r4, [sp, #64]	; 0x40
 80094bc:	464c      	mov	r4, r9
 80094be:	09ab      	lsrs	r3, r5, #6
 80094c0:	f015 0fc0 	tst.w	r5, #192	; 0xc0
 80094c4:	f101 0901 	add.w	r9, r1, #1
 80094c8:	f108 0b02 	add.w	fp, r8, #2
 80094cc:	4638      	mov	r0, r7
 80094ce:	4632      	mov	r2, r6
 80094d0:	d00a      	beq.n	80094e8 <_DrawBitmap+0x760>
 80094d2:	f8dd c034 	ldr.w	ip, [sp, #52]	; 0x34
 80094d6:	f85c e023 	ldr.w	lr, [ip, r3, lsl #2]
 80094da:	f828 ec02 	strh.w	lr, [r8, #-2]
 80094de:	f8d7 8008 	ldr.w	r8, [r7, #8]
 80094e2:	f8d8 3000 	ldr.w	r3, [r8]
 80094e6:	4798      	blx	r3
 80094e8:	00a9      	lsls	r1, r5, #2
 80094ea:	b2cd      	uxtb	r5, r1
 80094ec:	f104 34ff 	add.w	r4, r4, #4294967295
 80094f0:	f015 0fc0 	tst.w	r5, #192	; 0xc0
 80094f4:	fa5f f884 	uxtb.w	r8, r4
 80094f8:	d00c      	beq.n	8009514 <_DrawBitmap+0x78c>
 80094fa:	09a8      	lsrs	r0, r5, #6
 80094fc:	f8dd c034 	ldr.w	ip, [sp, #52]	; 0x34
 8009500:	68bb      	ldr	r3, [r7, #8]
 8009502:	f85c 2020 	ldr.w	r2, [ip, r0, lsl #2]
 8009506:	681c      	ldr	r4, [r3, #0]
 8009508:	f82b 2c02 	strh.w	r2, [fp, #-2]
 800950c:	4638      	mov	r0, r7
 800950e:	4649      	mov	r1, r9
 8009510:	4632      	mov	r2, r6
 8009512:	47a0      	blx	r4
 8009514:	f108 30ff 	add.w	r0, r8, #4294967295
 8009518:	00ad      	lsls	r5, r5, #2
 800951a:	f010 04ff 	ands.w	r4, r0, #255	; 0xff
 800951e:	f109 0101 	add.w	r1, r9, #1
 8009522:	b2ed      	uxtb	r5, r5
 8009524:	f10b 0802 	add.w	r8, fp, #2
 8009528:	d1c9      	bne.n	80094be <_DrawBitmap+0x736>
 800952a:	9c10      	ldr	r4, [sp, #64]	; 0x40
 800952c:	1e66      	subs	r6, r4, #1
 800952e:	9b05      	ldr	r3, [sp, #20]
 8009530:	9806      	ldr	r0, [sp, #24]
 8009532:	b2f4      	uxtb	r4, r6
 8009534:	1c61      	adds	r1, r4, #1
 8009536:	1c5a      	adds	r2, r3, #1
 8009538:	eb00 0541 	add.w	r5, r0, r1, lsl #1
 800953c:	1916      	adds	r6, r2, r4
 800953e:	9506      	str	r5, [sp, #24]
 8009540:	9605      	str	r6, [sp, #20]
 8009542:	f1ba 0f00 	cmp.w	sl, #0
 8009546:	f43f ad2e 	beq.w	8008fa6 <_DrawBitmap+0x21e>
 800954a:	9c07      	ldr	r4, [sp, #28]
 800954c:	f814 5f01 	ldrb.w	r5, [r4, #1]!
 8009550:	9407      	str	r4, [sp, #28]
 8009552:	2404      	movs	r4, #4
 8009554:	4554      	cmp	r4, sl
 8009556:	bfc8      	it	gt
 8009558:	fa5f f48a 	uxtbgt.w	r4, sl
 800955c:	ebc4 0a0a 	rsb	sl, r4, sl
 8009560:	2f00      	cmp	r7, #0
 8009562:	f47f af6a 	bne.w	800943a <_DrawBitmap+0x6b2>
 8009566:	9b06      	ldr	r3, [sp, #24]
 8009568:	1e61      	subs	r1, r4, #1
 800956a:	1c98      	adds	r0, r3, #2
 800956c:	f015 0fc0 	tst.w	r5, #192	; 0xc0
 8009570:	f001 0101 	and.w	r1, r1, #1
 8009574:	d005      	beq.n	8009582 <_DrawBitmap+0x7fa>
 8009576:	09aa      	lsrs	r2, r5, #6
 8009578:	9e0d      	ldr	r6, [sp, #52]	; 0x34
 800957a:	f856 3022 	ldr.w	r3, [r6, r2, lsl #2]
 800957e:	f820 3c02 	strh.w	r3, [r0, #-2]
 8009582:	1e62      	subs	r2, r4, #1
 8009584:	00ad      	lsls	r5, r5, #2
 8009586:	1c83      	adds	r3, r0, #2
 8009588:	f012 02ff 	ands.w	r2, r2, #255	; 0xff
 800958c:	b2ed      	uxtb	r5, r5
 800958e:	d031      	beq.n	80095f4 <_DrawBitmap+0x86c>
 8009590:	b181      	cbz	r1, 80095b4 <_DrawBitmap+0x82c>
 8009592:	f015 0fc0 	tst.w	r5, #192	; 0xc0
 8009596:	d006      	beq.n	80095a6 <_DrawBitmap+0x81e>
 8009598:	09a8      	lsrs	r0, r5, #6
 800959a:	f8dd c034 	ldr.w	ip, [sp, #52]	; 0x34
 800959e:	f85c 1020 	ldr.w	r1, [ip, r0, lsl #2]
 80095a2:	f823 1c02 	strh.w	r1, [r3, #-2]
 80095a6:	3a01      	subs	r2, #1
 80095a8:	00ae      	lsls	r6, r5, #2
 80095aa:	3302      	adds	r3, #2
 80095ac:	f012 02ff 	ands.w	r2, r2, #255	; 0xff
 80095b0:	b2f5      	uxtb	r5, r6
 80095b2:	d01f      	beq.n	80095f4 <_DrawBitmap+0x86c>
 80095b4:	00a8      	lsls	r0, r5, #2
 80095b6:	3a01      	subs	r2, #1
 80095b8:	09ae      	lsrs	r6, r5, #6
 80095ba:	f015 0fc0 	tst.w	r5, #192	; 0xc0
 80095be:	b2c1      	uxtb	r1, r0
 80095c0:	b2d2      	uxtb	r2, r2
 80095c2:	f103 0002 	add.w	r0, r3, #2
 80095c6:	d005      	beq.n	80095d4 <_DrawBitmap+0x84c>
 80095c8:	f8dd c034 	ldr.w	ip, [sp, #52]	; 0x34
 80095cc:	f85c 5026 	ldr.w	r5, [ip, r6, lsl #2]
 80095d0:	f823 5c02 	strh.w	r5, [r3, #-2]
 80095d4:	f011 0fc0 	tst.w	r1, #192	; 0xc0
 80095d8:	d005      	beq.n	80095e6 <_DrawBitmap+0x85e>
 80095da:	098b      	lsrs	r3, r1, #6
 80095dc:	9e0d      	ldr	r6, [sp, #52]	; 0x34
 80095de:	f856 5023 	ldr.w	r5, [r6, r3, lsl #2]
 80095e2:	f820 5c02 	strh.w	r5, [r0, #-2]
 80095e6:	3a01      	subs	r2, #1
 80095e8:	0089      	lsls	r1, r1, #2
 80095ea:	1c83      	adds	r3, r0, #2
 80095ec:	f012 02ff 	ands.w	r2, r2, #255	; 0xff
 80095f0:	b2cd      	uxtb	r5, r1
 80095f2:	d1df      	bne.n	80095b4 <_DrawBitmap+0x82c>
 80095f4:	1e60      	subs	r0, r4, #1
 80095f6:	9d05      	ldr	r5, [sp, #20]
 80095f8:	9a06      	ldr	r2, [sp, #24]
 80095fa:	b2c6      	uxtb	r6, r0
 80095fc:	1c71      	adds	r1, r6, #1
 80095fe:	1c6b      	adds	r3, r5, #1
 8009600:	eb02 0041 	add.w	r0, r2, r1, lsl #1
 8009604:	199e      	adds	r6, r3, r6
 8009606:	9006      	str	r0, [sp, #24]
 8009608:	9605      	str	r6, [sp, #20]
 800960a:	e79a      	b.n	8009542 <_DrawBitmap+0x7ba>
 800960c:	1ffe8808 	.word	0x1ffe8808
 8009610:	2e02      	cmp	r6, #2
 8009612:	f47f acc8 	bne.w	8008fa6 <_DrawBitmap+0x21e>
 8009616:	9f2c      	ldr	r7, [sp, #176]	; 0xb0
 8009618:	2f00      	cmp	r7, #0
 800961a:	f000 84b3 	beq.w	8009f84 <_DrawBitmap+0x11fc>
 800961e:	f012 0ff0 	tst.w	r2, #240	; 0xf0
 8009622:	f040 8526 	bne.w	800a072 <_DrawBitmap+0x12ea>
 8009626:	982b      	ldr	r0, [sp, #172]	; 0xac
 8009628:	9909      	ldr	r1, [sp, #36]	; 0x24
 800962a:	9f0a      	ldr	r7, [sp, #40]	; 0x28
 800962c:	f8dd c03c 	ldr.w	ip, [sp, #60]	; 0x3c
 8009630:	f890 9001 	ldrb.w	r9, [r0, #1]
 8009634:	f101 0b01 	add.w	fp, r1, #1
 8009638:	1e79      	subs	r1, r7, #1
 800963a:	2901      	cmp	r1, #1
 800963c:	f340 80e3 	ble.w	8009806 <_DrawBitmap+0xa7e>
 8009640:	1e8e      	subs	r6, r1, #2
 8009642:	f1ba 0f00 	cmp.w	sl, #0
 8009646:	f000 8559 	beq.w	800a0fc <_DrawBitmap+0x1374>
 800964a:	0874      	lsrs	r4, r6, #1
 800964c:	0062      	lsls	r2, r4, #1
 800964e:	eb02 030b 	add.w	r3, r2, fp
 8009652:	1c9f      	adds	r7, r3, #2
 8009654:	ebcb 0103 	rsb	r1, fp, r3
 8009658:	f019 0ff0 	tst.w	r9, #240	; 0xf0
 800965c:	9610      	str	r6, [sp, #64]	; 0x40
 800965e:	9705      	str	r7, [sp, #20]
 8009660:	9407      	str	r4, [sp, #28]
 8009662:	9208      	str	r2, [sp, #32]
 8009664:	f10c 0604 	add.w	r6, ip, #4
 8009668:	f3c1 0740 	ubfx	r7, r1, #1, #1
 800966c:	d012      	beq.n	8009694 <_DrawBitmap+0x90c>
 800966e:	ea4f 1019 	mov.w	r0, r9, lsr #4
 8009672:	f8dd e034 	ldr.w	lr, [sp, #52]	; 0x34
 8009676:	f8da 4008 	ldr.w	r4, [sl, #8]
 800967a:	f85e 2020 	ldr.w	r2, [lr, r0, lsl #2]
 800967e:	6823      	ldr	r3, [r4, #0]
 8009680:	f826 2c04 	strh.w	r2, [r6, #-4]
 8009684:	4650      	mov	r0, sl
 8009686:	f8cd c008 	str.w	ip, [sp, #8]
 800968a:	4659      	mov	r1, fp
 800968c:	9a04      	ldr	r2, [sp, #16]
 800968e:	4798      	blx	r3
 8009690:	f8dd c008 	ldr.w	ip, [sp, #8]
 8009694:	f019 090f 	ands.w	r9, r9, #15
 8009698:	d010      	beq.n	80096bc <_DrawBitmap+0x934>
 800969a:	990d      	ldr	r1, [sp, #52]	; 0x34
 800969c:	f8da 4008 	ldr.w	r4, [sl, #8]
 80096a0:	f851 0029 	ldr.w	r0, [r1, r9, lsl #2]
 80096a4:	6823      	ldr	r3, [r4, #0]
 80096a6:	f826 0c02 	strh.w	r0, [r6, #-2]
 80096aa:	f10b 0101 	add.w	r1, fp, #1
 80096ae:	f8cd c008 	str.w	ip, [sp, #8]
 80096b2:	4650      	mov	r0, sl
 80096b4:	9a04      	ldr	r2, [sp, #16]
 80096b6:	4798      	blx	r3
 80096b8:	f8dd c008 	ldr.w	ip, [sp, #8]
 80096bc:	9a05      	ldr	r2, [sp, #20]
 80096be:	f815 9f01 	ldrb.w	r9, [r5, #1]!
 80096c2:	f10b 0402 	add.w	r4, fp, #2
 80096c6:	3604      	adds	r6, #4
 80096c8:	4294      	cmp	r4, r2
 80096ca:	f000 808f 	beq.w	80097ec <_DrawBitmap+0xa64>
 80096ce:	b377      	cbz	r7, 800972e <_DrawBitmap+0x9a6>
 80096d0:	f019 0ff0 	tst.w	r9, #240	; 0xf0
 80096d4:	d011      	beq.n	80096fa <_DrawBitmap+0x972>
 80096d6:	ea4f 1119 	mov.w	r1, r9, lsr #4
 80096da:	9f0d      	ldr	r7, [sp, #52]	; 0x34
 80096dc:	f8da 0008 	ldr.w	r0, [sl, #8]
 80096e0:	f857 2021 	ldr.w	r2, [r7, r1, lsl #2]
 80096e4:	6803      	ldr	r3, [r0, #0]
 80096e6:	f826 2c04 	strh.w	r2, [r6, #-4]
 80096ea:	4650      	mov	r0, sl
 80096ec:	f8cd c008 	str.w	ip, [sp, #8]
 80096f0:	4621      	mov	r1, r4
 80096f2:	9a04      	ldr	r2, [sp, #16]
 80096f4:	4798      	blx	r3
 80096f6:	f8dd c008 	ldr.w	ip, [sp, #8]
 80096fa:	f019 090f 	ands.w	r9, r9, #15
 80096fe:	d00f      	beq.n	8009720 <_DrawBitmap+0x998>
 8009700:	990d      	ldr	r1, [sp, #52]	; 0x34
 8009702:	f8da 7008 	ldr.w	r7, [sl, #8]
 8009706:	f851 0029 	ldr.w	r0, [r1, r9, lsl #2]
 800970a:	683b      	ldr	r3, [r7, #0]
 800970c:	f826 0c02 	strh.w	r0, [r6, #-2]
 8009710:	1c61      	adds	r1, r4, #1
 8009712:	f8cd c008 	str.w	ip, [sp, #8]
 8009716:	4650      	mov	r0, sl
 8009718:	9a04      	ldr	r2, [sp, #16]
 800971a:	4798      	blx	r3
 800971c:	f8dd c008 	ldr.w	ip, [sp, #8]
 8009720:	9a05      	ldr	r2, [sp, #20]
 8009722:	f815 9f01 	ldrb.w	r9, [r5, #1]!
 8009726:	3402      	adds	r4, #2
 8009728:	3604      	adds	r6, #4
 800972a:	4294      	cmp	r4, r2
 800972c:	d05e      	beq.n	80097ec <_DrawBitmap+0xa64>
 800972e:	9f04      	ldr	r7, [sp, #16]
 8009730:	f8dd 8034 	ldr.w	r8, [sp, #52]	; 0x34
 8009734:	f8cd c060 	str.w	ip, [sp, #96]	; 0x60
 8009738:	f8cd b064 	str.w	fp, [sp, #100]	; 0x64
 800973c:	46cc      	mov	ip, r9
 800973e:	f01c 0ff0 	tst.w	ip, #240	; 0xf0
 8009742:	ea4f 131c 	mov.w	r3, ip, lsr #4
 8009746:	f104 0902 	add.w	r9, r4, #2
 800974a:	f106 0b04 	add.w	fp, r6, #4
 800974e:	4621      	mov	r1, r4
 8009750:	4650      	mov	r0, sl
 8009752:	463a      	mov	r2, r7
 8009754:	d00c      	beq.n	8009770 <_DrawBitmap+0x9e8>
 8009756:	f858 e023 	ldr.w	lr, [r8, r3, lsl #2]
 800975a:	f826 ec04 	strh.w	lr, [r6, #-4]
 800975e:	f8da e008 	ldr.w	lr, [sl, #8]
 8009762:	f8de 3000 	ldr.w	r3, [lr]
 8009766:	f8cd c008 	str.w	ip, [sp, #8]
 800976a:	4798      	blx	r3
 800976c:	f8dd c008 	ldr.w	ip, [sp, #8]
 8009770:	f01c 0c0f 	ands.w	ip, ip, #15
 8009774:	f104 0101 	add.w	r1, r4, #1
 8009778:	4650      	mov	r0, sl
 800977a:	463a      	mov	r2, r7
 800977c:	d007      	beq.n	800978e <_DrawBitmap+0xa06>
 800977e:	f8da 3008 	ldr.w	r3, [sl, #8]
 8009782:	f858 402c 	ldr.w	r4, [r8, ip, lsl #2]
 8009786:	f826 4c02 	strh.w	r4, [r6, #-2]
 800978a:	681e      	ldr	r6, [r3, #0]
 800978c:	47b0      	blx	r6
 800978e:	f815 6f01 	ldrb.w	r6, [r5, #1]!
 8009792:	f016 0ff0 	tst.w	r6, #240	; 0xf0
 8009796:	d00b      	beq.n	80097b0 <_DrawBitmap+0xa28>
 8009798:	0931      	lsrs	r1, r6, #4
 800979a:	f8da 0008 	ldr.w	r0, [sl, #8]
 800979e:	f858 2021 	ldr.w	r2, [r8, r1, lsl #2]
 80097a2:	6804      	ldr	r4, [r0, #0]
 80097a4:	f82b 2c04 	strh.w	r2, [fp, #-4]
 80097a8:	4650      	mov	r0, sl
 80097aa:	4649      	mov	r1, r9
 80097ac:	463a      	mov	r2, r7
 80097ae:	47a0      	blx	r4
 80097b0:	f016 030f 	ands.w	r3, r6, #15
 80097b4:	f109 0402 	add.w	r4, r9, #2
 80097b8:	f10b 0604 	add.w	r6, fp, #4
 80097bc:	4650      	mov	r0, sl
 80097be:	f109 0101 	add.w	r1, r9, #1
 80097c2:	463a      	mov	r2, r7
 80097c4:	d008      	beq.n	80097d8 <_DrawBitmap+0xa50>
 80097c6:	f858 9023 	ldr.w	r9, [r8, r3, lsl #2]
 80097ca:	f82b 9c02 	strh.w	r9, [fp, #-2]
 80097ce:	f8da b008 	ldr.w	fp, [sl, #8]
 80097d2:	f8db 3000 	ldr.w	r3, [fp]
 80097d6:	4798      	blx	r3
 80097d8:	9905      	ldr	r1, [sp, #20]
 80097da:	f815 cf01 	ldrb.w	ip, [r5, #1]!
 80097de:	428c      	cmp	r4, r1
 80097e0:	d1ad      	bne.n	800973e <_DrawBitmap+0x9b6>
 80097e2:	46e1      	mov	r9, ip
 80097e4:	f8dd b064 	ldr.w	fp, [sp, #100]	; 0x64
 80097e8:	f8dd c060 	ldr.w	ip, [sp, #96]	; 0x60
 80097ec:	9d07      	ldr	r5, [sp, #28]
 80097ee:	9a08      	ldr	r2, [sp, #32]
 80097f0:	9e10      	ldr	r6, [sp, #64]	; 0x40
 80097f2:	9b07      	ldr	r3, [sp, #28]
 80097f4:	1c6f      	adds	r7, r5, #1
 80097f6:	f10b 0002 	add.w	r0, fp, #2
 80097fa:	eb0c 0c87 	add.w	ip, ip, r7, lsl #2
 80097fe:	eb00 0b02 	add.w	fp, r0, r2
 8009802:	eba6 0143 	sub.w	r1, r6, r3, lsl #1
 8009806:	2900      	cmp	r1, #0
 8009808:	f43f abcd 	beq.w	8008fa6 <_DrawBitmap+0x21e>
 800980c:	ea5f 1919 	movs.w	r9, r9, lsr #4
 8009810:	f43f abc9 	beq.w	8008fa6 <_DrawBitmap+0x21e>
 8009814:	9e0d      	ldr	r6, [sp, #52]	; 0x34
 8009816:	f856 0029 	ldr.w	r0, [r6, r9, lsl #2]
 800981a:	f8ac 0000 	strh.w	r0, [ip]
 800981e:	f1ba 0f00 	cmp.w	sl, #0
 8009822:	f43f abc0 	beq.w	8008fa6 <_DrawBitmap+0x21e>
 8009826:	f8da 2008 	ldr.w	r2, [sl, #8]
 800982a:	4650      	mov	r0, sl
 800982c:	6813      	ldr	r3, [r2, #0]
 800982e:	9a04      	ldr	r2, [sp, #16]
 8009830:	4659      	mov	r1, fp
 8009832:	4798      	blx	r3
 8009834:	f7ff bbb7 	b.w	8008fa6 <_DrawBitmap+0x21e>
 8009838:	ea4f 1919 	mov.w	r9, r9, lsr #4
 800983c:	9e0d      	ldr	r6, [sp, #52]	; 0x34
 800983e:	990a      	ldr	r1, [sp, #40]	; 0x28
 8009840:	f856 0029 	ldr.w	r0, [r6, r9, lsl #2]
 8009844:	f8ac 0000 	strh.w	r0, [ip]
 8009848:	f8dd c0ac 	ldr.w	ip, [sp, #172]	; 0xac
 800984c:	3901      	subs	r1, #1
 800984e:	f89c 9001 	ldrb.w	r9, [ip, #1]
 8009852:	f8dd c03c 	ldr.w	ip, [sp, #60]	; 0x3c
 8009856:	e4dc      	b.n	8009212 <_DrawBitmap+0x48a>
 8009858:	9d1c      	ldr	r5, [sp, #112]	; 0x70
 800985a:	e5c0      	b.n	80093de <_DrawBitmap+0x656>
 800985c:	9917      	ldr	r1, [sp, #92]	; 0x5c
 800985e:	9d2b      	ldr	r5, [sp, #172]	; 0xac
 8009860:	9c0a      	ldr	r4, [sp, #40]	; 0x28
 8009862:	42a1      	cmp	r1, r4
 8009864:	bfc8      	it	gt
 8009866:	b2e1      	uxtbgt	r1, r4
 8009868:	1e4a      	subs	r2, r1, #1
 800986a:	f019 0fc0 	tst.w	r9, #192	; 0xc0
 800986e:	ebc1 0404 	rsb	r4, r1, r4
 8009872:	f10c 0702 	add.w	r7, ip, #2
 8009876:	f002 0601 	and.w	r6, r2, #1
 800987a:	d005      	beq.n	8009888 <_DrawBitmap+0xb00>
 800987c:	f837 3c02 	ldrh.w	r3, [r7, #-2]
 8009880:	f083 00ff 	eor.w	r0, r3, #255	; 0xff
 8009884:	f827 0c02 	strh.w	r0, [r7, #-2]
 8009888:	1e48      	subs	r0, r1, #1
 800988a:	ea4f 1209 	mov.w	r2, r9, lsl #4
 800988e:	1cbb      	adds	r3, r7, #2
 8009890:	f010 00ff 	ands.w	r0, r0, #255	; 0xff
 8009894:	b2d2      	uxtb	r2, r2
 8009896:	d023      	beq.n	80098e0 <_DrawBitmap+0xb58>
 8009898:	b17e      	cbz	r6, 80098ba <_DrawBitmap+0xb32>
 800989a:	f012 0fc0 	tst.w	r2, #192	; 0xc0
 800989e:	d005      	beq.n	80098ac <_DrawBitmap+0xb24>
 80098a0:	f833 7c02 	ldrh.w	r7, [r3, #-2]
 80098a4:	f087 06ff 	eor.w	r6, r7, #255	; 0xff
 80098a8:	f823 6c02 	strh.w	r6, [r3, #-2]
 80098ac:	3801      	subs	r0, #1
 80098ae:	0112      	lsls	r2, r2, #4
 80098b0:	3302      	adds	r3, #2
 80098b2:	f010 00ff 	ands.w	r0, r0, #255	; 0xff
 80098b6:	b2d2      	uxtb	r2, r2
 80098b8:	d012      	beq.n	80098e0 <_DrawBitmap+0xb58>
 80098ba:	1e47      	subs	r7, r0, #1
 80098bc:	b2f8      	uxtb	r0, r7
 80098be:	1c9e      	adds	r6, r3, #2
 80098c0:	3801      	subs	r0, #1
 80098c2:	f012 0fc0 	tst.w	r2, #192	; 0xc0
 80098c6:	f04f 0200 	mov.w	r2, #0
 80098ca:	d005      	beq.n	80098d8 <_DrawBitmap+0xb50>
 80098cc:	f833 7c02 	ldrh.w	r7, [r3, #-2]
 80098d0:	f087 07ff 	eor.w	r7, r7, #255	; 0xff
 80098d4:	f823 7c02 	strh.w	r7, [r3, #-2]
 80098d8:	1cb3      	adds	r3, r6, #2
 80098da:	f010 00ff 	ands.w	r0, r0, #255	; 0xff
 80098de:	d1ec      	bne.n	80098ba <_DrawBitmap+0xb32>
 80098e0:	3901      	subs	r1, #1
 80098e2:	b2ca      	uxtb	r2, r1
 80098e4:	1c53      	adds	r3, r2, #1
 80098e6:	eb0c 0c43 	add.w	ip, ip, r3, lsl #1
 80098ea:	2c00      	cmp	r4, #0
 80098ec:	f43f ab5b 	beq.w	8008fa6 <_DrawBitmap+0x21e>
 80098f0:	f815 9f01 	ldrb.w	r9, [r5, #1]!
 80098f4:	2102      	movs	r1, #2
 80098f6:	e7b4      	b.n	8009862 <_DrawBitmap+0xada>
 80098f8:	9913      	ldr	r1, [sp, #76]	; 0x4c
 80098fa:	690d      	ldr	r5, [r1, #16]
 80098fc:	68a8      	ldr	r0, [r5, #8]
 80098fe:	f8cd c008 	str.w	ip, [sp, #8]
 8009902:	4780      	blx	r0
 8009904:	f8dd c008 	ldr.w	ip, [sp, #8]
 8009908:	9a0e      	ldr	r2, [sp, #56]	; 0x38
 800990a:	9909      	ldr	r1, [sp, #36]	; 0x24
 800990c:	f8cd c014 	str.w	ip, [sp, #20]
 8009910:	b283      	uxth	r3, r0
 8009912:	46b4      	mov	ip, r6
 8009914:	9308      	str	r3, [sp, #32]
 8009916:	45cc      	cmp	ip, r9
 8009918:	bf38      	it	cc
 800991a:	46e1      	movcc	r9, ip
 800991c:	463b      	mov	r3, r7
 800991e:	9206      	str	r2, [sp, #24]
 8009920:	9107      	str	r1, [sp, #28]
 8009922:	ebc9 0c0c 	rsb	ip, r9, ip
 8009926:	2b00      	cmp	r3, #0
 8009928:	d07b      	beq.n	8009a22 <_DrawBitmap+0xc9a>
 800992a:	9905      	ldr	r1, [sp, #20]
 800992c:	f109 32ff 	add.w	r2, r9, #4294967295
 8009930:	1c8d      	adds	r5, r1, #2
 8009932:	07e7      	lsls	r7, r4, #31
 8009934:	f002 0601 	and.w	r6, r2, #1
 8009938:	f100 80c0 	bmi.w	8009abc <_DrawBitmap+0xd34>
 800993c:	9a07      	ldr	r2, [sp, #28]
 800993e:	0864      	lsrs	r4, r4, #1
 8009940:	3502      	adds	r5, #2
 8009942:	f1b9 0a01 	subs.w	sl, r9, #1
 8009946:	f102 0801 	add.w	r8, r2, #1
 800994a:	d04b      	beq.n	80099e4 <_DrawBitmap+0xc5c>
 800994c:	b14e      	cbz	r6, 8009962 <_DrawBitmap+0xbda>
 800994e:	07e6      	lsls	r6, r4, #31
 8009950:	f100 80c9 	bmi.w	8009ae6 <_DrawBitmap+0xd5e>
 8009954:	0864      	lsrs	r4, r4, #1
 8009956:	3502      	adds	r5, #2
 8009958:	f1ba 0a01 	subs.w	sl, sl, #1
 800995c:	f108 0801 	add.w	r8, r8, #1
 8009960:	d040      	beq.n	80099e4 <_DrawBitmap+0xc5c>
 8009962:	4641      	mov	r1, r8
 8009964:	f8cd c040 	str.w	ip, [sp, #64]	; 0x40
 8009968:	4698      	mov	r8, r3
 800996a:	e008      	b.n	800997e <_DrawBitmap+0xbf6>
 800996c:	07f0      	lsls	r0, r6, #31
 800996e:	d420      	bmi.n	80099b2 <_DrawBitmap+0xc2a>
 8009970:	0874      	lsrs	r4, r6, #1
 8009972:	1cbd      	adds	r5, r7, #2
 8009974:	f1ba 0a01 	subs.w	sl, sl, #1
 8009978:	f10b 0101 	add.w	r1, fp, #1
 800997c:	d02f      	beq.n	80099de <_DrawBitmap+0xc56>
 800997e:	0866      	lsrs	r6, r4, #1
 8009980:	f014 0f01 	tst.w	r4, #1
 8009984:	f101 0b01 	add.w	fp, r1, #1
 8009988:	f10a 3aff 	add.w	sl, sl, #4294967295
 800998c:	f105 0702 	add.w	r7, r5, #2
 8009990:	d0ec      	beq.n	800996c <_DrawBitmap+0xbe4>
 8009992:	f8d8 4008 	ldr.w	r4, [r8, #8]
 8009996:	9a04      	ldr	r2, [sp, #16]
 8009998:	6823      	ldr	r3, [r4, #0]
 800999a:	4640      	mov	r0, r8
 800999c:	4798      	blx	r3
 800999e:	f835 2c02 	ldrh.w	r2, [r5, #-2]
 80099a2:	f8dd c020 	ldr.w	ip, [sp, #32]
 80099a6:	07f0      	lsls	r0, r6, #31
 80099a8:	ea8c 0102 	eor.w	r1, ip, r2
 80099ac:	f825 1c02 	strh.w	r1, [r5, #-2]
 80099b0:	d5de      	bpl.n	8009970 <_DrawBitmap+0xbe8>
 80099b2:	f8d8 5008 	ldr.w	r5, [r8, #8]
 80099b6:	9a04      	ldr	r2, [sp, #16]
 80099b8:	682c      	ldr	r4, [r5, #0]
 80099ba:	4640      	mov	r0, r8
 80099bc:	4659      	mov	r1, fp
 80099be:	47a0      	blx	r4
 80099c0:	f837 0c02 	ldrh.w	r0, [r7, #-2]
 80099c4:	f8dd c020 	ldr.w	ip, [sp, #32]
 80099c8:	0874      	lsrs	r4, r6, #1
 80099ca:	ea8c 0300 	eor.w	r3, ip, r0
 80099ce:	1cbd      	adds	r5, r7, #2
 80099d0:	f1ba 0a01 	subs.w	sl, sl, #1
 80099d4:	f827 3c02 	strh.w	r3, [r7, #-2]
 80099d8:	f10b 0101 	add.w	r1, fp, #1
 80099dc:	d1cf      	bne.n	800997e <_DrawBitmap+0xbf6>
 80099de:	f8dd c040 	ldr.w	ip, [sp, #64]	; 0x40
 80099e2:	4643      	mov	r3, r8
 80099e4:	9e05      	ldr	r6, [sp, #20]
 80099e6:	9a07      	ldr	r2, [sp, #28]
 80099e8:	eb06 0749 	add.w	r7, r6, r9, lsl #1
 80099ec:	eb09 0102 	add.w	r1, r9, r2
 80099f0:	9705      	str	r7, [sp, #20]
 80099f2:	9107      	str	r1, [sp, #28]
 80099f4:	f1bc 0f00 	cmp.w	ip, #0
 80099f8:	f43f ac68 	beq.w	80092cc <_DrawBitmap+0x544>
 80099fc:	9806      	ldr	r0, [sp, #24]
 80099fe:	f240 39bc 	movw	r9, #956	; 0x3bc
 8009a02:	7804      	ldrb	r4, [r0, #0]
 8009a04:	f6c0 0901 	movt	r9, #2049	; 0x801
 8009a08:	f819 4004 	ldrb.w	r4, [r9, r4]
 8009a0c:	f04f 0908 	mov.w	r9, #8
 8009a10:	1c45      	adds	r5, r0, #1
 8009a12:	45cc      	cmp	ip, r9
 8009a14:	bf38      	it	cc
 8009a16:	46e1      	movcc	r9, ip
 8009a18:	9506      	str	r5, [sp, #24]
 8009a1a:	ebc9 0c0c 	rsb	ip, r9, ip
 8009a1e:	2b00      	cmp	r3, #0
 8009a20:	d183      	bne.n	800992a <_DrawBitmap+0xba2>
 8009a22:	9e05      	ldr	r6, [sp, #20]
 8009a24:	f109 37ff 	add.w	r7, r9, #4294967295
 8009a28:	1cb2      	adds	r2, r6, #2
 8009a2a:	07e1      	lsls	r1, r4, #31
 8009a2c:	f007 0001 	and.w	r0, r7, #1
 8009a30:	d506      	bpl.n	8009a40 <_DrawBitmap+0xcb8>
 8009a32:	f832 1c02 	ldrh.w	r1, [r2, #-2]
 8009a36:	9d08      	ldr	r5, [sp, #32]
 8009a38:	ea85 0701 	eor.w	r7, r5, r1
 8009a3c:	f822 7c02 	strh.w	r7, [r2, #-2]
 8009a40:	0864      	lsrs	r4, r4, #1
 8009a42:	3202      	adds	r2, #2
 8009a44:	f1b9 0101 	subs.w	r1, r9, #1
 8009a48:	d028      	beq.n	8009a9c <_DrawBitmap+0xd14>
 8009a4a:	b160      	cbz	r0, 8009a66 <_DrawBitmap+0xcde>
 8009a4c:	07e0      	lsls	r0, r4, #31
 8009a4e:	d506      	bpl.n	8009a5e <_DrawBitmap+0xcd6>
 8009a50:	f832 0c02 	ldrh.w	r0, [r2, #-2]
 8009a54:	9e08      	ldr	r6, [sp, #32]
 8009a56:	ea86 0500 	eor.w	r5, r6, r0
 8009a5a:	f822 5c02 	strh.w	r5, [r2, #-2]
 8009a5e:	0864      	lsrs	r4, r4, #1
 8009a60:	3202      	adds	r2, #2
 8009a62:	3901      	subs	r1, #1
 8009a64:	d01a      	beq.n	8009a9c <_DrawBitmap+0xd14>
 8009a66:	9f08      	ldr	r7, [sp, #32]
 8009a68:	0866      	lsrs	r6, r4, #1
 8009a6a:	f014 0f01 	tst.w	r4, #1
 8009a6e:	f101 31ff 	add.w	r1, r1, #4294967295
 8009a72:	f102 0002 	add.w	r0, r2, #2
 8009a76:	d005      	beq.n	8009a84 <_DrawBitmap+0xcfc>
 8009a78:	f832 4c02 	ldrh.w	r4, [r2, #-2]
 8009a7c:	ea87 0504 	eor.w	r5, r7, r4
 8009a80:	f822 5c02 	strh.w	r5, [r2, #-2]
 8009a84:	07f2      	lsls	r2, r6, #31
 8009a86:	d505      	bpl.n	8009a94 <_DrawBitmap+0xd0c>
 8009a88:	f830 2c02 	ldrh.w	r2, [r0, #-2]
 8009a8c:	ea87 0402 	eor.w	r4, r7, r2
 8009a90:	f820 4c02 	strh.w	r4, [r0, #-2]
 8009a94:	0874      	lsrs	r4, r6, #1
 8009a96:	1c82      	adds	r2, r0, #2
 8009a98:	3901      	subs	r1, #1
 8009a9a:	d1e5      	bne.n	8009a68 <_DrawBitmap+0xce0>
 8009a9c:	9f05      	ldr	r7, [sp, #20]
 8009a9e:	eb07 0649 	add.w	r6, r7, r9, lsl #1
 8009aa2:	9605      	str	r6, [sp, #20]
 8009aa4:	f1bc 0f00 	cmp.w	ip, #0
 8009aa8:	f43f ac10 	beq.w	80092cc <_DrawBitmap+0x544>
 8009aac:	9806      	ldr	r0, [sp, #24]
 8009aae:	f240 34bc 	movw	r4, #956	; 0x3bc
 8009ab2:	7805      	ldrb	r5, [r0, #0]
 8009ab4:	f6c0 0401 	movt	r4, #2049	; 0x801
 8009ab8:	5d64      	ldrb	r4, [r4, r5]
 8009aba:	e7a7      	b.n	8009a0c <_DrawBitmap+0xc84>
 8009abc:	689f      	ldr	r7, [r3, #8]
 8009abe:	9907      	ldr	r1, [sp, #28]
 8009ac0:	683f      	ldr	r7, [r7, #0]
 8009ac2:	9a04      	ldr	r2, [sp, #16]
 8009ac4:	9303      	str	r3, [sp, #12]
 8009ac6:	4618      	mov	r0, r3
 8009ac8:	f8cd c008 	str.w	ip, [sp, #8]
 8009acc:	47b8      	blx	r7
 8009ace:	f835 3c02 	ldrh.w	r3, [r5, #-2]
 8009ad2:	f8dd 8020 	ldr.w	r8, [sp, #32]
 8009ad6:	f8dd c008 	ldr.w	ip, [sp, #8]
 8009ada:	ea88 0003 	eor.w	r0, r8, r3
 8009ade:	f825 0c02 	strh.w	r0, [r5, #-2]
 8009ae2:	9b03      	ldr	r3, [sp, #12]
 8009ae4:	e72a      	b.n	800993c <_DrawBitmap+0xbb4>
 8009ae6:	6899      	ldr	r1, [r3, #8]
 8009ae8:	9a04      	ldr	r2, [sp, #16]
 8009aea:	680e      	ldr	r6, [r1, #0]
 8009aec:	9303      	str	r3, [sp, #12]
 8009aee:	4618      	mov	r0, r3
 8009af0:	f8cd c008 	str.w	ip, [sp, #8]
 8009af4:	4641      	mov	r1, r8
 8009af6:	47b0      	blx	r6
 8009af8:	f835 7c02 	ldrh.w	r7, [r5, #-2]
 8009afc:	9b08      	ldr	r3, [sp, #32]
 8009afe:	f8dd c008 	ldr.w	ip, [sp, #8]
 8009b02:	ea83 0007 	eor.w	r0, r3, r7
 8009b06:	f825 0c02 	strh.w	r0, [r5, #-2]
 8009b0a:	9b03      	ldr	r3, [sp, #12]
 8009b0c:	e722      	b.n	8009954 <_DrawBitmap+0xbcc>
 8009b0e:	9b0d      	ldr	r3, [sp, #52]	; 0x34
 8009b10:	9a2b      	ldr	r2, [sp, #172]	; 0xac
 8009b12:	f8b3 b004 	ldrh.w	fp, [r3, #4]
 8009b16:	9206      	str	r2, [sp, #24]
 8009b18:	464d      	mov	r5, r9
 8009b1a:	42ae      	cmp	r6, r5
 8009b1c:	bf38      	it	cc
 8009b1e:	4635      	movcc	r5, r6
 8009b20:	46ba      	mov	sl, r7
 8009b22:	f8cd b014 	str.w	fp, [sp, #20]
 8009b26:	f8dd 8024 	ldr.w	r8, [sp, #36]	; 0x24
 8009b2a:	46e3      	mov	fp, ip
 8009b2c:	1b76      	subs	r6, r6, r5
 8009b2e:	f1ba 0f00 	cmp.w	sl, #0
 8009b32:	d055      	beq.n	8009be0 <_DrawBitmap+0xe58>
 8009b34:	2c00      	cmp	r4, #0
 8009b36:	f000 8094 	beq.w	8009c62 <_DrawBitmap+0xeda>
 8009b3a:	07e9      	lsls	r1, r5, #31
 8009b3c:	f10b 0902 	add.w	r9, fp, #2
 8009b40:	d40b      	bmi.n	8009b5a <_DrawBitmap+0xdd2>
 8009b42:	07e3      	lsls	r3, r4, #31
 8009b44:	f100 8091 	bmi.w	8009c6a <_DrawBitmap+0xee2>
 8009b48:	3d01      	subs	r5, #1
 8009b4a:	0864      	lsrs	r4, r4, #1
 8009b4c:	46cb      	mov	fp, r9
 8009b4e:	f108 0801 	add.w	r8, r8, #1
 8009b52:	f109 0902 	add.w	r9, r9, #2
 8009b56:	f000 8084 	beq.w	8009c62 <_DrawBitmap+0xeda>
 8009b5a:	4657      	mov	r7, sl
 8009b5c:	9607      	str	r6, [sp, #28]
 8009b5e:	e013      	b.n	8009b88 <_DrawBitmap+0xe00>
 8009b60:	f108 0801 	add.w	r8, r8, #1
 8009b64:	3d01      	subs	r5, #1
 8009b66:	46cb      	mov	fp, r9
 8009b68:	4646      	mov	r6, r8
 8009b6a:	b315      	cbz	r5, 8009bb2 <_DrawBitmap+0xe2a>
 8009b6c:	0864      	lsrs	r4, r4, #1
 8009b6e:	d076      	beq.n	8009c5e <_DrawBitmap+0xed6>
 8009b70:	f014 0f01 	tst.w	r4, #1
 8009b74:	46d3      	mov	fp, sl
 8009b76:	f105 35ff 	add.w	r5, r5, #4294967295
 8009b7a:	f10a 0902 	add.w	r9, sl, #2
 8009b7e:	d161      	bne.n	8009c44 <_DrawBitmap+0xebc>
 8009b80:	0864      	lsrs	r4, r4, #1
 8009b82:	f106 0801 	add.w	r8, r6, #1
 8009b86:	d06a      	beq.n	8009c5e <_DrawBitmap+0xed6>
 8009b88:	f014 0f01 	tst.w	r4, #1
 8009b8c:	f109 0a02 	add.w	sl, r9, #2
 8009b90:	d0e6      	beq.n	8009b60 <_DrawBitmap+0xdd8>
 8009b92:	68be      	ldr	r6, [r7, #8]
 8009b94:	9a04      	ldr	r2, [sp, #16]
 8009b96:	6833      	ldr	r3, [r6, #0]
 8009b98:	4641      	mov	r1, r8
 8009b9a:	4638      	mov	r0, r7
 8009b9c:	4798      	blx	r3
 8009b9e:	9905      	ldr	r1, [sp, #20]
 8009ba0:	f108 0801 	add.w	r8, r8, #1
 8009ba4:	3d01      	subs	r5, #1
 8009ba6:	f829 1c02 	strh.w	r1, [r9, #-2]
 8009baa:	46cb      	mov	fp, r9
 8009bac:	4646      	mov	r6, r8
 8009bae:	2d00      	cmp	r5, #0
 8009bb0:	d1dc      	bne.n	8009b6c <_DrawBitmap+0xde4>
 8009bb2:	9e07      	ldr	r6, [sp, #28]
 8009bb4:	46ba      	mov	sl, r7
 8009bb6:	2e00      	cmp	r6, #0
 8009bb8:	f43f ab88 	beq.w	80092cc <_DrawBitmap+0x544>
 8009bbc:	9c06      	ldr	r4, [sp, #24]
 8009bbe:	f240 3cbc 	movw	ip, #956	; 0x3bc
 8009bc2:	f814 7f01 	ldrb.w	r7, [r4, #1]!
 8009bc6:	2508      	movs	r5, #8
 8009bc8:	f6c0 0c01 	movt	ip, #2049	; 0x801
 8009bcc:	42ae      	cmp	r6, r5
 8009bce:	bf38      	it	cc
 8009bd0:	4635      	movcc	r5, r6
 8009bd2:	9406      	str	r4, [sp, #24]
 8009bd4:	1b76      	subs	r6, r6, r5
 8009bd6:	f81c 4007 	ldrb.w	r4, [ip, r7]
 8009bda:	f1ba 0f00 	cmp.w	sl, #0
 8009bde:	d1a9      	bne.n	8009b34 <_DrawBitmap+0xdac>
 8009be0:	2c00      	cmp	r4, #0
 8009be2:	f000 80ae 	beq.w	8009d42 <_DrawBitmap+0xfba>
 8009be6:	07ea      	lsls	r2, r5, #31
 8009be8:	f10b 0302 	add.w	r3, fp, #2
 8009bec:	d40c      	bmi.n	8009c08 <_DrawBitmap+0xe80>
 8009bee:	07e7      	lsls	r7, r4, #31
 8009bf0:	bf48      	it	mi
 8009bf2:	f8dd c014 	ldrmi.w	ip, [sp, #20]
 8009bf6:	469b      	mov	fp, r3
 8009bf8:	bf48      	it	mi
 8009bfa:	f823 cc02 	strhmi.w	ip, [r3, #-2]
 8009bfe:	3d01      	subs	r5, #1
 8009c00:	3302      	adds	r3, #2
 8009c02:	0864      	lsrs	r4, r4, #1
 8009c04:	f000 809d 	beq.w	8009d42 <_DrawBitmap+0xfba>
 8009c08:	9f05      	ldr	r7, [sp, #20]
 8009c0a:	e00f      	b.n	8009c2c <_DrawBitmap+0xea4>
 8009c0c:	0864      	lsrs	r4, r4, #1
 8009c0e:	f000 8098 	beq.w	8009d42 <_DrawBitmap+0xfba>
 8009c12:	f014 0f01 	tst.w	r4, #1
 8009c16:	bf18      	it	ne
 8009c18:	f821 7c02 	strhne.w	r7, [r1, #-2]
 8009c1c:	0864      	lsrs	r4, r4, #1
 8009c1e:	468b      	mov	fp, r1
 8009c20:	f105 35ff 	add.w	r5, r5, #4294967295
 8009c24:	f101 0302 	add.w	r3, r1, #2
 8009c28:	f000 808b 	beq.w	8009d42 <_DrawBitmap+0xfba>
 8009c2c:	f014 0f01 	tst.w	r4, #1
 8009c30:	bf18      	it	ne
 8009c32:	f823 7c02 	strhne.w	r7, [r3, #-2]
 8009c36:	3d01      	subs	r5, #1
 8009c38:	f103 0102 	add.w	r1, r3, #2
 8009c3c:	469b      	mov	fp, r3
 8009c3e:	2d00      	cmp	r5, #0
 8009c40:	d1e4      	bne.n	8009c0c <_DrawBitmap+0xe84>
 8009c42:	e7b8      	b.n	8009bb6 <_DrawBitmap+0xe2e>
 8009c44:	68ba      	ldr	r2, [r7, #8]
 8009c46:	4641      	mov	r1, r8
 8009c48:	6813      	ldr	r3, [r2, #0]
 8009c4a:	9a04      	ldr	r2, [sp, #16]
 8009c4c:	4638      	mov	r0, r7
 8009c4e:	4798      	blx	r3
 8009c50:	9905      	ldr	r1, [sp, #20]
 8009c52:	0864      	lsrs	r4, r4, #1
 8009c54:	f82a 1c02 	strh.w	r1, [sl, #-2]
 8009c58:	f106 0801 	add.w	r8, r6, #1
 8009c5c:	d194      	bne.n	8009b88 <_DrawBitmap+0xe00>
 8009c5e:	9e07      	ldr	r6, [sp, #28]
 8009c60:	46ba      	mov	sl, r7
 8009c62:	eb0b 0b45 	add.w	fp, fp, r5, lsl #1
 8009c66:	44a8      	add	r8, r5
 8009c68:	e7a5      	b.n	8009bb6 <_DrawBitmap+0xe2e>
 8009c6a:	f8da 2008 	ldr.w	r2, [sl, #8]
 8009c6e:	4650      	mov	r0, sl
 8009c70:	6817      	ldr	r7, [r2, #0]
 8009c72:	9a04      	ldr	r2, [sp, #16]
 8009c74:	4641      	mov	r1, r8
 8009c76:	47b8      	blx	r7
 8009c78:	f8dd c014 	ldr.w	ip, [sp, #20]
 8009c7c:	f829 cc02 	strh.w	ip, [r9, #-2]
 8009c80:	e762      	b.n	8009b48 <_DrawBitmap+0xdc0>
 8009c82:	9e2b      	ldr	r6, [sp, #172]	; 0xac
 8009c84:	980a      	ldr	r0, [sp, #40]	; 0x28
 8009c86:	4284      	cmp	r4, r0
 8009c88:	bfc8      	it	gt
 8009c8a:	b2c4      	uxtbgt	r4, r0
 8009c8c:	1e67      	subs	r7, r4, #1
 8009c8e:	f015 0fc0 	tst.w	r5, #192	; 0xc0
 8009c92:	ebc4 0000 	rsb	r0, r4, r0
 8009c96:	f10c 0302 	add.w	r3, ip, #2
 8009c9a:	f007 0701 	and.w	r7, r7, #1
 8009c9e:	d005      	beq.n	8009cac <_DrawBitmap+0xf24>
 8009ca0:	f833 2c02 	ldrh.w	r2, [r3, #-2]
 8009ca4:	f082 01ff 	eor.w	r1, r2, #255	; 0xff
 8009ca8:	f823 1c02 	strh.w	r1, [r3, #-2]
 8009cac:	1e61      	subs	r1, r4, #1
 8009cae:	00ad      	lsls	r5, r5, #2
 8009cb0:	3302      	adds	r3, #2
 8009cb2:	f011 01ff 	ands.w	r1, r1, #255	; 0xff
 8009cb6:	b2ea      	uxtb	r2, r5
 8009cb8:	d02f      	beq.n	8009d1a <_DrawBitmap+0xf92>
 8009cba:	b17f      	cbz	r7, 8009cdc <_DrawBitmap+0xf54>
 8009cbc:	f012 0fc0 	tst.w	r2, #192	; 0xc0
 8009cc0:	d005      	beq.n	8009cce <_DrawBitmap+0xf46>
 8009cc2:	f833 7c02 	ldrh.w	r7, [r3, #-2]
 8009cc6:	f087 05ff 	eor.w	r5, r7, #255	; 0xff
 8009cca:	f823 5c02 	strh.w	r5, [r3, #-2]
 8009cce:	3901      	subs	r1, #1
 8009cd0:	0092      	lsls	r2, r2, #2
 8009cd2:	3302      	adds	r3, #2
 8009cd4:	f011 01ff 	ands.w	r1, r1, #255	; 0xff
 8009cd8:	b2d2      	uxtb	r2, r2
 8009cda:	d01e      	beq.n	8009d1a <_DrawBitmap+0xf92>
 8009cdc:	0097      	lsls	r7, r2, #2
 8009cde:	3901      	subs	r1, #1
 8009ce0:	f012 0fc0 	tst.w	r2, #192	; 0xc0
 8009ce4:	b2fd      	uxtb	r5, r7
 8009ce6:	b2c9      	uxtb	r1, r1
 8009ce8:	f103 0702 	add.w	r7, r3, #2
 8009cec:	d005      	beq.n	8009cfa <_DrawBitmap+0xf72>
 8009cee:	f833 2c02 	ldrh.w	r2, [r3, #-2]
 8009cf2:	f082 02ff 	eor.w	r2, r2, #255	; 0xff
 8009cf6:	f823 2c02 	strh.w	r2, [r3, #-2]
 8009cfa:	f015 0fc0 	tst.w	r5, #192	; 0xc0
 8009cfe:	d005      	beq.n	8009d0c <_DrawBitmap+0xf84>
 8009d00:	f837 3c02 	ldrh.w	r3, [r7, #-2]
 8009d04:	f083 02ff 	eor.w	r2, r3, #255	; 0xff
 8009d08:	f827 2c02 	strh.w	r2, [r7, #-2]
 8009d0c:	3901      	subs	r1, #1
 8009d0e:	00ad      	lsls	r5, r5, #2
 8009d10:	1cbb      	adds	r3, r7, #2
 8009d12:	f011 01ff 	ands.w	r1, r1, #255	; 0xff
 8009d16:	b2ea      	uxtb	r2, r5
 8009d18:	d1e0      	bne.n	8009cdc <_DrawBitmap+0xf54>
 8009d1a:	1e67      	subs	r7, r4, #1
 8009d1c:	b2fd      	uxtb	r5, r7
 8009d1e:	1c6a      	adds	r2, r5, #1
 8009d20:	eb0c 0c42 	add.w	ip, ip, r2, lsl #1
 8009d24:	2800      	cmp	r0, #0
 8009d26:	f43f a93e 	beq.w	8008fa6 <_DrawBitmap+0x21e>
 8009d2a:	f816 5f01 	ldrb.w	r5, [r6, #1]!
 8009d2e:	2404      	movs	r4, #4
 8009d30:	e7a9      	b.n	8009c86 <_DrawBitmap+0xefe>
 8009d32:	f648 0c08 	movw	ip, #34824	; 0x8808
 8009d36:	f6c1 7cfe 	movt	ip, #8190	; 0x1ffe
 8009d3a:	f8dc 3000 	ldr.w	r3, [ip]
 8009d3e:	f7ff b853 	b.w	8008de8 <_DrawBitmap+0x60>
 8009d42:	eb0b 0b45 	add.w	fp, fp, r5, lsl #1
 8009d46:	e736      	b.n	8009bb6 <_DrawBitmap+0xe2e>
 8009d48:	f8dd b030 	ldr.w	fp, [sp, #48]	; 0x30
 8009d4c:	f7ff bb19 	b.w	8009382 <_DrawBitmap+0x5fa>
 8009d50:	2d00      	cmp	r5, #0
 8009d52:	f340 8253 	ble.w	800a1fc <_DrawBitmap+0x1474>
 8009d56:	f8dd b028 	ldr.w	fp, [sp, #40]	; 0x28
 8009d5a:	982b      	ldr	r0, [sp, #172]	; 0xac
 8009d5c:	f8dd a070 	ldr.w	sl, [sp, #112]	; 0x70
 8009d60:	9905      	ldr	r1, [sp, #20]
 8009d62:	9a09      	ldr	r2, [sp, #36]	; 0x24
 8009d64:	ea4f 044b 	mov.w	r4, fp, lsl #1
 8009d68:	eb00 0e0b 	add.w	lr, r0, fp
 8009d6c:	1973      	adds	r3, r6, r5
 8009d6e:	1ea5      	subs	r5, r4, #2
 8009d70:	9c2d      	ldr	r4, [sp, #180]	; 0xb4
 8009d72:	9507      	str	r5, [sp, #28]
 8009d74:	4657      	mov	r7, sl
 8009d76:	f101 0902 	add.w	r9, r1, #2
 8009d7a:	ebc2 0b00 	rsb	fp, r2, r0
 8009d7e:	9305      	str	r3, [sp, #20]
 8009d80:	f8cd e010 	str.w	lr, [sp, #16]
 8009d84:	46d0      	mov	r8, sl
 8009d86:	4605      	mov	r5, r0
 8009d88:	f1a9 0002 	sub.w	r0, r9, #2
 8009d8c:	2c00      	cmp	r4, #0
 8009d8e:	f000 80b1 	beq.w	8009ef4 <_DrawBitmap+0x116c>
 8009d92:	f648 0308 	movw	r3, #34824	; 0x8808
 8009d96:	f6c1 73fe 	movt	r3, #8190	; 0x1ffe
 8009d9a:	6819      	ldr	r1, [r3, #0]
 8009d9c:	7c0a      	ldrb	r2, [r1, #16]
 8009d9e:	f012 0303 	ands.w	r3, r2, #3
 8009da2:	d13a      	bne.n	8009e1a <_DrawBitmap+0x1092>
 8009da4:	9b07      	ldr	r3, [sp, #28]
 8009da6:	7829      	ldrb	r1, [r5, #0]
 8009da8:	eb03 0c09 	add.w	ip, r3, r9
 8009dac:	ebc0 030c 	rsb	r3, r0, ip
 8009db0:	f854 2021 	ldr.w	r2, [r4, r1, lsl #2]
 8009db4:	1e99      	subs	r1, r3, #2
 8009db6:	45e1      	cmp	r9, ip
 8009db8:	8002      	strh	r2, [r0, #0]
 8009dba:	464b      	mov	r3, r9
 8009dbc:	f3c1 0040 	ubfx	r0, r1, #1, #1
 8009dc0:	4629      	mov	r1, r5
 8009dc2:	d017      	beq.n	8009df4 <_DrawBitmap+0x106c>
 8009dc4:	b140      	cbz	r0, 8009dd8 <_DrawBitmap+0x1050>
 8009dc6:	786a      	ldrb	r2, [r5, #1]
 8009dc8:	464b      	mov	r3, r9
 8009dca:	f854 1022 	ldr.w	r1, [r4, r2, lsl #2]
 8009dce:	f823 1b02 	strh.w	r1, [r3], #2
 8009dd2:	1c69      	adds	r1, r5, #1
 8009dd4:	4563      	cmp	r3, ip
 8009dd6:	d00d      	beq.n	8009df4 <_DrawBitmap+0x106c>
 8009dd8:	7848      	ldrb	r0, [r1, #1]
 8009dda:	461a      	mov	r2, r3
 8009ddc:	f854 0020 	ldr.w	r0, [r4, r0, lsl #2]
 8009de0:	f822 0b02 	strh.w	r0, [r2], #2
 8009de4:	7888      	ldrb	r0, [r1, #2]
 8009de6:	f854 0020 	ldr.w	r0, [r4, r0, lsl #2]
 8009dea:	8058      	strh	r0, [r3, #2]
 8009dec:	1c93      	adds	r3, r2, #2
 8009dee:	3102      	adds	r1, #2
 8009df0:	4563      	cmp	r3, ip
 8009df2:	d1f1      	bne.n	8009dd8 <_DrawBitmap+0x1050>
 8009df4:	992a      	ldr	r1, [sp, #168]	; 0xa8
 8009df6:	9b04      	ldr	r3, [sp, #16]
 8009df8:	980c      	ldr	r0, [sp, #48]	; 0x30
 8009dfa:	185a      	adds	r2, r3, r1
 8009dfc:	9b05      	ldr	r3, [sp, #20]
 8009dfe:	9204      	str	r2, [sp, #16]
 8009e00:	3601      	adds	r6, #1
 8009e02:	186d      	adds	r5, r5, r1
 8009e04:	992a      	ldr	r1, [sp, #168]	; 0xa8
 8009e06:	429e      	cmp	r6, r3
 8009e08:	4481      	add	r9, r0
 8009e0a:	448b      	add	fp, r1
 8009e0c:	d1bc      	bne.n	8009d88 <_DrawBitmap+0x1000>
 8009e0e:	4647      	mov	r7, r8
 8009e10:	2f00      	cmp	r7, #0
 8009e12:	f47f a895 	bne.w	8008f40 <_DrawBitmap+0x1b8>
 8009e16:	f7ff b896 	b.w	8008f46 <_DrawBitmap+0x1be>
 8009e1a:	2b02      	cmp	r3, #2
 8009e1c:	d1ea      	bne.n	8009df4 <_DrawBitmap+0x106c>
 8009e1e:	2f00      	cmp	r7, #0
 8009e20:	d078      	beq.n	8009f14 <_DrawBitmap+0x118c>
 8009e22:	f8dd a024 	ldr.w	sl, [sp, #36]	; 0x24
 8009e26:	f8dd c028 	ldr.w	ip, [sp, #40]	; 0x28
 8009e2a:	f81b 000a 	ldrb.w	r0, [fp, sl]
 8009e2e:	f10c 31ff 	add.w	r1, ip, #4294967295
 8009e32:	f001 0a01 	and.w	sl, r1, #1
 8009e36:	b148      	cbz	r0, 8009e4c <_DrawBitmap+0x10c4>
 8009e38:	f854 2020 	ldr.w	r2, [r4, r0, lsl #2]
 8009e3c:	68bb      	ldr	r3, [r7, #8]
 8009e3e:	9909      	ldr	r1, [sp, #36]	; 0x24
 8009e40:	f829 2c02 	strh.w	r2, [r9, #-2]
 8009e44:	681b      	ldr	r3, [r3, #0]
 8009e46:	4638      	mov	r0, r7
 8009e48:	4632      	mov	r2, r6
 8009e4a:	4798      	blx	r3
 8009e4c:	9809      	ldr	r0, [sp, #36]	; 0x24
 8009e4e:	990a      	ldr	r1, [sp, #40]	; 0x28
 8009e50:	1c43      	adds	r3, r0, #1
 8009e52:	f1b1 0c01 	subs.w	ip, r1, #1
 8009e56:	f109 0802 	add.w	r8, r9, #2
 8009e5a:	d048      	beq.n	8009eee <_DrawBitmap+0x1166>
 8009e5c:	f1ba 0f00 	cmp.w	sl, #0
 8009e60:	d019      	beq.n	8009e96 <_DrawBitmap+0x110e>
 8009e62:	f81b 2003 	ldrb.w	r2, [fp, r3]
 8009e66:	b182      	cbz	r2, 8009e8a <_DrawBitmap+0x1102>
 8009e68:	f854 0022 	ldr.w	r0, [r4, r2, lsl #2]
 8009e6c:	68b9      	ldr	r1, [r7, #8]
 8009e6e:	f828 0c02 	strh.w	r0, [r8, #-2]
 8009e72:	f8d1 a000 	ldr.w	sl, [r1]
 8009e76:	9303      	str	r3, [sp, #12]
 8009e78:	4619      	mov	r1, r3
 8009e7a:	f8cd c008 	str.w	ip, [sp, #8]
 8009e7e:	4638      	mov	r0, r7
 8009e80:	4632      	mov	r2, r6
 8009e82:	47d0      	blx	sl
 8009e84:	f8dd c008 	ldr.w	ip, [sp, #8]
 8009e88:	9b03      	ldr	r3, [sp, #12]
 8009e8a:	3301      	adds	r3, #1
 8009e8c:	f1bc 0c01 	subs.w	ip, ip, #1
 8009e90:	f108 0802 	add.w	r8, r8, #2
 8009e94:	d02b      	beq.n	8009eee <_DrawBitmap+0x1166>
 8009e96:	950b      	str	r5, [sp, #44]	; 0x2c
 8009e98:	4635      	mov	r5, r6
 8009e9a:	4666      	mov	r6, ip
 8009e9c:	f103 0a01 	add.w	sl, r3, #1
 8009ea0:	4619      	mov	r1, r3
 8009ea2:	f81b 3003 	ldrb.w	r3, [fp, r3]
 8009ea6:	4638      	mov	r0, r7
 8009ea8:	462a      	mov	r2, r5
 8009eaa:	b143      	cbz	r3, 8009ebe <_DrawBitmap+0x1136>
 8009eac:	f854 e023 	ldr.w	lr, [r4, r3, lsl #2]
 8009eb0:	f8d7 c008 	ldr.w	ip, [r7, #8]
 8009eb4:	f828 ec02 	strh.w	lr, [r8, #-2]
 8009eb8:	f8dc 3000 	ldr.w	r3, [ip]
 8009ebc:	4798      	blx	r3
 8009ebe:	f81b 200a 	ldrb.w	r2, [fp, sl]
 8009ec2:	3e01      	subs	r6, #1
 8009ec4:	f108 0802 	add.w	r8, r8, #2
 8009ec8:	b14a      	cbz	r2, 8009ede <_DrawBitmap+0x1156>
 8009eca:	f854 0022 	ldr.w	r0, [r4, r2, lsl #2]
 8009ece:	68b9      	ldr	r1, [r7, #8]
 8009ed0:	f828 0c02 	strh.w	r0, [r8, #-2]
 8009ed4:	680b      	ldr	r3, [r1, #0]
 8009ed6:	4638      	mov	r0, r7
 8009ed8:	4651      	mov	r1, sl
 8009eda:	462a      	mov	r2, r5
 8009edc:	4798      	blx	r3
 8009ede:	3e01      	subs	r6, #1
 8009ee0:	f10a 0301 	add.w	r3, sl, #1
 8009ee4:	f108 0802 	add.w	r8, r8, #2
 8009ee8:	d1d8      	bne.n	8009e9c <_DrawBitmap+0x1114>
 8009eea:	462e      	mov	r6, r5
 8009eec:	9d0b      	ldr	r5, [sp, #44]	; 0x2c
 8009eee:	9f1c      	ldr	r7, [sp, #112]	; 0x70
 8009ef0:	46b8      	mov	r8, r7
 8009ef2:	e77f      	b.n	8009df4 <_DrawBitmap+0x106c>
 8009ef4:	f648 0108 	movw	r1, #34824	; 0x8808
 8009ef8:	f6c1 71fe 	movt	r1, #8190	; 0x1ffe
 8009efc:	680a      	ldr	r2, [r1, #0]
 8009efe:	7c13      	ldrb	r3, [r2, #16]
 8009f00:	f013 0103 	ands.w	r1, r3, #3
 8009f04:	d144      	bne.n	8009f90 <_DrawBitmap+0x1208>
 8009f06:	4629      	mov	r1, r5
 8009f08:	9a0a      	ldr	r2, [sp, #40]	; 0x28
 8009f0a:	f003 fdb1 	bl	800da70 <memcpy>
 8009f0e:	9f1c      	ldr	r7, [sp, #112]	; 0x70
 8009f10:	46b8      	mov	r8, r7
 8009f12:	e76f      	b.n	8009df4 <_DrawBitmap+0x106c>
 8009f14:	462b      	mov	r3, r5
 8009f16:	f8dd c010 	ldr.w	ip, [sp, #16]
 8009f1a:	f813 2b01 	ldrb.w	r2, [r3], #1
 8009f1e:	43e8      	mvns	r0, r5
 8009f20:	eb00 010c 	add.w	r1, r0, ip
 8009f24:	f001 0001 	and.w	r0, r1, #1
 8009f28:	bb2a      	cbnz	r2, 8009f76 <_DrawBitmap+0x11ee>
 8009f2a:	4563      	cmp	r3, ip
 8009f2c:	f109 0202 	add.w	r2, r9, #2
 8009f30:	d0de      	beq.n	8009ef0 <_DrawBitmap+0x1168>
 8009f32:	b158      	cbz	r0, 8009f4c <_DrawBitmap+0x11c4>
 8009f34:	f813 1b01 	ldrb.w	r1, [r3], #1
 8009f38:	b119      	cbz	r1, 8009f42 <_DrawBitmap+0x11ba>
 8009f3a:	f854 0021 	ldr.w	r0, [r4, r1, lsl #2]
 8009f3e:	f822 0c02 	strh.w	r0, [r2, #-2]
 8009f42:	f8dd 8010 	ldr.w	r8, [sp, #16]
 8009f46:	3202      	adds	r2, #2
 8009f48:	4543      	cmp	r3, r8
 8009f4a:	d0d1      	beq.n	8009ef0 <_DrawBitmap+0x1168>
 8009f4c:	f813 1b01 	ldrb.w	r1, [r3], #1
 8009f50:	1c90      	adds	r0, r2, #2
 8009f52:	b119      	cbz	r1, 8009f5c <_DrawBitmap+0x11d4>
 8009f54:	f854 1021 	ldr.w	r1, [r4, r1, lsl #2]
 8009f58:	f822 1c02 	strh.w	r1, [r2, #-2]
 8009f5c:	f813 2b01 	ldrb.w	r2, [r3], #1
 8009f60:	b11a      	cbz	r2, 8009f6a <_DrawBitmap+0x11e2>
 8009f62:	f854 1022 	ldr.w	r1, [r4, r2, lsl #2]
 8009f66:	f820 1c02 	strh.w	r1, [r0, #-2]
 8009f6a:	f8dd c010 	ldr.w	ip, [sp, #16]
 8009f6e:	1c82      	adds	r2, r0, #2
 8009f70:	4563      	cmp	r3, ip
 8009f72:	d1eb      	bne.n	8009f4c <_DrawBitmap+0x11c4>
 8009f74:	e7bc      	b.n	8009ef0 <_DrawBitmap+0x1168>
 8009f76:	f854 2022 	ldr.w	r2, [r4, r2, lsl #2]
 8009f7a:	f8dd c010 	ldr.w	ip, [sp, #16]
 8009f7e:	f829 2c02 	strh.w	r2, [r9, #-2]
 8009f82:	e7d2      	b.n	8009f2a <_DrawBitmap+0x11a2>
 8009f84:	990a      	ldr	r1, [sp, #40]	; 0x28
 8009f86:	9d2b      	ldr	r5, [sp, #172]	; 0xac
 8009f88:	f8dd b024 	ldr.w	fp, [sp, #36]	; 0x24
 8009f8c:	f7ff bb55 	b.w	800963a <_DrawBitmap+0x8b2>
 8009f90:	2902      	cmp	r1, #2
 8009f92:	f47f af2f 	bne.w	8009df4 <_DrawBitmap+0x106c>
 8009f96:	2f00      	cmp	r7, #0
 8009f98:	d07f      	beq.n	800a09a <_DrawBitmap+0x1312>
 8009f9a:	f8dd a024 	ldr.w	sl, [sp, #36]	; 0x24
 8009f9e:	f8dd 8028 	ldr.w	r8, [sp, #40]	; 0x28
 8009fa2:	f81b 000a 	ldrb.w	r0, [fp, sl]
 8009fa6:	f108 32ff 	add.w	r2, r8, #4294967295
 8009faa:	f002 0a01 	and.w	sl, r2, #1
 8009fae:	b138      	cbz	r0, 8009fc0 <_DrawBitmap+0x1238>
 8009fb0:	68bb      	ldr	r3, [r7, #8]
 8009fb2:	9909      	ldr	r1, [sp, #36]	; 0x24
 8009fb4:	f829 0c02 	strh.w	r0, [r9, #-2]
 8009fb8:	681b      	ldr	r3, [r3, #0]
 8009fba:	4638      	mov	r0, r7
 8009fbc:	4632      	mov	r2, r6
 8009fbe:	4798      	blx	r3
 8009fc0:	990a      	ldr	r1, [sp, #40]	; 0x28
 8009fc2:	f8dd c024 	ldr.w	ip, [sp, #36]	; 0x24
 8009fc6:	1e48      	subs	r0, r1, #1
 8009fc8:	f10c 0801 	add.w	r8, ip, #1
 8009fcc:	9006      	str	r0, [sp, #24]
 8009fce:	f109 0c02 	add.w	ip, r9, #2
 8009fd2:	d08c      	beq.n	8009eee <_DrawBitmap+0x1166>
 8009fd4:	f1ba 0f00 	cmp.w	sl, #0
 8009fd8:	d017      	beq.n	800a00a <_DrawBitmap+0x1282>
 8009fda:	f81b 3008 	ldrb.w	r3, [fp, r8]
 8009fde:	b15b      	cbz	r3, 8009ff8 <_DrawBitmap+0x1270>
 8009fe0:	68ba      	ldr	r2, [r7, #8]
 8009fe2:	f82c 3c02 	strh.w	r3, [ip, #-2]
 8009fe6:	4638      	mov	r0, r7
 8009fe8:	6813      	ldr	r3, [r2, #0]
 8009fea:	f8cd c008 	str.w	ip, [sp, #8]
 8009fee:	4641      	mov	r1, r8
 8009ff0:	4632      	mov	r2, r6
 8009ff2:	4798      	blx	r3
 8009ff4:	f8dd c008 	ldr.w	ip, [sp, #8]
 8009ff8:	9906      	ldr	r1, [sp, #24]
 8009ffa:	1e48      	subs	r0, r1, #1
 8009ffc:	f108 0801 	add.w	r8, r8, #1
 800a000:	f10c 0c02 	add.w	ip, ip, #2
 800a004:	9006      	str	r0, [sp, #24]
 800a006:	f43f af72 	beq.w	8009eee <_DrawBitmap+0x1166>
 800a00a:	9508      	str	r5, [sp, #32]
 800a00c:	4645      	mov	r5, r8
 800a00e:	46b0      	mov	r8, r6
 800a010:	4626      	mov	r6, r4
 800a012:	4664      	mov	r4, ip
 800a014:	f8dd c018 	ldr.w	ip, [sp, #24]
 800a018:	f105 0a01 	add.w	sl, r5, #1
 800a01c:	4629      	mov	r1, r5
 800a01e:	f81b 5005 	ldrb.w	r5, [fp, r5]
 800a022:	4638      	mov	r0, r7
 800a024:	4642      	mov	r2, r8
 800a026:	b145      	cbz	r5, 800a03a <_DrawBitmap+0x12b2>
 800a028:	68bb      	ldr	r3, [r7, #8]
 800a02a:	f824 5c02 	strh.w	r5, [r4, #-2]
 800a02e:	681d      	ldr	r5, [r3, #0]
 800a030:	f8cd c008 	str.w	ip, [sp, #8]
 800a034:	47a8      	blx	r5
 800a036:	f8dd c008 	ldr.w	ip, [sp, #8]
 800a03a:	f81b 100a 	ldrb.w	r1, [fp, sl]
 800a03e:	f10c 3cff 	add.w	ip, ip, #4294967295
 800a042:	3402      	adds	r4, #2
 800a044:	b159      	cbz	r1, 800a05e <_DrawBitmap+0x12d6>
 800a046:	68ba      	ldr	r2, [r7, #8]
 800a048:	f824 1c02 	strh.w	r1, [r4, #-2]
 800a04c:	6813      	ldr	r3, [r2, #0]
 800a04e:	f8cd c008 	str.w	ip, [sp, #8]
 800a052:	4638      	mov	r0, r7
 800a054:	4651      	mov	r1, sl
 800a056:	4642      	mov	r2, r8
 800a058:	4798      	blx	r3
 800a05a:	f8dd c008 	ldr.w	ip, [sp, #8]
 800a05e:	3402      	adds	r4, #2
 800a060:	f1bc 0c01 	subs.w	ip, ip, #1
 800a064:	f10a 0501 	add.w	r5, sl, #1
 800a068:	d1d6      	bne.n	800a018 <_DrawBitmap+0x1290>
 800a06a:	4634      	mov	r4, r6
 800a06c:	9d08      	ldr	r5, [sp, #32]
 800a06e:	4646      	mov	r6, r8
 800a070:	e73d      	b.n	8009eee <_DrawBitmap+0x1166>
 800a072:	ea4f 1919 	mov.w	r9, r9, lsr #4
 800a076:	980d      	ldr	r0, [sp, #52]	; 0x34
 800a078:	f850 2029 	ldr.w	r2, [r0, r9, lsl #2]
 800a07c:	f8ac 2000 	strh.w	r2, [ip]
 800a080:	f1ba 0f00 	cmp.w	sl, #0
 800a084:	f43f aacf 	beq.w	8009626 <_DrawBitmap+0x89e>
 800a088:	f8da 3008 	ldr.w	r3, [sl, #8]
 800a08c:	9909      	ldr	r1, [sp, #36]	; 0x24
 800a08e:	681e      	ldr	r6, [r3, #0]
 800a090:	9a04      	ldr	r2, [sp, #16]
 800a092:	4650      	mov	r0, sl
 800a094:	47b0      	blx	r6
 800a096:	f7ff bac6 	b.w	8009626 <_DrawBitmap+0x89e>
 800a09a:	462b      	mov	r3, r5
 800a09c:	f8dd 8010 	ldr.w	r8, [sp, #16]
 800a0a0:	f813 2b01 	ldrb.w	r2, [r3], #1
 800a0a4:	ebc8 0005 	rsb	r0, r8, r5
 800a0a8:	43c1      	mvns	r1, r0
 800a0aa:	f001 0001 	and.w	r0, r1, #1
 800a0ae:	b11a      	cbz	r2, 800a0b8 <_DrawBitmap+0x1330>
 800a0b0:	f8dd 8010 	ldr.w	r8, [sp, #16]
 800a0b4:	f829 2c02 	strh.w	r2, [r9, #-2]
 800a0b8:	4598      	cmp	r8, r3
 800a0ba:	f109 0202 	add.w	r2, r9, #2
 800a0be:	f43f af17 	beq.w	8009ef0 <_DrawBitmap+0x1168>
 800a0c2:	b150      	cbz	r0, 800a0da <_DrawBitmap+0x1352>
 800a0c4:	f813 1b01 	ldrb.w	r1, [r3], #1
 800a0c8:	b109      	cbz	r1, 800a0ce <_DrawBitmap+0x1346>
 800a0ca:	f822 1c02 	strh.w	r1, [r2, #-2]
 800a0ce:	f8dd c010 	ldr.w	ip, [sp, #16]
 800a0d2:	3202      	adds	r2, #2
 800a0d4:	459c      	cmp	ip, r3
 800a0d6:	f43f af0b 	beq.w	8009ef0 <_DrawBitmap+0x1168>
 800a0da:	f813 0b01 	ldrb.w	r0, [r3], #1
 800a0de:	1c91      	adds	r1, r2, #2
 800a0e0:	b108      	cbz	r0, 800a0e6 <_DrawBitmap+0x135e>
 800a0e2:	f822 0c02 	strh.w	r0, [r2, #-2]
 800a0e6:	f813 2b01 	ldrb.w	r2, [r3], #1
 800a0ea:	b10a      	cbz	r2, 800a0f0 <_DrawBitmap+0x1368>
 800a0ec:	f821 2c02 	strh.w	r2, [r1, #-2]
 800a0f0:	f8dd 8010 	ldr.w	r8, [sp, #16]
 800a0f4:	1c8a      	adds	r2, r1, #2
 800a0f6:	4598      	cmp	r8, r3
 800a0f8:	d1ef      	bne.n	800a0da <_DrawBitmap+0x1352>
 800a0fa:	e6f9      	b.n	8009ef0 <_DrawBitmap+0x1168>
 800a0fc:	0874      	lsrs	r4, r6, #1
 800a0fe:	1c6f      	adds	r7, r5, #1
 800a100:	43ea      	mvns	r2, r5
 800a102:	1938      	adds	r0, r7, r4
 800a104:	1811      	adds	r1, r2, r0
 800a106:	f019 0ff0 	tst.w	r9, #240	; 0xf0
 800a10a:	f10c 0304 	add.w	r3, ip, #4
 800a10e:	f001 0201 	and.w	r2, r1, #1
 800a112:	d006      	beq.n	800a122 <_DrawBitmap+0x139a>
 800a114:	ea4f 1119 	mov.w	r1, r9, lsr #4
 800a118:	9f0d      	ldr	r7, [sp, #52]	; 0x34
 800a11a:	f857 1021 	ldr.w	r1, [r7, r1, lsl #2]
 800a11e:	f823 1c04 	strh.w	r1, [r3, #-4]
 800a122:	f019 090f 	ands.w	r9, r9, #15
 800a126:	d004      	beq.n	800a132 <_DrawBitmap+0x13aa>
 800a128:	9f0d      	ldr	r7, [sp, #52]	; 0x34
 800a12a:	f857 1029 	ldr.w	r1, [r7, r9, lsl #2]
 800a12e:	f823 1c02 	strh.w	r1, [r3, #-2]
 800a132:	f815 9f01 	ldrb.w	r9, [r5, #1]!
 800a136:	3304      	adds	r3, #4
 800a138:	4285      	cmp	r5, r0
 800a13a:	d044      	beq.n	800a1c6 <_DrawBitmap+0x143e>
 800a13c:	b1b2      	cbz	r2, 800a16c <_DrawBitmap+0x13e4>
 800a13e:	f019 0ff0 	tst.w	r9, #240	; 0xf0
 800a142:	d006      	beq.n	800a152 <_DrawBitmap+0x13ca>
 800a144:	ea4f 1219 	mov.w	r2, r9, lsr #4
 800a148:	9f0d      	ldr	r7, [sp, #52]	; 0x34
 800a14a:	f857 1022 	ldr.w	r1, [r7, r2, lsl #2]
 800a14e:	f823 1c04 	strh.w	r1, [r3, #-4]
 800a152:	f019 090f 	ands.w	r9, r9, #15
 800a156:	d004      	beq.n	800a162 <_DrawBitmap+0x13da>
 800a158:	9a0d      	ldr	r2, [sp, #52]	; 0x34
 800a15a:	f852 7029 	ldr.w	r7, [r2, r9, lsl #2]
 800a15e:	f823 7c02 	strh.w	r7, [r3, #-2]
 800a162:	f815 9f01 	ldrb.w	r9, [r5, #1]!
 800a166:	3304      	adds	r3, #4
 800a168:	4285      	cmp	r5, r0
 800a16a:	d02c      	beq.n	800a1c6 <_DrawBitmap+0x143e>
 800a16c:	f019 0ff0 	tst.w	r9, #240	; 0xf0
 800a170:	ea4f 1119 	mov.w	r1, r9, lsr #4
 800a174:	f103 0204 	add.w	r2, r3, #4
 800a178:	d004      	beq.n	800a184 <_DrawBitmap+0x13fc>
 800a17a:	9f0d      	ldr	r7, [sp, #52]	; 0x34
 800a17c:	f857 1021 	ldr.w	r1, [r7, r1, lsl #2]
 800a180:	f823 1c04 	strh.w	r1, [r3, #-4]
 800a184:	f019 090f 	ands.w	r9, r9, #15
 800a188:	d004      	beq.n	800a194 <_DrawBitmap+0x140c>
 800a18a:	9f0d      	ldr	r7, [sp, #52]	; 0x34
 800a18c:	f857 1029 	ldr.w	r1, [r7, r9, lsl #2]
 800a190:	f823 1c02 	strh.w	r1, [r3, #-2]
 800a194:	f815 3f01 	ldrb.w	r3, [r5, #1]!
 800a198:	f013 0ff0 	tst.w	r3, #240	; 0xf0
 800a19c:	d005      	beq.n	800a1aa <_DrawBitmap+0x1422>
 800a19e:	0919      	lsrs	r1, r3, #4
 800a1a0:	9f0d      	ldr	r7, [sp, #52]	; 0x34
 800a1a2:	f857 1021 	ldr.w	r1, [r7, r1, lsl #2]
 800a1a6:	f822 1c04 	strh.w	r1, [r2, #-4]
 800a1aa:	f013 010f 	ands.w	r1, r3, #15
 800a1ae:	f102 0304 	add.w	r3, r2, #4
 800a1b2:	d004      	beq.n	800a1be <_DrawBitmap+0x1436>
 800a1b4:	9f0d      	ldr	r7, [sp, #52]	; 0x34
 800a1b6:	f857 1021 	ldr.w	r1, [r7, r1, lsl #2]
 800a1ba:	f822 1c02 	strh.w	r1, [r2, #-2]
 800a1be:	f815 9f01 	ldrb.w	r9, [r5, #1]!
 800a1c2:	4285      	cmp	r5, r0
 800a1c4:	d1d2      	bne.n	800a16c <_DrawBitmap+0x13e4>
 800a1c6:	1c65      	adds	r5, r4, #1
 800a1c8:	f10b 0b02 	add.w	fp, fp, #2
 800a1cc:	eb0c 0c85 	add.w	ip, ip, r5, lsl #2
 800a1d0:	eb0b 0b44 	add.w	fp, fp, r4, lsl #1
 800a1d4:	eba6 0144 	sub.w	r1, r6, r4, lsl #1
 800a1d8:	f7ff bb15 	b.w	8009806 <_DrawBitmap+0xa7e>
 800a1dc:	f8dd a070 	ldr.w	sl, [sp, #112]	; 0x70
 800a1e0:	f7ff b8a0 	b.w	8009324 <_DrawBitmap+0x59c>
 800a1e4:	f8dd a070 	ldr.w	sl, [sp, #112]	; 0x70
 800a1e8:	f7ff b8c1 	b.w	800936e <_DrawBitmap+0x5e6>
 800a1ec:	f8dd a070 	ldr.w	sl, [sp, #112]	; 0x70
 800a1f0:	f1ba 0f00 	cmp.w	sl, #0
 800a1f4:	f47e aea4 	bne.w	8008f40 <_DrawBitmap+0x1b8>
 800a1f8:	f7fe bea5 	b.w	8008f46 <_DrawBitmap+0x1be>
 800a1fc:	9f1c      	ldr	r7, [sp, #112]	; 0x70
 800a1fe:	2f00      	cmp	r7, #0
 800a200:	f47e ae9e 	bne.w	8008f40 <_DrawBitmap+0x1b8>
 800a204:	f7fe be9f 	b.w	8008f46 <_DrawBitmap+0x1be>

0800a208 <_XorPixel>:
 800a208:	e92d 43f0 	stmdb	sp!, {r4, r5, r6, r7, r8, r9, lr}
 800a20c:	4c1e      	ldr	r4, [pc, #120]	; (800a288 <_XorPixel+0x80>)
 800a20e:	6823      	ldr	r3, [r4, #0]
 800a210:	b083      	sub	sp, #12
 800a212:	4681      	mov	r9, r0
 800a214:	6c98      	ldr	r0, [r3, #72]	; 0x48
 800a216:	4617      	mov	r7, r2
 800a218:	4688      	mov	r8, r1
 800a21a:	f7fe fc0d 	bl	8008a38 <GUI_ALLOC_LockH>
 800a21e:	6821      	ldr	r1, [r4, #0]
 800a220:	9000      	str	r0, [sp, #0]
 800a222:	6c88      	ldr	r0, [r1, #72]	; 0x48
 800a224:	f7fe fc08 	bl	8008a38 <GUI_ALLOC_LockH>
 800a228:	ac02      	add	r4, sp, #8
 800a22a:	f9b0 5006 	ldrsh.w	r5, [r0, #6]
 800a22e:	f844 0d04 	str.w	r0, [r4, #-4]!
 800a232:	68c2      	ldr	r2, [r0, #12]
 800a234:	f9b0 6004 	ldrsh.w	r6, [r0, #4]
 800a238:	f100 0318 	add.w	r3, r0, #24
 800a23c:	1b79      	subs	r1, r7, r5
 800a23e:	4620      	mov	r0, r4
 800a240:	fb02 3501 	mla	r5, r2, r1, r3
 800a244:	f7fe fc0a 	bl	8008a5c <GUI_ALLOC_UnlockH>
 800a248:	f8d9 0010 	ldr.w	r0, [r9, #16]
 800a24c:	ebc6 0608 	rsb	r6, r6, r8
 800a250:	6882      	ldr	r2, [r0, #8]
 800a252:	4790      	blx	r2
 800a254:	9b00      	ldr	r3, [sp, #0]
 800a256:	f835 1016 	ldrh.w	r1, [r5, r6, lsl #1]
 800a25a:	695a      	ldr	r2, [r3, #20]
 800a25c:	4048      	eors	r0, r1
 800a25e:	f825 0016 	strh.w	r0, [r5, r6, lsl #1]
 800a262:	b15a      	cbz	r2, 800a27c <_XorPixel+0x74>
 800a264:	4610      	mov	r0, r2
 800a266:	f7fe fbe7 	bl	8008a38 <GUI_ALLOC_LockH>
 800a26a:	9001      	str	r0, [sp, #4]
 800a26c:	6883      	ldr	r3, [r0, #8]
 800a26e:	4641      	mov	r1, r8
 800a270:	681b      	ldr	r3, [r3, #0]
 800a272:	463a      	mov	r2, r7
 800a274:	4798      	blx	r3
 800a276:	4620      	mov	r0, r4
 800a278:	f7fe fbf0 	bl	8008a5c <GUI_ALLOC_UnlockH>
 800a27c:	4668      	mov	r0, sp
 800a27e:	f7fe fbed 	bl	8008a5c <GUI_ALLOC_UnlockH>
 800a282:	b003      	add	sp, #12
 800a284:	e8bd 83f0 	ldmia.w	sp!, {r4, r5, r6, r7, r8, r9, pc}
 800a288:	1ffe8808 	.word	0x1ffe8808

0800a28c <_GetPixelIndex>:
 800a28c:	b570      	push	{r4, r5, r6, lr}
 800a28e:	f648 0308 	movw	r3, #34824	; 0x8808
 800a292:	f6c1 73fe 	movt	r3, #8190	; 0x1ffe
 800a296:	b082      	sub	sp, #8
 800a298:	6818      	ldr	r0, [r3, #0]
 800a29a:	6c80      	ldr	r0, [r0, #72]	; 0x48
 800a29c:	460c      	mov	r4, r1
 800a29e:	4616      	mov	r6, r2
 800a2a0:	f7fe fbca 	bl	8008a38 <GUI_ALLOC_LockH>
 800a2a4:	ab02      	add	r3, sp, #8
 800a2a6:	f9b0 1006 	ldrsh.w	r1, [r0, #6]
 800a2aa:	f9b0 2004 	ldrsh.w	r2, [r0, #4]
 800a2ae:	68c5      	ldr	r5, [r0, #12]
 800a2b0:	f843 0d04 	str.w	r0, [r3, #-4]!
 800a2b4:	1a76      	subs	r6, r6, r1
 800a2b6:	3018      	adds	r0, #24
 800a2b8:	fb05 0506 	mla	r5, r5, r6, r0
 800a2bc:	1aa4      	subs	r4, r4, r2
 800a2be:	4618      	mov	r0, r3
 800a2c0:	f7fe fbcc 	bl	8008a5c <GUI_ALLOC_UnlockH>
 800a2c4:	f835 0014 	ldrh.w	r0, [r5, r4, lsl #1]
 800a2c8:	b002      	add	sp, #8
 800a2ca:	bd70      	pop	{r4, r5, r6, pc}

0800a2cc <_SetPixelIndex>:
 800a2cc:	e92d 43f0 	stmdb	sp!, {r4, r5, r6, r7, r8, r9, lr}
 800a2d0:	4c1a      	ldr	r4, [pc, #104]	; (800a33c <_SetPixelIndex+0x70>)
 800a2d2:	6820      	ldr	r0, [r4, #0]
 800a2d4:	b083      	sub	sp, #12
 800a2d6:	6c80      	ldr	r0, [r0, #72]	; 0x48
 800a2d8:	460e      	mov	r6, r1
 800a2da:	4615      	mov	r5, r2
 800a2dc:	4699      	mov	r9, r3
 800a2de:	f7fe fbab 	bl	8008a38 <GUI_ALLOC_LockH>
 800a2e2:	6823      	ldr	r3, [r4, #0]
 800a2e4:	9000      	str	r0, [sp, #0]
 800a2e6:	6c98      	ldr	r0, [r3, #72]	; 0x48
 800a2e8:	f7fe fba6 	bl	8008a38 <GUI_ALLOC_LockH>
 800a2ec:	ac02      	add	r4, sp, #8
 800a2ee:	f9b0 7006 	ldrsh.w	r7, [r0, #6]
 800a2f2:	f844 0d04 	str.w	r0, [r4, #-4]!
 800a2f6:	68c2      	ldr	r2, [r0, #12]
 800a2f8:	f9b0 8004 	ldrsh.w	r8, [r0, #4]
 800a2fc:	f100 0118 	add.w	r1, r0, #24
 800a300:	1beb      	subs	r3, r5, r7
 800a302:	4620      	mov	r0, r4
 800a304:	fb02 1703 	mla	r7, r2, r3, r1
 800a308:	f7fe fba8 	bl	8008a5c <GUI_ALLOC_UnlockH>
 800a30c:	9800      	ldr	r0, [sp, #0]
 800a30e:	ebc8 0806 	rsb	r8, r8, r6
 800a312:	6940      	ldr	r0, [r0, #20]
 800a314:	f827 9018 	strh.w	r9, [r7, r8, lsl #1]
 800a318:	b150      	cbz	r0, 800a330 <_SetPixelIndex+0x64>
 800a31a:	f7fe fb8d 	bl	8008a38 <GUI_ALLOC_LockH>
 800a31e:	9001      	str	r0, [sp, #4]
 800a320:	6883      	ldr	r3, [r0, #8]
 800a322:	4631      	mov	r1, r6
 800a324:	681b      	ldr	r3, [r3, #0]
 800a326:	462a      	mov	r2, r5
 800a328:	4798      	blx	r3
 800a32a:	4620      	mov	r0, r4
 800a32c:	f7fe fb96 	bl	8008a5c <GUI_ALLOC_UnlockH>
 800a330:	4668      	mov	r0, sp
 800a332:	f7fe fb93 	bl	8008a5c <GUI_ALLOC_UnlockH>
 800a336:	b003      	add	sp, #12
 800a338:	e8bd 83f0 	ldmia.w	sp!, {r4, r5, r6, r7, r8, r9, pc}
 800a33c:	1ffe8808 	.word	0x1ffe8808

0800a340 <_DrawVLine>:
 800a340:	e92d 47f0 	stmdb	sp!, {r4, r5, r6, r7, r8, r9, sl, lr}
 800a344:	4f6a      	ldr	r7, [pc, #424]	; (800a4f0 <_DrawVLine+0x1b0>)
 800a346:	683c      	ldr	r4, [r7, #0]
 800a348:	b084      	sub	sp, #16
 800a34a:	4681      	mov	r9, r0
 800a34c:	6ca0      	ldr	r0, [r4, #72]	; 0x48
 800a34e:	460e      	mov	r6, r1
 800a350:	4614      	mov	r4, r2
 800a352:	4698      	mov	r8, r3
 800a354:	f7fe fb70 	bl	8008a38 <GUI_ALLOC_LockH>
 800a358:	9000      	str	r0, [sp, #0]
 800a35a:	6940      	ldr	r0, [r0, #20]
 800a35c:	2800      	cmp	r0, #0
 800a35e:	d15a      	bne.n	800a416 <_DrawVLine+0xd6>
 800a360:	683b      	ldr	r3, [r7, #0]
 800a362:	9002      	str	r0, [sp, #8]
 800a364:	6c98      	ldr	r0, [r3, #72]	; 0x48
 800a366:	f7fe fb67 	bl	8008a38 <GUI_ALLOC_LockH>
 800a36a:	4602      	mov	r2, r0
 800a36c:	a804      	add	r0, sp, #16
 800a36e:	f9b2 e006 	ldrsh.w	lr, [r2, #6]
 800a372:	68d1      	ldr	r1, [r2, #12]
 800a374:	f9b2 5004 	ldrsh.w	r5, [r2, #4]
 800a378:	f840 2d04 	str.w	r2, [r0, #-4]!
 800a37c:	f102 0318 	add.w	r3, r2, #24
 800a380:	ebce 0204 	rsb	r2, lr, r4
 800a384:	fb01 3102 	mla	r1, r1, r2, r3
 800a388:	1b75      	subs	r5, r6, r5
 800a38a:	eb01 0545 	add.w	r5, r1, r5, lsl #1
 800a38e:	f7fe fb65 	bl	8008a5c <GUI_ALLOC_UnlockH>
 800a392:	6838      	ldr	r0, [r7, #0]
 800a394:	9f00      	ldr	r7, [sp, #0]
 800a396:	7c03      	ldrb	r3, [r0, #16]
 800a398:	68ff      	ldr	r7, [r7, #12]
 800a39a:	07da      	lsls	r2, r3, #31
 800a39c:	d43e      	bmi.n	800a41c <_DrawVLine+0xdc>
 800a39e:	6bc2      	ldr	r2, [r0, #60]	; 0x3c
 800a3a0:	9802      	ldr	r0, [sp, #8]
 800a3a2:	6811      	ldr	r1, [r2, #0]
 800a3a4:	2800      	cmp	r0, #0
 800a3a6:	f000 808c 	beq.w	800a4c2 <_DrawVLine+0x182>
 800a3aa:	ebc4 0208 	rsb	r2, r4, r8
 800a3ae:	07d3      	lsls	r3, r2, #31
 800a3b0:	fa1f f981 	uxth.w	r9, r1
 800a3b4:	d518      	bpl.n	800a3e8 <_DrawVLine+0xa8>
 800a3b6:	6881      	ldr	r1, [r0, #8]
 800a3b8:	4622      	mov	r2, r4
 800a3ba:	680b      	ldr	r3, [r1, #0]
 800a3bc:	3401      	adds	r4, #1
 800a3be:	4631      	mov	r1, r6
 800a3c0:	4798      	blx	r3
 800a3c2:	45a0      	cmp	r8, r4
 800a3c4:	f8a5 9000 	strh.w	r9, [r5]
 800a3c8:	443d      	add	r5, r7
 800a3ca:	db19      	blt.n	800a400 <_DrawVLine+0xc0>
 800a3cc:	9802      	ldr	r0, [sp, #8]
 800a3ce:	e00b      	b.n	800a3e8 <_DrawVLine+0xa8>
 800a3d0:	9802      	ldr	r0, [sp, #8]
 800a3d2:	6882      	ldr	r2, [r0, #8]
 800a3d4:	4631      	mov	r1, r6
 800a3d6:	6813      	ldr	r3, [r2, #0]
 800a3d8:	4622      	mov	r2, r4
 800a3da:	4798      	blx	r3
 800a3dc:	9802      	ldr	r0, [sp, #8]
 800a3de:	f825 9007 	strh.w	r9, [r5, r7]
 800a3e2:	3401      	adds	r4, #1
 800a3e4:	eb0a 0507 	add.w	r5, sl, r7
 800a3e8:	6883      	ldr	r3, [r0, #8]
 800a3ea:	4622      	mov	r2, r4
 800a3ec:	4631      	mov	r1, r6
 800a3ee:	3401      	adds	r4, #1
 800a3f0:	681b      	ldr	r3, [r3, #0]
 800a3f2:	4798      	blx	r3
 800a3f4:	45a0      	cmp	r8, r4
 800a3f6:	eb05 0a07 	add.w	sl, r5, r7
 800a3fa:	f8a5 9000 	strh.w	r9, [r5]
 800a3fe:	dae7      	bge.n	800a3d0 <_DrawVLine+0x90>
 800a400:	4668      	mov	r0, sp
 800a402:	f7fe fb2b 	bl	8008a5c <GUI_ALLOC_UnlockH>
 800a406:	9b02      	ldr	r3, [sp, #8]
 800a408:	b113      	cbz	r3, 800a410 <_DrawVLine+0xd0>
 800a40a:	a802      	add	r0, sp, #8
 800a40c:	f7fe fb26 	bl	8008a5c <GUI_ALLOC_UnlockH>
 800a410:	b004      	add	sp, #16
 800a412:	e8bd 87f0 	ldmia.w	sp!, {r4, r5, r6, r7, r8, r9, sl, pc}
 800a416:	f7fe fb0f 	bl	8008a38 <GUI_ALLOC_LockH>
 800a41a:	e7a1      	b.n	800a360 <_DrawVLine+0x20>
 800a41c:	f8d9 7010 	ldr.w	r7, [r9, #16]
 800a420:	68b8      	ldr	r0, [r7, #8]
 800a422:	4780      	blx	r0
 800a424:	9902      	ldr	r1, [sp, #8]
 800a426:	ebc4 0208 	rsb	r2, r4, r8
 800a42a:	fa1f f980 	uxth.w	r9, r0
 800a42e:	f002 0701 	and.w	r7, r2, #1
 800a432:	b129      	cbz	r1, 800a440 <_DrawVLine+0x100>
 800a434:	688b      	ldr	r3, [r1, #8]
 800a436:	4608      	mov	r0, r1
 800a438:	681b      	ldr	r3, [r3, #0]
 800a43a:	4631      	mov	r1, r6
 800a43c:	4622      	mov	r2, r4
 800a43e:	4798      	blx	r3
 800a440:	9900      	ldr	r1, [sp, #0]
 800a442:	8828      	ldrh	r0, [r5, #0]
 800a444:	68cb      	ldr	r3, [r1, #12]
 800a446:	3401      	adds	r4, #1
 800a448:	ea89 0200 	eor.w	r2, r9, r0
 800a44c:	4544      	cmp	r4, r8
 800a44e:	802a      	strh	r2, [r5, #0]
 800a450:	441d      	add	r5, r3
 800a452:	dcd5      	bgt.n	800a400 <_DrawVLine+0xc0>
 800a454:	b187      	cbz	r7, 800a478 <_DrawVLine+0x138>
 800a456:	9802      	ldr	r0, [sp, #8]
 800a458:	b120      	cbz	r0, 800a464 <_DrawVLine+0x124>
 800a45a:	6881      	ldr	r1, [r0, #8]
 800a45c:	4622      	mov	r2, r4
 800a45e:	680b      	ldr	r3, [r1, #0]
 800a460:	4631      	mov	r1, r6
 800a462:	4798      	blx	r3
 800a464:	9a00      	ldr	r2, [sp, #0]
 800a466:	8828      	ldrh	r0, [r5, #0]
 800a468:	68d1      	ldr	r1, [r2, #12]
 800a46a:	3401      	adds	r4, #1
 800a46c:	ea89 0300 	eor.w	r3, r9, r0
 800a470:	4544      	cmp	r4, r8
 800a472:	802b      	strh	r3, [r5, #0]
 800a474:	440d      	add	r5, r1
 800a476:	dcc3      	bgt.n	800a400 <_DrawVLine+0xc0>
 800a478:	9b02      	ldr	r3, [sp, #8]
 800a47a:	4622      	mov	r2, r4
 800a47c:	4631      	mov	r1, r6
 800a47e:	4618      	mov	r0, r3
 800a480:	b11b      	cbz	r3, 800a48a <_DrawVLine+0x14a>
 800a482:	689f      	ldr	r7, [r3, #8]
 800a484:	683b      	ldr	r3, [r7, #0]
 800a486:	4798      	blx	r3
 800a488:	9b02      	ldr	r3, [sp, #8]
 800a48a:	9800      	ldr	r0, [sp, #0]
 800a48c:	f8b5 c000 	ldrh.w	ip, [r5]
 800a490:	68c7      	ldr	r7, [r0, #12]
 800a492:	ea89 020c 	eor.w	r2, r9, ip
 800a496:	3401      	adds	r4, #1
 800a498:	802a      	strh	r2, [r5, #0]
 800a49a:	4618      	mov	r0, r3
 800a49c:	4631      	mov	r1, r6
 800a49e:	19ef      	adds	r7, r5, r7
 800a4a0:	4622      	mov	r2, r4
 800a4a2:	b113      	cbz	r3, 800a4aa <_DrawVLine+0x16a>
 800a4a4:	689d      	ldr	r5, [r3, #8]
 800a4a6:	682b      	ldr	r3, [r5, #0]
 800a4a8:	4798      	blx	r3
 800a4aa:	9800      	ldr	r0, [sp, #0]
 800a4ac:	8839      	ldrh	r1, [r7, #0]
 800a4ae:	68c2      	ldr	r2, [r0, #12]
 800a4b0:	3401      	adds	r4, #1
 800a4b2:	ea89 0501 	eor.w	r5, r9, r1
 800a4b6:	4544      	cmp	r4, r8
 800a4b8:	803d      	strh	r5, [r7, #0]
 800a4ba:	eb07 0502 	add.w	r5, r7, r2
 800a4be:	dddb      	ble.n	800a478 <_DrawVLine+0x138>
 800a4c0:	e79e      	b.n	800a400 <_DrawVLine+0xc0>
 800a4c2:	ebc4 0408 	rsb	r4, r4, r8
 800a4c6:	b288      	uxth	r0, r1
 800a4c8:	4623      	mov	r3, r4
 800a4ca:	8028      	strh	r0, [r5, #0]
 800a4cc:	f004 0401 	and.w	r4, r4, #1
 800a4d0:	19ed      	adds	r5, r5, r7
 800a4d2:	2b00      	cmp	r3, #0
 800a4d4:	d094      	beq.n	800a400 <_DrawVLine+0xc0>
 800a4d6:	b11c      	cbz	r4, 800a4e0 <_DrawVLine+0x1a0>
 800a4d8:	3b01      	subs	r3, #1
 800a4da:	8028      	strh	r0, [r5, #0]
 800a4dc:	443d      	add	r5, r7
 800a4de:	d08f      	beq.n	800a400 <_DrawVLine+0xc0>
 800a4e0:	3b02      	subs	r3, #2
 800a4e2:	8028      	strh	r0, [r5, #0]
 800a4e4:	53e8      	strh	r0, [r5, r7]
 800a4e6:	eb05 0547 	add.w	r5, r5, r7, lsl #1
 800a4ea:	d1f9      	bne.n	800a4e0 <_DrawVLine+0x1a0>
 800a4ec:	e788      	b.n	800a400 <_DrawVLine+0xc0>
 800a4ee:	bf00      	nop
 800a4f0:	1ffe8808 	.word	0x1ffe8808

0800a4f4 <_FillRect>:
 800a4f4:	e92d 4ff0 	stmdb	sp!, {r4, r5, r6, r7, r8, r9, sl, fp, lr}
 800a4f8:	f648 0508 	movw	r5, #34824	; 0x8808
 800a4fc:	f6c1 75fe 	movt	r5, #8190	; 0x1ffe
 800a500:	b08b      	sub	sp, #44	; 0x2c
 800a502:	682c      	ldr	r4, [r5, #0]
 800a504:	9006      	str	r0, [sp, #24]
 800a506:	6be6      	ldr	r6, [r4, #60]	; 0x3c
 800a508:	6ca0      	ldr	r0, [r4, #72]	; 0x48
 800a50a:	6835      	ldr	r5, [r6, #0]
 800a50c:	460c      	mov	r4, r1
 800a50e:	469b      	mov	fp, r3
 800a510:	4690      	mov	r8, r2
 800a512:	f7fe fa91 	bl	8008a38 <GUI_ALLOC_LockH>
 800a516:	f648 0208 	movw	r2, #34824	; 0x8808
 800a51a:	f6c1 72fe 	movt	r2, #8190	; 0x1ffe
 800a51e:	9008      	str	r0, [sp, #32]
 800a520:	6813      	ldr	r3, [r2, #0]
 800a522:	6c98      	ldr	r0, [r3, #72]	; 0x48
 800a524:	f7fe fa88 	bl	8008a38 <GUI_ALLOC_LockH>
 800a528:	af0a      	add	r7, sp, #40	; 0x28
 800a52a:	f9b0 1006 	ldrsh.w	r1, [r0, #6]
 800a52e:	68c2      	ldr	r2, [r0, #12]
 800a530:	f9b0 6004 	ldrsh.w	r6, [r0, #4]
 800a534:	f847 0d04 	str.w	r0, [r7, #-4]!
 800a538:	ebc1 0308 	rsb	r3, r1, r8
 800a53c:	3018      	adds	r0, #24
 800a53e:	fb02 0103 	mla	r1, r2, r3, r0
 800a542:	1ba2      	subs	r2, r4, r6
 800a544:	4638      	mov	r0, r7
 800a546:	eb01 0642 	add.w	r6, r1, r2, lsl #1
 800a54a:	f7fe fa87 	bl	8008a5c <GUI_ALLOC_UnlockH>
 800a54e:	9b08      	ldr	r3, [sp, #32]
 800a550:	68d9      	ldr	r1, [r3, #12]
 800a552:	6958      	ldr	r0, [r3, #20]
 800a554:	9105      	str	r1, [sp, #20]
 800a556:	ebc4 0c0b 	rsb	ip, r4, fp
 800a55a:	f10c 0b01 	add.w	fp, ip, #1
 800a55e:	2800      	cmp	r0, #0
 800a560:	f040 80c6 	bne.w	800a6f0 <_FillRect+0x1fc>
 800a564:	9c14      	ldr	r4, [sp, #80]	; 0x50
 800a566:	45a0      	cmp	r8, r4
 800a568:	f300 80b6 	bgt.w	800a6d8 <_FillRect+0x1e4>
 800a56c:	b2a8      	uxth	r0, r5
 800a56e:	9007      	str	r0, [sp, #28]
 800a570:	f648 0508 	movw	r5, #34824	; 0x8808
 800a574:	f6c1 75fe 	movt	r5, #8190	; 0x1ffe
 800a578:	682c      	ldr	r4, [r5, #0]
 800a57a:	7c22      	ldrb	r2, [r4, #16]
 800a57c:	07d1      	lsls	r1, r2, #31
 800a57e:	f140 80b1 	bpl.w	800a6e4 <_FillRect+0x1f0>
 800a582:	9b06      	ldr	r3, [sp, #24]
 800a584:	6919      	ldr	r1, [r3, #16]
 800a586:	6888      	ldr	r0, [r1, #8]
 800a588:	4780      	blx	r0
 800a58a:	f3c6 0140 	ubfx	r1, r6, #1, #1
 800a58e:	4559      	cmp	r1, fp
 800a590:	bf28      	it	cs
 800a592:	4659      	movcs	r1, fp
 800a594:	f1bb 0f01 	cmp.w	fp, #1
 800a598:	bf98      	it	ls
 800a59a:	4659      	movls	r1, fp
 800a59c:	b283      	uxth	r3, r0
 800a59e:	2900      	cmp	r1, #0
 800a5a0:	f000 80b7 	beq.w	800a712 <_FillRect+0x21e>
 800a5a4:	4632      	mov	r2, r6
 800a5a6:	2401      	movs	r4, #1
 800a5a8:	f832 5b02 	ldrh.w	r5, [r2], #2
 800a5ac:	1e4f      	subs	r7, r1, #1
 800a5ae:	405d      	eors	r5, r3
 800a5b0:	42a1      	cmp	r1, r4
 800a5b2:	f822 5c02 	strh.w	r5, [r2, #-2]
 800a5b6:	ea07 0704 	and.w	r7, r7, r4
 800a5ba:	4610      	mov	r0, r2
 800a5bc:	f10b 35ff 	add.w	r5, fp, #4294967295
 800a5c0:	d91a      	bls.n	800a5f8 <_FillRect+0x104>
 800a5c2:	b14f      	cbz	r7, 800a5d8 <_FillRect+0xe4>
 800a5c4:	f832 0b02 	ldrh.w	r0, [r2], #2
 800a5c8:	2402      	movs	r4, #2
 800a5ca:	4058      	eors	r0, r3
 800a5cc:	3d01      	subs	r5, #1
 800a5ce:	42a1      	cmp	r1, r4
 800a5d0:	f822 0c02 	strh.w	r0, [r2, #-2]
 800a5d4:	4610      	mov	r0, r2
 800a5d6:	d90f      	bls.n	800a5f8 <_FillRect+0x104>
 800a5d8:	8817      	ldrh	r7, [r2, #0]
 800a5da:	4610      	mov	r0, r2
 800a5dc:	405f      	eors	r7, r3
 800a5de:	f820 7b02 	strh.w	r7, [r0], #2
 800a5e2:	8857      	ldrh	r7, [r2, #2]
 800a5e4:	3402      	adds	r4, #2
 800a5e6:	1c82      	adds	r2, r0, #2
 800a5e8:	3d02      	subs	r5, #2
 800a5ea:	ea87 0003 	eor.w	r0, r7, r3
 800a5ee:	42a1      	cmp	r1, r4
 800a5f0:	f822 0c02 	strh.w	r0, [r2, #-2]
 800a5f4:	4610      	mov	r0, r2
 800a5f6:	d8ef      	bhi.n	800a5d8 <_FillRect+0xe4>
 800a5f8:	458b      	cmp	fp, r1
 800a5fa:	d065      	beq.n	800a6c8 <_FillRect+0x1d4>
 800a5fc:	ebc1 020b 	rsb	r2, r1, fp
 800a600:	ea4f 0e52 	mov.w	lr, r2, lsr #1
 800a604:	9204      	str	r2, [sp, #16]
 800a606:	ea4f 0a4e 	mov.w	sl, lr, lsl #1
 800a60a:	f1be 0f00 	cmp.w	lr, #0
 800a60e:	d03a      	beq.n	800a686 <_FillRect+0x192>
 800a610:	2700      	movs	r7, #0
 800a612:	f856 4011 	ldr.w	r4, [r6, r1, lsl #1]
 800a616:	f363 070f 	bfi	r7, r3, #0, #16
 800a61a:	f363 471f 	bfi	r7, r3, #16, #16
 800a61e:	ea87 0204 	eor.w	r2, r7, r4
 800a622:	2401      	movs	r4, #1
 800a624:	f10e 39ff 	add.w	r9, lr, #4294967295
 800a628:	eb06 0c41 	add.w	ip, r6, r1, lsl #1
 800a62c:	4574      	cmp	r4, lr
 800a62e:	f846 2011 	str.w	r2, [r6, r1, lsl #1]
 800a632:	ea09 0204 	and.w	r2, r9, r4
 800a636:	f10c 0104 	add.w	r1, ip, #4
 800a63a:	d21d      	bcs.n	800a678 <_FillRect+0x184>
 800a63c:	b13a      	cbz	r2, 800a64e <_FillRect+0x15a>
 800a63e:	680a      	ldr	r2, [r1, #0]
 800a640:	2402      	movs	r4, #2
 800a642:	407a      	eors	r2, r7
 800a644:	4574      	cmp	r4, lr
 800a646:	468c      	mov	ip, r1
 800a648:	f841 2b04 	str.w	r2, [r1], #4
 800a64c:	d214      	bcs.n	800a678 <_FillRect+0x184>
 800a64e:	9303      	str	r3, [sp, #12]
 800a650:	f8dc 3004 	ldr.w	r3, [ip, #4]
 800a654:	460a      	mov	r2, r1
 800a656:	ea87 0903 	eor.w	r9, r7, r3
 800a65a:	f842 9b04 	str.w	r9, [r2], #4
 800a65e:	f8dc 3008 	ldr.w	r3, [ip, #8]
 800a662:	3402      	adds	r4, #2
 800a664:	ea87 0903 	eor.w	r9, r7, r3
 800a668:	f8c1 9004 	str.w	r9, [r1, #4]
 800a66c:	1d11      	adds	r1, r2, #4
 800a66e:	4574      	cmp	r4, lr
 800a670:	f10c 0c08 	add.w	ip, ip, #8
 800a674:	d3ec      	bcc.n	800a650 <_FillRect+0x15c>
 800a676:	9b03      	ldr	r3, [sp, #12]
 800a678:	9904      	ldr	r1, [sp, #16]
 800a67a:	4551      	cmp	r1, sl
 800a67c:	ebca 0505 	rsb	r5, sl, r5
 800a680:	eb00 004a 	add.w	r0, r0, sl, lsl #1
 800a684:	d020      	beq.n	800a6c8 <_FillRect+0x1d4>
 800a686:	8804      	ldrh	r4, [r0, #0]
 800a688:	4602      	mov	r2, r0
 800a68a:	405c      	eors	r4, r3
 800a68c:	eb00 0545 	add.w	r5, r0, r5, lsl #1
 800a690:	f822 4b02 	strh.w	r4, [r2], #2
 800a694:	1a28      	subs	r0, r5, r0
 800a696:	1e81      	subs	r1, r0, #2
 800a698:	42aa      	cmp	r2, r5
 800a69a:	f3c1 0440 	ubfx	r4, r1, #1, #1
 800a69e:	d013      	beq.n	800a6c8 <_FillRect+0x1d4>
 800a6a0:	b12c      	cbz	r4, 800a6ae <_FillRect+0x1ba>
 800a6a2:	8810      	ldrh	r0, [r2, #0]
 800a6a4:	4058      	eors	r0, r3
 800a6a6:	f822 0b02 	strh.w	r0, [r2], #2
 800a6aa:	42aa      	cmp	r2, r5
 800a6ac:	d00c      	beq.n	800a6c8 <_FillRect+0x1d4>
 800a6ae:	8814      	ldrh	r4, [r2, #0]
 800a6b0:	4611      	mov	r1, r2
 800a6b2:	405c      	eors	r4, r3
 800a6b4:	f821 4b02 	strh.w	r4, [r1], #2
 800a6b8:	8850      	ldrh	r0, [r2, #2]
 800a6ba:	460a      	mov	r2, r1
 800a6bc:	ea80 0403 	eor.w	r4, r0, r3
 800a6c0:	f822 4b02 	strh.w	r4, [r2], #2
 800a6c4:	42aa      	cmp	r2, r5
 800a6c6:	d1f2      	bne.n	800a6ae <_FillRect+0x1ba>
 800a6c8:	9c14      	ldr	r4, [sp, #80]	; 0x50
 800a6ca:	9d05      	ldr	r5, [sp, #20]
 800a6cc:	f108 0801 	add.w	r8, r8, #1
 800a6d0:	4544      	cmp	r4, r8
 800a6d2:	442e      	add	r6, r5
 800a6d4:	f6bf af4c 	bge.w	800a570 <_FillRect+0x7c>
 800a6d8:	a808      	add	r0, sp, #32
 800a6da:	f7fe f9bf 	bl	8008a5c <GUI_ALLOC_UnlockH>
 800a6de:	b00b      	add	sp, #44	; 0x2c
 800a6e0:	e8bd 8ff0 	ldmia.w	sp!, {r4, r5, r6, r7, r8, r9, sl, fp, pc}
 800a6e4:	4630      	mov	r0, r6
 800a6e6:	9907      	ldr	r1, [sp, #28]
 800a6e8:	465a      	mov	r2, fp
 800a6ea:	f001 f813 	bl	800b714 <GUI__memset16>
 800a6ee:	e7eb      	b.n	800a6c8 <_FillRect+0x1d4>
 800a6f0:	f7fe f9a2 	bl	8008a38 <GUI_ALLOC_LockH>
 800a6f4:	9a14      	ldr	r2, [sp, #80]	; 0x50
 800a6f6:	9009      	str	r0, [sp, #36]	; 0x24
 800a6f8:	ebc8 0302 	rsb	r3, r8, r2
 800a6fc:	1c59      	adds	r1, r3, #1
 800a6fe:	9100      	str	r1, [sp, #0]
 800a700:	4642      	mov	r2, r8
 800a702:	4621      	mov	r1, r4
 800a704:	465b      	mov	r3, fp
 800a706:	f002 f9bd 	bl	800ca84 <GUI_USAGE_AddRect>
 800a70a:	4638      	mov	r0, r7
 800a70c:	f7fe f9a6 	bl	8008a5c <GUI_ALLOC_UnlockH>
 800a710:	e728      	b.n	800a564 <_FillRect+0x70>
 800a712:	4630      	mov	r0, r6
 800a714:	465d      	mov	r5, fp
 800a716:	e771      	b.n	800a5fc <_FillRect+0x108>

0800a718 <_DrawHLine>:
 800a718:	b500      	push	{lr}
 800a71a:	b083      	sub	sp, #12
 800a71c:	9200      	str	r2, [sp, #0]
 800a71e:	f7ff fee9 	bl	800a4f4 <_FillRect>
 800a722:	b003      	add	sp, #12
 800a724:	bd00      	pop	{pc}
 800a726:	bf00      	nop

0800a728 <_OnExit>:
 800a728:	b510      	push	{r4, lr}
 800a72a:	f649 54d4 	movw	r4, #40404	; 0x9dd4
 800a72e:	f6c1 74fe 	movt	r4, #8190	; 0x1ffe
 800a732:	6820      	ldr	r0, [r4, #0]
 800a734:	f7fe f8a6 	bl	8008884 <GUI_ALLOC_FreeFixedBlock>
 800a738:	2300      	movs	r3, #0
 800a73a:	6023      	str	r3, [r4, #0]
 800a73c:	bd10      	pop	{r4, pc}
 800a73e:	bf00      	nop

0800a740 <LCD_InitColors>:
 800a740:	b538      	push	{r3, r4, r5, lr}
 800a742:	4c0b      	ldr	r4, [pc, #44]	; (800a770 <LCD_InitColors+0x30>)
 800a744:	6825      	ldr	r5, [r4, #0]
 800a746:	b10d      	cbz	r5, 800a74c <LCD_InitColors+0xc>
 800a748:	2000      	movs	r0, #0
 800a74a:	bd38      	pop	{r3, r4, r5, pc}
 800a74c:	4b09      	ldr	r3, [pc, #36]	; (800a774 <LCD_InitColors+0x34>)
 800a74e:	6818      	ldr	r0, [r3, #0]
 800a750:	0080      	lsls	r0, r0, #2
 800a752:	f7fe f8a1 	bl	8008898 <GUI_ALLOC_GetFixedBlock>
 800a756:	6020      	str	r0, [r4, #0]
 800a758:	b138      	cbz	r0, 800a76a <LCD_InitColors+0x2a>
 800a75a:	4907      	ldr	r1, [pc, #28]	; (800a778 <LCD_InitColors+0x38>)
 800a75c:	4a07      	ldr	r2, [pc, #28]	; (800a77c <LCD_InitColors+0x3c>)
 800a75e:	4608      	mov	r0, r1
 800a760:	600a      	str	r2, [r1, #0]
 800a762:	f7fc fe8b 	bl	800747c <GUI__RegisterExit>
 800a766:	4628      	mov	r0, r5
 800a768:	bd38      	pop	{r3, r4, r5, pc}
 800a76a:	2001      	movs	r0, #1
 800a76c:	bd38      	pop	{r3, r4, r5, pc}
 800a76e:	bf00      	nop
 800a770:	1ffe9dd4 	.word	0x1ffe9dd4
 800a774:	1ffe8810 	.word	0x1ffe8810
 800a778:	1ffe8a40 	.word	0x1ffe8a40
 800a77c:	0800a729 	.word	0x0800a729

0800a780 <LCD_GetpPalConvTableBM>:
 800a780:	e92d 43f8 	stmdb	sp!, {r3, r4, r5, r6, r7, r8, r9, lr}
 800a784:	2800      	cmp	r0, #0
 800a786:	d03a      	beq.n	800a7fe <LCD_GetpPalConvTableBM+0x7e>
 800a788:	f8d0 8008 	ldr.w	r8, [r0, #8]
 800a78c:	f1b8 0f00 	cmp.w	r8, #0
 800a790:	d037      	beq.n	800a802 <LCD_GetpPalConvTableBM+0x82>
 800a792:	4f1d      	ldr	r7, [pc, #116]	; (800a808 <LCD_GetpPalConvTableBM+0x88>)
 800a794:	683d      	ldr	r5, [r7, #0]
 800a796:	b36d      	cbz	r5, 800a7f4 <LCD_GetpPalConvTableBM+0x74>
 800a798:	6803      	ldr	r3, [r0, #0]
 800a79a:	f5b3 7f80 	cmp.w	r3, #256	; 0x100
 800a79e:	dc2c      	bgt.n	800a7fa <LCD_GetpPalConvTableBM+0x7a>
 800a7a0:	4a1a      	ldr	r2, [pc, #104]	; (800a80c <LCD_GetpPalConvTableBM+0x8c>)
 800a7a2:	6810      	ldr	r0, [r2, #0]
 800a7a4:	4298      	cmp	r0, r3
 800a7a6:	bfb4      	ite	lt
 800a7a8:	4681      	movlt	r9, r0
 800a7aa:	4699      	movge	r9, r3
 800a7ac:	f1b9 0f00 	cmp.w	r9, #0
 800a7b0:	dd20      	ble.n	800a7f4 <LCD_GetpPalConvTableBM+0x74>
 800a7b2:	2400      	movs	r4, #0
 800a7b4:	f019 0f01 	tst.w	r9, #1
 800a7b8:	4626      	mov	r6, r4
 800a7ba:	d111      	bne.n	800a7e0 <LCD_GetpPalConvTableBM+0x60>
 800a7bc:	f8d8 0000 	ldr.w	r0, [r8]
 800a7c0:	f000 ff50 	bl	800b664 <LCD_Color2Index>
 800a7c4:	2601      	movs	r6, #1
 800a7c6:	6028      	str	r0, [r5, #0]
 800a7c8:	2404      	movs	r4, #4
 800a7ca:	683d      	ldr	r5, [r7, #0]
 800a7cc:	e008      	b.n	800a7e0 <LCD_GetpPalConvTableBM+0x60>
 800a7ce:	f858 0004 	ldr.w	r0, [r8, r4]
 800a7d2:	683d      	ldr	r5, [r7, #0]
 800a7d4:	f000 ff46 	bl	800b664 <LCD_Color2Index>
 800a7d8:	5128      	str	r0, [r5, r4]
 800a7da:	683d      	ldr	r5, [r7, #0]
 800a7dc:	3601      	adds	r6, #1
 800a7de:	3404      	adds	r4, #4
 800a7e0:	f858 0004 	ldr.w	r0, [r8, r4]
 800a7e4:	f000 ff3e 	bl	800b664 <LCD_Color2Index>
 800a7e8:	3601      	adds	r6, #1
 800a7ea:	5128      	str	r0, [r5, r4]
 800a7ec:	3404      	adds	r4, #4
 800a7ee:	454e      	cmp	r6, r9
 800a7f0:	d1ed      	bne.n	800a7ce <LCD_GetpPalConvTableBM+0x4e>
 800a7f2:	683d      	ldr	r5, [r7, #0]
 800a7f4:	4628      	mov	r0, r5
 800a7f6:	e8bd 83f8 	ldmia.w	sp!, {r3, r4, r5, r6, r7, r8, r9, pc}
 800a7fa:	2500      	movs	r5, #0
 800a7fc:	e7fa      	b.n	800a7f4 <LCD_GetpPalConvTableBM+0x74>
 800a7fe:	4605      	mov	r5, r0
 800a800:	e7f8      	b.n	800a7f4 <LCD_GetpPalConvTableBM+0x74>
 800a802:	4645      	mov	r5, r8
 800a804:	e7f6      	b.n	800a7f4 <LCD_GetpPalConvTableBM+0x74>
 800a806:	bf00      	nop
 800a808:	1ffe9dd4 	.word	0x1ffe9dd4
 800a80c:	1ffe8810 	.word	0x1ffe8810

0800a810 <LCD_InitLUT>:
 800a810:	e92d 4ff0 	stmdb	sp!, {r4, r5, r6, r7, r8, r9, sl, fp, lr}
 800a814:	b083      	sub	sp, #12
 800a816:	f002 f9a5 	bl	800cb64 <LCD_GetNumLayers>
 800a81a:	1e07      	subs	r7, r0, #0
 800a81c:	dd5c      	ble.n	800a8d8 <LCD_InitLUT+0xc8>
 800a81e:	f8df 90c0 	ldr.w	r9, [pc, #192]	; 800a8e0 <LCD_InitLUT+0xd0>
 800a822:	f8df b0c0 	ldr.w	fp, [pc, #192]	; 800a8e4 <LCD_InitLUT+0xd4>
 800a826:	2400      	movs	r4, #0
 800a828:	4620      	mov	r0, r4
 800a82a:	f7fc fcef 	bl	800720c <GUI_DEVICE__GetpDriver>
 800a82e:	2800      	cmp	r0, #0
 800a830:	d04f      	beq.n	800a8d2 <LCD_InitLUT+0xc2>
 800a832:	f8d9 3000 	ldr.w	r3, [r9]
 800a836:	4620      	mov	r0, r4
 800a838:	f893 a011 	ldrb.w	sl, [r3, #17]
 800a83c:	745c      	strb	r4, [r3, #17]
 800a83e:	f002 f999 	bl	800cb74 <LCD_GetBitsPerPixelEx>
 800a842:	2808      	cmp	r0, #8
 800a844:	dc41      	bgt.n	800a8ca <LCD_InitLUT+0xba>
 800a846:	f85b 0024 	ldr.w	r0, [fp, r4, lsl #2]
 800a84a:	f240 7238 	movw	r2, #1848	; 0x738
 800a84e:	6901      	ldr	r1, [r0, #16]
 800a850:	f6c0 0201 	movt	r2, #2049	; 0x801
 800a854:	4291      	cmp	r1, r2
 800a856:	d038      	beq.n	800a8ca <LCD_InitLUT+0xba>
 800a858:	4620      	mov	r0, r4
 800a85a:	f002 f999 	bl	800cb90 <LCD_GetNumColorsEx>
 800a85e:	f1b0 0800 	subs.w	r8, r0, #0
 800a862:	dd32      	ble.n	800a8ca <LCD_InitLUT+0xba>
 800a864:	2300      	movs	r3, #0
 800a866:	4618      	mov	r0, r3
 800a868:	9301      	str	r3, [sp, #4]
 800a86a:	f000 ff0d 	bl	800b688 <LCD_Index2Color>
 800a86e:	2501      	movs	r5, #1
 800a870:	4602      	mov	r2, r0
 800a872:	9901      	ldr	r1, [sp, #4]
 800a874:	4620      	mov	r0, r4
 800a876:	f108 36ff 	add.w	r6, r8, #4294967295
 800a87a:	f7fc fb13 	bl	8006ea4 <LCD_SetLUTEntryEx>
 800a87e:	45a8      	cmp	r8, r5
 800a880:	f006 0601 	and.w	r6, r6, #1
 800a884:	d021      	beq.n	800a8ca <LCD_InitLUT+0xba>
 800a886:	b156      	cbz	r6, 800a89e <LCD_InitLUT+0x8e>
 800a888:	4628      	mov	r0, r5
 800a88a:	f000 fefd 	bl	800b688 <LCD_Index2Color>
 800a88e:	4629      	mov	r1, r5
 800a890:	4602      	mov	r2, r0
 800a892:	2502      	movs	r5, #2
 800a894:	4620      	mov	r0, r4
 800a896:	f7fc fb05 	bl	8006ea4 <LCD_SetLUTEntryEx>
 800a89a:	45a8      	cmp	r8, r5
 800a89c:	d015      	beq.n	800a8ca <LCD_InitLUT+0xba>
 800a89e:	b2ee      	uxtb	r6, r5
 800a8a0:	4630      	mov	r0, r6
 800a8a2:	f000 fef1 	bl	800b688 <LCD_Index2Color>
 800a8a6:	3501      	adds	r5, #1
 800a8a8:	4602      	mov	r2, r0
 800a8aa:	4631      	mov	r1, r6
 800a8ac:	4620      	mov	r0, r4
 800a8ae:	b2ee      	uxtb	r6, r5
 800a8b0:	f7fc faf8 	bl	8006ea4 <LCD_SetLUTEntryEx>
 800a8b4:	4630      	mov	r0, r6
 800a8b6:	f000 fee7 	bl	800b688 <LCD_Index2Color>
 800a8ba:	3501      	adds	r5, #1
 800a8bc:	4602      	mov	r2, r0
 800a8be:	4631      	mov	r1, r6
 800a8c0:	4620      	mov	r0, r4
 800a8c2:	f7fc faef 	bl	8006ea4 <LCD_SetLUTEntryEx>
 800a8c6:	45a8      	cmp	r8, r5
 800a8c8:	d1e9      	bne.n	800a89e <LCD_InitLUT+0x8e>
 800a8ca:	f8d9 0000 	ldr.w	r0, [r9]
 800a8ce:	f880 a011 	strb.w	sl, [r0, #17]
 800a8d2:	3401      	adds	r4, #1
 800a8d4:	42bc      	cmp	r4, r7
 800a8d6:	d1a7      	bne.n	800a828 <LCD_InitLUT+0x18>
 800a8d8:	b003      	add	sp, #12
 800a8da:	e8bd 8ff0 	ldmia.w	sp!, {r4, r5, r6, r7, r8, r9, sl, fp, pc}
 800a8de:	bf00      	nop
 800a8e0:	1ffe8808 	.word	0x1ffe8808
 800a8e4:	1ffe9d08 	.word	0x1ffe9d08

0800a8e8 <_SetBkColor>:
 800a8e8:	b510      	push	{r4, lr}
 800a8ea:	4c0c      	ldr	r4, [pc, #48]	; (800a91c <_SetBkColor+0x34>)
 800a8ec:	6823      	ldr	r3, [r4, #0]
 800a8ee:	6b59      	ldr	r1, [r3, #52]	; 0x34
 800a8f0:	4281      	cmp	r1, r0
 800a8f2:	d00f      	beq.n	800a914 <_SetBkColor+0x2c>
 800a8f4:	7c59      	ldrb	r1, [r3, #17]
 800a8f6:	6358      	str	r0, [r3, #52]	; 0x34
 800a8f8:	4b09      	ldr	r3, [pc, #36]	; (800a920 <_SetBkColor+0x38>)
 800a8fa:	f853 2021 	ldr.w	r2, [r3, r1, lsl #2]
 800a8fe:	6911      	ldr	r1, [r2, #16]
 800a900:	680b      	ldr	r3, [r1, #0]
 800a902:	4798      	blx	r3
 800a904:	6821      	ldr	r1, [r4, #0]
 800a906:	7c0a      	ldrb	r2, [r1, #16]
 800a908:	f002 0304 	and.w	r3, r2, #4
 800a90c:	b2da      	uxtb	r2, r3
 800a90e:	b912      	cbnz	r2, 800a916 <_SetBkColor+0x2e>
 800a910:	6b89      	ldr	r1, [r1, #56]	; 0x38
 800a912:	6008      	str	r0, [r1, #0]
 800a914:	bd10      	pop	{r4, pc}
 800a916:	6bcb      	ldr	r3, [r1, #60]	; 0x3c
 800a918:	6018      	str	r0, [r3, #0]
 800a91a:	bd10      	pop	{r4, pc}
 800a91c:	1ffe8808 	.word	0x1ffe8808
 800a920:	1ffe9d08 	.word	0x1ffe9d08

0800a924 <_SetColor>:
 800a924:	b510      	push	{r4, lr}
 800a926:	4c0c      	ldr	r4, [pc, #48]	; (800a958 <_SetColor+0x34>)
 800a928:	6823      	ldr	r3, [r4, #0]
 800a92a:	6b19      	ldr	r1, [r3, #48]	; 0x30
 800a92c:	4281      	cmp	r1, r0
 800a92e:	d00f      	beq.n	800a950 <_SetColor+0x2c>
 800a930:	7c59      	ldrb	r1, [r3, #17]
 800a932:	6318      	str	r0, [r3, #48]	; 0x30
 800a934:	4b09      	ldr	r3, [pc, #36]	; (800a95c <_SetColor+0x38>)
 800a936:	f853 2021 	ldr.w	r2, [r3, r1, lsl #2]
 800a93a:	6911      	ldr	r1, [r2, #16]
 800a93c:	680b      	ldr	r3, [r1, #0]
 800a93e:	4798      	blx	r3
 800a940:	6821      	ldr	r1, [r4, #0]
 800a942:	7c0a      	ldrb	r2, [r1, #16]
 800a944:	f002 0304 	and.w	r3, r2, #4
 800a948:	b2da      	uxtb	r2, r3
 800a94a:	b912      	cbnz	r2, 800a952 <_SetColor+0x2e>
 800a94c:	6bc9      	ldr	r1, [r1, #60]	; 0x3c
 800a94e:	6008      	str	r0, [r1, #0]
 800a950:	bd10      	pop	{r4, pc}
 800a952:	6b8b      	ldr	r3, [r1, #56]	; 0x38
 800a954:	6018      	str	r0, [r3, #0]
 800a956:	bd10      	pop	{r4, pc}
 800a958:	1ffe8808 	.word	0x1ffe8808
 800a95c:	1ffe9d08 	.word	0x1ffe9d08

0800a960 <_SetDrawMode>:
 800a960:	b470      	push	{r4, r5, r6}
 800a962:	4b08      	ldr	r3, [pc, #32]	; (800a984 <_SetDrawMode+0x24>)
 800a964:	681b      	ldr	r3, [r3, #0]
 800a966:	7c1a      	ldrb	r2, [r3, #16]
 800a968:	ea80 0102 	eor.w	r1, r0, r2
 800a96c:	0749      	lsls	r1, r1, #29
 800a96e:	d505      	bpl.n	800a97c <_SetDrawMode+0x1c>
 800a970:	6b9c      	ldr	r4, [r3, #56]	; 0x38
 800a972:	6bd9      	ldr	r1, [r3, #60]	; 0x3c
 800a974:	6826      	ldr	r6, [r4, #0]
 800a976:	680d      	ldr	r5, [r1, #0]
 800a978:	6025      	str	r5, [r4, #0]
 800a97a:	600e      	str	r6, [r1, #0]
 800a97c:	7418      	strb	r0, [r3, #16]
 800a97e:	4610      	mov	r0, r2
 800a980:	bc70      	pop	{r4, r5, r6}
 800a982:	4770      	bx	lr
 800a984:	1ffe8808 	.word	0x1ffe8808

0800a988 <LCD_SetDrawMode>:
 800a988:	b508      	push	{r3, lr}
 800a98a:	f648 0314 	movw	r3, #34836	; 0x8814
 800a98e:	f6c1 73fe 	movt	r3, #8190	; 0x1ffe
 800a992:	6819      	ldr	r1, [r3, #0]
 800a994:	688a      	ldr	r2, [r1, #8]
 800a996:	4790      	blx	r2
 800a998:	bd08      	pop	{r3, pc}
 800a99a:	bf00      	nop

0800a99c <LCD_DrawPixel>:
 800a99c:	4b14      	ldr	r3, [pc, #80]	; (800a9f0 <LCD_DrawPixel+0x54>)
 800a99e:	681b      	ldr	r3, [r3, #0]
 800a9a0:	b510      	push	{r4, lr}
 800a9a2:	f9b3 400a 	ldrsh.w	r4, [r3, #10]
 800a9a6:	460a      	mov	r2, r1
 800a9a8:	4294      	cmp	r4, r2
 800a9aa:	4601      	mov	r1, r0
 800a9ac:	dc17      	bgt.n	800a9de <LCD_DrawPixel+0x42>
 800a9ae:	f9b3 000e 	ldrsh.w	r0, [r3, #14]
 800a9b2:	4282      	cmp	r2, r0
 800a9b4:	dc13      	bgt.n	800a9de <LCD_DrawPixel+0x42>
 800a9b6:	f9b3 0008 	ldrsh.w	r0, [r3, #8]
 800a9ba:	4288      	cmp	r0, r1
 800a9bc:	dc0f      	bgt.n	800a9de <LCD_DrawPixel+0x42>
 800a9be:	f9b3 000c 	ldrsh.w	r0, [r3, #12]
 800a9c2:	4281      	cmp	r1, r0
 800a9c4:	dc0b      	bgt.n	800a9de <LCD_DrawPixel+0x42>
 800a9c6:	7c18      	ldrb	r0, [r3, #16]
 800a9c8:	07c0      	lsls	r0, r0, #31
 800a9ca:	d409      	bmi.n	800a9e0 <LCD_DrawPixel+0x44>
 800a9cc:	7c5c      	ldrb	r4, [r3, #17]
 800a9ce:	4809      	ldr	r0, [pc, #36]	; (800a9f4 <LCD_DrawPixel+0x58>)
 800a9d0:	6bdb      	ldr	r3, [r3, #60]	; 0x3c
 800a9d2:	f850 0024 	ldr.w	r0, [r0, r4, lsl #2]
 800a9d6:	681b      	ldr	r3, [r3, #0]
 800a9d8:	68c4      	ldr	r4, [r0, #12]
 800a9da:	69a4      	ldr	r4, [r4, #24]
 800a9dc:	47a0      	blx	r4
 800a9de:	bd10      	pop	{r4, pc}
 800a9e0:	7c58      	ldrb	r0, [r3, #17]
 800a9e2:	4b04      	ldr	r3, [pc, #16]	; (800a9f4 <LCD_DrawPixel+0x58>)
 800a9e4:	f853 0020 	ldr.w	r0, [r3, r0, lsl #2]
 800a9e8:	68c3      	ldr	r3, [r0, #12]
 800a9ea:	69db      	ldr	r3, [r3, #28]
 800a9ec:	4798      	blx	r3
 800a9ee:	bd10      	pop	{r4, pc}
 800a9f0:	1ffe8808 	.word	0x1ffe8808
 800a9f4:	1ffe9d08 	.word	0x1ffe9d08

0800a9f8 <LCD_DrawHLine>:
 800a9f8:	4b10      	ldr	r3, [pc, #64]	; (800aa3c <LCD_DrawHLine+0x44>)
 800a9fa:	b570      	push	{r4, r5, r6, lr}
 800a9fc:	681c      	ldr	r4, [r3, #0]
 800a9fe:	f9b4 600a 	ldrsh.w	r6, [r4, #10]
 800aa02:	428e      	cmp	r6, r1
 800aa04:	460d      	mov	r5, r1
 800aa06:	dc0f      	bgt.n	800aa28 <LCD_DrawHLine+0x30>
 800aa08:	f9b4 100e 	ldrsh.w	r1, [r4, #14]
 800aa0c:	428d      	cmp	r5, r1
 800aa0e:	dc0b      	bgt.n	800aa28 <LCD_DrawHLine+0x30>
 800aa10:	f9b4 1008 	ldrsh.w	r1, [r4, #8]
 800aa14:	f9b4 300c 	ldrsh.w	r3, [r4, #12]
 800aa18:	4288      	cmp	r0, r1
 800aa1a:	bfa8      	it	ge
 800aa1c:	4601      	movge	r1, r0
 800aa1e:	429a      	cmp	r2, r3
 800aa20:	bfb8      	it	lt
 800aa22:	4613      	movlt	r3, r2
 800aa24:	4299      	cmp	r1, r3
 800aa26:	dd00      	ble.n	800aa2a <LCD_DrawHLine+0x32>
 800aa28:	bd70      	pop	{r4, r5, r6, pc}
 800aa2a:	7c60      	ldrb	r0, [r4, #17]
 800aa2c:	4a04      	ldr	r2, [pc, #16]	; (800aa40 <LCD_DrawHLine+0x48>)
 800aa2e:	f852 0020 	ldr.w	r0, [r2, r0, lsl #2]
 800aa32:	68c4      	ldr	r4, [r0, #12]
 800aa34:	462a      	mov	r2, r5
 800aa36:	68a4      	ldr	r4, [r4, #8]
 800aa38:	47a0      	blx	r4
 800aa3a:	bd70      	pop	{r4, r5, r6, pc}
 800aa3c:	1ffe8808 	.word	0x1ffe8808
 800aa40:	1ffe9d08 	.word	0x1ffe9d08

0800aa44 <LCD_FillRect>:
 800aa44:	b570      	push	{r4, r5, r6, lr}
 800aa46:	4c14      	ldr	r4, [pc, #80]	; (800aa98 <LCD_FillRect+0x54>)
 800aa48:	6824      	ldr	r4, [r4, #0]
 800aa4a:	f9b4 6008 	ldrsh.w	r6, [r4, #8]
 800aa4e:	f9b4 500c 	ldrsh.w	r5, [r4, #12]
 800aa52:	42b0      	cmp	r0, r6
 800aa54:	bfa8      	it	ge
 800aa56:	4606      	movge	r6, r0
 800aa58:	42aa      	cmp	r2, r5
 800aa5a:	bfb8      	it	lt
 800aa5c:	4615      	movlt	r5, r2
 800aa5e:	42b5      	cmp	r5, r6
 800aa60:	b082      	sub	sp, #8
 800aa62:	db0b      	blt.n	800aa7c <LCD_FillRect+0x38>
 800aa64:	f9b4 200a 	ldrsh.w	r2, [r4, #10]
 800aa68:	f9b4 000e 	ldrsh.w	r0, [r4, #14]
 800aa6c:	4291      	cmp	r1, r2
 800aa6e:	bfa8      	it	ge
 800aa70:	460a      	movge	r2, r1
 800aa72:	4283      	cmp	r3, r0
 800aa74:	bfa8      	it	ge
 800aa76:	4603      	movge	r3, r0
 800aa78:	429a      	cmp	r2, r3
 800aa7a:	dd01      	ble.n	800aa80 <LCD_FillRect+0x3c>
 800aa7c:	b002      	add	sp, #8
 800aa7e:	bd70      	pop	{r4, r5, r6, pc}
 800aa80:	7c64      	ldrb	r4, [r4, #17]
 800aa82:	4906      	ldr	r1, [pc, #24]	; (800aa9c <LCD_FillRect+0x58>)
 800aa84:	f851 0024 	ldr.w	r0, [r1, r4, lsl #2]
 800aa88:	68c4      	ldr	r4, [r0, #12]
 800aa8a:	9300      	str	r3, [sp, #0]
 800aa8c:	6924      	ldr	r4, [r4, #16]
 800aa8e:	4631      	mov	r1, r6
 800aa90:	462b      	mov	r3, r5
 800aa92:	47a0      	blx	r4
 800aa94:	e7f2      	b.n	800aa7c <LCD_FillRect+0x38>
 800aa96:	bf00      	nop
 800aa98:	1ffe8808 	.word	0x1ffe8808
 800aa9c:	1ffe9d08 	.word	0x1ffe9d08

0800aaa0 <LCD__DrawBitmap_1bpp>:
 800aaa0:	e92d 4ff0 	stmdb	sp!, {r4, r5, r6, r7, r8, r9, sl, fp, lr}
 800aaa4:	4c0d      	ldr	r4, [pc, #52]	; (800aadc <LCD__DrawBitmap_1bpp+0x3c>)
 800aaa6:	b091      	sub	sp, #68	; 0x44
 800aaa8:	6825      	ldr	r5, [r4, #0]
 800aaaa:	f8dd b068 	ldr.w	fp, [sp, #104]	; 0x68
 800aaae:	920d      	str	r2, [sp, #52]	; 0x34
 800aab0:	4604      	mov	r4, r0
 800aab2:	460e      	mov	r6, r1
 800aab4:	930e      	str	r3, [sp, #56]	; 0x38
 800aab6:	b19d      	cbz	r5, 800aae0 <LCD__DrawBitmap_1bpp+0x40>
 800aab8:	9f1c      	ldr	r7, [sp, #112]	; 0x70
 800aaba:	9e1e      	ldr	r6, [sp, #120]	; 0x78
 800aabc:	9c1b      	ldr	r4, [sp, #108]	; 0x6c
 800aabe:	9702      	str	r7, [sp, #8]
 800aac0:	9604      	str	r6, [sp, #16]
 800aac2:	9f1d      	ldr	r7, [sp, #116]	; 0x74
 800aac4:	9e1f      	ldr	r6, [sp, #124]	; 0x7c
 800aac6:	f8cd b000 	str.w	fp, [sp]
 800aaca:	9401      	str	r4, [sp, #4]
 800aacc:	9703      	str	r7, [sp, #12]
 800aace:	9605      	str	r6, [sp, #20]
 800aad0:	682c      	ldr	r4, [r5, #0]
 800aad2:	47a0      	blx	r4
 800aad4:	b011      	add	sp, #68	; 0x44
 800aad6:	e8bd 8ff0 	ldmia.w	sp!, {r4, r5, r6, r7, r8, r9, sl, fp, pc}
 800aada:	bf00      	nop
 800aadc:	1ffe9ce0 	.word	0x1ffe9ce0
 800aae0:	9f1b      	ldr	r7, [sp, #108]	; 0x6c
 800aae2:	ea47 030b 	orr.w	r3, r7, fp
 800aae6:	2b01      	cmp	r3, #1
 800aae8:	f000 81e9 	beq.w	800aebe <LCD__DrawBitmap_1bpp+0x41e>
 800aaec:	9f1c      	ldr	r7, [sp, #112]	; 0x70
 800aaee:	f1c7 0a08 	rsb	sl, r7, #8
 800aaf2:	9f0e      	ldr	r7, [sp, #56]	; 0x38
 800aaf4:	2f00      	cmp	r7, #0
 800aaf6:	dded      	ble.n	800aad4 <LCD__DrawBitmap_1bpp+0x34>
 800aaf8:	f648 0c08 	movw	ip, #34824	; 0x8808
 800aafc:	f6c1 7cfe 	movt	ip, #8190	; 0x1ffe
 800ab00:	4458      	add	r0, fp
 800ab02:	f8dc 9000 	ldr.w	r9, [ip]
 800ab06:	900f      	str	r0, [sp, #60]	; 0x3c
 800ab08:	9108      	str	r1, [sp, #32]
 800ab0a:	950a      	str	r5, [sp, #40]	; 0x28
 800ab0c:	4648      	mov	r0, r9
 800ab0e:	9d08      	ldr	r5, [sp, #32]
 800ab10:	991b      	ldr	r1, [sp, #108]	; 0x6c
 800ab12:	f9b0 400a 	ldrsh.w	r4, [r0, #10]
 800ab16:	186a      	adds	r2, r5, r1
 800ab18:	1e56      	subs	r6, r2, #1
 800ab1a:	42b4      	cmp	r4, r6
 800ab1c:	920b      	str	r2, [sp, #44]	; 0x2c
 800ab1e:	9609      	str	r6, [sp, #36]	; 0x24
 800ab20:	f300 8122 	bgt.w	800ad68 <LCD__DrawBitmap_1bpp+0x2c8>
 800ab24:	f9b0 300e 	ldrsh.w	r3, [r0, #14]
 800ab28:	42ab      	cmp	r3, r5
 800ab2a:	f2c0 811d 	blt.w	800ad68 <LCD__DrawBitmap_1bpp+0x2c8>
 800ab2e:	9f0d      	ldr	r7, [sp, #52]	; 0x34
 800ab30:	2f00      	cmp	r7, #0
 800ab32:	f340 8119 	ble.w	800ad68 <LCD__DrawBitmap_1bpp+0x2c8>
 800ab36:	9d1e      	ldr	r5, [sp, #120]	; 0x78
 800ab38:	9a1c      	ldr	r2, [sp, #112]	; 0x70
 800ab3a:	f8dd c03c 	ldr.w	ip, [sp, #60]	; 0x3c
 800ab3e:	4629      	mov	r1, r5
 800ab40:	f107 38ff 	add.w	r8, r7, #4294967295
 800ab44:	f811 4b01 	ldrb.w	r4, [r1], #1
 800ab48:	fa44 f60a 	asr.w	r6, r4, sl
 800ab4c:	f016 0fff 	tst.w	r6, #255	; 0xff
 800ab50:	fa04 f402 	lsl.w	r4, r4, r2
 800ab54:	f008 0901 	and.w	r9, r8, #1
 800ab58:	910c      	str	r1, [sp, #48]	; 0x30
 800ab5a:	ebcb 020c 	rsb	r2, fp, ip
 800ab5e:	46d0      	mov	r8, sl
 800ab60:	b2e4      	uxtb	r4, r4
 800ab62:	f040 8110 	bne.w	800ad86 <LCD__DrawBitmap_1bpp+0x2e6>
 800ab66:	7c03      	ldrb	r3, [r0, #16]
 800ab68:	f003 0702 	and.w	r7, r3, #2
 800ab6c:	b2fd      	uxtb	r5, r7
 800ab6e:	2d00      	cmp	r5, #0
 800ab70:	f000 8109 	beq.w	800ad86 <LCD__DrawBitmap_1bpp+0x2e6>
 800ab74:	f8dd c034 	ldr.w	ip, [sp, #52]	; 0x34
 800ab78:	9b0f      	ldr	r3, [sp, #60]	; 0x3c
 800ab7a:	2601      	movs	r6, #1
 800ab7c:	4566      	cmp	r6, ip
 800ab7e:	eb03 050b 	add.w	r5, r3, fp
 800ab82:	f000 80f1 	beq.w	800ad68 <LCD__DrawBitmap_1bpp+0x2c8>
 800ab86:	f1b9 0f00 	cmp.w	r9, #0
 800ab8a:	d021      	beq.n	800abd0 <LCD__DrawBitmap_1bpp+0x130>
 800ab8c:	ebcb 0c05 	rsb	ip, fp, r5
 800ab90:	f1b8 0f00 	cmp.w	r8, #0
 800ab94:	f040 8167 	bne.w	800ae66 <LCD__DrawBitmap_1bpp+0x3c6>
 800ab98:	990c      	ldr	r1, [sp, #48]	; 0x30
 800ab9a:	9f1c      	ldr	r7, [sp, #112]	; 0x70
 800ab9c:	f811 4b01 	ldrb.w	r4, [r1], #1
 800aba0:	46d0      	mov	r8, sl
 800aba2:	910c      	str	r1, [sp, #48]	; 0x30
 800aba4:	fa44 f20a 	asr.w	r2, r4, sl
 800aba8:	f012 0fff 	tst.w	r2, #255	; 0xff
 800abac:	fa04 f407 	lsl.w	r4, r4, r7
 800abb0:	b2e4      	uxtb	r4, r4
 800abb2:	f040 8114 	bne.w	800adde <LCD__DrawBitmap_1bpp+0x33e>
 800abb6:	7c03      	ldrb	r3, [r0, #16]
 800abb8:	f003 0702 	and.w	r7, r3, #2
 800abbc:	b2f9      	uxtb	r1, r7
 800abbe:	2900      	cmp	r1, #0
 800abc0:	f000 810d 	beq.w	800adde <LCD__DrawBitmap_1bpp+0x33e>
 800abc4:	990d      	ldr	r1, [sp, #52]	; 0x34
 800abc6:	3601      	adds	r6, #1
 800abc8:	428e      	cmp	r6, r1
 800abca:	445d      	add	r5, fp
 800abcc:	f000 80cc 	beq.w	800ad68 <LCD__DrawBitmap_1bpp+0x2c8>
 800abd0:	ebcb 0205 	rsb	r2, fp, r5
 800abd4:	f1b8 0f00 	cmp.w	r8, #0
 800abd8:	f000 8139 	beq.w	800ae4e <LCD__DrawBitmap_1bpp+0x3ae>
 800abdc:	9f1c      	ldr	r7, [sp, #112]	; 0x70
 800abde:	ebc7 0808 	rsb	r8, r7, r8
 800abe2:	463b      	mov	r3, r7
 800abe4:	fa44 f90a 	asr.w	r9, r4, sl
 800abe8:	fa04 f103 	lsl.w	r1, r4, r3
 800abec:	f019 0fff 	tst.w	r9, #255	; 0xff
 800abf0:	b2cf      	uxtb	r7, r1
 800abf2:	d105      	bne.n	800ac00 <LCD__DrawBitmap_1bpp+0x160>
 800abf4:	7c04      	ldrb	r4, [r0, #16]
 800abf6:	f004 0302 	and.w	r3, r4, #2
 800abfa:	b2d9      	uxtb	r1, r3
 800abfc:	2900      	cmp	r1, #0
 800abfe:	d143      	bne.n	800ac88 <LCD__DrawBitmap_1bpp+0x1e8>
 800ac00:	f8d0 c03c 	ldr.w	ip, [r0, #60]	; 0x3c
 800ac04:	9b1f      	ldr	r3, [sp, #124]	; 0x7c
 800ac06:	f8dc 4000 	ldr.w	r4, [ip]
 800ac0a:	fa5f f989 	uxtb.w	r9, r9
 800ac0e:	b10b      	cbz	r3, 800ac14 <LCD__DrawBitmap_1bpp+0x174>
 800ac10:	f853 9029 	ldr.w	r9, [r3, r9, lsl #2]
 800ac14:	f9b0 1008 	ldrsh.w	r1, [r0, #8]
 800ac18:	f9b0 300c 	ldrsh.w	r3, [r0, #12]
 800ac1c:	f8cc 9000 	str.w	r9, [ip]
 800ac20:	f105 39ff 	add.w	r9, r5, #4294967295
 800ac24:	428a      	cmp	r2, r1
 800ac26:	bfa8      	it	ge
 800ac28:	4611      	movge	r1, r2
 800ac2a:	4599      	cmp	r9, r3
 800ac2c:	bfb8      	it	lt
 800ac2e:	464b      	movlt	r3, r9
 800ac30:	4299      	cmp	r1, r3
 800ac32:	dc27      	bgt.n	800ac84 <LCD__DrawBitmap_1bpp+0x1e4>
 800ac34:	f9b0 200e 	ldrsh.w	r2, [r0, #14]
 800ac38:	f9b0 900a 	ldrsh.w	r9, [r0, #10]
 800ac3c:	9206      	str	r2, [sp, #24]
 800ac3e:	9a08      	ldr	r2, [sp, #32]
 800ac40:	454a      	cmp	r2, r9
 800ac42:	bfb8      	it	lt
 800ac44:	464a      	movlt	r2, r9
 800ac46:	9207      	str	r2, [sp, #28]
 800ac48:	f8dd 9018 	ldr.w	r9, [sp, #24]
 800ac4c:	9a09      	ldr	r2, [sp, #36]	; 0x24
 800ac4e:	4591      	cmp	r9, r2
 800ac50:	bfa8      	it	ge
 800ac52:	4691      	movge	r9, r2
 800ac54:	9a07      	ldr	r2, [sp, #28]
 800ac56:	454a      	cmp	r2, r9
 800ac58:	dc14      	bgt.n	800ac84 <LCD__DrawBitmap_1bpp+0x1e4>
 800ac5a:	f649 5c08 	movw	ip, #40200	; 0x9d08
 800ac5e:	7c40      	ldrb	r0, [r0, #17]
 800ac60:	f6c1 7cfe 	movt	ip, #8190	; 0x1ffe
 800ac64:	f85c 0020 	ldr.w	r0, [ip, r0, lsl #2]
 800ac68:	f8d0 e00c 	ldr.w	lr, [r0, #12]
 800ac6c:	f8cd 9000 	str.w	r9, [sp]
 800ac70:	f8de 9010 	ldr.w	r9, [lr, #16]
 800ac74:	47c8      	blx	r9
 800ac76:	f648 0108 	movw	r1, #34824	; 0x8808
 800ac7a:	f6c1 71fe 	movt	r1, #8190	; 0x1ffe
 800ac7e:	6808      	ldr	r0, [r1, #0]
 800ac80:	f8d0 c03c 	ldr.w	ip, [r0, #60]	; 0x3c
 800ac84:	f8cc 4000 	str.w	r4, [ip]
 800ac88:	445d      	add	r5, fp
 800ac8a:	3601      	adds	r6, #1
 800ac8c:	ebcb 0205 	rsb	r2, fp, r5
 800ac90:	f1b8 0f00 	cmp.w	r8, #0
 800ac94:	f040 80d6 	bne.w	800ae44 <LCD__DrawBitmap_1bpp+0x3a4>
 800ac98:	f8dd 8030 	ldr.w	r8, [sp, #48]	; 0x30
 800ac9c:	9b1c      	ldr	r3, [sp, #112]	; 0x70
 800ac9e:	f818 7b01 	ldrb.w	r7, [r8], #1
 800aca2:	f8cd 8030 	str.w	r8, [sp, #48]	; 0x30
 800aca6:	46d0      	mov	r8, sl
 800aca8:	fa47 f90a 	asr.w	r9, r7, sl
 800acac:	fa07 f103 	lsl.w	r1, r7, r3
 800acb0:	f019 0fff 	tst.w	r9, #255	; 0xff
 800acb4:	b2cc      	uxtb	r4, r1
 800acb6:	d106      	bne.n	800acc6 <LCD__DrawBitmap_1bpp+0x226>
 800acb8:	7c07      	ldrb	r7, [r0, #16]
 800acba:	f007 0302 	and.w	r3, r7, #2
 800acbe:	b2d9      	uxtb	r1, r3
 800acc0:	2900      	cmp	r1, #0
 800acc2:	f47f af7f 	bne.w	800abc4 <LCD__DrawBitmap_1bpp+0x124>
 800acc6:	f8d0 c03c 	ldr.w	ip, [r0, #60]	; 0x3c
 800acca:	9b1f      	ldr	r3, [sp, #124]	; 0x7c
 800accc:	f8dc 7000 	ldr.w	r7, [ip]
 800acd0:	2b00      	cmp	r3, #0
 800acd2:	f000 80c5 	beq.w	800ae60 <LCD__DrawBitmap_1bpp+0x3c0>
 800acd6:	fa5f f989 	uxtb.w	r9, r9
 800acda:	f853 9029 	ldr.w	r9, [r3, r9, lsl #2]
 800acde:	f9b0 1008 	ldrsh.w	r1, [r0, #8]
 800ace2:	f9b0 300c 	ldrsh.w	r3, [r0, #12]
 800ace6:	f8cc 9000 	str.w	r9, [ip]
 800acea:	f105 39ff 	add.w	r9, r5, #4294967295
 800acee:	428a      	cmp	r2, r1
 800acf0:	bfa8      	it	ge
 800acf2:	4611      	movge	r1, r2
 800acf4:	4599      	cmp	r9, r3
 800acf6:	bfb8      	it	lt
 800acf8:	464b      	movlt	r3, r9
 800acfa:	4299      	cmp	r1, r3
 800acfc:	dc2c      	bgt.n	800ad58 <LCD__DrawBitmap_1bpp+0x2b8>
 800acfe:	f9b0 900e 	ldrsh.w	r9, [r0, #14]
 800ad02:	f9b0 200a 	ldrsh.w	r2, [r0, #10]
 800ad06:	f8cd 901c 	str.w	r9, [sp, #28]
 800ad0a:	f8dd 9020 	ldr.w	r9, [sp, #32]
 800ad0e:	4591      	cmp	r9, r2
 800ad10:	bfb8      	it	lt
 800ad12:	4691      	movlt	r9, r2
 800ad14:	f8cd 9018 	str.w	r9, [sp, #24]
 800ad18:	9a07      	ldr	r2, [sp, #28]
 800ad1a:	f8dd 9024 	ldr.w	r9, [sp, #36]	; 0x24
 800ad1e:	454a      	cmp	r2, r9
 800ad20:	bfa8      	it	ge
 800ad22:	464a      	movge	r2, r9
 800ad24:	f8dd 9018 	ldr.w	r9, [sp, #24]
 800ad28:	9207      	str	r2, [sp, #28]
 800ad2a:	4591      	cmp	r9, r2
 800ad2c:	dc14      	bgt.n	800ad58 <LCD__DrawBitmap_1bpp+0x2b8>
 800ad2e:	f649 5e08 	movw	lr, #40200	; 0x9d08
 800ad32:	7c40      	ldrb	r0, [r0, #17]
 800ad34:	f6c1 7efe 	movt	lr, #8190	; 0x1ffe
 800ad38:	f85e 0020 	ldr.w	r0, [lr, r0, lsl #2]
 800ad3c:	f8d0 c00c 	ldr.w	ip, [r0, #12]
 800ad40:	9200      	str	r2, [sp, #0]
 800ad42:	f8dc c010 	ldr.w	ip, [ip, #16]
 800ad46:	464a      	mov	r2, r9
 800ad48:	47e0      	blx	ip
 800ad4a:	f648 0108 	movw	r1, #34824	; 0x8808
 800ad4e:	f6c1 71fe 	movt	r1, #8190	; 0x1ffe
 800ad52:	6808      	ldr	r0, [r1, #0]
 800ad54:	f8d0 c03c 	ldr.w	ip, [r0, #60]	; 0x3c
 800ad58:	990d      	ldr	r1, [sp, #52]	; 0x34
 800ad5a:	f8cc 7000 	str.w	r7, [ip]
 800ad5e:	3601      	adds	r6, #1
 800ad60:	428e      	cmp	r6, r1
 800ad62:	445d      	add	r5, fp
 800ad64:	f47f af34 	bne.w	800abd0 <LCD__DrawBitmap_1bpp+0x130>
 800ad68:	9c0a      	ldr	r4, [sp, #40]	; 0x28
 800ad6a:	9a1e      	ldr	r2, [sp, #120]	; 0x78
 800ad6c:	9e1d      	ldr	r6, [sp, #116]	; 0x74
 800ad6e:	f8dd 9038 	ldr.w	r9, [sp, #56]	; 0x38
 800ad72:	9f0b      	ldr	r7, [sp, #44]	; 0x2c
 800ad74:	3401      	adds	r4, #1
 800ad76:	1995      	adds	r5, r2, r6
 800ad78:	454c      	cmp	r4, r9
 800ad7a:	940a      	str	r4, [sp, #40]	; 0x28
 800ad7c:	951e      	str	r5, [sp, #120]	; 0x78
 800ad7e:	9708      	str	r7, [sp, #32]
 800ad80:	f47f aec5 	bne.w	800ab0e <LCD__DrawBitmap_1bpp+0x6e>
 800ad84:	e6a6      	b.n	800aad4 <LCD__DrawBitmap_1bpp+0x34>
 800ad86:	6bc5      	ldr	r5, [r0, #60]	; 0x3c
 800ad88:	991f      	ldr	r1, [sp, #124]	; 0x7c
 800ad8a:	682f      	ldr	r7, [r5, #0]
 800ad8c:	2900      	cmp	r1, #0
 800ad8e:	f000 80e4 	beq.w	800af5a <LCD__DrawBitmap_1bpp+0x4ba>
 800ad92:	b2f6      	uxtb	r6, r6
 800ad94:	f851 6026 	ldr.w	r6, [r1, r6, lsl #2]
 800ad98:	f8dd c03c 	ldr.w	ip, [sp, #60]	; 0x3c
 800ad9c:	f9b0 1008 	ldrsh.w	r1, [r0, #8]
 800ada0:	f9b0 300c 	ldrsh.w	r3, [r0, #12]
 800ada4:	602e      	str	r6, [r5, #0]
 800ada6:	f10c 36ff 	add.w	r6, ip, #4294967295
 800adaa:	428a      	cmp	r2, r1
 800adac:	bfa8      	it	ge
 800adae:	4611      	movge	r1, r2
 800adb0:	429e      	cmp	r6, r3
 800adb2:	bfb8      	it	lt
 800adb4:	4633      	movlt	r3, r6
 800adb6:	4299      	cmp	r1, r3
 800adb8:	dc0f      	bgt.n	800adda <LCD__DrawBitmap_1bpp+0x33a>
 800adba:	f8dd c020 	ldr.w	ip, [sp, #32]
 800adbe:	f9b0 200a 	ldrsh.w	r2, [r0, #10]
 800adc2:	f9b0 600e 	ldrsh.w	r6, [r0, #14]
 800adc6:	4594      	cmp	ip, r2
 800adc8:	bfa8      	it	ge
 800adca:	4662      	movge	r2, ip
 800adcc:	f8dd c024 	ldr.w	ip, [sp, #36]	; 0x24
 800add0:	4566      	cmp	r6, ip
 800add2:	bfa8      	it	ge
 800add4:	4666      	movge	r6, ip
 800add6:	42b2      	cmp	r2, r6
 800add8:	dd49      	ble.n	800ae6e <LCD__DrawBitmap_1bpp+0x3ce>
 800adda:	602f      	str	r7, [r5, #0]
 800addc:	e6ca      	b.n	800ab74 <LCD__DrawBitmap_1bpp+0xd4>
 800adde:	6bc7      	ldr	r7, [r0, #60]	; 0x3c
 800ade0:	9b1f      	ldr	r3, [sp, #124]	; 0x7c
 800ade2:	f8d7 9000 	ldr.w	r9, [r7]
 800ade6:	2b00      	cmp	r3, #0
 800ade8:	f000 80b9 	beq.w	800af5e <LCD__DrawBitmap_1bpp+0x4be>
 800adec:	b2d2      	uxtb	r2, r2
 800adee:	f853 2022 	ldr.w	r2, [r3, r2, lsl #2]
 800adf2:	f9b0 1008 	ldrsh.w	r1, [r0, #8]
 800adf6:	f9b0 300c 	ldrsh.w	r3, [r0, #12]
 800adfa:	603a      	str	r2, [r7, #0]
 800adfc:	1e6a      	subs	r2, r5, #1
 800adfe:	458c      	cmp	ip, r1
 800ae00:	bfa8      	it	ge
 800ae02:	4661      	movge	r1, ip
 800ae04:	429a      	cmp	r2, r3
 800ae06:	bfb8      	it	lt
 800ae08:	4613      	movlt	r3, r2
 800ae0a:	4299      	cmp	r1, r3
 800ae0c:	dc17      	bgt.n	800ae3e <LCD__DrawBitmap_1bpp+0x39e>
 800ae0e:	f9b0 c00e 	ldrsh.w	ip, [r0, #14]
 800ae12:	f9b0 200a 	ldrsh.w	r2, [r0, #10]
 800ae16:	f8cd c01c 	str.w	ip, [sp, #28]
 800ae1a:	f8dd c020 	ldr.w	ip, [sp, #32]
 800ae1e:	4594      	cmp	ip, r2
 800ae20:	bfb8      	it	lt
 800ae22:	4694      	movlt	ip, r2
 800ae24:	f8cd c018 	str.w	ip, [sp, #24]
 800ae28:	9a07      	ldr	r2, [sp, #28]
 800ae2a:	f8dd c024 	ldr.w	ip, [sp, #36]	; 0x24
 800ae2e:	4562      	cmp	r2, ip
 800ae30:	bfa8      	it	ge
 800ae32:	4662      	movge	r2, ip
 800ae34:	f8dd c018 	ldr.w	ip, [sp, #24]
 800ae38:	9207      	str	r2, [sp, #28]
 800ae3a:	4594      	cmp	ip, r2
 800ae3c:	dd2a      	ble.n	800ae94 <LCD__DrawBitmap_1bpp+0x3f4>
 800ae3e:	f8c7 9000 	str.w	r9, [r7]
 800ae42:	e6bf      	b.n	800abc4 <LCD__DrawBitmap_1bpp+0x124>
 800ae44:	9c1c      	ldr	r4, [sp, #112]	; 0x70
 800ae46:	ebc4 0808 	rsb	r8, r4, r8
 800ae4a:	4623      	mov	r3, r4
 800ae4c:	e72c      	b.n	800aca8 <LCD__DrawBitmap_1bpp+0x208>
 800ae4e:	f8dd 8030 	ldr.w	r8, [sp, #48]	; 0x30
 800ae52:	9b1c      	ldr	r3, [sp, #112]	; 0x70
 800ae54:	f818 4b01 	ldrb.w	r4, [r8], #1
 800ae58:	f8cd 8030 	str.w	r8, [sp, #48]	; 0x30
 800ae5c:	46d0      	mov	r8, sl
 800ae5e:	e6c1      	b.n	800abe4 <LCD__DrawBitmap_1bpp+0x144>
 800ae60:	fa5f f989 	uxtb.w	r9, r9
 800ae64:	e73b      	b.n	800acde <LCD__DrawBitmap_1bpp+0x23e>
 800ae66:	9f1c      	ldr	r7, [sp, #112]	; 0x70
 800ae68:	ebc7 0808 	rsb	r8, r7, r8
 800ae6c:	e69a      	b.n	800aba4 <LCD__DrawBitmap_1bpp+0x104>
 800ae6e:	f649 5e08 	movw	lr, #40200	; 0x9d08
 800ae72:	7c40      	ldrb	r0, [r0, #17]
 800ae74:	f6c1 7efe 	movt	lr, #8190	; 0x1ffe
 800ae78:	f85e 0020 	ldr.w	r0, [lr, r0, lsl #2]
 800ae7c:	68c5      	ldr	r5, [r0, #12]
 800ae7e:	9600      	str	r6, [sp, #0]
 800ae80:	692e      	ldr	r6, [r5, #16]
 800ae82:	47b0      	blx	r6
 800ae84:	f648 0208 	movw	r2, #34824	; 0x8808
 800ae88:	f6c1 72fe 	movt	r2, #8190	; 0x1ffe
 800ae8c:	6810      	ldr	r0, [r2, #0]
 800ae8e:	6bc5      	ldr	r5, [r0, #60]	; 0x3c
 800ae90:	602f      	str	r7, [r5, #0]
 800ae92:	e66f      	b.n	800ab74 <LCD__DrawBitmap_1bpp+0xd4>
 800ae94:	f649 5e08 	movw	lr, #40200	; 0x9d08
 800ae98:	7c40      	ldrb	r0, [r0, #17]
 800ae9a:	f6c1 7efe 	movt	lr, #8190	; 0x1ffe
 800ae9e:	f85e 0020 	ldr.w	r0, [lr, r0, lsl #2]
 800aea2:	68c7      	ldr	r7, [r0, #12]
 800aea4:	9200      	str	r2, [sp, #0]
 800aea6:	693f      	ldr	r7, [r7, #16]
 800aea8:	4662      	mov	r2, ip
 800aeaa:	47b8      	blx	r7
 800aeac:	f648 0308 	movw	r3, #34824	; 0x8808
 800aeb0:	f6c1 73fe 	movt	r3, #8190	; 0x1ffe
 800aeb4:	6818      	ldr	r0, [r3, #0]
 800aeb6:	6bc7      	ldr	r7, [r0, #60]	; 0x3c
 800aeb8:	f8c7 9000 	str.w	r9, [r7]
 800aebc:	e682      	b.n	800abc4 <LCD__DrawBitmap_1bpp+0x124>
 800aebe:	4d33      	ldr	r5, [pc, #204]	; (800af8c <LCD__DrawBitmap_1bpp+0x4ec>)
 800aec0:	682b      	ldr	r3, [r5, #0]
 800aec2:	f9b3 200a 	ldrsh.w	r2, [r3, #10]
 800aec6:	1a51      	subs	r1, r2, r1
 800aec8:	2900      	cmp	r1, #0
 800aeca:	dd5b      	ble.n	800af84 <LCD__DrawBitmap_1bpp+0x4e4>
 800aecc:	f8dd 9038 	ldr.w	r9, [sp, #56]	; 0x38
 800aed0:	ebc1 0509 	rsb	r5, r1, r9
 800aed4:	2d00      	cmp	r5, #0
 800aed6:	f77f adfd 	ble.w	800aad4 <LCD__DrawBitmap_1bpp+0x34>
 800aeda:	981e      	ldr	r0, [sp, #120]	; 0x78
 800aedc:	9f1d      	ldr	r7, [sp, #116]	; 0x74
 800aede:	fb01 0107 	mla	r1, r1, r7, r0
 800aee2:	9f0e      	ldr	r7, [sp, #56]	; 0x38
 800aee4:	911e      	str	r1, [sp, #120]	; 0x78
 800aee6:	19f0      	adds	r0, r6, r7
 800aee8:	f9b3 100e 	ldrsh.w	r1, [r3, #14]
 800aeec:	3801      	subs	r0, #1
 800aeee:	1a41      	subs	r1, r0, r1
 800aef0:	2900      	cmp	r1, #0
 800aef2:	dd03      	ble.n	800aefc <LCD__DrawBitmap_1bpp+0x45c>
 800aef4:	1a6d      	subs	r5, r5, r1
 800aef6:	2d00      	cmp	r5, #0
 800aef8:	f77f adec 	ble.w	800aad4 <LCD__DrawBitmap_1bpp+0x34>
 800aefc:	f8dd 9034 	ldr.w	r9, [sp, #52]	; 0x34
 800af00:	f9b3 100c 	ldrsh.w	r1, [r3, #12]
 800af04:	f8dd c080 	ldr.w	ip, [sp, #128]	; 0x80
 800af08:	eb04 0609 	add.w	r6, r4, r9
 800af0c:	1e70      	subs	r0, r6, #1
 800af0e:	1a46      	subs	r6, r0, r1
 800af10:	2e00      	cmp	r6, #0
 800af12:	f9b3 0008 	ldrsh.w	r0, [r3, #8]
 800af16:	bfc8      	it	gt
 800af18:	ebc6 0909 	rsbgt	r9, r6, r9
 800af1c:	ebcc 0104 	rsb	r1, ip, r4
 800af20:	bfc8      	it	gt
 800af22:	f8cd 9034 	strgt.w	r9, [sp, #52]	; 0x34
 800af26:	4281      	cmp	r1, r0
 800af28:	db1b      	blt.n	800af62 <LCD__DrawBitmap_1bpp+0x4c2>
 800af2a:	4664      	mov	r4, ip
 800af2c:	9e0d      	ldr	r6, [sp, #52]	; 0x34
 800af2e:	2e00      	cmp	r6, #0
 800af30:	f77f add0 	ble.w	800aad4 <LCD__DrawBitmap_1bpp+0x34>
 800af34:	7c5e      	ldrb	r6, [r3, #17]
 800af36:	4b16      	ldr	r3, [pc, #88]	; (800af90 <LCD__DrawBitmap_1bpp+0x4f0>)
 800af38:	9f1f      	ldr	r7, [sp, #124]	; 0x7c
 800af3a:	f853 0026 	ldr.w	r0, [r3, r6, lsl #2]
 800af3e:	9e1e      	ldr	r6, [sp, #120]	; 0x78
 800af40:	68c3      	ldr	r3, [r0, #12]
 800af42:	9500      	str	r5, [sp, #0]
 800af44:	9d1c      	ldr	r5, [sp, #112]	; 0x70
 800af46:	9603      	str	r6, [sp, #12]
 800af48:	9501      	str	r5, [sp, #4]
 800af4a:	9d1d      	ldr	r5, [sp, #116]	; 0x74
 800af4c:	9404      	str	r4, [sp, #16]
 800af4e:	9502      	str	r5, [sp, #8]
 800af50:	9705      	str	r7, [sp, #20]
 800af52:	685c      	ldr	r4, [r3, #4]
 800af54:	9b0d      	ldr	r3, [sp, #52]	; 0x34
 800af56:	47a0      	blx	r4
 800af58:	e5bc      	b.n	800aad4 <LCD__DrawBitmap_1bpp+0x34>
 800af5a:	b2f6      	uxtb	r6, r6
 800af5c:	e71c      	b.n	800ad98 <LCD__DrawBitmap_1bpp+0x2f8>
 800af5e:	b2d2      	uxtb	r2, r2
 800af60:	e747      	b.n	800adf2 <LCD__DrawBitmap_1bpp+0x352>
 800af62:	1a47      	subs	r7, r0, r1
 800af64:	eb0c 0407 	add.w	r4, ip, r7
 800af68:	f027 0607 	bic.w	r6, r7, #7
 800af6c:	9f0d      	ldr	r7, [sp, #52]	; 0x34
 800af6e:	1a08      	subs	r0, r1, r0
 800af70:	1838      	adds	r0, r7, r0
 800af72:	9f1e      	ldr	r7, [sp, #120]	; 0x78
 800af74:	900d      	str	r0, [sp, #52]	; 0x34
 800af76:	eb07 07e4 	add.w	r7, r7, r4, asr #3
 800af7a:	971e      	str	r7, [sp, #120]	; 0x78
 800af7c:	1989      	adds	r1, r1, r6
 800af7e:	f004 0407 	and.w	r4, r4, #7
 800af82:	e7d3      	b.n	800af2c <LCD__DrawBitmap_1bpp+0x48c>
 800af84:	9d0e      	ldr	r5, [sp, #56]	; 0x38
 800af86:	4632      	mov	r2, r6
 800af88:	462f      	mov	r7, r5
 800af8a:	e7ac      	b.n	800aee6 <LCD__DrawBitmap_1bpp+0x446>
 800af8c:	1ffe8808 	.word	0x1ffe8808
 800af90:	1ffe9d08 	.word	0x1ffe9d08

0800af94 <LCD_DrawBitmap>:
 800af94:	e92d 4ff0 	stmdb	sp!, {r4, r5, r6, r7, r8, r9, sl, fp, lr}
 800af98:	4c0d      	ldr	r4, [pc, #52]	; (800afd0 <LCD_DrawBitmap+0x3c>)
 800af9a:	b091      	sub	sp, #68	; 0x44
 800af9c:	6825      	ldr	r5, [r4, #0]
 800af9e:	f8dd b068 	ldr.w	fp, [sp, #104]	; 0x68
 800afa2:	920d      	str	r2, [sp, #52]	; 0x34
 800afa4:	4604      	mov	r4, r0
 800afa6:	460e      	mov	r6, r1
 800afa8:	930e      	str	r3, [sp, #56]	; 0x38
 800afaa:	b19d      	cbz	r5, 800afd4 <LCD_DrawBitmap+0x40>
 800afac:	9f1c      	ldr	r7, [sp, #112]	; 0x70
 800afae:	9e1e      	ldr	r6, [sp, #120]	; 0x78
 800afb0:	9c1b      	ldr	r4, [sp, #108]	; 0x6c
 800afb2:	9702      	str	r7, [sp, #8]
 800afb4:	9604      	str	r6, [sp, #16]
 800afb6:	9f1d      	ldr	r7, [sp, #116]	; 0x74
 800afb8:	9e1f      	ldr	r6, [sp, #124]	; 0x7c
 800afba:	f8cd b000 	str.w	fp, [sp]
 800afbe:	9401      	str	r4, [sp, #4]
 800afc0:	9703      	str	r7, [sp, #12]
 800afc2:	9605      	str	r6, [sp, #20]
 800afc4:	682c      	ldr	r4, [r5, #0]
 800afc6:	47a0      	blx	r4
 800afc8:	b011      	add	sp, #68	; 0x44
 800afca:	e8bd 8ff0 	ldmia.w	sp!, {r4, r5, r6, r7, r8, r9, sl, fp, pc}
 800afce:	bf00      	nop
 800afd0:	1ffe9ce0 	.word	0x1ffe9ce0
 800afd4:	9f1b      	ldr	r7, [sp, #108]	; 0x6c
 800afd6:	ea47 030b 	orr.w	r3, r7, fp
 800afda:	2b01      	cmp	r3, #1
 800afdc:	f000 81e9 	beq.w	800b3b2 <LCD_DrawBitmap+0x41e>
 800afe0:	9f1c      	ldr	r7, [sp, #112]	; 0x70
 800afe2:	f1c7 0a08 	rsb	sl, r7, #8
 800afe6:	9f0e      	ldr	r7, [sp, #56]	; 0x38
 800afe8:	2f00      	cmp	r7, #0
 800afea:	dded      	ble.n	800afc8 <LCD_DrawBitmap+0x34>
 800afec:	f648 0c08 	movw	ip, #34824	; 0x8808
 800aff0:	f6c1 7cfe 	movt	ip, #8190	; 0x1ffe
 800aff4:	4458      	add	r0, fp
 800aff6:	f8dc 9000 	ldr.w	r9, [ip]
 800affa:	900f      	str	r0, [sp, #60]	; 0x3c
 800affc:	9108      	str	r1, [sp, #32]
 800affe:	950a      	str	r5, [sp, #40]	; 0x28
 800b000:	4648      	mov	r0, r9
 800b002:	9d08      	ldr	r5, [sp, #32]
 800b004:	991b      	ldr	r1, [sp, #108]	; 0x6c
 800b006:	f9b0 400a 	ldrsh.w	r4, [r0, #10]
 800b00a:	186a      	adds	r2, r5, r1
 800b00c:	1e56      	subs	r6, r2, #1
 800b00e:	42b4      	cmp	r4, r6
 800b010:	920b      	str	r2, [sp, #44]	; 0x2c
 800b012:	9609      	str	r6, [sp, #36]	; 0x24
 800b014:	f300 8122 	bgt.w	800b25c <LCD_DrawBitmap+0x2c8>
 800b018:	f9b0 300e 	ldrsh.w	r3, [r0, #14]
 800b01c:	42ab      	cmp	r3, r5
 800b01e:	f2c0 811d 	blt.w	800b25c <LCD_DrawBitmap+0x2c8>
 800b022:	9f0d      	ldr	r7, [sp, #52]	; 0x34
 800b024:	2f00      	cmp	r7, #0
 800b026:	f340 8119 	ble.w	800b25c <LCD_DrawBitmap+0x2c8>
 800b02a:	9d1e      	ldr	r5, [sp, #120]	; 0x78
 800b02c:	9a1c      	ldr	r2, [sp, #112]	; 0x70
 800b02e:	f8dd c03c 	ldr.w	ip, [sp, #60]	; 0x3c
 800b032:	4629      	mov	r1, r5
 800b034:	f107 38ff 	add.w	r8, r7, #4294967295
 800b038:	f811 4b01 	ldrb.w	r4, [r1], #1
 800b03c:	fa44 f60a 	asr.w	r6, r4, sl
 800b040:	f016 0fff 	tst.w	r6, #255	; 0xff
 800b044:	fa04 f402 	lsl.w	r4, r4, r2
 800b048:	f008 0901 	and.w	r9, r8, #1
 800b04c:	910c      	str	r1, [sp, #48]	; 0x30
 800b04e:	ebcb 020c 	rsb	r2, fp, ip
 800b052:	46d0      	mov	r8, sl
 800b054:	b2e4      	uxtb	r4, r4
 800b056:	f040 8110 	bne.w	800b27a <LCD_DrawBitmap+0x2e6>
 800b05a:	7c03      	ldrb	r3, [r0, #16]
 800b05c:	f003 0702 	and.w	r7, r3, #2
 800b060:	b2fd      	uxtb	r5, r7
 800b062:	2d00      	cmp	r5, #0
 800b064:	f000 8109 	beq.w	800b27a <LCD_DrawBitmap+0x2e6>
 800b068:	f8dd c034 	ldr.w	ip, [sp, #52]	; 0x34
 800b06c:	9b0f      	ldr	r3, [sp, #60]	; 0x3c
 800b06e:	2601      	movs	r6, #1
 800b070:	4566      	cmp	r6, ip
 800b072:	eb03 050b 	add.w	r5, r3, fp
 800b076:	f000 80f1 	beq.w	800b25c <LCD_DrawBitmap+0x2c8>
 800b07a:	f1b9 0f00 	cmp.w	r9, #0
 800b07e:	d021      	beq.n	800b0c4 <LCD_DrawBitmap+0x130>
 800b080:	ebcb 0c05 	rsb	ip, fp, r5
 800b084:	f1b8 0f00 	cmp.w	r8, #0
 800b088:	f040 8167 	bne.w	800b35a <LCD_DrawBitmap+0x3c6>
 800b08c:	990c      	ldr	r1, [sp, #48]	; 0x30
 800b08e:	9f1c      	ldr	r7, [sp, #112]	; 0x70
 800b090:	f811 4b01 	ldrb.w	r4, [r1], #1
 800b094:	46d0      	mov	r8, sl
 800b096:	910c      	str	r1, [sp, #48]	; 0x30
 800b098:	fa44 f20a 	asr.w	r2, r4, sl
 800b09c:	f012 0fff 	tst.w	r2, #255	; 0xff
 800b0a0:	fa04 f407 	lsl.w	r4, r4, r7
 800b0a4:	b2e4      	uxtb	r4, r4
 800b0a6:	f040 8114 	bne.w	800b2d2 <LCD_DrawBitmap+0x33e>
 800b0aa:	7c03      	ldrb	r3, [r0, #16]
 800b0ac:	f003 0702 	and.w	r7, r3, #2
 800b0b0:	b2f9      	uxtb	r1, r7
 800b0b2:	2900      	cmp	r1, #0
 800b0b4:	f000 810d 	beq.w	800b2d2 <LCD_DrawBitmap+0x33e>
 800b0b8:	990d      	ldr	r1, [sp, #52]	; 0x34
 800b0ba:	3601      	adds	r6, #1
 800b0bc:	428e      	cmp	r6, r1
 800b0be:	445d      	add	r5, fp
 800b0c0:	f000 80cc 	beq.w	800b25c <LCD_DrawBitmap+0x2c8>
 800b0c4:	ebcb 0205 	rsb	r2, fp, r5
 800b0c8:	f1b8 0f00 	cmp.w	r8, #0
 800b0cc:	f000 8139 	beq.w	800b342 <LCD_DrawBitmap+0x3ae>
 800b0d0:	9f1c      	ldr	r7, [sp, #112]	; 0x70
 800b0d2:	ebc7 0808 	rsb	r8, r7, r8
 800b0d6:	463b      	mov	r3, r7
 800b0d8:	fa44 f90a 	asr.w	r9, r4, sl
 800b0dc:	fa04 f103 	lsl.w	r1, r4, r3
 800b0e0:	f019 0fff 	tst.w	r9, #255	; 0xff
 800b0e4:	b2cf      	uxtb	r7, r1
 800b0e6:	d105      	bne.n	800b0f4 <LCD_DrawBitmap+0x160>
 800b0e8:	7c04      	ldrb	r4, [r0, #16]
 800b0ea:	f004 0302 	and.w	r3, r4, #2
 800b0ee:	b2d9      	uxtb	r1, r3
 800b0f0:	2900      	cmp	r1, #0
 800b0f2:	d143      	bne.n	800b17c <LCD_DrawBitmap+0x1e8>
 800b0f4:	f8d0 c03c 	ldr.w	ip, [r0, #60]	; 0x3c
 800b0f8:	9b1f      	ldr	r3, [sp, #124]	; 0x7c
 800b0fa:	f8dc 4000 	ldr.w	r4, [ip]
 800b0fe:	fa5f f989 	uxtb.w	r9, r9
 800b102:	b10b      	cbz	r3, 800b108 <LCD_DrawBitmap+0x174>
 800b104:	f853 9029 	ldr.w	r9, [r3, r9, lsl #2]
 800b108:	f9b0 1008 	ldrsh.w	r1, [r0, #8]
 800b10c:	f9b0 300c 	ldrsh.w	r3, [r0, #12]
 800b110:	f8cc 9000 	str.w	r9, [ip]
 800b114:	f105 39ff 	add.w	r9, r5, #4294967295
 800b118:	428a      	cmp	r2, r1
 800b11a:	bfa8      	it	ge
 800b11c:	4611      	movge	r1, r2
 800b11e:	4599      	cmp	r9, r3
 800b120:	bfb8      	it	lt
 800b122:	464b      	movlt	r3, r9
 800b124:	4299      	cmp	r1, r3
 800b126:	dc27      	bgt.n	800b178 <LCD_DrawBitmap+0x1e4>
 800b128:	f9b0 200e 	ldrsh.w	r2, [r0, #14]
 800b12c:	f9b0 900a 	ldrsh.w	r9, [r0, #10]
 800b130:	9206      	str	r2, [sp, #24]
 800b132:	9a08      	ldr	r2, [sp, #32]
 800b134:	454a      	cmp	r2, r9
 800b136:	bfb8      	it	lt
 800b138:	464a      	movlt	r2, r9
 800b13a:	9207      	str	r2, [sp, #28]
 800b13c:	f8dd 9018 	ldr.w	r9, [sp, #24]
 800b140:	9a09      	ldr	r2, [sp, #36]	; 0x24
 800b142:	4591      	cmp	r9, r2
 800b144:	bfa8      	it	ge
 800b146:	4691      	movge	r9, r2
 800b148:	9a07      	ldr	r2, [sp, #28]
 800b14a:	4591      	cmp	r9, r2
 800b14c:	db14      	blt.n	800b178 <LCD_DrawBitmap+0x1e4>
 800b14e:	f649 5c08 	movw	ip, #40200	; 0x9d08
 800b152:	7c40      	ldrb	r0, [r0, #17]
 800b154:	f6c1 7cfe 	movt	ip, #8190	; 0x1ffe
 800b158:	f85c 0020 	ldr.w	r0, [ip, r0, lsl #2]
 800b15c:	f8d0 e00c 	ldr.w	lr, [r0, #12]
 800b160:	f8cd 9000 	str.w	r9, [sp]
 800b164:	f8de 9010 	ldr.w	r9, [lr, #16]
 800b168:	47c8      	blx	r9
 800b16a:	f648 0108 	movw	r1, #34824	; 0x8808
 800b16e:	f6c1 71fe 	movt	r1, #8190	; 0x1ffe
 800b172:	6808      	ldr	r0, [r1, #0]
 800b174:	f8d0 c03c 	ldr.w	ip, [r0, #60]	; 0x3c
 800b178:	f8cc 4000 	str.w	r4, [ip]
 800b17c:	445d      	add	r5, fp
 800b17e:	3601      	adds	r6, #1
 800b180:	ebcb 0205 	rsb	r2, fp, r5
 800b184:	f1b8 0f00 	cmp.w	r8, #0
 800b188:	f040 80d6 	bne.w	800b338 <LCD_DrawBitmap+0x3a4>
 800b18c:	f8dd 8030 	ldr.w	r8, [sp, #48]	; 0x30
 800b190:	9b1c      	ldr	r3, [sp, #112]	; 0x70
 800b192:	f818 7b01 	ldrb.w	r7, [r8], #1
 800b196:	f8cd 8030 	str.w	r8, [sp, #48]	; 0x30
 800b19a:	46d0      	mov	r8, sl
 800b19c:	fa47 f90a 	asr.w	r9, r7, sl
 800b1a0:	fa07 f103 	lsl.w	r1, r7, r3
 800b1a4:	f019 0fff 	tst.w	r9, #255	; 0xff
 800b1a8:	b2cc      	uxtb	r4, r1
 800b1aa:	d106      	bne.n	800b1ba <LCD_DrawBitmap+0x226>
 800b1ac:	7c07      	ldrb	r7, [r0, #16]
 800b1ae:	f007 0302 	and.w	r3, r7, #2
 800b1b2:	b2d9      	uxtb	r1, r3
 800b1b4:	2900      	cmp	r1, #0
 800b1b6:	f47f af7f 	bne.w	800b0b8 <LCD_DrawBitmap+0x124>
 800b1ba:	f8d0 c03c 	ldr.w	ip, [r0, #60]	; 0x3c
 800b1be:	9b1f      	ldr	r3, [sp, #124]	; 0x7c
 800b1c0:	f8dc 7000 	ldr.w	r7, [ip]
 800b1c4:	2b00      	cmp	r3, #0
 800b1c6:	f000 80c5 	beq.w	800b354 <LCD_DrawBitmap+0x3c0>
 800b1ca:	fa5f f989 	uxtb.w	r9, r9
 800b1ce:	f853 9029 	ldr.w	r9, [r3, r9, lsl #2]
 800b1d2:	f9b0 1008 	ldrsh.w	r1, [r0, #8]
 800b1d6:	f9b0 300c 	ldrsh.w	r3, [r0, #12]
 800b1da:	f8cc 9000 	str.w	r9, [ip]
 800b1de:	f105 39ff 	add.w	r9, r5, #4294967295
 800b1e2:	428a      	cmp	r2, r1
 800b1e4:	bfa8      	it	ge
 800b1e6:	4611      	movge	r1, r2
 800b1e8:	4599      	cmp	r9, r3
 800b1ea:	bfb8      	it	lt
 800b1ec:	464b      	movlt	r3, r9
 800b1ee:	4299      	cmp	r1, r3
 800b1f0:	dc2c      	bgt.n	800b24c <LCD_DrawBitmap+0x2b8>
 800b1f2:	f9b0 900e 	ldrsh.w	r9, [r0, #14]
 800b1f6:	f9b0 200a 	ldrsh.w	r2, [r0, #10]
 800b1fa:	f8cd 901c 	str.w	r9, [sp, #28]
 800b1fe:	f8dd 9020 	ldr.w	r9, [sp, #32]
 800b202:	4591      	cmp	r9, r2
 800b204:	bfb8      	it	lt
 800b206:	4691      	movlt	r9, r2
 800b208:	f8cd 9018 	str.w	r9, [sp, #24]
 800b20c:	9a07      	ldr	r2, [sp, #28]
 800b20e:	f8dd 9024 	ldr.w	r9, [sp, #36]	; 0x24
 800b212:	454a      	cmp	r2, r9
 800b214:	bfa8      	it	ge
 800b216:	464a      	movge	r2, r9
 800b218:	f8dd 9018 	ldr.w	r9, [sp, #24]
 800b21c:	9207      	str	r2, [sp, #28]
 800b21e:	454a      	cmp	r2, r9
 800b220:	db14      	blt.n	800b24c <LCD_DrawBitmap+0x2b8>
 800b222:	f649 5e08 	movw	lr, #40200	; 0x9d08
 800b226:	7c40      	ldrb	r0, [r0, #17]
 800b228:	f6c1 7efe 	movt	lr, #8190	; 0x1ffe
 800b22c:	f85e 0020 	ldr.w	r0, [lr, r0, lsl #2]
 800b230:	f8d0 c00c 	ldr.w	ip, [r0, #12]
 800b234:	9200      	str	r2, [sp, #0]
 800b236:	f8dc c010 	ldr.w	ip, [ip, #16]
 800b23a:	464a      	mov	r2, r9
 800b23c:	47e0      	blx	ip
 800b23e:	f648 0108 	movw	r1, #34824	; 0x8808
 800b242:	f6c1 71fe 	movt	r1, #8190	; 0x1ffe
 800b246:	6808      	ldr	r0, [r1, #0]
 800b248:	f8d0 c03c 	ldr.w	ip, [r0, #60]	; 0x3c
 800b24c:	990d      	ldr	r1, [sp, #52]	; 0x34
 800b24e:	f8cc 7000 	str.w	r7, [ip]
 800b252:	3601      	adds	r6, #1
 800b254:	428e      	cmp	r6, r1
 800b256:	445d      	add	r5, fp
 800b258:	f47f af34 	bne.w	800b0c4 <LCD_DrawBitmap+0x130>
 800b25c:	9c0a      	ldr	r4, [sp, #40]	; 0x28
 800b25e:	9a1e      	ldr	r2, [sp, #120]	; 0x78
 800b260:	9e1d      	ldr	r6, [sp, #116]	; 0x74
 800b262:	f8dd 9038 	ldr.w	r9, [sp, #56]	; 0x38
 800b266:	9f0b      	ldr	r7, [sp, #44]	; 0x2c
 800b268:	3401      	adds	r4, #1
 800b26a:	1995      	adds	r5, r2, r6
 800b26c:	454c      	cmp	r4, r9
 800b26e:	940a      	str	r4, [sp, #40]	; 0x28
 800b270:	951e      	str	r5, [sp, #120]	; 0x78
 800b272:	9708      	str	r7, [sp, #32]
 800b274:	f47f aec5 	bne.w	800b002 <LCD_DrawBitmap+0x6e>
 800b278:	e6a6      	b.n	800afc8 <LCD_DrawBitmap+0x34>
 800b27a:	6bc5      	ldr	r5, [r0, #60]	; 0x3c
 800b27c:	991f      	ldr	r1, [sp, #124]	; 0x7c
 800b27e:	682f      	ldr	r7, [r5, #0]
 800b280:	2900      	cmp	r1, #0
 800b282:	f000 80e3 	beq.w	800b44c <LCD_DrawBitmap+0x4b8>
 800b286:	b2f6      	uxtb	r6, r6
 800b288:	f851 6026 	ldr.w	r6, [r1, r6, lsl #2]
 800b28c:	f8dd c03c 	ldr.w	ip, [sp, #60]	; 0x3c
 800b290:	f9b0 1008 	ldrsh.w	r1, [r0, #8]
 800b294:	f9b0 300c 	ldrsh.w	r3, [r0, #12]
 800b298:	602e      	str	r6, [r5, #0]
 800b29a:	f10c 36ff 	add.w	r6, ip, #4294967295
 800b29e:	428a      	cmp	r2, r1
 800b2a0:	bfa8      	it	ge
 800b2a2:	4611      	movge	r1, r2
 800b2a4:	429e      	cmp	r6, r3
 800b2a6:	bfb8      	it	lt
 800b2a8:	4633      	movlt	r3, r6
 800b2aa:	4299      	cmp	r1, r3
 800b2ac:	dc0f      	bgt.n	800b2ce <LCD_DrawBitmap+0x33a>
 800b2ae:	f8dd c020 	ldr.w	ip, [sp, #32]
 800b2b2:	f9b0 200a 	ldrsh.w	r2, [r0, #10]
 800b2b6:	f9b0 600e 	ldrsh.w	r6, [r0, #14]
 800b2ba:	4594      	cmp	ip, r2
 800b2bc:	bfa8      	it	ge
 800b2be:	4662      	movge	r2, ip
 800b2c0:	f8dd c024 	ldr.w	ip, [sp, #36]	; 0x24
 800b2c4:	4566      	cmp	r6, ip
 800b2c6:	bfa8      	it	ge
 800b2c8:	4666      	movge	r6, ip
 800b2ca:	4296      	cmp	r6, r2
 800b2cc:	da49      	bge.n	800b362 <LCD_DrawBitmap+0x3ce>
 800b2ce:	602f      	str	r7, [r5, #0]
 800b2d0:	e6ca      	b.n	800b068 <LCD_DrawBitmap+0xd4>
 800b2d2:	6bc7      	ldr	r7, [r0, #60]	; 0x3c
 800b2d4:	9b1f      	ldr	r3, [sp, #124]	; 0x7c
 800b2d6:	f8d7 9000 	ldr.w	r9, [r7]
 800b2da:	2b00      	cmp	r3, #0
 800b2dc:	f000 80b8 	beq.w	800b450 <LCD_DrawBitmap+0x4bc>
 800b2e0:	b2d2      	uxtb	r2, r2
 800b2e2:	f853 2022 	ldr.w	r2, [r3, r2, lsl #2]
 800b2e6:	f9b0 1008 	ldrsh.w	r1, [r0, #8]
 800b2ea:	f9b0 300c 	ldrsh.w	r3, [r0, #12]
 800b2ee:	603a      	str	r2, [r7, #0]
 800b2f0:	1e6a      	subs	r2, r5, #1
 800b2f2:	458c      	cmp	ip, r1
 800b2f4:	bfa8      	it	ge
 800b2f6:	4661      	movge	r1, ip
 800b2f8:	429a      	cmp	r2, r3
 800b2fa:	bfb8      	it	lt
 800b2fc:	4613      	movlt	r3, r2
 800b2fe:	4299      	cmp	r1, r3
 800b300:	dc17      	bgt.n	800b332 <LCD_DrawBitmap+0x39e>
 800b302:	f9b0 c00e 	ldrsh.w	ip, [r0, #14]
 800b306:	f9b0 200a 	ldrsh.w	r2, [r0, #10]
 800b30a:	f8cd c01c 	str.w	ip, [sp, #28]
 800b30e:	f8dd c020 	ldr.w	ip, [sp, #32]
 800b312:	4594      	cmp	ip, r2
 800b314:	bfb8      	it	lt
 800b316:	4694      	movlt	ip, r2
 800b318:	f8cd c018 	str.w	ip, [sp, #24]
 800b31c:	9a07      	ldr	r2, [sp, #28]
 800b31e:	f8dd c024 	ldr.w	ip, [sp, #36]	; 0x24
 800b322:	4562      	cmp	r2, ip
 800b324:	bfa8      	it	ge
 800b326:	4662      	movge	r2, ip
 800b328:	f8dd c018 	ldr.w	ip, [sp, #24]
 800b32c:	9207      	str	r2, [sp, #28]
 800b32e:	4562      	cmp	r2, ip
 800b330:	da2a      	bge.n	800b388 <LCD_DrawBitmap+0x3f4>
 800b332:	f8c7 9000 	str.w	r9, [r7]
 800b336:	e6bf      	b.n	800b0b8 <LCD_DrawBitmap+0x124>
 800b338:	9c1c      	ldr	r4, [sp, #112]	; 0x70
 800b33a:	ebc4 0808 	rsb	r8, r4, r8
 800b33e:	4623      	mov	r3, r4
 800b340:	e72c      	b.n	800b19c <LCD_DrawBitmap+0x208>
 800b342:	f8dd 8030 	ldr.w	r8, [sp, #48]	; 0x30
 800b346:	9b1c      	ldr	r3, [sp, #112]	; 0x70
 800b348:	f818 4b01 	ldrb.w	r4, [r8], #1
 800b34c:	f8cd 8030 	str.w	r8, [sp, #48]	; 0x30
 800b350:	46d0      	mov	r8, sl
 800b352:	e6c1      	b.n	800b0d8 <LCD_DrawBitmap+0x144>
 800b354:	fa5f f989 	uxtb.w	r9, r9
 800b358:	e73b      	b.n	800b1d2 <LCD_DrawBitmap+0x23e>
 800b35a:	9f1c      	ldr	r7, [sp, #112]	; 0x70
 800b35c:	ebc7 0808 	rsb	r8, r7, r8
 800b360:	e69a      	b.n	800b098 <LCD_DrawBitmap+0x104>
 800b362:	f649 5e08 	movw	lr, #40200	; 0x9d08
 800b366:	7c40      	ldrb	r0, [r0, #17]
 800b368:	f6c1 7efe 	movt	lr, #8190	; 0x1ffe
 800b36c:	f85e 0020 	ldr.w	r0, [lr, r0, lsl #2]
 800b370:	68c5      	ldr	r5, [r0, #12]
 800b372:	9600      	str	r6, [sp, #0]
 800b374:	692e      	ldr	r6, [r5, #16]
 800b376:	47b0      	blx	r6
 800b378:	f648 0208 	movw	r2, #34824	; 0x8808
 800b37c:	f6c1 72fe 	movt	r2, #8190	; 0x1ffe
 800b380:	6810      	ldr	r0, [r2, #0]
 800b382:	6bc5      	ldr	r5, [r0, #60]	; 0x3c
 800b384:	602f      	str	r7, [r5, #0]
 800b386:	e66f      	b.n	800b068 <LCD_DrawBitmap+0xd4>
 800b388:	f649 5e08 	movw	lr, #40200	; 0x9d08
 800b38c:	7c40      	ldrb	r0, [r0, #17]
 800b38e:	f6c1 7efe 	movt	lr, #8190	; 0x1ffe
 800b392:	f85e 0020 	ldr.w	r0, [lr, r0, lsl #2]
 800b396:	68c7      	ldr	r7, [r0, #12]
 800b398:	9200      	str	r2, [sp, #0]
 800b39a:	693f      	ldr	r7, [r7, #16]
 800b39c:	4662      	mov	r2, ip
 800b39e:	47b8      	blx	r7
 800b3a0:	f648 0308 	movw	r3, #34824	; 0x8808
 800b3a4:	f6c1 73fe 	movt	r3, #8190	; 0x1ffe
 800b3a8:	6818      	ldr	r0, [r3, #0]
 800b3aa:	6bc7      	ldr	r7, [r0, #60]	; 0x3c
 800b3ac:	f8c7 9000 	str.w	r9, [r7]
 800b3b0:	e682      	b.n	800b0b8 <LCD_DrawBitmap+0x124>
 800b3b2:	4b6b      	ldr	r3, [pc, #428]	; (800b560 <LCD_DrawBitmap+0x5cc>)
 800b3b4:	681b      	ldr	r3, [r3, #0]
 800b3b6:	f9b3 200a 	ldrsh.w	r2, [r3, #10]
 800b3ba:	1a50      	subs	r0, r2, r1
 800b3bc:	2800      	cmp	r0, #0
 800b3be:	f340 80cb 	ble.w	800b558 <LCD_DrawBitmap+0x5c4>
 800b3c2:	f8dd 9038 	ldr.w	r9, [sp, #56]	; 0x38
 800b3c6:	ebc0 0109 	rsb	r1, r0, r9
 800b3ca:	2900      	cmp	r1, #0
 800b3cc:	f77f adfc 	ble.w	800afc8 <LCD_DrawBitmap+0x34>
 800b3d0:	9f1e      	ldr	r7, [sp, #120]	; 0x78
 800b3d2:	9d1d      	ldr	r5, [sp, #116]	; 0x74
 800b3d4:	f8dd 9038 	ldr.w	r9, [sp, #56]	; 0x38
 800b3d8:	fb00 7705 	mla	r7, r0, r5, r7
 800b3dc:	971e      	str	r7, [sp, #120]	; 0x78
 800b3de:	eb06 0509 	add.w	r5, r6, r9
 800b3e2:	f9b3 000e 	ldrsh.w	r0, [r3, #14]
 800b3e6:	3d01      	subs	r5, #1
 800b3e8:	1a28      	subs	r0, r5, r0
 800b3ea:	2800      	cmp	r0, #0
 800b3ec:	dd03      	ble.n	800b3f6 <LCD_DrawBitmap+0x462>
 800b3ee:	1a09      	subs	r1, r1, r0
 800b3f0:	2900      	cmp	r1, #0
 800b3f2:	f77f ade9 	ble.w	800afc8 <LCD_DrawBitmap+0x34>
 800b3f6:	f8dd c034 	ldr.w	ip, [sp, #52]	; 0x34
 800b3fa:	f9b3 000c 	ldrsh.w	r0, [r3, #12]
 800b3fe:	eb04 070c 	add.w	r7, r4, ip
 800b402:	1e7d      	subs	r5, r7, #1
 800b404:	1a2f      	subs	r7, r5, r0
 800b406:	2f00      	cmp	r7, #0
 800b408:	f9b3 0008 	ldrsh.w	r0, [r3, #8]
 800b40c:	bfc4      	itt	gt
 800b40e:	ebc7 0c0c 	rsbgt	ip, r7, ip
 800b412:	f8cd c034 	strgt.w	ip, [sp, #52]	; 0x34
 800b416:	4284      	cmp	r4, r0
 800b418:	db1c      	blt.n	800b454 <LCD_DrawBitmap+0x4c0>
 800b41a:	2500      	movs	r5, #0
 800b41c:	9f0d      	ldr	r7, [sp, #52]	; 0x34
 800b41e:	2f00      	cmp	r7, #0
 800b420:	f77f add2 	ble.w	800afc8 <LCD_DrawBitmap+0x34>
 800b424:	7c5f      	ldrb	r7, [r3, #17]
 800b426:	4b4f      	ldr	r3, [pc, #316]	; (800b564 <LCD_DrawBitmap+0x5d0>)
 800b428:	9e1d      	ldr	r6, [sp, #116]	; 0x74
 800b42a:	f853 0027 	ldr.w	r0, [r3, r7, lsl #2]
 800b42e:	9f1f      	ldr	r7, [sp, #124]	; 0x7c
 800b430:	68c3      	ldr	r3, [r0, #12]
 800b432:	9100      	str	r1, [sp, #0]
 800b434:	9602      	str	r6, [sp, #8]
 800b436:	991c      	ldr	r1, [sp, #112]	; 0x70
 800b438:	9e1e      	ldr	r6, [sp, #120]	; 0x78
 800b43a:	9101      	str	r1, [sp, #4]
 800b43c:	9603      	str	r6, [sp, #12]
 800b43e:	9504      	str	r5, [sp, #16]
 800b440:	9705      	str	r7, [sp, #20]
 800b442:	685d      	ldr	r5, [r3, #4]
 800b444:	9b0d      	ldr	r3, [sp, #52]	; 0x34
 800b446:	4621      	mov	r1, r4
 800b448:	47a8      	blx	r5
 800b44a:	e5bd      	b.n	800afc8 <LCD_DrawBitmap+0x34>
 800b44c:	b2f6      	uxtb	r6, r6
 800b44e:	e71d      	b.n	800b28c <LCD_DrawBitmap+0x2f8>
 800b450:	b2d2      	uxtb	r2, r2
 800b452:	e748      	b.n	800b2e6 <LCD_DrawBitmap+0x352>
 800b454:	f8dd 9034 	ldr.w	r9, [sp, #52]	; 0x34
 800b458:	9e1c      	ldr	r6, [sp, #112]	; 0x70
 800b45a:	1b05      	subs	r5, r0, r4
 800b45c:	ebc5 0909 	rsb	r9, r5, r9
 800b460:	3e01      	subs	r6, #1
 800b462:	f8cd 9034 	str.w	r9, [sp, #52]	; 0x34
 800b466:	2e1f      	cmp	r6, #31
 800b468:	d8d8      	bhi.n	800b41c <LCD_DrawBitmap+0x488>
 800b46a:	f20f 0c08 	addw	ip, pc, #8
 800b46e:	f85c f026 	ldr.w	pc, [ip, r6, lsl #2]
 800b472:	bf00      	nop
 800b474:	0800b545 	.word	0x0800b545
 800b478:	0800b531 	.word	0x0800b531
 800b47c:	0800b41d 	.word	0x0800b41d
 800b480:	0800b51d 	.word	0x0800b51d
 800b484:	0800b41d 	.word	0x0800b41d
 800b488:	0800b41d 	.word	0x0800b41d
 800b48c:	0800b41d 	.word	0x0800b41d
 800b490:	0800b511 	.word	0x0800b511
 800b494:	0800b41d 	.word	0x0800b41d
 800b498:	0800b41d 	.word	0x0800b41d
 800b49c:	0800b41d 	.word	0x0800b41d
 800b4a0:	0800b41d 	.word	0x0800b41d
 800b4a4:	0800b41d 	.word	0x0800b41d
 800b4a8:	0800b41d 	.word	0x0800b41d
 800b4ac:	0800b41d 	.word	0x0800b41d
 800b4b0:	0800b503 	.word	0x0800b503
 800b4b4:	0800b41d 	.word	0x0800b41d
 800b4b8:	0800b41d 	.word	0x0800b41d
 800b4bc:	0800b41d 	.word	0x0800b41d
 800b4c0:	0800b41d 	.word	0x0800b41d
 800b4c4:	0800b41d 	.word	0x0800b41d
 800b4c8:	0800b41d 	.word	0x0800b41d
 800b4cc:	0800b41d 	.word	0x0800b41d
 800b4d0:	0800b4f5 	.word	0x0800b4f5
 800b4d4:	0800b41d 	.word	0x0800b41d
 800b4d8:	0800b41d 	.word	0x0800b41d
 800b4dc:	0800b41d 	.word	0x0800b41d
 800b4e0:	0800b41d 	.word	0x0800b41d
 800b4e4:	0800b41d 	.word	0x0800b41d
 800b4e8:	0800b41d 	.word	0x0800b41d
 800b4ec:	0800b41d 	.word	0x0800b41d
 800b4f0:	0800b4f5 	.word	0x0800b4f5
 800b4f4:	9c1e      	ldr	r4, [sp, #120]	; 0x78
 800b4f6:	eb04 0685 	add.w	r6, r4, r5, lsl #2
 800b4fa:	961e      	str	r6, [sp, #120]	; 0x78
 800b4fc:	4604      	mov	r4, r0
 800b4fe:	2500      	movs	r5, #0
 800b500:	e78c      	b.n	800b41c <LCD_DrawBitmap+0x488>
 800b502:	9f1e      	ldr	r7, [sp, #120]	; 0x78
 800b504:	eb07 0545 	add.w	r5, r7, r5, lsl #1
 800b508:	951e      	str	r5, [sp, #120]	; 0x78
 800b50a:	4604      	mov	r4, r0
 800b50c:	2500      	movs	r5, #0
 800b50e:	e785      	b.n	800b41c <LCD_DrawBitmap+0x488>
 800b510:	9c1e      	ldr	r4, [sp, #120]	; 0x78
 800b512:	1967      	adds	r7, r4, r5
 800b514:	971e      	str	r7, [sp, #120]	; 0x78
 800b516:	4604      	mov	r4, r0
 800b518:	2500      	movs	r5, #0
 800b51a:	e77f      	b.n	800b41c <LCD_DrawBitmap+0x488>
 800b51c:	9e1e      	ldr	r6, [sp, #120]	; 0x78
 800b51e:	f025 0001 	bic.w	r0, r5, #1
 800b522:	eb06 0665 	add.w	r6, r6, r5, asr #1
 800b526:	961e      	str	r6, [sp, #120]	; 0x78
 800b528:	1824      	adds	r4, r4, r0
 800b52a:	f005 0501 	and.w	r5, r5, #1
 800b52e:	e775      	b.n	800b41c <LCD_DrawBitmap+0x488>
 800b530:	9f1e      	ldr	r7, [sp, #120]	; 0x78
 800b532:	f025 0003 	bic.w	r0, r5, #3
 800b536:	eb07 07a5 	add.w	r7, r7, r5, asr #2
 800b53a:	971e      	str	r7, [sp, #120]	; 0x78
 800b53c:	1824      	adds	r4, r4, r0
 800b53e:	f005 0503 	and.w	r5, r5, #3
 800b542:	e76b      	b.n	800b41c <LCD_DrawBitmap+0x488>
 800b544:	9e1e      	ldr	r6, [sp, #120]	; 0x78
 800b546:	f025 0007 	bic.w	r0, r5, #7
 800b54a:	eb06 06e5 	add.w	r6, r6, r5, asr #3
 800b54e:	961e      	str	r6, [sp, #120]	; 0x78
 800b550:	1824      	adds	r4, r4, r0
 800b552:	f005 0507 	and.w	r5, r5, #7
 800b556:	e761      	b.n	800b41c <LCD_DrawBitmap+0x488>
 800b558:	990e      	ldr	r1, [sp, #56]	; 0x38
 800b55a:	4632      	mov	r2, r6
 800b55c:	4689      	mov	r9, r1
 800b55e:	e73e      	b.n	800b3de <LCD_DrawBitmap+0x44a>
 800b560:	1ffe8808 	.word	0x1ffe8808
 800b564:	1ffe9d08 	.word	0x1ffe9d08

0800b568 <LCD_SetClipRectMax>:
 800b568:	b508      	push	{r3, lr}
 800b56a:	f648 0208 	movw	r2, #34824	; 0x8808
 800b56e:	f6c1 72fe 	movt	r2, #8190	; 0x1ffe
 800b572:	f649 5308 	movw	r3, #40200	; 0x9d08
 800b576:	6811      	ldr	r1, [r2, #0]
 800b578:	f6c1 73fe 	movt	r3, #8190	; 0x1ffe
 800b57c:	7c48      	ldrb	r0, [r1, #17]
 800b57e:	f853 0020 	ldr.w	r0, [r3, r0, lsl #2]
 800b582:	68c2      	ldr	r2, [r0, #12]
 800b584:	3108      	adds	r1, #8
 800b586:	6b13      	ldr	r3, [r2, #48]	; 0x30
 800b588:	4798      	blx	r3
 800b58a:	bd08      	pop	{r3, pc}

0800b58c <LCD_Init>:
 800b58c:	b5f0      	push	{r4, r5, r6, r7, lr}
 800b58e:	4d32      	ldr	r5, [pc, #200]	; (800b658 <LCD_Init+0xcc>)
 800b590:	4e32      	ldr	r6, [pc, #200]	; (800b65c <LCD_Init+0xd0>)
 800b592:	6829      	ldr	r1, [r5, #0]
 800b594:	7c4b      	ldrb	r3, [r1, #17]
 800b596:	f856 0023 	ldr.w	r0, [r6, r3, lsl #2]
 800b59a:	68c2      	ldr	r2, [r0, #12]
 800b59c:	b085      	sub	sp, #20
 800b59e:	6b14      	ldr	r4, [r2, #48]	; 0x30
 800b5a0:	3108      	adds	r1, #8
 800b5a2:	47a0      	blx	r4
 800b5a4:	f7ff f8cc 	bl	800a740 <LCD_InitColors>
 800b5a8:	4604      	mov	r4, r0
 800b5aa:	b978      	cbnz	r0, 800b5cc <LCD_Init+0x40>
 800b5ac:	f7fb fe2e 	bl	800720c <GUI_DEVICE__GetpDriver>
 800b5b0:	9003      	str	r0, [sp, #12]
 800b5b2:	b170      	cbz	r0, 800b5d2 <LCD_Init+0x46>
 800b5b4:	68c1      	ldr	r1, [r0, #12]
 800b5b6:	a803      	add	r0, sp, #12
 800b5b8:	6a4b      	ldr	r3, [r1, #36]	; 0x24
 800b5ba:	210c      	movs	r1, #12
 800b5bc:	4798      	blx	r3
 800b5be:	4602      	mov	r2, r0
 800b5c0:	2800      	cmp	r0, #0
 800b5c2:	d047      	beq.n	800b654 <LCD_Init+0xc8>
 800b5c4:	9803      	ldr	r0, [sp, #12]
 800b5c6:	4790      	blx	r2
 800b5c8:	b118      	cbz	r0, 800b5d2 <LCD_Init+0x46>
 800b5ca:	4604      	mov	r4, r0
 800b5cc:	4620      	mov	r0, r4
 800b5ce:	b005      	add	sp, #20
 800b5d0:	bdf0      	pop	{r4, r5, r6, r7, pc}
 800b5d2:	f7ff f91d 	bl	800a810 <LCD_InitLUT>
 800b5d6:	2000      	movs	r0, #0
 800b5d8:	f7fb fe18 	bl	800720c <GUI_DEVICE__GetpDriver>
 800b5dc:	9003      	str	r0, [sp, #12]
 800b5de:	2800      	cmp	r0, #0
 800b5e0:	d0f4      	beq.n	800b5cc <LCD_Init+0x40>
 800b5e2:	4f1f      	ldr	r7, [pc, #124]	; (800b660 <LCD_Init+0xd4>)
 800b5e4:	2000      	movs	r0, #0
 800b5e6:	f000 f9cb 	bl	800b980 <GUI_SelectLayer>
 800b5ea:	6839      	ldr	r1, [r7, #0]
 800b5ec:	2004      	movs	r0, #4
 800b5ee:	688b      	ldr	r3, [r1, #8]
 800b5f0:	4798      	blx	r3
 800b5f2:	6828      	ldr	r0, [r5, #0]
 800b5f4:	f9b0 2008 	ldrsh.w	r2, [r0, #8]
 800b5f8:	f9b0 300c 	ldrsh.w	r3, [r0, #12]
 800b5fc:	f643 75ff 	movw	r5, #16383	; 0x3fff
 800b600:	ea22 71e2 	bic.w	r1, r2, r2, asr #31
 800b604:	42ab      	cmp	r3, r5
 800b606:	bfa8      	it	ge
 800b608:	462b      	movge	r3, r5
 800b60a:	4299      	cmp	r1, r3
 800b60c:	dc11      	bgt.n	800b632 <LCD_Init+0xa6>
 800b60e:	f9b0 200a 	ldrsh.w	r2, [r0, #10]
 800b612:	f9b0 e00e 	ldrsh.w	lr, [r0, #14]
 800b616:	ea22 72e2 	bic.w	r2, r2, r2, asr #31
 800b61a:	45ae      	cmp	lr, r5
 800b61c:	bfb8      	it	lt
 800b61e:	4675      	movlt	r5, lr
 800b620:	42aa      	cmp	r2, r5
 800b622:	dc06      	bgt.n	800b632 <LCD_Init+0xa6>
 800b624:	7c40      	ldrb	r0, [r0, #17]
 800b626:	f856 0020 	ldr.w	r0, [r6, r0, lsl #2]
 800b62a:	68c6      	ldr	r6, [r0, #12]
 800b62c:	9500      	str	r5, [sp, #0]
 800b62e:	6935      	ldr	r5, [r6, #16]
 800b630:	47a8      	blx	r5
 800b632:	6839      	ldr	r1, [r7, #0]
 800b634:	2000      	movs	r0, #0
 800b636:	688b      	ldr	r3, [r1, #8]
 800b638:	4798      	blx	r3
 800b63a:	a804      	add	r0, sp, #16
 800b63c:	210e      	movs	r1, #14
 800b63e:	f850 2d04 	ldr.w	r2, [r0, #-4]!
 800b642:	68d3      	ldr	r3, [r2, #12]
 800b644:	6a5a      	ldr	r2, [r3, #36]	; 0x24
 800b646:	4790      	blx	r2
 800b648:	4601      	mov	r1, r0
 800b64a:	2800      	cmp	r0, #0
 800b64c:	d0be      	beq.n	800b5cc <LCD_Init+0x40>
 800b64e:	9803      	ldr	r0, [sp, #12]
 800b650:	4788      	blx	r1
 800b652:	e7bb      	b.n	800b5cc <LCD_Init+0x40>
 800b654:	2401      	movs	r4, #1
 800b656:	e7b9      	b.n	800b5cc <LCD_Init+0x40>
 800b658:	1ffe8808 	.word	0x1ffe8808
 800b65c:	1ffe9d08 	.word	0x1ffe9d08
 800b660:	1ffe8814 	.word	0x1ffe8814

0800b664 <LCD_Color2Index>:
 800b664:	b508      	push	{r3, lr}
 800b666:	f648 0208 	movw	r2, #34824	; 0x8808
 800b66a:	f6c1 72fe 	movt	r2, #8190	; 0x1ffe
 800b66e:	f649 5308 	movw	r3, #40200	; 0x9d08
 800b672:	6811      	ldr	r1, [r2, #0]
 800b674:	f6c1 73fe 	movt	r3, #8190	; 0x1ffe
 800b678:	7c4a      	ldrb	r2, [r1, #17]
 800b67a:	f853 3022 	ldr.w	r3, [r3, r2, lsl #2]
 800b67e:	6919      	ldr	r1, [r3, #16]
 800b680:	680a      	ldr	r2, [r1, #0]
 800b682:	4790      	blx	r2
 800b684:	bd08      	pop	{r3, pc}
 800b686:	bf00      	nop

0800b688 <LCD_Index2Color>:
 800b688:	b508      	push	{r3, lr}
 800b68a:	f648 0208 	movw	r2, #34824	; 0x8808
 800b68e:	f6c1 72fe 	movt	r2, #8190	; 0x1ffe
 800b692:	f649 5308 	movw	r3, #40200	; 0x9d08
 800b696:	6811      	ldr	r1, [r2, #0]
 800b698:	f6c1 73fe 	movt	r3, #8190	; 0x1ffe
 800b69c:	7c4a      	ldrb	r2, [r1, #17]
 800b69e:	f853 3022 	ldr.w	r3, [r3, r2, lsl #2]
 800b6a2:	6919      	ldr	r1, [r3, #16]
 800b6a4:	684a      	ldr	r2, [r1, #4]
 800b6a6:	4790      	blx	r2
 800b6a8:	bd08      	pop	{r3, pc}
 800b6aa:	bf00      	nop

0800b6ac <LCD_SetColorIndex>:
 800b6ac:	4b06      	ldr	r3, [pc, #24]	; (800b6c8 <LCD_SetColorIndex+0x1c>)
 800b6ae:	6819      	ldr	r1, [r3, #0]
 800b6b0:	7c0a      	ldrb	r2, [r1, #16]
 800b6b2:	f002 0304 	and.w	r3, r2, #4
 800b6b6:	b2da      	uxtb	r2, r3
 800b6b8:	b912      	cbnz	r2, 800b6c0 <LCD_SetColorIndex+0x14>
 800b6ba:	6bc9      	ldr	r1, [r1, #60]	; 0x3c
 800b6bc:	6008      	str	r0, [r1, #0]
 800b6be:	4770      	bx	lr
 800b6c0:	6b8b      	ldr	r3, [r1, #56]	; 0x38
 800b6c2:	6018      	str	r0, [r3, #0]
 800b6c4:	4770      	bx	lr
 800b6c6:	bf00      	nop
 800b6c8:	1ffe8808 	.word	0x1ffe8808

0800b6cc <LCD_SetBkColorIndex>:
 800b6cc:	4b06      	ldr	r3, [pc, #24]	; (800b6e8 <LCD_SetBkColorIndex+0x1c>)
 800b6ce:	6819      	ldr	r1, [r3, #0]
 800b6d0:	7c0a      	ldrb	r2, [r1, #16]
 800b6d2:	f002 0304 	and.w	r3, r2, #4
 800b6d6:	b2da      	uxtb	r2, r3
 800b6d8:	b912      	cbnz	r2, 800b6e0 <LCD_SetBkColorIndex+0x14>
 800b6da:	6b89      	ldr	r1, [r1, #56]	; 0x38
 800b6dc:	6008      	str	r0, [r1, #0]
 800b6de:	4770      	bx	lr
 800b6e0:	6bcb      	ldr	r3, [r1, #60]	; 0x3c
 800b6e2:	6018      	str	r0, [r3, #0]
 800b6e4:	4770      	bx	lr
 800b6e6:	bf00      	nop
 800b6e8:	1ffe8808 	.word	0x1ffe8808

0800b6ec <LCD_SetBkColor>:
 800b6ec:	b508      	push	{r3, lr}
 800b6ee:	f648 0314 	movw	r3, #34836	; 0x8814
 800b6f2:	f6c1 73fe 	movt	r3, #8190	; 0x1ffe
 800b6f6:	6819      	ldr	r1, [r3, #0]
 800b6f8:	684a      	ldr	r2, [r1, #4]
 800b6fa:	4790      	blx	r2
 800b6fc:	bd08      	pop	{r3, pc}
 800b6fe:	bf00      	nop

0800b700 <LCD_SetColor>:
 800b700:	b508      	push	{r3, lr}
 800b702:	f648 0314 	movw	r3, #34836	; 0x8814
 800b706:	f6c1 73fe 	movt	r3, #8190	; 0x1ffe
 800b70a:	6819      	ldr	r1, [r3, #0]
 800b70c:	680a      	ldr	r2, [r1, #0]
 800b70e:	4790      	blx	r2
 800b710:	bd08      	pop	{r3, pc}
 800b712:	bf00      	nop

0800b714 <GUI__memset16>:
 800b714:	b4f0      	push	{r4, r5, r6, r7}
 800b716:	0787      	lsls	r7, r0, #30
 800b718:	bf44      	itt	mi
 800b71a:	f820 1b02 	strhmi.w	r1, [r0], #2
 800b71e:	3a01      	submi	r2, #1
 800b720:	0857      	lsrs	r7, r2, #1
 800b722:	d019      	beq.n	800b758 <GUI__memset16+0x44>
 800b724:	2f03      	cmp	r7, #3
 800b726:	eb01 4301 	add.w	r3, r1, r1, lsl #16
 800b72a:	dc1a      	bgt.n	800b762 <GUI__memset16+0x4e>
 800b72c:	1e7e      	subs	r6, r7, #1
 800b72e:	4604      	mov	r4, r0
 800b730:	4635      	mov	r5, r6
 800b732:	f844 3b04 	str.w	r3, [r4], #4
 800b736:	f006 0601 	and.w	r6, r6, #1
 800b73a:	b15d      	cbz	r5, 800b754 <GUI__memset16+0x40>
 800b73c:	b11e      	cbz	r6, 800b746 <GUI__memset16+0x32>
 800b73e:	3d01      	subs	r5, #1
 800b740:	f844 3b04 	str.w	r3, [r4], #4
 800b744:	d006      	beq.n	800b754 <GUI__memset16+0x40>
 800b746:	4626      	mov	r6, r4
 800b748:	f846 3b04 	str.w	r3, [r6], #4
 800b74c:	6063      	str	r3, [r4, #4]
 800b74e:	1d34      	adds	r4, r6, #4
 800b750:	3d02      	subs	r5, #2
 800b752:	d1f8      	bne.n	800b746 <GUI__memset16+0x32>
 800b754:	eb00 0087 	add.w	r0, r0, r7, lsl #2
 800b758:	07d3      	lsls	r3, r2, #31
 800b75a:	bf48      	it	mi
 800b75c:	8001      	strhmi	r1, [r0, #0]
 800b75e:	bcf0      	pop	{r4, r5, r6, r7}
 800b760:	4770      	bx	lr
 800b762:	1f3c      	subs	r4, r7, #4
 800b764:	4626      	mov	r6, r4
 800b766:	2e03      	cmp	r6, #3
 800b768:	f3c4 0580 	ubfx	r5, r4, #2, #1
 800b76c:	6003      	str	r3, [r0, #0]
 800b76e:	6043      	str	r3, [r0, #4]
 800b770:	6083      	str	r3, [r0, #8]
 800b772:	60c3      	str	r3, [r0, #12]
 800b774:	f100 0410 	add.w	r4, r0, #16
 800b778:	dd14      	ble.n	800b7a4 <GUI__memset16+0x90>
 800b77a:	b13d      	cbz	r5, 800b78c <GUI__memset16+0x78>
 800b77c:	3e04      	subs	r6, #4
 800b77e:	6023      	str	r3, [r4, #0]
 800b780:	6063      	str	r3, [r4, #4]
 800b782:	60a3      	str	r3, [r4, #8]
 800b784:	60e3      	str	r3, [r4, #12]
 800b786:	3410      	adds	r4, #16
 800b788:	2e03      	cmp	r6, #3
 800b78a:	dd0b      	ble.n	800b7a4 <GUI__memset16+0x90>
 800b78c:	3e08      	subs	r6, #8
 800b78e:	6023      	str	r3, [r4, #0]
 800b790:	6063      	str	r3, [r4, #4]
 800b792:	60a3      	str	r3, [r4, #8]
 800b794:	60e3      	str	r3, [r4, #12]
 800b796:	6123      	str	r3, [r4, #16]
 800b798:	6163      	str	r3, [r4, #20]
 800b79a:	61a3      	str	r3, [r4, #24]
 800b79c:	61e3      	str	r3, [r4, #28]
 800b79e:	3420      	adds	r4, #32
 800b7a0:	2e03      	cmp	r6, #3
 800b7a2:	dcf3      	bgt.n	800b78c <GUI__memset16+0x78>
 800b7a4:	3f04      	subs	r7, #4
 800b7a6:	08bc      	lsrs	r4, r7, #2
 800b7a8:	1c65      	adds	r5, r4, #1
 800b7aa:	ebb7 0784 	subs.w	r7, r7, r4, lsl #2
 800b7ae:	eb00 1005 	add.w	r0, r0, r5, lsl #4
 800b7b2:	d1bb      	bne.n	800b72c <GUI__memset16+0x18>
 800b7b4:	e7d0      	b.n	800b758 <GUI__memset16+0x44>
 800b7b6:	bf00      	nop

0800b7b8 <GUI__ManageCacheEx>:
 800b7b8:	b5f0      	push	{r4, r5, r6, r7, lr}
 800b7ba:	1e03      	subs	r3, r0, #0
 800b7bc:	b083      	sub	sp, #12
 800b7be:	460c      	mov	r4, r1
 800b7c0:	dd02      	ble.n	800b7c8 <GUI__ManageCacheEx+0x10>
 800b7c2:	2001      	movs	r0, #1
 800b7c4:	b003      	add	sp, #12
 800b7c6:	bdf0      	pop	{r4, r5, r6, r7, pc}
 800b7c8:	2901      	cmp	r1, #1
 800b7ca:	d026      	beq.n	800b81a <GUI__ManageCacheEx+0x62>
 800b7cc:	2902      	cmp	r1, #2
 800b7ce:	d00e      	beq.n	800b7ee <GUI__ManageCacheEx+0x36>
 800b7d0:	2900      	cmp	r1, #0
 800b7d2:	d1f6      	bne.n	800b7c2 <GUI__ManageCacheEx+0xa>
 800b7d4:	4c2c      	ldr	r4, [pc, #176]	; (800b888 <GUI__ManageCacheEx+0xd0>)
 800b7d6:	009d      	lsls	r5, r3, #2
 800b7d8:	1966      	adds	r6, r4, r5
 800b7da:	6872      	ldr	r2, [r6, #4]
 800b7dc:	2a01      	cmp	r2, #1
 800b7de:	d03a      	beq.n	800b856 <GUI__ManageCacheEx+0x9e>
 800b7e0:	2001      	movs	r0, #1
 800b7e2:	1964      	adds	r4, r4, r5
 800b7e4:	2a00      	cmp	r2, #0
 800b7e6:	bf18      	it	ne
 800b7e8:	3a01      	subne	r2, #1
 800b7ea:	6062      	str	r2, [r4, #4]
 800b7ec:	e7ea      	b.n	800b7c4 <GUI__ManageCacheEx+0xc>
 800b7ee:	f7fb fd0d 	bl	800720c <GUI_DEVICE__GetpDriver>
 800b7f2:	9001      	str	r0, [sp, #4]
 800b7f4:	2800      	cmp	r0, #0
 800b7f6:	d0e4      	beq.n	800b7c2 <GUI__ManageCacheEx+0xa>
 800b7f8:	68c4      	ldr	r4, [r0, #12]
 800b7fa:	210d      	movs	r1, #13
 800b7fc:	6a62      	ldr	r2, [r4, #36]	; 0x24
 800b7fe:	a801      	add	r0, sp, #4
 800b800:	4790      	blx	r2
 800b802:	4604      	mov	r4, r0
 800b804:	2800      	cmp	r0, #0
 800b806:	d0dc      	beq.n	800b7c2 <GUI__ManageCacheEx+0xa>
 800b808:	491f      	ldr	r1, [pc, #124]	; (800b888 <GUI__ManageCacheEx+0xd0>)
 800b80a:	6808      	ldr	r0, [r1, #0]
 800b80c:	b100      	cbz	r0, 800b810 <GUI__ManageCacheEx+0x58>
 800b80e:	4780      	blx	r0
 800b810:	9801      	ldr	r0, [sp, #4]
 800b812:	2102      	movs	r1, #2
 800b814:	47a0      	blx	r4
 800b816:	2000      	movs	r0, #0
 800b818:	e7d4      	b.n	800b7c4 <GUI__ManageCacheEx+0xc>
 800b81a:	4d1b      	ldr	r5, [pc, #108]	; (800b888 <GUI__ManageCacheEx+0xd0>)
 800b81c:	eb05 0583 	add.w	r5, r5, r3, lsl #2
 800b820:	686e      	ldr	r6, [r5, #4]
 800b822:	b11e      	cbz	r6, 800b82c <GUI__ManageCacheEx+0x74>
 800b824:	3601      	adds	r6, #1
 800b826:	606e      	str	r6, [r5, #4]
 800b828:	4608      	mov	r0, r1
 800b82a:	e7cb      	b.n	800b7c4 <GUI__ManageCacheEx+0xc>
 800b82c:	f7fb fcee 	bl	800720c <GUI_DEVICE__GetpDriver>
 800b830:	9001      	str	r0, [sp, #4]
 800b832:	2800      	cmp	r0, #0
 800b834:	d0c5      	beq.n	800b7c2 <GUI__ManageCacheEx+0xa>
 800b836:	68c3      	ldr	r3, [r0, #12]
 800b838:	210d      	movs	r1, #13
 800b83a:	6a5a      	ldr	r2, [r3, #36]	; 0x24
 800b83c:	a801      	add	r0, sp, #4
 800b83e:	4790      	blx	r2
 800b840:	4603      	mov	r3, r0
 800b842:	2800      	cmp	r0, #0
 800b844:	d0bd      	beq.n	800b7c2 <GUI__ManageCacheEx+0xa>
 800b846:	4621      	mov	r1, r4
 800b848:	9801      	ldr	r0, [sp, #4]
 800b84a:	4798      	blx	r3
 800b84c:	6869      	ldr	r1, [r5, #4]
 800b84e:	1c48      	adds	r0, r1, #1
 800b850:	6068      	str	r0, [r5, #4]
 800b852:	4630      	mov	r0, r6
 800b854:	e7b6      	b.n	800b7c4 <GUI__ManageCacheEx+0xc>
 800b856:	f7fb fcd9 	bl	800720c <GUI_DEVICE__GetpDriver>
 800b85a:	9001      	str	r0, [sp, #4]
 800b85c:	b180      	cbz	r0, 800b880 <GUI__ManageCacheEx+0xc8>
 800b85e:	68c1      	ldr	r1, [r0, #12]
 800b860:	a801      	add	r0, sp, #4
 800b862:	6a4f      	ldr	r7, [r1, #36]	; 0x24
 800b864:	210d      	movs	r1, #13
 800b866:	47b8      	blx	r7
 800b868:	4607      	mov	r7, r0
 800b86a:	b148      	cbz	r0, 800b880 <GUI__ManageCacheEx+0xc8>
 800b86c:	6820      	ldr	r0, [r4, #0]
 800b86e:	b100      	cbz	r0, 800b872 <GUI__ManageCacheEx+0xba>
 800b870:	4780      	blx	r0
 800b872:	9801      	ldr	r0, [sp, #4]
 800b874:	2100      	movs	r1, #0
 800b876:	47b8      	blx	r7
 800b878:	1963      	adds	r3, r4, r5
 800b87a:	2000      	movs	r0, #0
 800b87c:	685a      	ldr	r2, [r3, #4]
 800b87e:	e7b0      	b.n	800b7e2 <GUI__ManageCacheEx+0x2a>
 800b880:	6872      	ldr	r2, [r6, #4]
 800b882:	2001      	movs	r0, #1
 800b884:	e7ad      	b.n	800b7e2 <GUI__ManageCacheEx+0x2a>
 800b886:	bf00      	nop
 800b888:	1ffe8a48 	.word	0x1ffe8a48

0800b88c <GUI__ManageCache>:
 800b88c:	f648 0308 	movw	r3, #34824	; 0x8808
 800b890:	f6c1 73fe 	movt	r3, #8190	; 0x1ffe
 800b894:	4601      	mov	r1, r0
 800b896:	6818      	ldr	r0, [r3, #0]
 800b898:	7c40      	ldrb	r0, [r0, #17]
 800b89a:	f7ff bf8d 	b.w	800b7b8 <GUI__ManageCacheEx>
 800b89e:	bf00      	nop

0800b8a0 <_GetCharCode>:
 800b8a0:	7800      	ldrb	r0, [r0, #0]
 800b8a2:	4770      	bx	lr

0800b8a4 <_GetCharSize>:
 800b8a4:	2001      	movs	r0, #1
 800b8a6:	4770      	bx	lr

0800b8a8 <_CalcSizeOfChar>:
 800b8a8:	2001      	movs	r0, #1
 800b8aa:	4770      	bx	lr

0800b8ac <_Encode>:
 800b8ac:	7001      	strb	r1, [r0, #0]
 800b8ae:	2001      	movs	r0, #1
 800b8b0:	4770      	bx	lr
 800b8b2:	bf00      	nop

0800b8b4 <GUI_UC__GetCharCodeInc>:
 800b8b4:	b5f8      	push	{r3, r4, r5, r6, r7, lr}
 800b8b6:	f649 5400 	movw	r4, #40192	; 0x9d00
 800b8ba:	f6c1 74fe 	movt	r4, #8190	; 0x1ffe
 800b8be:	6805      	ldr	r5, [r0, #0]
 800b8c0:	6823      	ldr	r3, [r4, #0]
 800b8c2:	4606      	mov	r6, r0
 800b8c4:	6819      	ldr	r1, [r3, #0]
 800b8c6:	4628      	mov	r0, r5
 800b8c8:	4788      	blx	r1
 800b8ca:	6822      	ldr	r2, [r4, #0]
 800b8cc:	4607      	mov	r7, r0
 800b8ce:	6853      	ldr	r3, [r2, #4]
 800b8d0:	4628      	mov	r0, r5
 800b8d2:	4798      	blx	r3
 800b8d4:	1828      	adds	r0, r5, r0
 800b8d6:	6030      	str	r0, [r6, #0]
 800b8d8:	4638      	mov	r0, r7
 800b8da:	bdf8      	pop	{r3, r4, r5, r6, r7, pc}

0800b8dc <GUI_UC__NumChars2NumBytes>:
 800b8dc:	e92d 41f0 	stmdb	sp!, {r4, r5, r6, r7, r8, lr}
 800b8e0:	4604      	mov	r4, r0
 800b8e2:	2900      	cmp	r1, #0
 800b8e4:	d027      	beq.n	800b936 <GUI_UC__NumChars2NumBytes+0x5a>
 800b8e6:	4f15      	ldr	r7, [pc, #84]	; (800b93c <GUI_UC__NumChars2NumBytes+0x60>)
 800b8e8:	683b      	ldr	r3, [r7, #0]
 800b8ea:	f101 38ff 	add.w	r8, r1, #4294967295
 800b8ee:	6859      	ldr	r1, [r3, #4]
 800b8f0:	4788      	blx	r1
 800b8f2:	4645      	mov	r5, r8
 800b8f4:	f008 0201 	and.w	r2, r8, #1
 800b8f8:	1824      	adds	r4, r4, r0
 800b8fa:	4606      	mov	r6, r0
 800b8fc:	b1c5      	cbz	r5, 800b930 <GUI_UC__NumChars2NumBytes+0x54>
 800b8fe:	b13a      	cbz	r2, 800b910 <GUI_UC__NumChars2NumBytes+0x34>
 800b900:	683b      	ldr	r3, [r7, #0]
 800b902:	4620      	mov	r0, r4
 800b904:	6859      	ldr	r1, [r3, #4]
 800b906:	4788      	blx	r1
 800b908:	3d01      	subs	r5, #1
 800b90a:	4404      	add	r4, r0
 800b90c:	4406      	add	r6, r0
 800b90e:	d00f      	beq.n	800b930 <GUI_UC__NumChars2NumBytes+0x54>
 800b910:	683a      	ldr	r2, [r7, #0]
 800b912:	4620      	mov	r0, r4
 800b914:	6853      	ldr	r3, [r2, #4]
 800b916:	4798      	blx	r3
 800b918:	4601      	mov	r1, r0
 800b91a:	6838      	ldr	r0, [r7, #0]
 800b91c:	1864      	adds	r4, r4, r1
 800b91e:	6842      	ldr	r2, [r0, #4]
 800b920:	4620      	mov	r0, r4
 800b922:	1876      	adds	r6, r6, r1
 800b924:	4790      	blx	r2
 800b926:	3d01      	subs	r5, #1
 800b928:	3d01      	subs	r5, #1
 800b92a:	4404      	add	r4, r0
 800b92c:	4406      	add	r6, r0
 800b92e:	d1ef      	bne.n	800b910 <GUI_UC__NumChars2NumBytes+0x34>
 800b930:	4630      	mov	r0, r6
 800b932:	e8bd 81f0 	ldmia.w	sp!, {r4, r5, r6, r7, r8, pc}
 800b936:	460e      	mov	r6, r1
 800b938:	e7fa      	b.n	800b930 <GUI_UC__NumChars2NumBytes+0x54>
 800b93a:	bf00      	nop
 800b93c:	1ffe9d00 	.word	0x1ffe9d00

0800b940 <GUI_SetOrg>:
 800b940:	b5f8      	push	{r3, r4, r5, r6, r7, lr}
 800b942:	f648 0208 	movw	r2, #34824	; 0x8808
 800b946:	f6c1 72fe 	movt	r2, #8190	; 0x1ffe
 800b94a:	f649 5308 	movw	r3, #40200	; 0x9d08
 800b94e:	6814      	ldr	r4, [r2, #0]
 800b950:	f6c1 73fe 	movt	r3, #8190	; 0x1ffe
 800b954:	7c65      	ldrb	r5, [r4, #17]
 800b956:	f853 6025 	ldr.w	r6, [r3, r5, lsl #2]
 800b95a:	f649 44f4 	movw	r4, #40180	; 0x9cf4
 800b95e:	f649 43e8 	movw	r3, #40168	; 0x9ce8
 800b962:	f6c1 74fe 	movt	r4, #8190	; 0x1ffe
 800b966:	f6c1 73fe 	movt	r3, #8190	; 0x1ffe
 800b96a:	68f7      	ldr	r7, [r6, #12]
 800b96c:	8020      	strh	r0, [r4, #0]
 800b96e:	4605      	mov	r5, r0
 800b970:	460a      	mov	r2, r1
 800b972:	8019      	strh	r1, [r3, #0]
 800b974:	4630      	mov	r0, r6
 800b976:	6a3b      	ldr	r3, [r7, #32]
 800b978:	4629      	mov	r1, r5
 800b97a:	4798      	blx	r3
 800b97c:	bdf8      	pop	{r3, r4, r5, r6, r7, pc}
 800b97e:	bf00      	nop

0800b980 <GUI_SelectLayer>:
 800b980:	b510      	push	{r4, lr}
 800b982:	4b04      	ldr	r3, [pc, #16]	; (800b994 <GUI_SelectLayer+0x14>)
 800b984:	6819      	ldr	r1, [r3, #0]
 800b986:	7c4c      	ldrb	r4, [r1, #17]
 800b988:	b910      	cbnz	r0, 800b990 <GUI_SelectLayer+0x10>
 800b98a:	7448      	strb	r0, [r1, #17]
 800b98c:	f001 faba 	bl	800cf04 <GUI_SelectLCD>
 800b990:	4620      	mov	r0, r4
 800b992:	bd10      	pop	{r4, pc}
 800b994:	1ffe8808 	.word	0x1ffe8808

0800b998 <GUI_RectsIntersect>:
 800b998:	f9b0 2002 	ldrsh.w	r2, [r0, #2]
 800b99c:	f9b1 3006 	ldrsh.w	r3, [r1, #6]
 800b9a0:	429a      	cmp	r2, r3
 800b9a2:	dc14      	bgt.n	800b9ce <GUI_RectsIntersect+0x36>
 800b9a4:	f9b1 2002 	ldrsh.w	r2, [r1, #2]
 800b9a8:	f9b0 3006 	ldrsh.w	r3, [r0, #6]
 800b9ac:	429a      	cmp	r2, r3
 800b9ae:	dc0e      	bgt.n	800b9ce <GUI_RectsIntersect+0x36>
 800b9b0:	f9b0 2000 	ldrsh.w	r2, [r0]
 800b9b4:	f9b1 3004 	ldrsh.w	r3, [r1, #4]
 800b9b8:	429a      	cmp	r2, r3
 800b9ba:	dc08      	bgt.n	800b9ce <GUI_RectsIntersect+0x36>
 800b9bc:	f9b0 2004 	ldrsh.w	r2, [r0, #4]
 800b9c0:	f9b1 1000 	ldrsh.w	r1, [r1]
 800b9c4:	4291      	cmp	r1, r2
 800b9c6:	bfcc      	ite	gt
 800b9c8:	2000      	movgt	r0, #0
 800b9ca:	2001      	movle	r0, #1
 800b9cc:	4770      	bx	lr
 800b9ce:	2000      	movs	r0, #0
 800b9d0:	4770      	bx	lr
 800b9d2:	bf00      	nop

0800b9d4 <GUI_GotoXY>:
 800b9d4:	f648 0308 	movw	r3, #34824	; 0x8808
 800b9d8:	f6c1 73fe 	movt	r3, #8190	; 0x1ffe
 800b9dc:	681a      	ldr	r2, [r3, #0]
 800b9de:	8450      	strh	r0, [r2, #34]	; 0x22
 800b9e0:	8491      	strh	r1, [r2, #36]	; 0x24
 800b9e2:	2000      	movs	r0, #0
 800b9e4:	4770      	bx	lr
 800b9e6:	bf00      	nop

0800b9e8 <GUI_GetBkColor>:
 800b9e8:	b508      	push	{r3, lr}
 800b9ea:	f001 f953 	bl	800cc94 <LCD_GetBkColorIndex>
 800b9ee:	e8bd 4008 	ldmia.w	sp!, {r3, lr}
 800b9f2:	f7ff be49 	b.w	800b688 <LCD_Index2Color>
 800b9f6:	bf00      	nop

0800b9f8 <GUI_GetColor>:
 800b9f8:	b508      	push	{r3, lr}
 800b9fa:	f001 f953 	bl	800cca4 <LCD_GetColorIndex>
 800b9fe:	e8bd 4008 	ldmia.w	sp!, {r3, lr}
 800ba02:	f7ff be41 	b.w	800b688 <LCD_Index2Color>
 800ba06:	bf00      	nop

0800ba08 <_GetIndexMask_0>:
 800ba08:	b508      	push	{r3, lr}
 800ba0a:	f001 f8cf 	bl	800cbac <LCD_GetNumColors>
 800ba0e:	f5b0 7f80 	cmp.w	r0, #256	; 0x100
 800ba12:	d014      	beq.n	800ba3e <_GetIndexMask_0+0x36>
 800ba14:	287f      	cmp	r0, #127	; 0x7f
 800ba16:	d80e      	bhi.n	800ba36 <_GetIndexMask_0+0x2e>
 800ba18:	283f      	cmp	r0, #63	; 0x3f
 800ba1a:	d812      	bhi.n	800ba42 <_GetIndexMask_0+0x3a>
 800ba1c:	281f      	cmp	r0, #31
 800ba1e:	d80c      	bhi.n	800ba3a <_GetIndexMask_0+0x32>
 800ba20:	280f      	cmp	r0, #15
 800ba22:	d810      	bhi.n	800ba46 <_GetIndexMask_0+0x3e>
 800ba24:	2807      	cmp	r0, #7
 800ba26:	d812      	bhi.n	800ba4e <_GetIndexMask_0+0x46>
 800ba28:	2803      	cmp	r0, #3
 800ba2a:	d80e      	bhi.n	800ba4a <_GetIndexMask_0+0x42>
 800ba2c:	2801      	cmp	r0, #1
 800ba2e:	bf94      	ite	ls
 800ba30:	2000      	movls	r0, #0
 800ba32:	2001      	movhi	r0, #1
 800ba34:	bd08      	pop	{r3, pc}
 800ba36:	207f      	movs	r0, #127	; 0x7f
 800ba38:	bd08      	pop	{r3, pc}
 800ba3a:	201f      	movs	r0, #31
 800ba3c:	bd08      	pop	{r3, pc}
 800ba3e:	20ff      	movs	r0, #255	; 0xff
 800ba40:	bd08      	pop	{r3, pc}
 800ba42:	203f      	movs	r0, #63	; 0x3f
 800ba44:	bd08      	pop	{r3, pc}
 800ba46:	200f      	movs	r0, #15
 800ba48:	bd08      	pop	{r3, pc}
 800ba4a:	2003      	movs	r0, #3
 800ba4c:	bd08      	pop	{r3, pc}
 800ba4e:	2007      	movs	r0, #7
 800ba50:	bd08      	pop	{r3, pc}
 800ba52:	bf00      	nop

0800ba54 <_Index2Color_0>:
 800ba54:	b538      	push	{r3, r4, r5, lr}
 800ba56:	4604      	mov	r4, r0
 800ba58:	f001 f8a8 	bl	800cbac <LCD_GetNumColors>
 800ba5c:	4605      	mov	r5, r0
 800ba5e:	f001 f8c3 	bl	800cbe8 <LCD_GetPalette>
 800ba62:	42a5      	cmp	r5, r4
 800ba64:	d903      	bls.n	800ba6e <_Index2Color_0+0x1a>
 800ba66:	b118      	cbz	r0, 800ba70 <_Index2Color_0+0x1c>
 800ba68:	f850 0024 	ldr.w	r0, [r0, r4, lsl #2]
 800ba6c:	bd38      	pop	{r3, r4, r5, pc}
 800ba6e:	2000      	movs	r0, #0
 800ba70:	bd38      	pop	{r3, r4, r5, pc}
 800ba72:	bf00      	nop

0800ba74 <_Color2Index_0>:
 800ba74:	e92d 47f0 	stmdb	sp!, {r4, r5, r6, r7, r8, r9, sl, lr}
 800ba78:	4604      	mov	r4, r0
 800ba7a:	f001 f897 	bl	800cbac <LCD_GetNumColors>
 800ba7e:	4606      	mov	r6, r0
 800ba80:	f001 f8b2 	bl	800cbe8 <LCD_GetPalette>
 800ba84:	2800      	cmp	r0, #0
 800ba86:	d061      	beq.n	800bb4c <_Color2Index_0+0xd8>
 800ba88:	6803      	ldr	r3, [r0, #0]
 800ba8a:	1e71      	subs	r1, r6, #1
 800ba8c:	4602      	mov	r2, r0
 800ba8e:	f1a0 0c04 	sub.w	ip, r0, #4
 800ba92:	2000      	movs	r0, #0
 800ba94:	42a3      	cmp	r3, r4
 800ba96:	f001 0101 	and.w	r1, r1, #1
 800ba9a:	d05b      	beq.n	800bb54 <_Color2Index_0+0xe0>
 800ba9c:	2301      	movs	r3, #1
 800ba9e:	429e      	cmp	r6, r3
 800baa0:	dd17      	ble.n	800bad2 <_Color2Index_0+0x5e>
 800baa2:	b139      	cbz	r1, 800bab4 <_Color2Index_0+0x40>
 800baa4:	f852 1f04 	ldr.w	r1, [r2, #4]!
 800baa8:	42a1      	cmp	r1, r4
 800baaa:	4618      	mov	r0, r3
 800baac:	d04e      	beq.n	800bb4c <_Color2Index_0+0xd8>
 800baae:	2302      	movs	r3, #2
 800bab0:	429e      	cmp	r6, r3
 800bab2:	dd0e      	ble.n	800bad2 <_Color2Index_0+0x5e>
 800bab4:	6857      	ldr	r7, [r2, #4]
 800bab6:	1c59      	adds	r1, r3, #1
 800bab8:	1d15      	adds	r5, r2, #4
 800baba:	4618      	mov	r0, r3
 800babc:	3302      	adds	r3, #2
 800babe:	42a7      	cmp	r7, r4
 800bac0:	f102 0208 	add.w	r2, r2, #8
 800bac4:	d042      	beq.n	800bb4c <_Color2Index_0+0xd8>
 800bac6:	686d      	ldr	r5, [r5, #4]
 800bac8:	42a5      	cmp	r5, r4
 800baca:	4608      	mov	r0, r1
 800bacc:	d040      	beq.n	800bb50 <_Color2Index_0+0xdc>
 800bace:	429e      	cmp	r6, r3
 800bad0:	dcf0      	bgt.n	800bab4 <_Color2Index_0+0x40>
 800bad2:	4667      	mov	r7, ip
 800bad4:	4620      	mov	r0, r4
 800bad6:	f857 1f04 	ldr.w	r1, [r7, #4]!
 800bada:	f001 fa1b 	bl	800cf14 <GUI_CalcColorDist>
 800bade:	1e75      	subs	r5, r6, #1
 800bae0:	f06f 487f 	mvn.w	r8, #4278190080	; 0xff000000
 800bae4:	f005 0901 	and.w	r9, r5, #1
 800bae8:	2501      	movs	r5, #1
 800baea:	4580      	cmp	r8, r0
 800baec:	bf28      	it	cs
 800baee:	4680      	movcs	r8, r0
 800baf0:	42ae      	cmp	r6, r5
 800baf2:	f04f 0a00 	mov.w	sl, #0
 800baf6:	dd28      	ble.n	800bb4a <_Color2Index_0+0xd6>
 800baf8:	f1b9 0f00 	cmp.w	r9, #0
 800bafc:	d00b      	beq.n	800bb16 <_Color2Index_0+0xa2>
 800bafe:	4620      	mov	r0, r4
 800bb00:	f857 1f04 	ldr.w	r1, [r7, #4]!
 800bb04:	f001 fa06 	bl	800cf14 <GUI_CalcColorDist>
 800bb08:	4580      	cmp	r8, r0
 800bb0a:	bf84      	itt	hi
 800bb0c:	4680      	movhi	r8, r0
 800bb0e:	46aa      	movhi	sl, r5
 800bb10:	3501      	adds	r5, #1
 800bb12:	42ae      	cmp	r6, r5
 800bb14:	dd19      	ble.n	800bb4a <_Color2Index_0+0xd6>
 800bb16:	6879      	ldr	r1, [r7, #4]
 800bb18:	4620      	mov	r0, r4
 800bb1a:	f001 f9fb 	bl	800cf14 <GUI_CalcColorDist>
 800bb1e:	1d39      	adds	r1, r7, #4
 800bb20:	4602      	mov	r2, r0
 800bb22:	4590      	cmp	r8, r2
 800bb24:	4620      	mov	r0, r4
 800bb26:	f101 0704 	add.w	r7, r1, #4
 800bb2a:	6849      	ldr	r1, [r1, #4]
 800bb2c:	bf84      	itt	hi
 800bb2e:	4690      	movhi	r8, r2
 800bb30:	46aa      	movhi	sl, r5
 800bb32:	f001 f9ef 	bl	800cf14 <GUI_CalcColorDist>
 800bb36:	4580      	cmp	r8, r0
 800bb38:	f105 0901 	add.w	r9, r5, #1
 800bb3c:	d901      	bls.n	800bb42 <_Color2Index_0+0xce>
 800bb3e:	4680      	mov	r8, r0
 800bb40:	46ca      	mov	sl, r9
 800bb42:	f109 0501 	add.w	r5, r9, #1
 800bb46:	42ae      	cmp	r6, r5
 800bb48:	dce5      	bgt.n	800bb16 <_Color2Index_0+0xa2>
 800bb4a:	4650      	mov	r0, sl
 800bb4c:	e8bd 87f0 	ldmia.w	sp!, {r4, r5, r6, r7, r8, r9, sl, pc}
 800bb50:	e8bd 87f0 	ldmia.w	sp!, {r4, r5, r6, r7, r8, r9, sl, pc}
 800bb54:	e8bd 87f0 	ldmia.w	sp!, {r4, r5, r6, r7, r8, r9, sl, pc}

0800bb58 <GUI_MEMDEV__WriteToActiveOpaque>:
 800bb58:	e92d 4ff0 	stmdb	sp!, {r4, r5, r6, r7, r8, r9, sl, fp, lr}
 800bb5c:	b0a1      	sub	sp, #132	; 0x84
 800bb5e:	4607      	mov	r7, r0
 800bb60:	9112      	str	r1, [sp, #72]	; 0x48
 800bb62:	920e      	str	r2, [sp, #56]	; 0x38
 800bb64:	f7fc ff68 	bl	8008a38 <GUI_ALLOC_LockH>
 800bb68:	ab20      	add	r3, sp, #128	; 0x80
 800bb6a:	6944      	ldr	r4, [r0, #20]
 800bb6c:	f843 0d1c 	str.w	r0, [r3, #-28]!
 800bb70:	4618      	mov	r0, r3
 800bb72:	f7fc ff73 	bl	8008a5c <GUI_ALLOC_UnlockH>
 800bb76:	4638      	mov	r0, r7
 800bb78:	f000 ffca 	bl	800cb10 <GUI_MEMDEV_GetBitsPerPixel>
 800bb7c:	2808      	cmp	r0, #8
 800bb7e:	4606      	mov	r6, r0
 800bb80:	dd02      	ble.n	800bb88 <GUI_MEMDEV__WriteToActiveOpaque+0x30>
 800bb82:	2c00      	cmp	r4, #0
 800bb84:	f000 80ad 	beq.w	800bce2 <GUI_MEMDEV__WriteToActiveOpaque+0x18a>
 800bb88:	f04f 0800 	mov.w	r8, #0
 800bb8c:	f04f 0901 	mov.w	r9, #1
 800bb90:	4638      	mov	r0, r7
 800bb92:	f8cd 8078 	str.w	r8, [sp, #120]	; 0x78
 800bb96:	f8cd 907c 	str.w	r9, [sp, #124]	; 0x7c
 800bb9a:	f7fc ff4d 	bl	8008a38 <GUI_ALLOC_LockH>
 800bb9e:	ad20      	add	r5, sp, #128	; 0x80
 800bba0:	4e84      	ldr	r6, [pc, #528]	; (800bdb4 <GUI_MEMDEV__WriteToActiveOpaque+0x25c>)
 800bba2:	f845 0d10 	str.w	r0, [r5, #-16]!
 800bba6:	4604      	mov	r4, r0
 800bba8:	6803      	ldr	r3, [r0, #0]
 800bbaa:	6830      	ldr	r0, [r6, #0]
 800bbac:	6919      	ldr	r1, [r3, #16]
 800bbae:	6922      	ldr	r2, [r4, #16]
 800bbb0:	68e3      	ldr	r3, [r4, #12]
 800bbb2:	f9b4 a008 	ldrsh.w	sl, [r4, #8]
 800bbb6:	f8d4 b014 	ldr.w	fp, [r4, #20]
 800bbba:	f9b4 400a 	ldrsh.w	r4, [r4, #10]
 800bbbe:	7c40      	ldrb	r0, [r0, #17]
 800bbc0:	920c      	str	r2, [sp, #48]	; 0x30
 800bbc2:	9316      	str	r3, [sp, #88]	; 0x58
 800bbc4:	f8cd a050 	str.w	sl, [sp, #80]	; 0x50
 800bbc8:	9415      	str	r4, [sp, #84]	; 0x54
 800bbca:	684c      	ldr	r4, [r1, #4]
 800bbcc:	f001 f800 	bl	800cbd0 <GUI_GetBitsPerPixelEx>
 800bbd0:	900a      	str	r0, [sp, #40]	; 0x28
 800bbd2:	6830      	ldr	r0, [r6, #0]
 800bbd4:	7c40      	ldrb	r0, [r0, #17]
 800bbd6:	f001 f817 	bl	800cc08 <GUI_GetpfIndex2ColorEx>
 800bbda:	4682      	mov	sl, r0
 800bbdc:	4628      	mov	r0, r5
 800bbde:	f7fc ff3d 	bl	8008a5c <GUI_ALLOC_UnlockH>
 800bbe2:	9d0c      	ldr	r5, [sp, #48]	; 0x30
 800bbe4:	2d08      	cmp	r5, #8
 800bbe6:	d918      	bls.n	800bc1a <GUI_MEMDEV__WriteToActiveOpaque+0xc2>
 800bbe8:	2d10      	cmp	r5, #16
 800bbea:	bf8c      	ite	hi
 800bbec:	2504      	movhi	r5, #4
 800bbee:	2502      	movls	r5, #2
 800bbf0:	9511      	str	r5, [sp, #68]	; 0x44
 800bbf2:	f8cd 8034 	str.w	r8, [sp, #52]	; 0x34
 800bbf6:	4554      	cmp	r4, sl
 800bbf8:	d017      	beq.n	800bc2a <GUI_MEMDEV__WriteToActiveOpaque+0xd2>
 800bbfa:	6835      	ldr	r5, [r6, #0]
 800bbfc:	7c68      	ldrb	r0, [r5, #17]
 800bbfe:	f001 f80d 	bl	800cc1c <GUI_GetpfColor2IndexEx>
 800bc02:	9d14      	ldr	r5, [sp, #80]	; 0x50
 800bc04:	4606      	mov	r6, r0
 800bc06:	00a8      	lsls	r0, r5, #2
 800bc08:	f7fc ff12 	bl	8008a30 <GUI_ALLOC_AllocNoInit>
 800bc0c:	9013      	str	r0, [sp, #76]	; 0x4c
 800bc0e:	2800      	cmp	r0, #0
 800bc10:	f040 80d4 	bne.w	800bdbc <GUI_MEMDEV__WriteToActiveOpaque+0x264>
 800bc14:	b021      	add	sp, #132	; 0x84
 800bc16:	e8bd 8ff0 	ldmia.w	sp!, {r4, r5, r6, r7, r8, r9, sl, fp, pc}
 800bc1a:	2d01      	cmp	r5, #1
 800bc1c:	f040 8168 	bne.w	800bef0 <GUI_MEMDEV__WriteToActiveOpaque+0x398>
 800bc20:	9511      	str	r5, [sp, #68]	; 0x44
 800bc22:	4554      	cmp	r4, sl
 800bc24:	ad1e      	add	r5, sp, #120	; 0x78
 800bc26:	950d      	str	r5, [sp, #52]	; 0x34
 800bc28:	d1e7      	bne.n	800bbfa <GUI_MEMDEV__WriteToActiveOpaque+0xa2>
 800bc2a:	4638      	mov	r0, r7
 800bc2c:	f000 ff60 	bl	800caf0 <GUI_MEMDEV_GetDataPtr>
 800bc30:	4680      	mov	r8, r0
 800bc32:	f1bb 0f00 	cmp.w	fp, #0
 800bc36:	f000 8280 	beq.w	800c13a <GUI_MEMDEV__WriteToActiveOpaque+0x5e2>
 800bc3a:	4658      	mov	r0, fp
 800bc3c:	f7fc fefc 	bl	8008a38 <GUI_ALLOC_LockH>
 800bc40:	9e15      	ldr	r6, [sp, #84]	; 0x54
 800bc42:	901d      	str	r0, [sp, #116]	; 0x74
 800bc44:	2e00      	cmp	r6, #0
 800bc46:	dd48      	ble.n	800bcda <GUI_MEMDEV__WriteToActiveOpaque+0x182>
 800bc48:	2600      	movs	r6, #0
 800bc4a:	f8dd 9058 	ldr.w	r9, [sp, #88]	; 0x58
 800bc4e:	f8dd b048 	ldr.w	fp, [sp, #72]	; 0x48
 800bc52:	46b2      	mov	sl, r6
 800bc54:	2501      	movs	r5, #1
 800bc56:	981d      	ldr	r0, [sp, #116]	; 0x74
 800bc58:	f8cd a068 	str.w	sl, [sp, #104]	; 0x68
 800bc5c:	6887      	ldr	r7, [r0, #8]
 800bc5e:	a91a      	add	r1, sp, #104	; 0x68
 800bc60:	697b      	ldr	r3, [r7, #20]
 800bc62:	4632      	mov	r2, r6
 800bc64:	4798      	blx	r3
 800bc66:	9914      	ldr	r1, [sp, #80]	; 0x50
 800bc68:	4281      	cmp	r1, r0
 800bc6a:	4604      	mov	r4, r0
 800bc6c:	f000 8276 	beq.w	800c15c <GUI_MEMDEV__WriteToActiveOpaque+0x604>
 800bc70:	9a0c      	ldr	r2, [sp, #48]	; 0x30
 800bc72:	2a01      	cmp	r2, #1
 800bc74:	f000 829a 	beq.w	800c1ac <GUI_MEMDEV__WriteToActiveOpaque+0x654>
 800bc78:	2800      	cmp	r0, #0
 800bc7a:	d029      	beq.n	800bcd0 <GUI_MEMDEV__WriteToActiveOpaque+0x178>
 800bc7c:	f8dd e038 	ldr.w	lr, [sp, #56]	; 0x38
 800bc80:	4627      	mov	r7, r4
 800bc82:	eb0e 0006 	add.w	r0, lr, r6
 800bc86:	464c      	mov	r4, r9
 800bc88:	900a      	str	r0, [sp, #40]	; 0x28
 800bc8a:	46b9      	mov	r9, r7
 800bc8c:	9f0c      	ldr	r7, [sp, #48]	; 0x30
 800bc8e:	9b1a      	ldr	r3, [sp, #104]	; 0x68
 800bc90:	9911      	ldr	r1, [sp, #68]	; 0x44
 800bc92:	9702      	str	r7, [sp, #8]
 800bc94:	9f0d      	ldr	r7, [sp, #52]	; 0x34
 800bc96:	9500      	str	r5, [sp, #0]
 800bc98:	fb03 8c01 	mla	ip, r3, r1, r8
 800bc9c:	464a      	mov	r2, r9
 800bc9e:	eb0b 0003 	add.w	r0, fp, r3
 800bca2:	990a      	ldr	r1, [sp, #40]	; 0x28
 800bca4:	f8cd c010 	str.w	ip, [sp, #16]
 800bca8:	2301      	movs	r3, #1
 800bcaa:	9705      	str	r7, [sp, #20]
 800bcac:	9501      	str	r5, [sp, #4]
 800bcae:	9403      	str	r4, [sp, #12]
 800bcb0:	f7ff f970 	bl	800af94 <LCD_DrawBitmap>
 800bcb4:	981d      	ldr	r0, [sp, #116]	; 0x74
 800bcb6:	9a1a      	ldr	r2, [sp, #104]	; 0x68
 800bcb8:	6883      	ldr	r3, [r0, #8]
 800bcba:	eb02 0109 	add.w	r1, r2, r9
 800bcbe:	911a      	str	r1, [sp, #104]	; 0x68
 800bcc0:	695f      	ldr	r7, [r3, #20]
 800bcc2:	a91a      	add	r1, sp, #104	; 0x68
 800bcc4:	4632      	mov	r2, r6
 800bcc6:	47b8      	blx	r7
 800bcc8:	4681      	mov	r9, r0
 800bcca:	2800      	cmp	r0, #0
 800bccc:	d1de      	bne.n	800bc8c <GUI_MEMDEV__WriteToActiveOpaque+0x134>
 800bcce:	46a1      	mov	r9, r4
 800bcd0:	44c8      	add	r8, r9
 800bcd2:	3601      	adds	r6, #1
 800bcd4:	9f15      	ldr	r7, [sp, #84]	; 0x54
 800bcd6:	42b7      	cmp	r7, r6
 800bcd8:	dcbd      	bgt.n	800bc56 <GUI_MEMDEV__WriteToActiveOpaque+0xfe>
 800bcda:	a81d      	add	r0, sp, #116	; 0x74
 800bcdc:	f7fc febe 	bl	8008a5c <GUI_ALLOC_UnlockH>
 800bce0:	e798      	b.n	800bc14 <GUI_MEMDEV__WriteToActiveOpaque+0xbc>
 800bce2:	4638      	mov	r0, r7
 800bce4:	f7fc fea8 	bl	8008a38 <GUI_ALLOC_LockH>
 800bce8:	f10d 0b80 	add.w	fp, sp, #128	; 0x80
 800bcec:	f9b0 a008 	ldrsh.w	sl, [r0, #8]
 800bcf0:	f84b 0d14 	str.w	r0, [fp, #-20]!
 800bcf4:	f9b0 e00a 	ldrsh.w	lr, [r0, #10]
 800bcf8:	6802      	ldr	r2, [r0, #0]
 800bcfa:	68c1      	ldr	r1, [r0, #12]
 800bcfc:	f8d2 8010 	ldr.w	r8, [r2, #16]
 800bd00:	f8cd e028 	str.w	lr, [sp, #40]	; 0x28
 800bd04:	4605      	mov	r5, r0
 800bd06:	4658      	mov	r0, fp
 800bd08:	910d      	str	r1, [sp, #52]	; 0x34
 800bd0a:	f7fc fea7 	bl	8008a5c <GUI_ALLOC_UnlockH>
 800bd0e:	4829      	ldr	r0, [pc, #164]	; (800bdb4 <GUI_MEMDEV__WriteToActiveOpaque+0x25c>)
 800bd10:	4a29      	ldr	r2, [pc, #164]	; (800bdb8 <GUI_MEMDEV__WriteToActiveOpaque+0x260>)
 800bd12:	6804      	ldr	r4, [r0, #0]
 800bd14:	f8d8 3004 	ldr.w	r3, [r8, #4]
 800bd18:	7c60      	ldrb	r0, [r4, #17]
 800bd1a:	930f      	str	r3, [sp, #60]	; 0x3c
 800bd1c:	f852 1020 	ldr.w	r1, [r2, r0, lsl #2]
 800bd20:	690c      	ldr	r4, [r1, #16]
 800bd22:	6823      	ldr	r3, [r4, #0]
 800bd24:	930c      	str	r3, [sp, #48]	; 0x30
 800bd26:	f000 ff53 	bl	800cbd0 <GUI_GetBitsPerPixelEx>
 800bd2a:	2808      	cmp	r0, #8
 800bd2c:	f240 80db 	bls.w	800bee6 <GUI_MEMDEV__WriteToActiveOpaque+0x38e>
 800bd30:	2810      	cmp	r0, #16
 800bd32:	bf8c      	ite	hi
 800bd34:	2020      	movhi	r0, #32
 800bd36:	2010      	movls	r0, #16
 800bd38:	900b      	str	r0, [sp, #44]	; 0x2c
 800bd3a:	bf8c      	ite	hi
 800bd3c:	f04f 0904 	movhi.w	r9, #4
 800bd40:	f04f 0902 	movls.w	r9, #2
 800bd44:	45a0      	cmp	r8, r4
 800bd46:	f000 82c1 	beq.w	800c2cc <GUI_MEMDEV__WriteToActiveOpaque+0x774>
 800bd4a:	2e20      	cmp	r6, #32
 800bd4c:	f000 8261 	beq.w	800c212 <GUI_MEMDEV__WriteToActiveOpaque+0x6ba>
 800bd50:	2e10      	cmp	r6, #16
 800bd52:	f47f af5f 	bne.w	800bc14 <GUI_MEMDEV__WriteToActiveOpaque+0xbc>
 800bd56:	fb0a f009 	mul.w	r0, sl, r9
 800bd5a:	f7fc fe69 	bl	8008a30 <GUI_ALLOC_AllocNoInit>
 800bd5e:	9011      	str	r0, [sp, #68]	; 0x44
 800bd60:	2800      	cmp	r0, #0
 800bd62:	f43f af57 	beq.w	800bc14 <GUI_MEMDEV__WriteToActiveOpaque+0xbc>
 800bd66:	f7fc fe67 	bl	8008a38 <GUI_ALLOC_LockH>
 800bd6a:	901d      	str	r0, [sp, #116]	; 0x74
 800bd6c:	4638      	mov	r0, r7
 800bd6e:	f7fc fe63 	bl	8008a38 <GUI_ALLOC_LockH>
 800bd72:	901b      	str	r0, [sp, #108]	; 0x6c
 800bd74:	6921      	ldr	r1, [r4, #16]
 800bd76:	f100 0518 	add.w	r5, r0, #24
 800bd7a:	2900      	cmp	r1, #0
 800bd7c:	f000 82b8 	beq.w	800c2f0 <GUI_MEMDEV__WriteToActiveOpaque+0x798>
 800bd80:	f8d8 3014 	ldr.w	r3, [r8, #20]
 800bd84:	2b00      	cmp	r3, #0
 800bd86:	f000 82b3 	beq.w	800c2f0 <GUI_MEMDEV__WriteToActiveOpaque+0x798>
 800bd8a:	f9b0 1008 	ldrsh.w	r1, [r0, #8]
 800bd8e:	0088      	lsls	r0, r1, #2
 800bd90:	f7fc fe4e 	bl	8008a30 <GUI_ALLOC_AllocNoInit>
 800bd94:	900c      	str	r0, [sp, #48]	; 0x30
 800bd96:	2800      	cmp	r0, #0
 800bd98:	f040 85a3 	bne.w	800c8e2 <GUI_MEMDEV__WriteToActiveOpaque+0xd8a>
 800bd9c:	4607      	mov	r7, r0
 800bd9e:	901c      	str	r0, [sp, #112]	; 0x70
 800bda0:	4658      	mov	r0, fp
 800bda2:	f7fc fe5b 	bl	8008a5c <GUI_ALLOC_UnlockH>
 800bda6:	a81d      	add	r0, sp, #116	; 0x74
 800bda8:	f7fc fe58 	bl	8008a5c <GUI_ALLOC_UnlockH>
 800bdac:	9811      	ldr	r0, [sp, #68]	; 0x44
 800bdae:	f7fc fe89 	bl	8008ac4 <GUI_ALLOC_Free>
 800bdb2:	e72f      	b.n	800bc14 <GUI_MEMDEV__WriteToActiveOpaque+0xbc>
 800bdb4:	1ffe8808 	.word	0x1ffe8808
 800bdb8:	1ffe9d08 	.word	0x1ffe9d08
 800bdbc:	4638      	mov	r0, r7
 800bdbe:	f000 fe97 	bl	800caf0 <GUI_MEMDEV_GetDataPtr>
 800bdc2:	900b      	str	r0, [sp, #44]	; 0x2c
 800bdc4:	f1bb 0f00 	cmp.w	fp, #0
 800bdc8:	f000 80df 	beq.w	800bf8a <GUI_MEMDEV__WriteToActiveOpaque+0x432>
 800bdcc:	4658      	mov	r0, fp
 800bdce:	f7fc fe33 	bl	8008a38 <GUI_ALLOC_LockH>
 800bdd2:	9f15      	ldr	r7, [sp, #84]	; 0x54
 800bdd4:	901d      	str	r0, [sp, #116]	; 0x74
 800bdd6:	2f00      	cmp	r7, #0
 800bdd8:	f340 80d3 	ble.w	800bf82 <GUI_MEMDEV__WriteToActiveOpaque+0x42a>
 800bddc:	2200      	movs	r2, #0
 800bdde:	920f      	str	r2, [sp, #60]	; 0x3c
 800bde0:	981d      	ldr	r0, [sp, #116]	; 0x74
 800bde2:	9a0f      	ldr	r2, [sp, #60]	; 0x3c
 800bde4:	6885      	ldr	r5, [r0, #8]
 800bde6:	2700      	movs	r7, #0
 800bde8:	696b      	ldr	r3, [r5, #20]
 800bdea:	971a      	str	r7, [sp, #104]	; 0x68
 800bdec:	a91a      	add	r1, sp, #104	; 0x68
 800bdee:	4798      	blx	r3
 800bdf0:	f8dd e050 	ldr.w	lr, [sp, #80]	; 0x50
 800bdf4:	4586      	cmp	lr, r0
 800bdf6:	4605      	mov	r5, r0
 800bdf8:	f000 8113 	beq.w	800c022 <GUI_MEMDEV__WriteToActiveOpaque+0x4ca>
 800bdfc:	990c      	ldr	r1, [sp, #48]	; 0x30
 800bdfe:	2901      	cmp	r1, #1
 800be00:	d07b      	beq.n	800befa <GUI_MEMDEV__WriteToActiveOpaque+0x3a2>
 800be02:	2d00      	cmp	r5, #0
 800be04:	f000 80ae 	beq.w	800bf64 <GUI_MEMDEV__WriteToActiveOpaque+0x40c>
 800be08:	9813      	ldr	r0, [sp, #76]	; 0x4c
 800be0a:	f7fc fe15 	bl	8008a38 <GUI_ALLOC_LockH>
 800be0e:	9a1a      	ldr	r2, [sp, #104]	; 0x68
 800be10:	901b      	str	r0, [sp, #108]	; 0x6c
 800be12:	4680      	mov	r8, r0
 800be14:	9f11      	ldr	r7, [sp, #68]	; 0x44
 800be16:	980c      	ldr	r0, [sp, #48]	; 0x30
 800be18:	990b      	ldr	r1, [sp, #44]	; 0x2c
 800be1a:	fb02 f307 	mul.w	r3, r2, r7
 800be1e:	2808      	cmp	r0, #8
 800be20:	eb01 0203 	add.w	r2, r1, r3
 800be24:	f240 80c6 	bls.w	800bfb4 <GUI_MEMDEV__WriteToActiveOpaque+0x45c>
 800be28:	5ac8      	ldrh	r0, [r1, r3]
 800be2a:	9209      	str	r2, [sp, #36]	; 0x24
 800be2c:	47a0      	blx	r4
 800be2e:	47b0      	blx	r6
 800be30:	4647      	mov	r7, r8
 800be32:	9a09      	ldr	r2, [sp, #36]	; 0x24
 800be34:	f847 0b04 	str.w	r0, [r7], #4
 800be38:	1e6b      	subs	r3, r5, #1
 800be3a:	469a      	mov	sl, r3
 800be3c:	f003 0101 	and.w	r1, r3, #1
 800be40:	f102 0b02 	add.w	fp, r2, #2
 800be44:	b32b      	cbz	r3, 800be92 <GUI_MEMDEV__WriteToActiveOpaque+0x33a>
 800be46:	b151      	cbz	r1, 800be5e <GUI_MEMDEV__WriteToActiveOpaque+0x306>
 800be48:	8850      	ldrh	r0, [r2, #2]
 800be4a:	47a0      	blx	r4
 800be4c:	47b0      	blx	r6
 800be4e:	3704      	adds	r7, #4
 800be50:	f1ba 0a01 	subs.w	sl, sl, #1
 800be54:	f10b 0b02 	add.w	fp, fp, #2
 800be58:	f8c8 0004 	str.w	r0, [r8, #4]
 800be5c:	d019      	beq.n	800be92 <GUI_MEMDEV__WriteToActiveOpaque+0x33a>
 800be5e:	9510      	str	r5, [sp, #64]	; 0x40
 800be60:	4655      	mov	r5, sl
 800be62:	46ba      	mov	sl, r7
 800be64:	465f      	mov	r7, fp
 800be66:	46d1      	mov	r9, sl
 800be68:	f837 0b02 	ldrh.w	r0, [r7], #2
 800be6c:	47a0      	blx	r4
 800be6e:	47b0      	blx	r6
 800be70:	f8bb 3002 	ldrh.w	r3, [fp, #2]
 800be74:	f849 0b04 	str.w	r0, [r9], #4
 800be78:	4618      	mov	r0, r3
 800be7a:	47a0      	blx	r4
 800be7c:	47b0      	blx	r6
 800be7e:	3d01      	subs	r5, #1
 800be80:	3d01      	subs	r5, #1
 800be82:	f8ca 0004 	str.w	r0, [sl, #4]
 800be86:	f107 0b02 	add.w	fp, r7, #2
 800be8a:	f109 0a04 	add.w	sl, r9, #4
 800be8e:	d1e9      	bne.n	800be64 <GUI_MEMDEV__WriteToActiveOpaque+0x30c>
 800be90:	9d10      	ldr	r5, [sp, #64]	; 0x40
 800be92:	9f0a      	ldr	r7, [sp, #40]	; 0x28
 800be94:	2f1f      	cmp	r7, #31
 800be96:	d805      	bhi.n	800bea4 <GUI_MEMDEV__WriteToActiveOpaque+0x34c>
 800be98:	463a      	mov	r2, r7
 800be9a:	4640      	mov	r0, r8
 800be9c:	4629      	mov	r1, r5
 800be9e:	f000 ff09 	bl	800ccb4 <GUI__CompactPixelIndices>
 800bea2:	9f0a      	ldr	r7, [sp, #40]	; 0x28
 800bea4:	2001      	movs	r0, #1
 800bea6:	4603      	mov	r3, r0
 800bea8:	9000      	str	r0, [sp, #0]
 800beaa:	9001      	str	r0, [sp, #4]
 800beac:	981b      	ldr	r0, [sp, #108]	; 0x6c
 800beae:	9702      	str	r7, [sp, #8]
 800beb0:	2700      	movs	r7, #0
 800beb2:	f8dd c048 	ldr.w	ip, [sp, #72]	; 0x48
 800beb6:	9703      	str	r7, [sp, #12]
 800beb8:	9004      	str	r0, [sp, #16]
 800beba:	9f0d      	ldr	r7, [sp, #52]	; 0x34
 800bebc:	981a      	ldr	r0, [sp, #104]	; 0x68
 800bebe:	990e      	ldr	r1, [sp, #56]	; 0x38
 800bec0:	9705      	str	r7, [sp, #20]
 800bec2:	462a      	mov	r2, r5
 800bec4:	4460      	add	r0, ip
 800bec6:	f7ff f865 	bl	800af94 <LCD_DrawBitmap>
 800beca:	a81b      	add	r0, sp, #108	; 0x6c
 800becc:	f7fc fdc6 	bl	8008a5c <GUI_ALLOC_UnlockH>
 800bed0:	981d      	ldr	r0, [sp, #116]	; 0x74
 800bed2:	9a1a      	ldr	r2, [sp, #104]	; 0x68
 800bed4:	6881      	ldr	r1, [r0, #8]
 800bed6:	1953      	adds	r3, r2, r5
 800bed8:	931a      	str	r3, [sp, #104]	; 0x68
 800beda:	694d      	ldr	r5, [r1, #20]
 800bedc:	9a0f      	ldr	r2, [sp, #60]	; 0x3c
 800bede:	a91a      	add	r1, sp, #104	; 0x68
 800bee0:	47a8      	blx	r5
 800bee2:	4605      	mov	r5, r0
 800bee4:	e78d      	b.n	800be02 <GUI_MEMDEV__WriteToActiveOpaque+0x2aa>
 800bee6:	2208      	movs	r2, #8
 800bee8:	920b      	str	r2, [sp, #44]	; 0x2c
 800beea:	f04f 0901 	mov.w	r9, #1
 800beee:	e729      	b.n	800bd44 <GUI_MEMDEV__WriteToActiveOpaque+0x1ec>
 800bef0:	f8cd 9044 	str.w	r9, [sp, #68]	; 0x44
 800bef4:	f8cd 8034 	str.w	r8, [sp, #52]	; 0x34
 800bef8:	e67d      	b.n	800bbf6 <GUI_MEMDEV__WriteToActiveOpaque+0x9e>
 800befa:	2800      	cmp	r0, #0
 800befc:	d032      	beq.n	800bf64 <GUI_MEMDEV__WriteToActiveOpaque+0x40c>
 800befe:	9f0d      	ldr	r7, [sp, #52]	; 0x34
 800bf00:	f8dd 803c 	ldr.w	r8, [sp, #60]	; 0x3c
 800bf04:	f8dd 902c 	ldr.w	r9, [sp, #44]	; 0x2c
 800bf08:	f8dd a038 	ldr.w	sl, [sp, #56]	; 0x38
 800bf0c:	f8dd b048 	ldr.w	fp, [sp, #72]	; 0x48
 800bf10:	9410      	str	r4, [sp, #64]	; 0x40
 800bf12:	9617      	str	r6, [sp, #92]	; 0x5c
 800bf14:	9c1a      	ldr	r4, [sp, #104]	; 0x68
 800bf16:	9e16      	ldr	r6, [sp, #88]	; 0x58
 800bf18:	9705      	str	r7, [sp, #20]
 800bf1a:	2301      	movs	r3, #1
 800bf1c:	2c00      	cmp	r4, #0
 800bf1e:	46a6      	mov	lr, r4
 800bf20:	bfb8      	it	lt
 800bf22:	f104 0e07 	addlt.w	lr, r4, #7
 800bf26:	f004 0c07 	and.w	ip, r4, #7
 800bf2a:	eb0b 0004 	add.w	r0, fp, r4
 800bf2e:	eb09 04ee 	add.w	r4, r9, lr, asr #3
 800bf32:	462a      	mov	r2, r5
 800bf34:	4651      	mov	r1, sl
 800bf36:	9300      	str	r3, [sp, #0]
 800bf38:	9301      	str	r3, [sp, #4]
 800bf3a:	9302      	str	r3, [sp, #8]
 800bf3c:	f8cd c018 	str.w	ip, [sp, #24]
 800bf40:	9603      	str	r6, [sp, #12]
 800bf42:	9404      	str	r4, [sp, #16]
 800bf44:	f7fe fdac 	bl	800aaa0 <LCD__DrawBitmap_1bpp>
 800bf48:	981d      	ldr	r0, [sp, #116]	; 0x74
 800bf4a:	9a1a      	ldr	r2, [sp, #104]	; 0x68
 800bf4c:	6881      	ldr	r1, [r0, #8]
 800bf4e:	1953      	adds	r3, r2, r5
 800bf50:	931a      	str	r3, [sp, #104]	; 0x68
 800bf52:	694d      	ldr	r5, [r1, #20]
 800bf54:	4642      	mov	r2, r8
 800bf56:	a91a      	add	r1, sp, #104	; 0x68
 800bf58:	47a8      	blx	r5
 800bf5a:	4605      	mov	r5, r0
 800bf5c:	2800      	cmp	r0, #0
 800bf5e:	d1d9      	bne.n	800bf14 <GUI_MEMDEV__WriteToActiveOpaque+0x3bc>
 800bf60:	9c10      	ldr	r4, [sp, #64]	; 0x40
 800bf62:	9e17      	ldr	r6, [sp, #92]	; 0x5c
 800bf64:	980b      	ldr	r0, [sp, #44]	; 0x2c
 800bf66:	9f16      	ldr	r7, [sp, #88]	; 0x58
 800bf68:	19c1      	adds	r1, r0, r7
 800bf6a:	910b      	str	r1, [sp, #44]	; 0x2c
 800bf6c:	9d0f      	ldr	r5, [sp, #60]	; 0x3c
 800bf6e:	980e      	ldr	r0, [sp, #56]	; 0x38
 800bf70:	1c6f      	adds	r7, r5, #1
 800bf72:	970f      	str	r7, [sp, #60]	; 0x3c
 800bf74:	9d0f      	ldr	r5, [sp, #60]	; 0x3c
 800bf76:	9f15      	ldr	r7, [sp, #84]	; 0x54
 800bf78:	1c41      	adds	r1, r0, #1
 800bf7a:	42af      	cmp	r7, r5
 800bf7c:	910e      	str	r1, [sp, #56]	; 0x38
 800bf7e:	f73f af2f 	bgt.w	800bde0 <GUI_MEMDEV__WriteToActiveOpaque+0x288>
 800bf82:	a81d      	add	r0, sp, #116	; 0x74
 800bf84:	f7fc fd6a 	bl	8008a5c <GUI_ALLOC_UnlockH>
 800bf88:	e010      	b.n	800bfac <GUI_MEMDEV__WriteToActiveOpaque+0x454>
 800bf8a:	990c      	ldr	r1, [sp, #48]	; 0x30
 800bf8c:	9816      	ldr	r0, [sp, #88]	; 0x58
 800bf8e:	9e0b      	ldr	r6, [sp, #44]	; 0x2c
 800bf90:	9d0d      	ldr	r5, [sp, #52]	; 0x34
 800bf92:	9102      	str	r1, [sp, #8]
 800bf94:	2301      	movs	r3, #1
 800bf96:	9300      	str	r3, [sp, #0]
 800bf98:	9301      	str	r3, [sp, #4]
 800bf9a:	9003      	str	r0, [sp, #12]
 800bf9c:	9604      	str	r6, [sp, #16]
 800bf9e:	9505      	str	r5, [sp, #20]
 800bfa0:	9812      	ldr	r0, [sp, #72]	; 0x48
 800bfa2:	990e      	ldr	r1, [sp, #56]	; 0x38
 800bfa4:	9a14      	ldr	r2, [sp, #80]	; 0x50
 800bfa6:	9b15      	ldr	r3, [sp, #84]	; 0x54
 800bfa8:	f7fe fff4 	bl	800af94 <LCD_DrawBitmap>
 800bfac:	9813      	ldr	r0, [sp, #76]	; 0x4c
 800bfae:	f7fc fd89 	bl	8008ac4 <GUI_ALLOC_Free>
 800bfb2:	e62f      	b.n	800bc14 <GUI_MEMDEV__WriteToActiveOpaque+0xbc>
 800bfb4:	5cc8      	ldrb	r0, [r1, r3]
 800bfb6:	9209      	str	r2, [sp, #36]	; 0x24
 800bfb8:	47a0      	blx	r4
 800bfba:	47b0      	blx	r6
 800bfbc:	4647      	mov	r7, r8
 800bfbe:	9a09      	ldr	r2, [sp, #36]	; 0x24
 800bfc0:	f847 0b04 	str.w	r0, [r7], #4
 800bfc4:	1e6b      	subs	r3, r5, #1
 800bfc6:	469b      	mov	fp, r3
 800bfc8:	f003 0101 	and.w	r1, r3, #1
 800bfcc:	f102 0a01 	add.w	sl, r2, #1
 800bfd0:	2b00      	cmp	r3, #0
 800bfd2:	f43f af5e 	beq.w	800be92 <GUI_MEMDEV__WriteToActiveOpaque+0x33a>
 800bfd6:	b159      	cbz	r1, 800bff0 <GUI_MEMDEV__WriteToActiveOpaque+0x498>
 800bfd8:	7850      	ldrb	r0, [r2, #1]
 800bfda:	47a0      	blx	r4
 800bfdc:	47b0      	blx	r6
 800bfde:	3704      	adds	r7, #4
 800bfe0:	f1bb 0b01 	subs.w	fp, fp, #1
 800bfe4:	f10a 0a01 	add.w	sl, sl, #1
 800bfe8:	f8c8 0004 	str.w	r0, [r8, #4]
 800bfec:	f43f af51 	beq.w	800be92 <GUI_MEMDEV__WriteToActiveOpaque+0x33a>
 800bff0:	9510      	str	r5, [sp, #64]	; 0x40
 800bff2:	465d      	mov	r5, fp
 800bff4:	46bb      	mov	fp, r7
 800bff6:	4657      	mov	r7, sl
 800bff8:	46d9      	mov	r9, fp
 800bffa:	f817 0b01 	ldrb.w	r0, [r7], #1
 800bffe:	47a0      	blx	r4
 800c000:	47b0      	blx	r6
 800c002:	f849 0b04 	str.w	r0, [r9], #4
 800c006:	f89a 0001 	ldrb.w	r0, [sl, #1]
 800c00a:	47a0      	blx	r4
 800c00c:	47b0      	blx	r6
 800c00e:	3d01      	subs	r5, #1
 800c010:	3d01      	subs	r5, #1
 800c012:	f8cb 0004 	str.w	r0, [fp, #4]
 800c016:	f107 0a01 	add.w	sl, r7, #1
 800c01a:	f109 0b04 	add.w	fp, r9, #4
 800c01e:	d1ea      	bne.n	800bff6 <GUI_MEMDEV__WriteToActiveOpaque+0x49e>
 800c020:	e736      	b.n	800be90 <GUI_MEMDEV__WriteToActiveOpaque+0x338>
 800c022:	9813      	ldr	r0, [sp, #76]	; 0x4c
 800c024:	f7fc fd08 	bl	8008a38 <GUI_ALLOC_LockH>
 800c028:	9a0c      	ldr	r2, [sp, #48]	; 0x30
 800c02a:	9b14      	ldr	r3, [sp, #80]	; 0x50
 800c02c:	901b      	str	r0, [sp, #108]	; 0x6c
 800c02e:	2a08      	cmp	r2, #8
 800c030:	4683      	mov	fp, r0
 800c032:	9f0b      	ldr	r7, [sp, #44]	; 0x2c
 800c034:	f103 38ff 	add.w	r8, r3, #4294967295
 800c038:	d94f      	bls.n	800c0da <GUI_MEMDEV__WriteToActiveOpaque+0x582>
 800c03a:	f837 0b02 	ldrh.w	r0, [r7], #2
 800c03e:	47a0      	blx	r4
 800c040:	47b0      	blx	r6
 800c042:	465d      	mov	r5, fp
 800c044:	4642      	mov	r2, r8
 800c046:	f008 0101 	and.w	r1, r8, #1
 800c04a:	f845 0b04 	str.w	r0, [r5], #4
 800c04e:	3702      	adds	r7, #2
 800c050:	b312      	cbz	r2, 800c098 <GUI_MEMDEV__WriteToActiveOpaque+0x540>
 800c052:	b161      	cbz	r1, 800c06e <GUI_MEMDEV__WriteToActiveOpaque+0x516>
 800c054:	f837 0c02 	ldrh.w	r0, [r7, #-2]
 800c058:	f8cd 8020 	str.w	r8, [sp, #32]
 800c05c:	47a0      	blx	r4
 800c05e:	47b0      	blx	r6
 800c060:	f8cb 0004 	str.w	r0, [fp, #4]
 800c064:	9808      	ldr	r0, [sp, #32]
 800c066:	3504      	adds	r5, #4
 800c068:	3702      	adds	r7, #2
 800c06a:	1e42      	subs	r2, r0, #1
 800c06c:	d014      	beq.n	800c098 <GUI_MEMDEV__WriteToActiveOpaque+0x540>
 800c06e:	4691      	mov	r9, r2
 800c070:	f837 0c02 	ldrh.w	r0, [r7, #-2]
 800c074:	47a0      	blx	r4
 800c076:	47b0      	blx	r6
 800c078:	46a8      	mov	r8, r5
 800c07a:	f848 0b04 	str.w	r0, [r8], #4
 800c07e:	f837 0b02 	ldrh.w	r0, [r7], #2
 800c082:	47a0      	blx	r4
 800c084:	47b0      	blx	r6
 800c086:	f109 33ff 	add.w	r3, r9, #4294967295
 800c08a:	3702      	adds	r7, #2
 800c08c:	f1b3 0901 	subs.w	r9, r3, #1
 800c090:	6068      	str	r0, [r5, #4]
 800c092:	f108 0504 	add.w	r5, r8, #4
 800c096:	d1eb      	bne.n	800c070 <GUI_MEMDEV__WriteToActiveOpaque+0x518>
 800c098:	9d0a      	ldr	r5, [sp, #40]	; 0x28
 800c09a:	2d1f      	cmp	r5, #31
 800c09c:	d804      	bhi.n	800c0a8 <GUI_MEMDEV__WriteToActiveOpaque+0x550>
 800c09e:	4658      	mov	r0, fp
 800c0a0:	9914      	ldr	r1, [sp, #80]	; 0x50
 800c0a2:	462a      	mov	r2, r5
 800c0a4:	f000 fe06 	bl	800ccb4 <GUI__CompactPixelIndices>
 800c0a8:	980a      	ldr	r0, [sp, #40]	; 0x28
 800c0aa:	990e      	ldr	r1, [sp, #56]	; 0x38
 800c0ac:	9002      	str	r0, [sp, #8]
 800c0ae:	2701      	movs	r7, #1
 800c0b0:	463b      	mov	r3, r7
 800c0b2:	980d      	ldr	r0, [sp, #52]	; 0x34
 800c0b4:	9700      	str	r7, [sp, #0]
 800c0b6:	9701      	str	r7, [sp, #4]
 800c0b8:	9f1b      	ldr	r7, [sp, #108]	; 0x6c
 800c0ba:	9a14      	ldr	r2, [sp, #80]	; 0x50
 800c0bc:	9005      	str	r0, [sp, #20]
 800c0be:	2500      	movs	r5, #0
 800c0c0:	9812      	ldr	r0, [sp, #72]	; 0x48
 800c0c2:	9503      	str	r5, [sp, #12]
 800c0c4:	9704      	str	r7, [sp, #16]
 800c0c6:	f7fe ff65 	bl	800af94 <LCD_DrawBitmap>
 800c0ca:	a81b      	add	r0, sp, #108	; 0x6c
 800c0cc:	f7fc fcc6 	bl	8008a5c <GUI_ALLOC_UnlockH>
 800c0d0:	990b      	ldr	r1, [sp, #44]	; 0x2c
 800c0d2:	9a16      	ldr	r2, [sp, #88]	; 0x58
 800c0d4:	188b      	adds	r3, r1, r2
 800c0d6:	930b      	str	r3, [sp, #44]	; 0x2c
 800c0d8:	e748      	b.n	800bf6c <GUI_MEMDEV__WriteToActiveOpaque+0x414>
 800c0da:	f817 0b01 	ldrb.w	r0, [r7], #1
 800c0de:	47a0      	blx	r4
 800c0e0:	47b0      	blx	r6
 800c0e2:	465d      	mov	r5, fp
 800c0e4:	4642      	mov	r2, r8
 800c0e6:	f008 0101 	and.w	r1, r8, #1
 800c0ea:	f845 0b04 	str.w	r0, [r5], #4
 800c0ee:	2a00      	cmp	r2, #0
 800c0f0:	d0d2      	beq.n	800c098 <GUI_MEMDEV__WriteToActiveOpaque+0x540>
 800c0f2:	b159      	cbz	r1, 800c10c <GUI_MEMDEV__WriteToActiveOpaque+0x5b4>
 800c0f4:	f817 0b01 	ldrb.w	r0, [r7], #1
 800c0f8:	f8cd 8024 	str.w	r8, [sp, #36]	; 0x24
 800c0fc:	47a0      	blx	r4
 800c0fe:	47b0      	blx	r6
 800c100:	f8cb 0004 	str.w	r0, [fp, #4]
 800c104:	9809      	ldr	r0, [sp, #36]	; 0x24
 800c106:	3504      	adds	r5, #4
 800c108:	1e42      	subs	r2, r0, #1
 800c10a:	d0c5      	beq.n	800c098 <GUI_MEMDEV__WriteToActiveOpaque+0x540>
 800c10c:	4692      	mov	sl, r2
 800c10e:	46b9      	mov	r9, r7
 800c110:	46a8      	mov	r8, r5
 800c112:	f819 0b01 	ldrb.w	r0, [r9], #1
 800c116:	47a0      	blx	r4
 800c118:	47b0      	blx	r6
 800c11a:	f848 0b04 	str.w	r0, [r8], #4
 800c11e:	7878      	ldrb	r0, [r7, #1]
 800c120:	47a0      	blx	r4
 800c122:	47b0      	blx	r6
 800c124:	f10a 33ff 	add.w	r3, sl, #4294967295
 800c128:	f1b3 0a01 	subs.w	sl, r3, #1
 800c12c:	6068      	str	r0, [r5, #4]
 800c12e:	f109 0701 	add.w	r7, r9, #1
 800c132:	f108 0504 	add.w	r5, r8, #4
 800c136:	d1ea      	bne.n	800c10e <GUI_MEMDEV__WriteToActiveOpaque+0x5b6>
 800c138:	e7ae      	b.n	800c098 <GUI_MEMDEV__WriteToActiveOpaque+0x540>
 800c13a:	9e0c      	ldr	r6, [sp, #48]	; 0x30
 800c13c:	9004      	str	r0, [sp, #16]
 800c13e:	2501      	movs	r5, #1
 800c140:	9500      	str	r5, [sp, #0]
 800c142:	9501      	str	r5, [sp, #4]
 800c144:	9602      	str	r6, [sp, #8]
 800c146:	9d0d      	ldr	r5, [sp, #52]	; 0x34
 800c148:	9e16      	ldr	r6, [sp, #88]	; 0x58
 800c14a:	9505      	str	r5, [sp, #20]
 800c14c:	9603      	str	r6, [sp, #12]
 800c14e:	9812      	ldr	r0, [sp, #72]	; 0x48
 800c150:	990e      	ldr	r1, [sp, #56]	; 0x38
 800c152:	9a14      	ldr	r2, [sp, #80]	; 0x50
 800c154:	9b15      	ldr	r3, [sp, #84]	; 0x54
 800c156:	f7fe ff1d 	bl	800af94 <LCD_DrawBitmap>
 800c15a:	e55b      	b.n	800bc14 <GUI_MEMDEV__WriteToActiveOpaque+0xbc>
 800c15c:	4637      	mov	r7, r6
 800c15e:	960a      	str	r6, [sp, #40]	; 0x28
 800c160:	9e14      	ldr	r6, [sp, #80]	; 0x50
 800c162:	e000      	b.n	800c166 <GUI_MEMDEV__WriteToActiveOpaque+0x60e>
 800c164:	4627      	mov	r7, r4
 800c166:	981d      	ldr	r0, [sp, #116]	; 0x74
 800c168:	6882      	ldr	r2, [r0, #8]
 800c16a:	1c7c      	adds	r4, r7, #1
 800c16c:	6953      	ldr	r3, [r2, #20]
 800c16e:	a91a      	add	r1, sp, #104	; 0x68
 800c170:	4622      	mov	r2, r4
 800c172:	4798      	blx	r3
 800c174:	4286      	cmp	r6, r0
 800c176:	d0f5      	beq.n	800c164 <GUI_MEMDEV__WriteToActiveOpaque+0x60c>
 800c178:	9e0a      	ldr	r6, [sp, #40]	; 0x28
 800c17a:	980c      	ldr	r0, [sp, #48]	; 0x30
 800c17c:	9a0d      	ldr	r2, [sp, #52]	; 0x34
 800c17e:	f8dd c038 	ldr.w	ip, [sp, #56]	; 0x38
 800c182:	f8cd 8010 	str.w	r8, [sp, #16]
 800c186:	1bb9      	subs	r1, r7, r6
 800c188:	1c4f      	adds	r7, r1, #1
 800c18a:	9002      	str	r0, [sp, #8]
 800c18c:	eb0c 0106 	add.w	r1, ip, r6
 800c190:	9205      	str	r2, [sp, #20]
 800c192:	9500      	str	r5, [sp, #0]
 800c194:	9501      	str	r5, [sp, #4]
 800c196:	f8cd 900c 	str.w	r9, [sp, #12]
 800c19a:	4658      	mov	r0, fp
 800c19c:	9a14      	ldr	r2, [sp, #80]	; 0x50
 800c19e:	463b      	mov	r3, r7
 800c1a0:	f7fe fef8 	bl	800af94 <LCD_DrawBitmap>
 800c1a4:	fb09 8807 	mla	r8, r9, r7, r8
 800c1a8:	4626      	mov	r6, r4
 800c1aa:	e593      	b.n	800bcd4 <GUI_MEMDEV__WriteToActiveOpaque+0x17c>
 800c1ac:	2800      	cmp	r0, #0
 800c1ae:	f43f ad8f 	beq.w	800bcd0 <GUI_MEMDEV__WriteToActiveOpaque+0x178>
 800c1b2:	980e      	ldr	r0, [sp, #56]	; 0x38
 800c1b4:	4632      	mov	r2, r6
 800c1b6:	1983      	adds	r3, r0, r6
 800c1b8:	930a      	str	r3, [sp, #40]	; 0x28
 800c1ba:	464e      	mov	r6, r9
 800c1bc:	4691      	mov	r9, r2
 800c1be:	9f1a      	ldr	r7, [sp, #104]	; 0x68
 800c1c0:	990a      	ldr	r1, [sp, #40]	; 0x28
 800c1c2:	9500      	str	r5, [sp, #0]
 800c1c4:	2301      	movs	r3, #1
 800c1c6:	2f00      	cmp	r7, #0
 800c1c8:	46be      	mov	lr, r7
 800c1ca:	bfb8      	it	lt
 800c1cc:	f107 0e07 	addlt.w	lr, r7, #7
 800c1d0:	f007 0c07 	and.w	ip, r7, #7
 800c1d4:	eb0b 0007 	add.w	r0, fp, r7
 800c1d8:	eb08 07ee 	add.w	r7, r8, lr, asr #3
 800c1dc:	9704      	str	r7, [sp, #16]
 800c1de:	9f0d      	ldr	r7, [sp, #52]	; 0x34
 800c1e0:	f8cd c018 	str.w	ip, [sp, #24]
 800c1e4:	4622      	mov	r2, r4
 800c1e6:	9705      	str	r7, [sp, #20]
 800c1e8:	9501      	str	r5, [sp, #4]
 800c1ea:	9502      	str	r5, [sp, #8]
 800c1ec:	9603      	str	r6, [sp, #12]
 800c1ee:	f7fe fc57 	bl	800aaa0 <LCD__DrawBitmap_1bpp>
 800c1f2:	981d      	ldr	r0, [sp, #116]	; 0x74
 800c1f4:	9b1a      	ldr	r3, [sp, #104]	; 0x68
 800c1f6:	6881      	ldr	r1, [r0, #8]
 800c1f8:	191c      	adds	r4, r3, r4
 800c1fa:	941a      	str	r4, [sp, #104]	; 0x68
 800c1fc:	694f      	ldr	r7, [r1, #20]
 800c1fe:	464a      	mov	r2, r9
 800c200:	a91a      	add	r1, sp, #104	; 0x68
 800c202:	47b8      	blx	r7
 800c204:	4604      	mov	r4, r0
 800c206:	2800      	cmp	r0, #0
 800c208:	d1d9      	bne.n	800c1be <GUI_MEMDEV__WriteToActiveOpaque+0x666>
 800c20a:	4648      	mov	r0, r9
 800c20c:	46b1      	mov	r9, r6
 800c20e:	4606      	mov	r6, r0
 800c210:	e55e      	b.n	800bcd0 <GUI_MEMDEV__WriteToActiveOpaque+0x178>
 800c212:	fb0a f009 	mul.w	r0, sl, r9
 800c216:	f7fc fc0b 	bl	8008a30 <GUI_ALLOC_AllocNoInit>
 800c21a:	900f      	str	r0, [sp, #60]	; 0x3c
 800c21c:	2800      	cmp	r0, #0
 800c21e:	f43f acf9 	beq.w	800bc14 <GUI_MEMDEV__WriteToActiveOpaque+0xbc>
 800c222:	f7fc fc09 	bl	8008a38 <GUI_ALLOC_LockH>
 800c226:	901d      	str	r0, [sp, #116]	; 0x74
 800c228:	4638      	mov	r0, r7
 800c22a:	f7fc fc05 	bl	8008a38 <GUI_ALLOC_LockH>
 800c22e:	901b      	str	r0, [sp, #108]	; 0x6c
 800c230:	6925      	ldr	r5, [r4, #16]
 800c232:	f100 0818 	add.w	r8, r0, #24
 800c236:	ea4f 078a 	mov.w	r7, sl, lsl #2
 800c23a:	2d00      	cmp	r5, #0
 800c23c:	f000 81c4 	beq.w	800c5c8 <GUI_MEMDEV__WriteToActiveOpaque+0xa70>
 800c240:	970c      	str	r7, [sp, #48]	; 0x30
 800c242:	2601      	movs	r6, #1
 800c244:	2700      	movs	r7, #0
 800c246:	f1b9 0f02 	cmp.w	r9, #2
 800c24a:	f000 82e1 	beq.w	800c810 <GUI_MEMDEV__WriteToActiveOpaque+0xcb8>
 800c24e:	f1b9 0f04 	cmp.w	r9, #4
 800c252:	f000 8279 	beq.w	800c748 <GUI_MEMDEV__WriteToActiveOpaque+0xbf0>
 800c256:	f1b9 0f01 	cmp.w	r9, #1
 800c25a:	f000 8155 	beq.w	800c508 <GUI_MEMDEV__WriteToActiveOpaque+0x9b0>
 800c25e:	980a      	ldr	r0, [sp, #40]	; 0x28
 800c260:	1e44      	subs	r4, r0, #1
 800c262:	07e3      	lsls	r3, r4, #31
 800c264:	f100 8139 	bmi.w	800c4da <GUI_MEMDEV__WriteToActiveOpaque+0x982>
 800c268:	4604      	mov	r4, r0
 800c26a:	9d0b      	ldr	r5, [sp, #44]	; 0x2c
 800c26c:	f8dd 9048 	ldr.w	r9, [sp, #72]	; 0x48
 800c270:	f8dd c038 	ldr.w	ip, [sp, #56]	; 0x38
 800c274:	e00f      	b.n	800c296 <GUI_MEMDEV__WriteToActiveOpaque+0x73e>
 800c276:	991d      	ldr	r1, [sp, #116]	; 0x74
 800c278:	9600      	str	r6, [sp, #0]
 800c27a:	9104      	str	r1, [sp, #16]
 800c27c:	9601      	str	r6, [sp, #4]
 800c27e:	9502      	str	r5, [sp, #8]
 800c280:	9703      	str	r7, [sp, #12]
 800c282:	9705      	str	r7, [sp, #20]
 800c284:	4648      	mov	r0, r9
 800c286:	4641      	mov	r1, r8
 800c288:	4652      	mov	r2, sl
 800c28a:	2301      	movs	r3, #1
 800c28c:	f7fe fe82 	bl	800af94 <LCD_DrawBitmap>
 800c290:	3c01      	subs	r4, #1
 800c292:	f108 0c01 	add.w	ip, r8, #1
 800c296:	9b1d      	ldr	r3, [sp, #116]	; 0x74
 800c298:	9600      	str	r6, [sp, #0]
 800c29a:	9304      	str	r3, [sp, #16]
 800c29c:	4648      	mov	r0, r9
 800c29e:	2301      	movs	r3, #1
 800c2a0:	4661      	mov	r1, ip
 800c2a2:	4652      	mov	r2, sl
 800c2a4:	9601      	str	r6, [sp, #4]
 800c2a6:	9502      	str	r5, [sp, #8]
 800c2a8:	9703      	str	r7, [sp, #12]
 800c2aa:	9705      	str	r7, [sp, #20]
 800c2ac:	eb0c 0803 	add.w	r8, ip, r3
 800c2b0:	f7fe fe70 	bl	800af94 <LCD_DrawBitmap>
 800c2b4:	3c01      	subs	r4, #1
 800c2b6:	d1de      	bne.n	800c276 <GUI_MEMDEV__WriteToActiveOpaque+0x71e>
 800c2b8:	4658      	mov	r0, fp
 800c2ba:	f7fc fbcf 	bl	8008a5c <GUI_ALLOC_UnlockH>
 800c2be:	a81d      	add	r0, sp, #116	; 0x74
 800c2c0:	f7fc fbcc 	bl	8008a5c <GUI_ALLOC_UnlockH>
 800c2c4:	980f      	ldr	r0, [sp, #60]	; 0x3c
 800c2c6:	f7fc fbfd 	bl	8008ac4 <GUI_ALLOC_Free>
 800c2ca:	e4a3      	b.n	800bc14 <GUI_MEMDEV__WriteToActiveOpaque+0xbc>
 800c2cc:	f105 0118 	add.w	r1, r5, #24
 800c2d0:	9d0d      	ldr	r5, [sp, #52]	; 0x34
 800c2d2:	9104      	str	r1, [sp, #16]
 800c2d4:	2001      	movs	r0, #1
 800c2d6:	2200      	movs	r2, #0
 800c2d8:	9000      	str	r0, [sp, #0]
 800c2da:	9001      	str	r0, [sp, #4]
 800c2dc:	9205      	str	r2, [sp, #20]
 800c2de:	9602      	str	r6, [sp, #8]
 800c2e0:	9503      	str	r5, [sp, #12]
 800c2e2:	9812      	ldr	r0, [sp, #72]	; 0x48
 800c2e4:	990e      	ldr	r1, [sp, #56]	; 0x38
 800c2e6:	9b0a      	ldr	r3, [sp, #40]	; 0x28
 800c2e8:	4652      	mov	r2, sl
 800c2ea:	f7fe fe53 	bl	800af94 <LCD_DrawBitmap>
 800c2ee:	e491      	b.n	800bc14 <GUI_MEMDEV__WriteToActiveOpaque+0xbc>
 800c2f0:	ea4f 064a 	mov.w	r6, sl, lsl #1
 800c2f4:	960d      	str	r6, [sp, #52]	; 0x34
 800c2f6:	9c0f      	ldr	r4, [sp, #60]	; 0x3c
 800c2f8:	9e0c      	ldr	r6, [sp, #48]	; 0x30
 800c2fa:	f8cd b030 	str.w	fp, [sp, #48]	; 0x30
 800c2fe:	e01d      	b.n	800c33c <GUI_MEMDEV__WriteToActiveOpaque+0x7e4>
 800c300:	f1b9 0f04 	cmp.w	r9, #4
 800c304:	f000 80a2 	beq.w	800c44c <GUI_MEMDEV__WriteToActiveOpaque+0x8f4>
 800c308:	f1b9 0f01 	cmp.w	r9, #1
 800c30c:	d05c      	beq.n	800c3c8 <GUI_MEMDEV__WriteToActiveOpaque+0x870>
 800c30e:	2100      	movs	r1, #0
 800c310:	9a0b      	ldr	r2, [sp, #44]	; 0x2c
 800c312:	9b1d      	ldr	r3, [sp, #116]	; 0x74
 800c314:	9103      	str	r1, [sp, #12]
 800c316:	2701      	movs	r7, #1
 800c318:	9105      	str	r1, [sp, #20]
 800c31a:	990e      	ldr	r1, [sp, #56]	; 0x38
 800c31c:	9700      	str	r7, [sp, #0]
 800c31e:	9701      	str	r7, [sp, #4]
 800c320:	9202      	str	r2, [sp, #8]
 800c322:	9304      	str	r3, [sp, #16]
 800c324:	9812      	ldr	r0, [sp, #72]	; 0x48
 800c326:	2301      	movs	r3, #1
 800c328:	4652      	mov	r2, sl
 800c32a:	18cf      	adds	r7, r1, r3
 800c32c:	f7fe fe32 	bl	800af94 <LCD_DrawBitmap>
 800c330:	980a      	ldr	r0, [sp, #40]	; 0x28
 800c332:	1e42      	subs	r2, r0, #1
 800c334:	920a      	str	r2, [sp, #40]	; 0x28
 800c336:	f000 80cd 	beq.w	800c4d4 <GUI_MEMDEV__WriteToActiveOpaque+0x97c>
 800c33a:	970e      	str	r7, [sp, #56]	; 0x38
 800c33c:	f1b9 0f02 	cmp.w	r9, #2
 800c340:	d1de      	bne.n	800c300 <GUI_MEMDEV__WriteToActiveOpaque+0x7a8>
 800c342:	462f      	mov	r7, r5
 800c344:	f8dd 8074 	ldr.w	r8, [sp, #116]	; 0x74
 800c348:	f837 0b02 	ldrh.w	r0, [r7], #2
 800c34c:	9709      	str	r7, [sp, #36]	; 0x24
 800c34e:	47a0      	blx	r4
 800c350:	47b0      	blx	r6
 800c352:	46c3      	mov	fp, r8
 800c354:	f10a 3eff 	add.w	lr, sl, #4294967295
 800c358:	4677      	mov	r7, lr
 800c35a:	f00e 0301 	and.w	r3, lr, #1
 800c35e:	f82b 0b02 	strh.w	r0, [fp], #2
 800c362:	9a09      	ldr	r2, [sp, #36]	; 0x24
 800c364:	2f00      	cmp	r7, #0
 800c366:	d02c      	beq.n	800c3c2 <GUI_MEMDEV__WriteToActiveOpaque+0x86a>
 800c368:	b15b      	cbz	r3, 800c382 <GUI_MEMDEV__WriteToActiveOpaque+0x82a>
 800c36a:	f832 0b02 	ldrh.w	r0, [r2], #2
 800c36e:	9209      	str	r2, [sp, #36]	; 0x24
 800c370:	47a0      	blx	r4
 800c372:	47b0      	blx	r6
 800c374:	3f01      	subs	r7, #1
 800c376:	f10b 0b02 	add.w	fp, fp, #2
 800c37a:	f8a8 0002 	strh.w	r0, [r8, #2]
 800c37e:	9a09      	ldr	r2, [sp, #36]	; 0x24
 800c380:	d01f      	beq.n	800c3c2 <GUI_MEMDEV__WriteToActiveOpaque+0x86a>
 800c382:	462b      	mov	r3, r5
 800c384:	4651      	mov	r1, sl
 800c386:	4615      	mov	r5, r2
 800c388:	46ca      	mov	sl, r9
 800c38a:	46a1      	mov	r9, r4
 800c38c:	462c      	mov	r4, r5
 800c38e:	46d8      	mov	r8, fp
 800c390:	f834 0b02 	ldrh.w	r0, [r4], #2
 800c394:	9109      	str	r1, [sp, #36]	; 0x24
 800c396:	9308      	str	r3, [sp, #32]
 800c398:	47c8      	blx	r9
 800c39a:	47b0      	blx	r6
 800c39c:	f828 0b02 	strh.w	r0, [r8], #2
 800c3a0:	8868      	ldrh	r0, [r5, #2]
 800c3a2:	47c8      	blx	r9
 800c3a4:	47b0      	blx	r6
 800c3a6:	1e79      	subs	r1, r7, #1
 800c3a8:	1ca5      	adds	r5, r4, #2
 800c3aa:	1e4f      	subs	r7, r1, #1
 800c3ac:	f8ab 0002 	strh.w	r0, [fp, #2]
 800c3b0:	9909      	ldr	r1, [sp, #36]	; 0x24
 800c3b2:	9b08      	ldr	r3, [sp, #32]
 800c3b4:	f108 0b02 	add.w	fp, r8, #2
 800c3b8:	d1e8      	bne.n	800c38c <GUI_MEMDEV__WriteToActiveOpaque+0x834>
 800c3ba:	464c      	mov	r4, r9
 800c3bc:	461d      	mov	r5, r3
 800c3be:	46d1      	mov	r9, sl
 800c3c0:	468a      	mov	sl, r1
 800c3c2:	980d      	ldr	r0, [sp, #52]	; 0x34
 800c3c4:	182d      	adds	r5, r5, r0
 800c3c6:	e7a2      	b.n	800c30e <GUI_MEMDEV__WriteToActiveOpaque+0x7b6>
 800c3c8:	46ab      	mov	fp, r5
 800c3ca:	f8dd 8074 	ldr.w	r8, [sp, #116]	; 0x74
 800c3ce:	f83b 0b02 	ldrh.w	r0, [fp], #2
 800c3d2:	47a0      	blx	r4
 800c3d4:	47b0      	blx	r6
 800c3d6:	4647      	mov	r7, r8
 800c3d8:	f10a 3cff 	add.w	ip, sl, #4294967295
 800c3dc:	4662      	mov	r2, ip
 800c3de:	f00c 0101 	and.w	r1, ip, #1
 800c3e2:	f807 0b01 	strb.w	r0, [r7], #1
 800c3e6:	2a00      	cmp	r2, #0
 800c3e8:	d0eb      	beq.n	800c3c2 <GUI_MEMDEV__WriteToActiveOpaque+0x86a>
 800c3ea:	b159      	cbz	r1, 800c404 <GUI_MEMDEV__WriteToActiveOpaque+0x8ac>
 800c3ec:	f83b 0b02 	ldrh.w	r0, [fp], #2
 800c3f0:	f8cd c024 	str.w	ip, [sp, #36]	; 0x24
 800c3f4:	47a0      	blx	r4
 800c3f6:	47b0      	blx	r6
 800c3f8:	f888 0001 	strb.w	r0, [r8, #1]
 800c3fc:	9809      	ldr	r0, [sp, #36]	; 0x24
 800c3fe:	3701      	adds	r7, #1
 800c400:	1e42      	subs	r2, r0, #1
 800c402:	d0de      	beq.n	800c3c2 <GUI_MEMDEV__WriteToActiveOpaque+0x86a>
 800c404:	462b      	mov	r3, r5
 800c406:	4651      	mov	r1, sl
 800c408:	4625      	mov	r5, r4
 800c40a:	46ca      	mov	sl, r9
 800c40c:	4691      	mov	r9, r2
 800c40e:	465c      	mov	r4, fp
 800c410:	46b8      	mov	r8, r7
 800c412:	f834 0b02 	ldrh.w	r0, [r4], #2
 800c416:	9109      	str	r1, [sp, #36]	; 0x24
 800c418:	9308      	str	r3, [sp, #32]
 800c41a:	47a8      	blx	r5
 800c41c:	47b0      	blx	r6
 800c41e:	f808 0b01 	strb.w	r0, [r8], #1
 800c422:	f8bb 0002 	ldrh.w	r0, [fp, #2]
 800c426:	47a8      	blx	r5
 800c428:	47b0      	blx	r6
 800c42a:	f109 33ff 	add.w	r3, r9, #4294967295
 800c42e:	7078      	strb	r0, [r7, #1]
 800c430:	f1b3 0901 	subs.w	r9, r3, #1
 800c434:	f104 0b02 	add.w	fp, r4, #2
 800c438:	f108 0701 	add.w	r7, r8, #1
 800c43c:	9909      	ldr	r1, [sp, #36]	; 0x24
 800c43e:	9b08      	ldr	r3, [sp, #32]
 800c440:	d1e5      	bne.n	800c40e <GUI_MEMDEV__WriteToActiveOpaque+0x8b6>
 800c442:	462c      	mov	r4, r5
 800c444:	46d1      	mov	r9, sl
 800c446:	461d      	mov	r5, r3
 800c448:	468a      	mov	sl, r1
 800c44a:	e7ba      	b.n	800c3c2 <GUI_MEMDEV__WriteToActiveOpaque+0x86a>
 800c44c:	462f      	mov	r7, r5
 800c44e:	f8dd 8074 	ldr.w	r8, [sp, #116]	; 0x74
 800c452:	f837 0b02 	ldrh.w	r0, [r7], #2
 800c456:	9709      	str	r7, [sp, #36]	; 0x24
 800c458:	47a0      	blx	r4
 800c45a:	47b0      	blx	r6
 800c45c:	46c3      	mov	fp, r8
 800c45e:	f10a 3eff 	add.w	lr, sl, #4294967295
 800c462:	4677      	mov	r7, lr
 800c464:	f00e 0101 	and.w	r1, lr, #1
 800c468:	f84b 0b04 	str.w	r0, [fp], #4
 800c46c:	9a09      	ldr	r2, [sp, #36]	; 0x24
 800c46e:	2f00      	cmp	r7, #0
 800c470:	d0a7      	beq.n	800c3c2 <GUI_MEMDEV__WriteToActiveOpaque+0x86a>
 800c472:	b159      	cbz	r1, 800c48c <GUI_MEMDEV__WriteToActiveOpaque+0x934>
 800c474:	f832 0b02 	ldrh.w	r0, [r2], #2
 800c478:	9209      	str	r2, [sp, #36]	; 0x24
 800c47a:	47a0      	blx	r4
 800c47c:	47b0      	blx	r6
 800c47e:	3f01      	subs	r7, #1
 800c480:	f10b 0b04 	add.w	fp, fp, #4
 800c484:	f8c8 0004 	str.w	r0, [r8, #4]
 800c488:	9a09      	ldr	r2, [sp, #36]	; 0x24
 800c48a:	d09a      	beq.n	800c3c2 <GUI_MEMDEV__WriteToActiveOpaque+0x86a>
 800c48c:	4629      	mov	r1, r5
 800c48e:	46d4      	mov	ip, sl
 800c490:	4615      	mov	r5, r2
 800c492:	46ca      	mov	sl, r9
 800c494:	46a1      	mov	r9, r4
 800c496:	462c      	mov	r4, r5
 800c498:	46d8      	mov	r8, fp
 800c49a:	f834 0b02 	ldrh.w	r0, [r4], #2
 800c49e:	9109      	str	r1, [sp, #36]	; 0x24
 800c4a0:	f8cd c020 	str.w	ip, [sp, #32]
 800c4a4:	47c8      	blx	r9
 800c4a6:	47b0      	blx	r6
 800c4a8:	886d      	ldrh	r5, [r5, #2]
 800c4aa:	f848 0b04 	str.w	r0, [r8], #4
 800c4ae:	4628      	mov	r0, r5
 800c4b0:	47c8      	blx	r9
 800c4b2:	47b0      	blx	r6
 800c4b4:	1e7b      	subs	r3, r7, #1
 800c4b6:	1ca5      	adds	r5, r4, #2
 800c4b8:	1e5f      	subs	r7, r3, #1
 800c4ba:	f8cb 0004 	str.w	r0, [fp, #4]
 800c4be:	9909      	ldr	r1, [sp, #36]	; 0x24
 800c4c0:	f8dd c020 	ldr.w	ip, [sp, #32]
 800c4c4:	f108 0b04 	add.w	fp, r8, #4
 800c4c8:	d1e5      	bne.n	800c496 <GUI_MEMDEV__WriteToActiveOpaque+0x93e>
 800c4ca:	464c      	mov	r4, r9
 800c4cc:	460d      	mov	r5, r1
 800c4ce:	46d1      	mov	r9, sl
 800c4d0:	46e2      	mov	sl, ip
 800c4d2:	e776      	b.n	800c3c2 <GUI_MEMDEV__WriteToActiveOpaque+0x86a>
 800c4d4:	f8dd b030 	ldr.w	fp, [sp, #48]	; 0x30
 800c4d8:	e462      	b.n	800bda0 <GUI_MEMDEV__WriteToActiveOpaque+0x248>
 800c4da:	9a0b      	ldr	r2, [sp, #44]	; 0x2c
 800c4dc:	981d      	ldr	r0, [sp, #116]	; 0x74
 800c4de:	990e      	ldr	r1, [sp, #56]	; 0x38
 800c4e0:	9202      	str	r2, [sp, #8]
 800c4e2:	1c4d      	adds	r5, r1, #1
 800c4e4:	9004      	str	r0, [sp, #16]
 800c4e6:	9600      	str	r6, [sp, #0]
 800c4e8:	9601      	str	r6, [sp, #4]
 800c4ea:	9703      	str	r7, [sp, #12]
 800c4ec:	9705      	str	r7, [sp, #20]
 800c4ee:	9812      	ldr	r0, [sp, #72]	; 0x48
 800c4f0:	4652      	mov	r2, sl
 800c4f2:	4633      	mov	r3, r6
 800c4f4:	f7fe fd4e 	bl	800af94 <LCD_DrawBitmap>
 800c4f8:	950e      	str	r5, [sp, #56]	; 0x38
 800c4fa:	940a      	str	r4, [sp, #40]	; 0x28
 800c4fc:	9d0b      	ldr	r5, [sp, #44]	; 0x2c
 800c4fe:	f8dd 9048 	ldr.w	r9, [sp, #72]	; 0x48
 800c502:	f8dd c038 	ldr.w	ip, [sp, #56]	; 0x38
 800c506:	e6c6      	b.n	800c296 <GUI_MEMDEV__WriteToActiveOpaque+0x73e>
 800c508:	f8dd 9028 	ldr.w	r9, [sp, #40]	; 0x28
 800c50c:	f109 39ff 	add.w	r9, r9, #4294967295
 800c510:	f019 0f01 	tst.w	r9, #1
 800c514:	f000 82a2 	beq.w	800ca5c <GUI_MEMDEV__WriteToActiveOpaque+0xf04>
 800c518:	4640      	mov	r0, r8
 800c51a:	991d      	ldr	r1, [sp, #116]	; 0x74
 800c51c:	4652      	mov	r2, sl
 800c51e:	4633      	mov	r3, r6
 800c520:	47a8      	blx	r5
 800c522:	9a0b      	ldr	r2, [sp, #44]	; 0x2c
 800c524:	981d      	ldr	r0, [sp, #116]	; 0x74
 800c526:	990e      	ldr	r1, [sp, #56]	; 0x38
 800c528:	f8dd e030 	ldr.w	lr, [sp, #48]	; 0x30
 800c52c:	9202      	str	r2, [sp, #8]
 800c52e:	1c4d      	adds	r5, r1, #1
 800c530:	9004      	str	r0, [sp, #16]
 800c532:	9600      	str	r6, [sp, #0]
 800c534:	9601      	str	r6, [sp, #4]
 800c536:	9703      	str	r7, [sp, #12]
 800c538:	9705      	str	r7, [sp, #20]
 800c53a:	9812      	ldr	r0, [sp, #72]	; 0x48
 800c53c:	4652      	mov	r2, sl
 800c53e:	4633      	mov	r3, r6
 800c540:	44f0      	add	r8, lr
 800c542:	f7fe fd27 	bl	800af94 <LCD_DrawBitmap>
 800c546:	f8cd 9028 	str.w	r9, [sp, #40]	; 0x28
 800c54a:	950e      	str	r5, [sp, #56]	; 0x38
 800c54c:	46a9      	mov	r9, r5
 800c54e:	e01c      	b.n	800c58a <GUI_MEMDEV__WriteToActiveOpaque+0xa32>
 800c550:	f8cd c020 	str.w	ip, [sp, #32]
 800c554:	991d      	ldr	r1, [sp, #116]	; 0x74
 800c556:	6925      	ldr	r5, [r4, #16]
 800c558:	47a8      	blx	r5
 800c55a:	990b      	ldr	r1, [sp, #44]	; 0x2c
 800c55c:	9a1d      	ldr	r2, [sp, #116]	; 0x74
 800c55e:	9102      	str	r1, [sp, #8]
 800c560:	9204      	str	r2, [sp, #16]
 800c562:	4649      	mov	r1, r9
 800c564:	9600      	str	r6, [sp, #0]
 800c566:	9601      	str	r6, [sp, #4]
 800c568:	9703      	str	r7, [sp, #12]
 800c56a:	9705      	str	r7, [sp, #20]
 800c56c:	9812      	ldr	r0, [sp, #72]	; 0x48
 800c56e:	9d0c      	ldr	r5, [sp, #48]	; 0x30
 800c570:	4652      	mov	r2, sl
 800c572:	2301      	movs	r3, #1
 800c574:	f7fe fd0e 	bl	800af94 <LCD_DrawBitmap>
 800c578:	f8dd c020 	ldr.w	ip, [sp, #32]
 800c57c:	f10c 3cff 	add.w	ip, ip, #4294967295
 800c580:	44a8      	add	r8, r5
 800c582:	f8cd c028 	str.w	ip, [sp, #40]	; 0x28
 800c586:	f109 0901 	add.w	r9, r9, #1
 800c58a:	4640      	mov	r0, r8
 800c58c:	2301      	movs	r3, #1
 800c58e:	991d      	ldr	r1, [sp, #116]	; 0x74
 800c590:	6925      	ldr	r5, [r4, #16]
 800c592:	4652      	mov	r2, sl
 800c594:	47a8      	blx	r5
 800c596:	9d1d      	ldr	r5, [sp, #116]	; 0x74
 800c598:	9b0b      	ldr	r3, [sp, #44]	; 0x2c
 800c59a:	9504      	str	r5, [sp, #16]
 800c59c:	9d0c      	ldr	r5, [sp, #48]	; 0x30
 800c59e:	9812      	ldr	r0, [sp, #72]	; 0x48
 800c5a0:	9302      	str	r3, [sp, #8]
 800c5a2:	4649      	mov	r1, r9
 800c5a4:	2301      	movs	r3, #1
 800c5a6:	4652      	mov	r2, sl
 800c5a8:	9600      	str	r6, [sp, #0]
 800c5aa:	9601      	str	r6, [sp, #4]
 800c5ac:	9703      	str	r7, [sp, #12]
 800c5ae:	9705      	str	r7, [sp, #20]
 800c5b0:	44a8      	add	r8, r5
 800c5b2:	4499      	add	r9, r3
 800c5b4:	f7fe fcee 	bl	800af94 <LCD_DrawBitmap>
 800c5b8:	9d0a      	ldr	r5, [sp, #40]	; 0x28
 800c5ba:	2301      	movs	r3, #1
 800c5bc:	f1b5 0c01 	subs.w	ip, r5, #1
 800c5c0:	4640      	mov	r0, r8
 800c5c2:	4652      	mov	r2, sl
 800c5c4:	d1c4      	bne.n	800c550 <GUI_MEMDEV__WriteToActiveOpaque+0x9f8>
 800c5c6:	e677      	b.n	800c2b8 <GUI_MEMDEV__WriteToActiveOpaque+0x760>
 800c5c8:	9c0c      	ldr	r4, [sp, #48]	; 0x30
 800c5ca:	970d      	str	r7, [sp, #52]	; 0x34
 800c5cc:	f8cd b030 	str.w	fp, [sp, #48]	; 0x30
 800c5d0:	e01d      	b.n	800c60e <GUI_MEMDEV__WriteToActiveOpaque+0xab6>
 800c5d2:	f1b9 0f04 	cmp.w	r9, #4
 800c5d6:	f000 8082 	beq.w	800c6de <GUI_MEMDEV__WriteToActiveOpaque+0xb86>
 800c5da:	f1b9 0f01 	cmp.w	r9, #1
 800c5de:	d04c      	beq.n	800c67a <GUI_MEMDEV__WriteToActiveOpaque+0xb22>
 800c5e0:	991d      	ldr	r1, [sp, #116]	; 0x74
 800c5e2:	9e0b      	ldr	r6, [sp, #44]	; 0x2c
 800c5e4:	9104      	str	r1, [sp, #16]
 800c5e6:	2701      	movs	r7, #1
 800c5e8:	2500      	movs	r5, #0
 800c5ea:	990e      	ldr	r1, [sp, #56]	; 0x38
 800c5ec:	9602      	str	r6, [sp, #8]
 800c5ee:	9503      	str	r5, [sp, #12]
 800c5f0:	9505      	str	r5, [sp, #20]
 800c5f2:	4652      	mov	r2, sl
 800c5f4:	9700      	str	r7, [sp, #0]
 800c5f6:	9701      	str	r7, [sp, #4]
 800c5f8:	9812      	ldr	r0, [sp, #72]	; 0x48
 800c5fa:	463b      	mov	r3, r7
 800c5fc:	19ce      	adds	r6, r1, r7
 800c5fe:	f7fe fcc9 	bl	800af94 <LCD_DrawBitmap>
 800c602:	9a0a      	ldr	r2, [sp, #40]	; 0x28
 800c604:	1e55      	subs	r5, r2, #1
 800c606:	950a      	str	r5, [sp, #40]	; 0x28
 800c608:	f000 809b 	beq.w	800c742 <GUI_MEMDEV__WriteToActiveOpaque+0xbea>
 800c60c:	960e      	str	r6, [sp, #56]	; 0x38
 800c60e:	f1b9 0f02 	cmp.w	r9, #2
 800c612:	d1de      	bne.n	800c5d2 <GUI_MEMDEV__WriteToActiveOpaque+0xa7a>
 800c614:	46c3      	mov	fp, r8
 800c616:	9f1d      	ldr	r7, [sp, #116]	; 0x74
 800c618:	f85b 0b04 	ldr.w	r0, [fp], #4
 800c61c:	47a0      	blx	r4
 800c61e:	463e      	mov	r6, r7
 800c620:	f10a 3cff 	add.w	ip, sl, #4294967295
 800c624:	4665      	mov	r5, ip
 800c626:	f00c 0301 	and.w	r3, ip, #1
 800c62a:	f826 0b02 	strh.w	r0, [r6], #2
 800c62e:	b30d      	cbz	r5, 800c674 <GUI_MEMDEV__WriteToActiveOpaque+0xb1c>
 800c630:	b133      	cbz	r3, 800c640 <GUI_MEMDEV__WriteToActiveOpaque+0xae8>
 800c632:	f85b 0b04 	ldr.w	r0, [fp], #4
 800c636:	47a0      	blx	r4
 800c638:	3602      	adds	r6, #2
 800c63a:	3d01      	subs	r5, #1
 800c63c:	8078      	strh	r0, [r7, #2]
 800c63e:	d019      	beq.n	800c674 <GUI_MEMDEV__WriteToActiveOpaque+0xb1c>
 800c640:	4653      	mov	r3, sl
 800c642:	46c2      	mov	sl, r8
 800c644:	46a0      	mov	r8, r4
 800c646:	465c      	mov	r4, fp
 800c648:	4637      	mov	r7, r6
 800c64a:	f854 0b04 	ldr.w	r0, [r4], #4
 800c64e:	9309      	str	r3, [sp, #36]	; 0x24
 800c650:	47c0      	blx	r8
 800c652:	f8db 1004 	ldr.w	r1, [fp, #4]
 800c656:	f827 0b02 	strh.w	r0, [r7], #2
 800c65a:	4608      	mov	r0, r1
 800c65c:	47c0      	blx	r8
 800c65e:	1e6a      	subs	r2, r5, #1
 800c660:	8070      	strh	r0, [r6, #2]
 800c662:	1cbe      	adds	r6, r7, #2
 800c664:	1e55      	subs	r5, r2, #1
 800c666:	f104 0b04 	add.w	fp, r4, #4
 800c66a:	9b09      	ldr	r3, [sp, #36]	; 0x24
 800c66c:	d1eb      	bne.n	800c646 <GUI_MEMDEV__WriteToActiveOpaque+0xaee>
 800c66e:	4644      	mov	r4, r8
 800c670:	46d0      	mov	r8, sl
 800c672:	469a      	mov	sl, r3
 800c674:	980d      	ldr	r0, [sp, #52]	; 0x34
 800c676:	4480      	add	r8, r0
 800c678:	e7b2      	b.n	800c5e0 <GUI_MEMDEV__WriteToActiveOpaque+0xa88>
 800c67a:	46c3      	mov	fp, r8
 800c67c:	9f1d      	ldr	r7, [sp, #116]	; 0x74
 800c67e:	f85b 0b04 	ldr.w	r0, [fp], #4
 800c682:	47a0      	blx	r4
 800c684:	463e      	mov	r6, r7
 800c686:	f10a 3cff 	add.w	ip, sl, #4294967295
 800c68a:	4665      	mov	r5, ip
 800c68c:	f00c 0301 	and.w	r3, ip, #1
 800c690:	f806 0b01 	strb.w	r0, [r6], #1
 800c694:	b305      	cbz	r5, 800c6d8 <GUI_MEMDEV__WriteToActiveOpaque+0xb80>
 800c696:	b133      	cbz	r3, 800c6a6 <GUI_MEMDEV__WriteToActiveOpaque+0xb4e>
 800c698:	f85b 0b04 	ldr.w	r0, [fp], #4
 800c69c:	47a0      	blx	r4
 800c69e:	3601      	adds	r6, #1
 800c6a0:	3d01      	subs	r5, #1
 800c6a2:	7078      	strb	r0, [r7, #1]
 800c6a4:	d018      	beq.n	800c6d8 <GUI_MEMDEV__WriteToActiveOpaque+0xb80>
 800c6a6:	4652      	mov	r2, sl
 800c6a8:	46c2      	mov	sl, r8
 800c6aa:	46a0      	mov	r8, r4
 800c6ac:	465c      	mov	r4, fp
 800c6ae:	4637      	mov	r7, r6
 800c6b0:	f854 0b04 	ldr.w	r0, [r4], #4
 800c6b4:	9208      	str	r2, [sp, #32]
 800c6b6:	47c0      	blx	r8
 800c6b8:	f807 0b01 	strb.w	r0, [r7], #1
 800c6bc:	f8db 0004 	ldr.w	r0, [fp, #4]
 800c6c0:	47c0      	blx	r8
 800c6c2:	1e69      	subs	r1, r5, #1
 800c6c4:	7070      	strb	r0, [r6, #1]
 800c6c6:	1c7e      	adds	r6, r7, #1
 800c6c8:	1e4d      	subs	r5, r1, #1
 800c6ca:	f104 0b04 	add.w	fp, r4, #4
 800c6ce:	9a08      	ldr	r2, [sp, #32]
 800c6d0:	d1ec      	bne.n	800c6ac <GUI_MEMDEV__WriteToActiveOpaque+0xb54>
 800c6d2:	4644      	mov	r4, r8
 800c6d4:	46d0      	mov	r8, sl
 800c6d6:	4692      	mov	sl, r2
 800c6d8:	980d      	ldr	r0, [sp, #52]	; 0x34
 800c6da:	4480      	add	r8, r0
 800c6dc:	e780      	b.n	800c5e0 <GUI_MEMDEV__WriteToActiveOpaque+0xa88>
 800c6de:	46c3      	mov	fp, r8
 800c6e0:	9f1d      	ldr	r7, [sp, #116]	; 0x74
 800c6e2:	f85b 0b04 	ldr.w	r0, [fp], #4
 800c6e6:	47a0      	blx	r4
 800c6e8:	463e      	mov	r6, r7
 800c6ea:	f10a 3eff 	add.w	lr, sl, #4294967295
 800c6ee:	4675      	mov	r5, lr
 800c6f0:	f00e 0301 	and.w	r3, lr, #1
 800c6f4:	f846 0b04 	str.w	r0, [r6], #4
 800c6f8:	b305      	cbz	r5, 800c73c <GUI_MEMDEV__WriteToActiveOpaque+0xbe4>
 800c6fa:	b133      	cbz	r3, 800c70a <GUI_MEMDEV__WriteToActiveOpaque+0xbb2>
 800c6fc:	f85b 0b04 	ldr.w	r0, [fp], #4
 800c700:	47a0      	blx	r4
 800c702:	3604      	adds	r6, #4
 800c704:	3d01      	subs	r5, #1
 800c706:	6078      	str	r0, [r7, #4]
 800c708:	d018      	beq.n	800c73c <GUI_MEMDEV__WriteToActiveOpaque+0xbe4>
 800c70a:	4652      	mov	r2, sl
 800c70c:	46c2      	mov	sl, r8
 800c70e:	46a0      	mov	r8, r4
 800c710:	465c      	mov	r4, fp
 800c712:	4637      	mov	r7, r6
 800c714:	f854 0b04 	ldr.w	r0, [r4], #4
 800c718:	9208      	str	r2, [sp, #32]
 800c71a:	47c0      	blx	r8
 800c71c:	f847 0b04 	str.w	r0, [r7], #4
 800c720:	f8db 0004 	ldr.w	r0, [fp, #4]
 800c724:	47c0      	blx	r8
 800c726:	1e69      	subs	r1, r5, #1
 800c728:	6070      	str	r0, [r6, #4]
 800c72a:	1d3e      	adds	r6, r7, #4
 800c72c:	1e4d      	subs	r5, r1, #1
 800c72e:	f104 0b04 	add.w	fp, r4, #4
 800c732:	9a08      	ldr	r2, [sp, #32]
 800c734:	d1ec      	bne.n	800c710 <GUI_MEMDEV__WriteToActiveOpaque+0xbb8>
 800c736:	4644      	mov	r4, r8
 800c738:	46d0      	mov	r8, sl
 800c73a:	4692      	mov	sl, r2
 800c73c:	980d      	ldr	r0, [sp, #52]	; 0x34
 800c73e:	4480      	add	r8, r0
 800c740:	e74e      	b.n	800c5e0 <GUI_MEMDEV__WriteToActiveOpaque+0xa88>
 800c742:	f8dd b030 	ldr.w	fp, [sp, #48]	; 0x30
 800c746:	e5b7      	b.n	800c2b8 <GUI_MEMDEV__WriteToActiveOpaque+0x760>
 800c748:	f8dd e028 	ldr.w	lr, [sp, #40]	; 0x28
 800c74c:	f10e 3cff 	add.w	ip, lr, #4294967295
 800c750:	f01c 0f01 	tst.w	ip, #1
 800c754:	f000 80c2 	beq.w	800c8dc <GUI_MEMDEV__WriteToActiveOpaque+0xd84>
 800c758:	4640      	mov	r0, r8
 800c75a:	464b      	mov	r3, r9
 800c75c:	f8cd c020 	str.w	ip, [sp, #32]
 800c760:	991d      	ldr	r1, [sp, #116]	; 0x74
 800c762:	4652      	mov	r2, sl
 800c764:	47a8      	blx	r5
 800c766:	9b0b      	ldr	r3, [sp, #44]	; 0x2c
 800c768:	9a1d      	ldr	r2, [sp, #116]	; 0x74
 800c76a:	990e      	ldr	r1, [sp, #56]	; 0x38
 800c76c:	9302      	str	r3, [sp, #8]
 800c76e:	9204      	str	r2, [sp, #16]
 800c770:	9600      	str	r6, [sp, #0]
 800c772:	9601      	str	r6, [sp, #4]
 800c774:	9703      	str	r7, [sp, #12]
 800c776:	9705      	str	r7, [sp, #20]
 800c778:	9812      	ldr	r0, [sp, #72]	; 0x48
 800c77a:	f8dd 9030 	ldr.w	r9, [sp, #48]	; 0x30
 800c77e:	4652      	mov	r2, sl
 800c780:	4633      	mov	r3, r6
 800c782:	1c4d      	adds	r5, r1, #1
 800c784:	f7fe fc06 	bl	800af94 <LCD_DrawBitmap>
 800c788:	f8dd c020 	ldr.w	ip, [sp, #32]
 800c78c:	950e      	str	r5, [sp, #56]	; 0x38
 800c78e:	44c8      	add	r8, r9
 800c790:	f8cd c028 	str.w	ip, [sp, #40]	; 0x28
 800c794:	46a9      	mov	r9, r5
 800c796:	e01c      	b.n	800c7d2 <GUI_MEMDEV__WriteToActiveOpaque+0xc7a>
 800c798:	f8cd c020 	str.w	ip, [sp, #32]
 800c79c:	991d      	ldr	r1, [sp, #116]	; 0x74
 800c79e:	6925      	ldr	r5, [r4, #16]
 800c7a0:	47a8      	blx	r5
 800c7a2:	990b      	ldr	r1, [sp, #44]	; 0x2c
 800c7a4:	981d      	ldr	r0, [sp, #116]	; 0x74
 800c7a6:	9102      	str	r1, [sp, #8]
 800c7a8:	9004      	str	r0, [sp, #16]
 800c7aa:	4649      	mov	r1, r9
 800c7ac:	9600      	str	r6, [sp, #0]
 800c7ae:	9601      	str	r6, [sp, #4]
 800c7b0:	9703      	str	r7, [sp, #12]
 800c7b2:	9705      	str	r7, [sp, #20]
 800c7b4:	9812      	ldr	r0, [sp, #72]	; 0x48
 800c7b6:	9d0c      	ldr	r5, [sp, #48]	; 0x30
 800c7b8:	4652      	mov	r2, sl
 800c7ba:	2301      	movs	r3, #1
 800c7bc:	f7fe fbea 	bl	800af94 <LCD_DrawBitmap>
 800c7c0:	f8dd c020 	ldr.w	ip, [sp, #32]
 800c7c4:	f10c 3cff 	add.w	ip, ip, #4294967295
 800c7c8:	44a8      	add	r8, r5
 800c7ca:	f8cd c028 	str.w	ip, [sp, #40]	; 0x28
 800c7ce:	f109 0901 	add.w	r9, r9, #1
 800c7d2:	4640      	mov	r0, r8
 800c7d4:	2304      	movs	r3, #4
 800c7d6:	991d      	ldr	r1, [sp, #116]	; 0x74
 800c7d8:	6925      	ldr	r5, [r4, #16]
 800c7da:	4652      	mov	r2, sl
 800c7dc:	47a8      	blx	r5
 800c7de:	9d1d      	ldr	r5, [sp, #116]	; 0x74
 800c7e0:	9b0b      	ldr	r3, [sp, #44]	; 0x2c
 800c7e2:	9504      	str	r5, [sp, #16]
 800c7e4:	9d0c      	ldr	r5, [sp, #48]	; 0x30
 800c7e6:	9812      	ldr	r0, [sp, #72]	; 0x48
 800c7e8:	9302      	str	r3, [sp, #8]
 800c7ea:	4649      	mov	r1, r9
 800c7ec:	2301      	movs	r3, #1
 800c7ee:	4652      	mov	r2, sl
 800c7f0:	9600      	str	r6, [sp, #0]
 800c7f2:	9601      	str	r6, [sp, #4]
 800c7f4:	9703      	str	r7, [sp, #12]
 800c7f6:	9705      	str	r7, [sp, #20]
 800c7f8:	44a8      	add	r8, r5
 800c7fa:	4499      	add	r9, r3
 800c7fc:	f7fe fbca 	bl	800af94 <LCD_DrawBitmap>
 800c800:	9d0a      	ldr	r5, [sp, #40]	; 0x28
 800c802:	2304      	movs	r3, #4
 800c804:	f1b5 0c01 	subs.w	ip, r5, #1
 800c808:	4640      	mov	r0, r8
 800c80a:	4652      	mov	r2, sl
 800c80c:	d1c4      	bne.n	800c798 <GUI_MEMDEV__WriteToActiveOpaque+0xc40>
 800c80e:	e553      	b.n	800c2b8 <GUI_MEMDEV__WriteToActiveOpaque+0x760>
 800c810:	f8dd e028 	ldr.w	lr, [sp, #40]	; 0x28
 800c814:	f10e 3cff 	add.w	ip, lr, #4294967295
 800c818:	f01c 0f01 	tst.w	ip, #1
 800c81c:	d13e      	bne.n	800c89c <GUI_MEMDEV__WriteToActiveOpaque+0xd44>
 800c81e:	f8dd 9038 	ldr.w	r9, [sp, #56]	; 0x38
 800c822:	e01c      	b.n	800c85e <GUI_MEMDEV__WriteToActiveOpaque+0xd06>
 800c824:	f8cd c020 	str.w	ip, [sp, #32]
 800c828:	991d      	ldr	r1, [sp, #116]	; 0x74
 800c82a:	6925      	ldr	r5, [r4, #16]
 800c82c:	47a8      	blx	r5
 800c82e:	990b      	ldr	r1, [sp, #44]	; 0x2c
 800c830:	9a1d      	ldr	r2, [sp, #116]	; 0x74
 800c832:	9102      	str	r1, [sp, #8]
 800c834:	9204      	str	r2, [sp, #16]
 800c836:	4649      	mov	r1, r9
 800c838:	2301      	movs	r3, #1
 800c83a:	9600      	str	r6, [sp, #0]
 800c83c:	9601      	str	r6, [sp, #4]
 800c83e:	9703      	str	r7, [sp, #12]
 800c840:	9705      	str	r7, [sp, #20]
 800c842:	9812      	ldr	r0, [sp, #72]	; 0x48
 800c844:	4652      	mov	r2, sl
 800c846:	f7fe fba5 	bl	800af94 <LCD_DrawBitmap>
 800c84a:	f8dd c020 	ldr.w	ip, [sp, #32]
 800c84e:	9b0c      	ldr	r3, [sp, #48]	; 0x30
 800c850:	f10c 3cff 	add.w	ip, ip, #4294967295
 800c854:	4498      	add	r8, r3
 800c856:	f8cd c028 	str.w	ip, [sp, #40]	; 0x28
 800c85a:	f109 0901 	add.w	r9, r9, #1
 800c85e:	4640      	mov	r0, r8
 800c860:	2302      	movs	r3, #2
 800c862:	991d      	ldr	r1, [sp, #116]	; 0x74
 800c864:	6925      	ldr	r5, [r4, #16]
 800c866:	4652      	mov	r2, sl
 800c868:	47a8      	blx	r5
 800c86a:	9d0b      	ldr	r5, [sp, #44]	; 0x2c
 800c86c:	9812      	ldr	r0, [sp, #72]	; 0x48
 800c86e:	9502      	str	r5, [sp, #8]
 800c870:	9d1d      	ldr	r5, [sp, #116]	; 0x74
 800c872:	9600      	str	r6, [sp, #0]
 800c874:	9504      	str	r5, [sp, #16]
 800c876:	9d0c      	ldr	r5, [sp, #48]	; 0x30
 800c878:	9601      	str	r6, [sp, #4]
 800c87a:	2301      	movs	r3, #1
 800c87c:	4649      	mov	r1, r9
 800c87e:	4652      	mov	r2, sl
 800c880:	9703      	str	r7, [sp, #12]
 800c882:	9705      	str	r7, [sp, #20]
 800c884:	44a8      	add	r8, r5
 800c886:	4499      	add	r9, r3
 800c888:	f7fe fb84 	bl	800af94 <LCD_DrawBitmap>
 800c88c:	9d0a      	ldr	r5, [sp, #40]	; 0x28
 800c88e:	2302      	movs	r3, #2
 800c890:	f1b5 0c01 	subs.w	ip, r5, #1
 800c894:	4640      	mov	r0, r8
 800c896:	4652      	mov	r2, sl
 800c898:	d1c4      	bne.n	800c824 <GUI_MEMDEV__WriteToActiveOpaque+0xccc>
 800c89a:	e50d      	b.n	800c2b8 <GUI_MEMDEV__WriteToActiveOpaque+0x760>
 800c89c:	4640      	mov	r0, r8
 800c89e:	464b      	mov	r3, r9
 800c8a0:	f8cd c020 	str.w	ip, [sp, #32]
 800c8a4:	991d      	ldr	r1, [sp, #116]	; 0x74
 800c8a6:	4652      	mov	r2, sl
 800c8a8:	47a8      	blx	r5
 800c8aa:	9b0b      	ldr	r3, [sp, #44]	; 0x2c
 800c8ac:	981d      	ldr	r0, [sp, #116]	; 0x74
 800c8ae:	990e      	ldr	r1, [sp, #56]	; 0x38
 800c8b0:	9302      	str	r3, [sp, #8]
 800c8b2:	9004      	str	r0, [sp, #16]
 800c8b4:	9600      	str	r6, [sp, #0]
 800c8b6:	9601      	str	r6, [sp, #4]
 800c8b8:	9703      	str	r7, [sp, #12]
 800c8ba:	9705      	str	r7, [sp, #20]
 800c8bc:	9812      	ldr	r0, [sp, #72]	; 0x48
 800c8be:	f8dd 9030 	ldr.w	r9, [sp, #48]	; 0x30
 800c8c2:	4652      	mov	r2, sl
 800c8c4:	4633      	mov	r3, r6
 800c8c6:	1c4d      	adds	r5, r1, #1
 800c8c8:	f7fe fb64 	bl	800af94 <LCD_DrawBitmap>
 800c8cc:	f8dd c020 	ldr.w	ip, [sp, #32]
 800c8d0:	950e      	str	r5, [sp, #56]	; 0x38
 800c8d2:	44c8      	add	r8, r9
 800c8d4:	f8cd c028 	str.w	ip, [sp, #40]	; 0x28
 800c8d8:	46a9      	mov	r9, r5
 800c8da:	e7c0      	b.n	800c85e <GUI_MEMDEV__WriteToActiveOpaque+0xd06>
 800c8dc:	f8dd 9038 	ldr.w	r9, [sp, #56]	; 0x38
 800c8e0:	e777      	b.n	800c7d2 <GUI_MEMDEV__WriteToActiveOpaque+0xc7a>
 800c8e2:	f7fc f8a9 	bl	8008a38 <GUI_ALLOC_LockH>
 800c8e6:	901c      	str	r0, [sp, #112]	; 0x70
 800c8e8:	2800      	cmp	r0, #0
 800c8ea:	f43f aa59 	beq.w	800bda0 <GUI_MEMDEV__WriteToActiveOpaque+0x248>
 800c8ee:	9e0a      	ldr	r6, [sp, #40]	; 0x28
 800c8f0:	07f2      	lsls	r2, r6, #31
 800c8f2:	ea4f 074a 	mov.w	r7, sl, lsl #1
 800c8f6:	d576      	bpl.n	800c9e6 <GUI_MEMDEV__WriteToActiveOpaque+0xe8e>
 800c8f8:	462e      	mov	r6, r5
 800c8fa:	f8cd b034 	str.w	fp, [sp, #52]	; 0x34
 800c8fe:	f1b9 0f02 	cmp.w	r9, #2
 800c902:	d03d      	beq.n	800c980 <GUI_MEMDEV__WriteToActiveOpaque+0xe28>
 800c904:	f1b9 0f04 	cmp.w	r9, #4
 800c908:	d04b      	beq.n	800c9a2 <GUI_MEMDEV__WriteToActiveOpaque+0xe4a>
 800c90a:	f1b9 0f01 	cmp.w	r9, #1
 800c90e:	d048      	beq.n	800c9a2 <GUI_MEMDEV__WriteToActiveOpaque+0xe4a>
 800c910:	2100      	movs	r1, #0
 800c912:	2301      	movs	r3, #1
 800c914:	980b      	ldr	r0, [sp, #44]	; 0x2c
 800c916:	9a1d      	ldr	r2, [sp, #116]	; 0x74
 800c918:	9103      	str	r1, [sp, #12]
 800c91a:	9105      	str	r1, [sp, #20]
 800c91c:	990e      	ldr	r1, [sp, #56]	; 0x38
 800c91e:	9300      	str	r3, [sp, #0]
 800c920:	9301      	str	r3, [sp, #4]
 800c922:	2301      	movs	r3, #1
 800c924:	18cd      	adds	r5, r1, r3
 800c926:	9002      	str	r0, [sp, #8]
 800c928:	9204      	str	r2, [sp, #16]
 800c92a:	9812      	ldr	r0, [sp, #72]	; 0x48
 800c92c:	950e      	str	r5, [sp, #56]	; 0x38
 800c92e:	4652      	mov	r2, sl
 800c930:	f7fe fb30 	bl	800af94 <LCD_DrawBitmap>
 800c934:	9b0a      	ldr	r3, [sp, #40]	; 0x28
 800c936:	1e5d      	subs	r5, r3, #1
 800c938:	950a      	str	r5, [sp, #40]	; 0x28
 800c93a:	d04a      	beq.n	800c9d2 <GUI_MEMDEV__WriteToActiveOpaque+0xe7a>
 800c93c:	f1b9 0f02 	cmp.w	r9, #2
 800c940:	d074      	beq.n	800ca2c <GUI_MEMDEV__WriteToActiveOpaque+0xed4>
 800c942:	f1b9 0f04 	cmp.w	r9, #4
 800c946:	d033      	beq.n	800c9b0 <GUI_MEMDEV__WriteToActiveOpaque+0xe58>
 800c948:	f1b9 0f01 	cmp.w	r9, #1
 800c94c:	d030      	beq.n	800c9b0 <GUI_MEMDEV__WriteToActiveOpaque+0xe58>
 800c94e:	990b      	ldr	r1, [sp, #44]	; 0x2c
 800c950:	9b1d      	ldr	r3, [sp, #116]	; 0x74
 800c952:	9102      	str	r1, [sp, #8]
 800c954:	2001      	movs	r0, #1
 800c956:	2200      	movs	r2, #0
 800c958:	9000      	str	r0, [sp, #0]
 800c95a:	9001      	str	r0, [sp, #4]
 800c95c:	9203      	str	r2, [sp, #12]
 800c95e:	9304      	str	r3, [sp, #16]
 800c960:	9205      	str	r2, [sp, #20]
 800c962:	9812      	ldr	r0, [sp, #72]	; 0x48
 800c964:	990e      	ldr	r1, [sp, #56]	; 0x38
 800c966:	4652      	mov	r2, sl
 800c968:	2301      	movs	r3, #1
 800c96a:	f7fe fb13 	bl	800af94 <LCD_DrawBitmap>
 800c96e:	9d0a      	ldr	r5, [sp, #40]	; 0x28
 800c970:	990e      	ldr	r1, [sp, #56]	; 0x38
 800c972:	1e68      	subs	r0, r5, #1
 800c974:	1c4a      	adds	r2, r1, #1
 800c976:	f1b9 0f02 	cmp.w	r9, #2
 800c97a:	900a      	str	r0, [sp, #40]	; 0x28
 800c97c:	920e      	str	r2, [sp, #56]	; 0x38
 800c97e:	d1c1      	bne.n	800c904 <GUI_MEMDEV__WriteToActiveOpaque+0xdac>
 800c980:	f8dd b074 	ldr.w	fp, [sp, #116]	; 0x74
 800c984:	991c      	ldr	r1, [sp, #112]	; 0x70
 800c986:	4630      	mov	r0, r6
 800c988:	4652      	mov	r2, sl
 800c98a:	464b      	mov	r3, r9
 800c98c:	f8d8 5014 	ldr.w	r5, [r8, #20]
 800c990:	47a8      	blx	r5
 800c992:	981c      	ldr	r0, [sp, #112]	; 0x70
 800c994:	6925      	ldr	r5, [r4, #16]
 800c996:	4659      	mov	r1, fp
 800c998:	4652      	mov	r2, sl
 800c99a:	464b      	mov	r3, r9
 800c99c:	47a8      	blx	r5
 800c99e:	19f6      	adds	r6, r6, r7
 800c9a0:	e7b6      	b.n	800c910 <GUI_MEMDEV__WriteToActiveOpaque+0xdb8>
 800c9a2:	f8dd b074 	ldr.w	fp, [sp, #116]	; 0x74
 800c9a6:	991c      	ldr	r1, [sp, #112]	; 0x70
 800c9a8:	4630      	mov	r0, r6
 800c9aa:	4652      	mov	r2, sl
 800c9ac:	2302      	movs	r3, #2
 800c9ae:	e7ed      	b.n	800c98c <GUI_MEMDEV__WriteToActiveOpaque+0xe34>
 800c9b0:	f8dd b074 	ldr.w	fp, [sp, #116]	; 0x74
 800c9b4:	991c      	ldr	r1, [sp, #112]	; 0x70
 800c9b6:	4630      	mov	r0, r6
 800c9b8:	4652      	mov	r2, sl
 800c9ba:	2302      	movs	r3, #2
 800c9bc:	f8d8 5014 	ldr.w	r5, [r8, #20]
 800c9c0:	47a8      	blx	r5
 800c9c2:	981c      	ldr	r0, [sp, #112]	; 0x70
 800c9c4:	6925      	ldr	r5, [r4, #16]
 800c9c6:	4659      	mov	r1, fp
 800c9c8:	4652      	mov	r2, sl
 800c9ca:	464b      	mov	r3, r9
 800c9cc:	47a8      	blx	r5
 800c9ce:	19f6      	adds	r6, r6, r7
 800c9d0:	e7bd      	b.n	800c94e <GUI_MEMDEV__WriteToActiveOpaque+0xdf6>
 800c9d2:	a81c      	add	r0, sp, #112	; 0x70
 800c9d4:	f8dd b034 	ldr.w	fp, [sp, #52]	; 0x34
 800c9d8:	f7fc f840 	bl	8008a5c <GUI_ALLOC_UnlockH>
 800c9dc:	980c      	ldr	r0, [sp, #48]	; 0x30
 800c9de:	f7fc f871 	bl	8008ac4 <GUI_ALLOC_Free>
 800c9e2:	f7ff b9dd 	b.w	800bda0 <GUI_MEMDEV__WriteToActiveOpaque+0x248>
 800c9e6:	f1b9 0f02 	cmp.w	r9, #2
 800c9ea:	d03a      	beq.n	800ca62 <GUI_MEMDEV__WriteToActiveOpaque+0xf0a>
 800c9ec:	f1b9 0f04 	cmp.w	r9, #4
 800c9f0:	d023      	beq.n	800ca3a <GUI_MEMDEV__WriteToActiveOpaque+0xee2>
 800c9f2:	f1b9 0f01 	cmp.w	r9, #1
 800c9f6:	d020      	beq.n	800ca3a <GUI_MEMDEV__WriteToActiveOpaque+0xee2>
 800c9f8:	990e      	ldr	r1, [sp, #56]	; 0x38
 800c9fa:	980b      	ldr	r0, [sp, #44]	; 0x2c
 800c9fc:	9b1d      	ldr	r3, [sp, #116]	; 0x74
 800c9fe:	9002      	str	r0, [sp, #8]
 800ca00:	2201      	movs	r2, #1
 800ca02:	188e      	adds	r6, r1, r2
 800ca04:	9200      	str	r2, [sp, #0]
 800ca06:	9201      	str	r2, [sp, #4]
 800ca08:	2000      	movs	r0, #0
 800ca0a:	2200      	movs	r2, #0
 800ca0c:	9203      	str	r2, [sp, #12]
 800ca0e:	9304      	str	r3, [sp, #16]
 800ca10:	9005      	str	r0, [sp, #20]
 800ca12:	4652      	mov	r2, sl
 800ca14:	9812      	ldr	r0, [sp, #72]	; 0x48
 800ca16:	2301      	movs	r3, #1
 800ca18:	f7fe fabc 	bl	800af94 <LCD_DrawBitmap>
 800ca1c:	990a      	ldr	r1, [sp, #40]	; 0x28
 800ca1e:	960e      	str	r6, [sp, #56]	; 0x38
 800ca20:	1e4a      	subs	r2, r1, #1
 800ca22:	920a      	str	r2, [sp, #40]	; 0x28
 800ca24:	462e      	mov	r6, r5
 800ca26:	f8cd b034 	str.w	fp, [sp, #52]	; 0x34
 800ca2a:	e768      	b.n	800c8fe <GUI_MEMDEV__WriteToActiveOpaque+0xda6>
 800ca2c:	f8dd b074 	ldr.w	fp, [sp, #116]	; 0x74
 800ca30:	991c      	ldr	r1, [sp, #112]	; 0x70
 800ca32:	4630      	mov	r0, r6
 800ca34:	4652      	mov	r2, sl
 800ca36:	464b      	mov	r3, r9
 800ca38:	e7c0      	b.n	800c9bc <GUI_MEMDEV__WriteToActiveOpaque+0xe64>
 800ca3a:	9b1d      	ldr	r3, [sp, #116]	; 0x74
 800ca3c:	991c      	ldr	r1, [sp, #112]	; 0x70
 800ca3e:	930d      	str	r3, [sp, #52]	; 0x34
 800ca40:	4628      	mov	r0, r5
 800ca42:	4652      	mov	r2, sl
 800ca44:	2302      	movs	r3, #2
 800ca46:	f8d8 6014 	ldr.w	r6, [r8, #20]
 800ca4a:	47b0      	blx	r6
 800ca4c:	981c      	ldr	r0, [sp, #112]	; 0x70
 800ca4e:	990d      	ldr	r1, [sp, #52]	; 0x34
 800ca50:	6926      	ldr	r6, [r4, #16]
 800ca52:	4652      	mov	r2, sl
 800ca54:	464b      	mov	r3, r9
 800ca56:	47b0      	blx	r6
 800ca58:	19ed      	adds	r5, r5, r7
 800ca5a:	e7cd      	b.n	800c9f8 <GUI_MEMDEV__WriteToActiveOpaque+0xea0>
 800ca5c:	f8dd 9038 	ldr.w	r9, [sp, #56]	; 0x38
 800ca60:	e593      	b.n	800c58a <GUI_MEMDEV__WriteToActiveOpaque+0xa32>
 800ca62:	981d      	ldr	r0, [sp, #116]	; 0x74
 800ca64:	991c      	ldr	r1, [sp, #112]	; 0x70
 800ca66:	900d      	str	r0, [sp, #52]	; 0x34
 800ca68:	4652      	mov	r2, sl
 800ca6a:	4628      	mov	r0, r5
 800ca6c:	2302      	movs	r3, #2
 800ca6e:	f8d8 6014 	ldr.w	r6, [r8, #20]
 800ca72:	47b0      	blx	r6
 800ca74:	981c      	ldr	r0, [sp, #112]	; 0x70
 800ca76:	990d      	ldr	r1, [sp, #52]	; 0x34
 800ca78:	6926      	ldr	r6, [r4, #16]
 800ca7a:	4652      	mov	r2, sl
 800ca7c:	2302      	movs	r3, #2
 800ca7e:	47b0      	blx	r6
 800ca80:	19ed      	adds	r5, r5, r7
 800ca82:	e7b9      	b.n	800c9f8 <GUI_MEMDEV__WriteToActiveOpaque+0xea0>

0800ca84 <GUI_USAGE_AddRect>:
 800ca84:	e92d 43f8 	stmdb	sp!, {r3, r4, r5, r6, r7, r8, r9, lr}
 800ca88:	9f08      	ldr	r7, [sp, #32]
 800ca8a:	6886      	ldr	r6, [r0, #8]
 800ca8c:	3f01      	subs	r7, #1
 800ca8e:	f8d6 c004 	ldr.w	ip, [r6, #4]
 800ca92:	463e      	mov	r6, r7
 800ca94:	4604      	mov	r4, r0
 800ca96:	1c55      	adds	r5, r2, #1
 800ca98:	4689      	mov	r9, r1
 800ca9a:	4698      	mov	r8, r3
 800ca9c:	f007 0701 	and.w	r7, r7, #1
 800caa0:	47e0      	blx	ip
 800caa2:	b306      	cbz	r6, 800cae6 <GUI_USAGE_AddRect+0x62>
 800caa4:	b157      	cbz	r7, 800cabc <GUI_USAGE_AddRect+0x38>
 800caa6:	68a3      	ldr	r3, [r4, #8]
 800caa8:	1c6f      	adds	r7, r5, #1
 800caaa:	462a      	mov	r2, r5
 800caac:	4620      	mov	r0, r4
 800caae:	685d      	ldr	r5, [r3, #4]
 800cab0:	4649      	mov	r1, r9
 800cab2:	4643      	mov	r3, r8
 800cab4:	47a8      	blx	r5
 800cab6:	3e01      	subs	r6, #1
 800cab8:	463d      	mov	r5, r7
 800caba:	d016      	beq.n	800caea <GUI_USAGE_AddRect+0x66>
 800cabc:	68a7      	ldr	r7, [r4, #8]
 800cabe:	462a      	mov	r2, r5
 800cac0:	4620      	mov	r0, r4
 800cac2:	4649      	mov	r1, r9
 800cac4:	4643      	mov	r3, r8
 800cac6:	687f      	ldr	r7, [r7, #4]
 800cac8:	47b8      	blx	r7
 800caca:	68a1      	ldr	r1, [r4, #8]
 800cacc:	3501      	adds	r5, #1
 800cace:	684f      	ldr	r7, [r1, #4]
 800cad0:	462a      	mov	r2, r5
 800cad2:	4620      	mov	r0, r4
 800cad4:	4649      	mov	r1, r9
 800cad6:	4643      	mov	r3, r8
 800cad8:	3e01      	subs	r6, #1
 800cada:	47b8      	blx	r7
 800cadc:	3501      	adds	r5, #1
 800cade:	3e01      	subs	r6, #1
 800cae0:	d1ec      	bne.n	800cabc <GUI_USAGE_AddRect+0x38>
 800cae2:	e8bd 83f8 	ldmia.w	sp!, {r3, r4, r5, r6, r7, r8, r9, pc}
 800cae6:	e8bd 83f8 	ldmia.w	sp!, {r3, r4, r5, r6, r7, r8, r9, pc}
 800caea:	e8bd 83f8 	ldmia.w	sp!, {r3, r4, r5, r6, r7, r8, r9, pc}
 800caee:	bf00      	nop

0800caf0 <GUI_MEMDEV_GetDataPtr>:
 800caf0:	b510      	push	{r4, lr}
 800caf2:	4604      	mov	r4, r0
 800caf4:	b082      	sub	sp, #8
 800caf6:	b148      	cbz	r0, 800cb0c <GUI_MEMDEV_GetDataPtr+0x1c>
 800caf8:	f7fb ff9e 	bl	8008a38 <GUI_ALLOC_LockH>
 800cafc:	4604      	mov	r4, r0
 800cafe:	a802      	add	r0, sp, #8
 800cb00:	f840 4d04 	str.w	r4, [r0, #-4]!
 800cb04:	f7fb ffaa 	bl	8008a5c <GUI_ALLOC_UnlockH>
 800cb08:	f104 0018 	add.w	r0, r4, #24
 800cb0c:	b002      	add	sp, #8
 800cb0e:	bd10      	pop	{r4, pc}

0800cb10 <GUI_MEMDEV_GetBitsPerPixel>:
 800cb10:	b530      	push	{r4, r5, lr}
 800cb12:	4604      	mov	r4, r0
 800cb14:	b083      	sub	sp, #12
 800cb16:	b170      	cbz	r0, 800cb36 <GUI_MEMDEV_GetBitsPerPixel+0x26>
 800cb18:	f7fb ff8e 	bl	8008a38 <GUI_ALLOC_LockH>
 800cb1c:	ad02      	add	r5, sp, #8
 800cb1e:	6803      	ldr	r3, [r0, #0]
 800cb20:	f845 0d04 	str.w	r0, [r5, #-4]!
 800cb24:	6918      	ldr	r0, [r3, #16]
 800cb26:	6881      	ldr	r1, [r0, #8]
 800cb28:	4788      	blx	r1
 800cb2a:	f000 f881 	bl	800cc30 <LCD__GetBPPDevice>
 800cb2e:	4604      	mov	r4, r0
 800cb30:	4628      	mov	r0, r5
 800cb32:	f7fb ff93 	bl	8008a5c <GUI_ALLOC_UnlockH>
 800cb36:	4620      	mov	r0, r4
 800cb38:	b003      	add	sp, #12
 800cb3a:	bd30      	pop	{r4, r5, pc}

0800cb3c <LCD_UpdateColorIndices>:
 800cb3c:	b510      	push	{r4, lr}
 800cb3e:	f648 0408 	movw	r4, #34824	; 0x8808
 800cb42:	f6c1 74fe 	movt	r4, #8190	; 0x1ffe
 800cb46:	6823      	ldr	r3, [r4, #0]
 800cb48:	6b18      	ldr	r0, [r3, #48]	; 0x30
 800cb4a:	f7fe fd8b 	bl	800b664 <LCD_Color2Index>
 800cb4e:	f7fe fdad 	bl	800b6ac <LCD_SetColorIndex>
 800cb52:	6820      	ldr	r0, [r4, #0]
 800cb54:	6b40      	ldr	r0, [r0, #52]	; 0x34
 800cb56:	f7fe fd85 	bl	800b664 <LCD_Color2Index>
 800cb5a:	e8bd 4010 	ldmia.w	sp!, {r4, lr}
 800cb5e:	f7fe bdb5 	b.w	800b6cc <LCD_SetBkColorIndex>
 800cb62:	bf00      	nop

0800cb64 <LCD_GetNumLayers>:
 800cb64:	b508      	push	{r3, lr}
 800cb66:	2000      	movs	r0, #0
 800cb68:	f7fa fb50 	bl	800720c <GUI_DEVICE__GetpDriver>
 800cb6c:	3000      	adds	r0, #0
 800cb6e:	bf18      	it	ne
 800cb70:	2001      	movne	r0, #1
 800cb72:	bd08      	pop	{r3, pc}

0800cb74 <LCD_GetBitsPerPixelEx>:
 800cb74:	2800      	cmp	r0, #0
 800cb76:	b508      	push	{r3, lr}
 800cb78:	dd01      	ble.n	800cb7e <LCD_GetBitsPerPixelEx+0xa>
 800cb7a:	2000      	movs	r0, #0
 800cb7c:	bd08      	pop	{r3, pc}
 800cb7e:	f7fa fb45 	bl	800720c <GUI_DEVICE__GetpDriver>
 800cb82:	b120      	cbz	r0, 800cb8e <LCD_GetBitsPerPixelEx+0x1a>
 800cb84:	68c2      	ldr	r2, [r0, #12]
 800cb86:	2108      	movs	r1, #8
 800cb88:	6a93      	ldr	r3, [r2, #40]	; 0x28
 800cb8a:	4798      	blx	r3
 800cb8c:	bd08      	pop	{r3, pc}
 800cb8e:	bd08      	pop	{r3, pc}

0800cb90 <LCD_GetNumColorsEx>:
 800cb90:	2800      	cmp	r0, #0
 800cb92:	b508      	push	{r3, lr}
 800cb94:	dd01      	ble.n	800cb9a <LCD_GetNumColorsEx+0xa>
 800cb96:	2000      	movs	r0, #0
 800cb98:	bd08      	pop	{r3, pc}
 800cb9a:	f7fa fb37 	bl	800720c <GUI_DEVICE__GetpDriver>
 800cb9e:	b120      	cbz	r0, 800cbaa <LCD_GetNumColorsEx+0x1a>
 800cba0:	68c2      	ldr	r2, [r0, #12]
 800cba2:	2109      	movs	r1, #9
 800cba4:	6a93      	ldr	r3, [r2, #40]	; 0x28
 800cba6:	4798      	blx	r3
 800cba8:	bd08      	pop	{r3, pc}
 800cbaa:	bd08      	pop	{r3, pc}

0800cbac <LCD_GetNumColors>:
 800cbac:	b508      	push	{r3, lr}
 800cbae:	4b07      	ldr	r3, [pc, #28]	; (800cbcc <LCD_GetNumColors+0x20>)
 800cbb0:	6818      	ldr	r0, [r3, #0]
 800cbb2:	7c40      	ldrb	r0, [r0, #17]
 800cbb4:	b108      	cbz	r0, 800cbba <LCD_GetNumColors+0xe>
 800cbb6:	2000      	movs	r0, #0
 800cbb8:	bd08      	pop	{r3, pc}
 800cbba:	f7fa fb27 	bl	800720c <GUI_DEVICE__GetpDriver>
 800cbbe:	b120      	cbz	r0, 800cbca <LCD_GetNumColors+0x1e>
 800cbc0:	68c2      	ldr	r2, [r0, #12]
 800cbc2:	2109      	movs	r1, #9
 800cbc4:	6a93      	ldr	r3, [r2, #40]	; 0x28
 800cbc6:	4798      	blx	r3
 800cbc8:	bd08      	pop	{r3, pc}
 800cbca:	bd08      	pop	{r3, pc}
 800cbcc:	1ffe8808 	.word	0x1ffe8808

0800cbd0 <GUI_GetBitsPerPixelEx>:
 800cbd0:	b508      	push	{r3, lr}
 800cbd2:	f649 5308 	movw	r3, #40200	; 0x9d08
 800cbd6:	f6c1 73fe 	movt	r3, #8190	; 0x1ffe
 800cbda:	2108      	movs	r1, #8
 800cbdc:	f853 0020 	ldr.w	r0, [r3, r0, lsl #2]
 800cbe0:	68c2      	ldr	r2, [r0, #12]
 800cbe2:	6a93      	ldr	r3, [r2, #40]	; 0x28
 800cbe4:	4798      	blx	r3
 800cbe6:	bd08      	pop	{r3, pc}

0800cbe8 <LCD_GetPalette>:
 800cbe8:	b508      	push	{r3, lr}
 800cbea:	4b06      	ldr	r3, [pc, #24]	; (800cc04 <LCD_GetPalette+0x1c>)
 800cbec:	6818      	ldr	r0, [r3, #0]
 800cbee:	7c40      	ldrb	r0, [r0, #17]
 800cbf0:	f7fa fb0c 	bl	800720c <GUI_DEVICE__GetpDriver>
 800cbf4:	b120      	cbz	r0, 800cc00 <LCD_GetPalette+0x18>
 800cbf6:	68c2      	ldr	r2, [r0, #12]
 800cbf8:	2102      	movs	r1, #2
 800cbfa:	6ad3      	ldr	r3, [r2, #44]	; 0x2c
 800cbfc:	4798      	blx	r3
 800cbfe:	bd08      	pop	{r3, pc}
 800cc00:	bd08      	pop	{r3, pc}
 800cc02:	bf00      	nop
 800cc04:	1ffe8808 	.word	0x1ffe8808

0800cc08 <GUI_GetpfIndex2ColorEx>:
 800cc08:	f649 5308 	movw	r3, #40200	; 0x9d08
 800cc0c:	f6c1 73fe 	movt	r3, #8190	; 0x1ffe
 800cc10:	f853 0020 	ldr.w	r0, [r3, r0, lsl #2]
 800cc14:	6901      	ldr	r1, [r0, #16]
 800cc16:	6848      	ldr	r0, [r1, #4]
 800cc18:	4770      	bx	lr
 800cc1a:	bf00      	nop

0800cc1c <GUI_GetpfColor2IndexEx>:
 800cc1c:	f649 5308 	movw	r3, #40200	; 0x9d08
 800cc20:	f6c1 73fe 	movt	r3, #8190	; 0x1ffe
 800cc24:	f853 0020 	ldr.w	r0, [r3, r0, lsl #2]
 800cc28:	6901      	ldr	r1, [r0, #16]
 800cc2a:	6808      	ldr	r0, [r1, #0]
 800cc2c:	4770      	bx	lr
 800cc2e:	bf00      	nop

0800cc30 <LCD__GetBPPDevice>:
 800cc30:	b1c8      	cbz	r0, 800cc66 <LCD__GetBPPDevice+0x36>
 800cc32:	f030 0301 	bics.w	r3, r0, #1
 800cc36:	d017      	beq.n	800cc68 <LCD__GetBPPDevice+0x38>
 800cc38:	f030 0303 	bics.w	r3, r0, #3
 800cc3c:	d101      	bne.n	800cc42 <LCD__GetBPPDevice+0x12>
 800cc3e:	2008      	movs	r0, #8
 800cc40:	4770      	bx	lr
 800cc42:	f030 0307 	bics.w	r3, r0, #7
 800cc46:	d0fa      	beq.n	800cc3e <LCD__GetBPPDevice+0xe>
 800cc48:	f030 030f 	bics.w	r3, r0, #15
 800cc4c:	d0f7      	beq.n	800cc3e <LCD__GetBPPDevice+0xe>
 800cc4e:	f030 031f 	bics.w	r3, r0, #31
 800cc52:	d0f4      	beq.n	800cc3e <LCD__GetBPPDevice+0xe>
 800cc54:	f030 03ff 	bics.w	r3, r0, #255	; 0xff
 800cc58:	d0f1      	beq.n	800cc3e <LCD__GetBPPDevice+0xe>
 800cc5a:	f420 73ff 	bic.w	r3, r0, #510	; 0x1fe
 800cc5e:	f023 0101 	bic.w	r1, r3, #1
 800cc62:	b919      	cbnz	r1, 800cc6c <LCD__GetBPPDevice+0x3c>
 800cc64:	2010      	movs	r0, #16
 800cc66:	4770      	bx	lr
 800cc68:	2001      	movs	r0, #1
 800cc6a:	4770      	bx	lr
 800cc6c:	f420 627f 	bic.w	r2, r0, #4080	; 0xff0
 800cc70:	f022 030f 	bic.w	r3, r2, #15
 800cc74:	2b00      	cmp	r3, #0
 800cc76:	d0f5      	beq.n	800cc64 <LCD__GetBPPDevice+0x34>
 800cc78:	f420 41ff 	bic.w	r1, r0, #32640	; 0x7f80
 800cc7c:	f021 027f 	bic.w	r2, r1, #127	; 0x7f
 800cc80:	2a00      	cmp	r2, #0
 800cc82:	d0ef      	beq.n	800cc64 <LCD__GetBPPDevice+0x34>
 800cc84:	0c00      	lsrs	r0, r0, #16
 800cc86:	0403      	lsls	r3, r0, #16
 800cc88:	2b00      	cmp	r3, #0
 800cc8a:	bf0c      	ite	eq
 800cc8c:	2010      	moveq	r0, #16
 800cc8e:	2020      	movne	r0, #32
 800cc90:	4770      	bx	lr
 800cc92:	bf00      	nop

0800cc94 <LCD_GetBkColorIndex>:
 800cc94:	f648 0308 	movw	r3, #34824	; 0x8808
 800cc98:	f6c1 73fe 	movt	r3, #8190	; 0x1ffe
 800cc9c:	6818      	ldr	r0, [r3, #0]
 800cc9e:	6b81      	ldr	r1, [r0, #56]	; 0x38
 800cca0:	6808      	ldr	r0, [r1, #0]
 800cca2:	4770      	bx	lr

0800cca4 <LCD_GetColorIndex>:
 800cca4:	f648 0308 	movw	r3, #34824	; 0x8808
 800cca8:	f6c1 73fe 	movt	r3, #8190	; 0x1ffe
 800ccac:	6818      	ldr	r0, [r3, #0]
 800ccae:	6bc1      	ldr	r1, [r0, #60]	; 0x3c
 800ccb0:	6808      	ldr	r0, [r1, #0]
 800ccb2:	4770      	bx	lr

0800ccb4 <GUI__CompactPixelIndices>:
 800ccb4:	2a08      	cmp	r2, #8
 800ccb6:	b470      	push	{r4, r5, r6}
 800ccb8:	dd21      	ble.n	800ccfe <GUI__CompactPixelIndices+0x4a>
 800ccba:	2a10      	cmp	r2, #16
 800ccbc:	dc44      	bgt.n	800cd48 <GUI__CompactPixelIndices+0x94>
 800ccbe:	4603      	mov	r3, r0
 800ccc0:	6804      	ldr	r4, [r0, #0]
 800ccc2:	eb00 0141 	add.w	r1, r0, r1, lsl #1
 800ccc6:	f823 4b02 	strh.w	r4, [r3], #2
 800ccca:	4602      	mov	r2, r0
 800cccc:	1a08      	subs	r0, r1, r0
 800ccce:	3802      	subs	r0, #2
 800ccd0:	428b      	cmp	r3, r1
 800ccd2:	f3c0 0040 	ubfx	r0, r0, #1, #1
 800ccd6:	d010      	beq.n	800ccfa <GUI__CompactPixelIndices+0x46>
 800ccd8:	b128      	cbz	r0, 800cce6 <GUI__CompactPixelIndices+0x32>
 800ccda:	f852 0f04 	ldr.w	r0, [r2, #4]!
 800ccde:	f823 0b02 	strh.w	r0, [r3], #2
 800cce2:	428b      	cmp	r3, r1
 800cce4:	d009      	beq.n	800ccfa <GUI__CompactPixelIndices+0x46>
 800cce6:	6855      	ldr	r5, [r2, #4]
 800cce8:	6894      	ldr	r4, [r2, #8]
 800ccea:	4618      	mov	r0, r3
 800ccec:	3208      	adds	r2, #8
 800ccee:	f820 5b02 	strh.w	r5, [r0], #2
 800ccf2:	805c      	strh	r4, [r3, #2]
 800ccf4:	1c83      	adds	r3, r0, #2
 800ccf6:	428b      	cmp	r3, r1
 800ccf8:	d1f5      	bne.n	800cce6 <GUI__CompactPixelIndices+0x32>
 800ccfa:	2001      	movs	r0, #1
 800ccfc:	e025      	b.n	800cd4a <GUI__CompactPixelIndices+0x96>
 800ccfe:	2a02      	cmp	r2, #2
 800cd00:	d025      	beq.n	800cd4e <GUI__CompactPixelIndices+0x9a>
 800cd02:	2a04      	cmp	r2, #4
 800cd04:	f000 80ca 	beq.w	800ce9c <GUI__CompactPixelIndices+0x1e8>
 800cd08:	2a01      	cmp	r2, #1
 800cd0a:	d079      	beq.n	800ce00 <GUI__CompactPixelIndices+0x14c>
 800cd0c:	4603      	mov	r3, r0
 800cd0e:	6804      	ldr	r4, [r0, #0]
 800cd10:	f803 4b01 	strb.w	r4, [r3], #1
 800cd14:	1841      	adds	r1, r0, r1
 800cd16:	4602      	mov	r2, r0
 800cd18:	43c0      	mvns	r0, r0
 800cd1a:	1808      	adds	r0, r1, r0
 800cd1c:	428b      	cmp	r3, r1
 800cd1e:	f000 0001 	and.w	r0, r0, #1
 800cd22:	d0ea      	beq.n	800ccfa <GUI__CompactPixelIndices+0x46>
 800cd24:	b128      	cbz	r0, 800cd32 <GUI__CompactPixelIndices+0x7e>
 800cd26:	f852 0f04 	ldr.w	r0, [r2, #4]!
 800cd2a:	f803 0b01 	strb.w	r0, [r3], #1
 800cd2e:	428b      	cmp	r3, r1
 800cd30:	d0e3      	beq.n	800ccfa <GUI__CompactPixelIndices+0x46>
 800cd32:	6854      	ldr	r4, [r2, #4]
 800cd34:	4618      	mov	r0, r3
 800cd36:	f800 4b01 	strb.w	r4, [r0], #1
 800cd3a:	6894      	ldr	r4, [r2, #8]
 800cd3c:	705c      	strb	r4, [r3, #1]
 800cd3e:	1c43      	adds	r3, r0, #1
 800cd40:	3208      	adds	r2, #8
 800cd42:	428b      	cmp	r3, r1
 800cd44:	d1f5      	bne.n	800cd32 <GUI__CompactPixelIndices+0x7e>
 800cd46:	e7d8      	b.n	800ccfa <GUI__CompactPixelIndices+0x46>
 800cd48:	2000      	movs	r0, #0
 800cd4a:	bc70      	pop	{r4, r5, r6}
 800cd4c:	4770      	bx	lr
 800cd4e:	1e4b      	subs	r3, r1, #1
 800cd50:	075c      	lsls	r4, r3, #29
 800cd52:	4602      	mov	r2, r0
 800cd54:	d51b      	bpl.n	800cd8e <GUI__CompactPixelIndices+0xda>
 800cd56:	e890 0018 	ldmia.w	r0, {r3, r4}
 800cd5a:	019b      	lsls	r3, r3, #6
 800cd5c:	b2db      	uxtb	r3, r3
 800cd5e:	f004 0403 	and.w	r4, r4, #3
 800cd62:	2902      	cmp	r1, #2
 800cd64:	ea43 1304 	orr.w	r3, r3, r4, lsl #4
 800cd68:	f000 8095 	beq.w	800ce96 <GUI__CompactPixelIndices+0x1e2>
 800cd6c:	6884      	ldr	r4, [r0, #8]
 800cd6e:	2903      	cmp	r1, #3
 800cd70:	f004 0403 	and.w	r4, r4, #3
 800cd74:	ea43 0384 	orr.w	r3, r3, r4, lsl #2
 800cd78:	f000 808d 	beq.w	800ce96 <GUI__CompactPixelIndices+0x1e2>
 800cd7c:	68c4      	ldr	r4, [r0, #12]
 800cd7e:	f004 0403 	and.w	r4, r4, #3
 800cd82:	4323      	orrs	r3, r4
 800cd84:	3010      	adds	r0, #16
 800cd86:	3904      	subs	r1, #4
 800cd88:	f802 3b01 	strb.w	r3, [r2], #1
 800cd8c:	d0b5      	beq.n	800ccfa <GUI__CompactPixelIndices+0x46>
 800cd8e:	6803      	ldr	r3, [r0, #0]
 800cd90:	019c      	lsls	r4, r3, #6
 800cd92:	2901      	cmp	r1, #1
 800cd94:	b2e3      	uxtb	r3, r4
 800cd96:	f100 0410 	add.w	r4, r0, #16
 800cd9a:	d07c      	beq.n	800ce96 <GUI__CompactPixelIndices+0x1e2>
 800cd9c:	6845      	ldr	r5, [r0, #4]
 800cd9e:	2902      	cmp	r1, #2
 800cda0:	f005 0503 	and.w	r5, r5, #3
 800cda4:	ea43 1305 	orr.w	r3, r3, r5, lsl #4
 800cda8:	d075      	beq.n	800ce96 <GUI__CompactPixelIndices+0x1e2>
 800cdaa:	6885      	ldr	r5, [r0, #8]
 800cdac:	2903      	cmp	r1, #3
 800cdae:	f005 0503 	and.w	r5, r5, #3
 800cdb2:	ea43 0385 	orr.w	r3, r3, r5, lsl #2
 800cdb6:	d06e      	beq.n	800ce96 <GUI__CompactPixelIndices+0x1e2>
 800cdb8:	68c5      	ldr	r5, [r0, #12]
 800cdba:	f005 0503 	and.w	r5, r5, #3
 800cdbe:	432b      	orrs	r3, r5
 800cdc0:	3904      	subs	r1, #4
 800cdc2:	f802 3b01 	strb.w	r3, [r2], #1
 800cdc6:	d098      	beq.n	800ccfa <GUI__CompactPixelIndices+0x46>
 800cdc8:	6903      	ldr	r3, [r0, #16]
 800cdca:	6860      	ldr	r0, [r4, #4]
 800cdcc:	019b      	lsls	r3, r3, #6
 800cdce:	f000 0003 	and.w	r0, r0, #3
 800cdd2:	b2db      	uxtb	r3, r3
 800cdd4:	2902      	cmp	r1, #2
 800cdd6:	ea43 1300 	orr.w	r3, r3, r0, lsl #4
 800cdda:	f104 0010 	add.w	r0, r4, #16
 800cdde:	d05a      	beq.n	800ce96 <GUI__CompactPixelIndices+0x1e2>
 800cde0:	68a5      	ldr	r5, [r4, #8]
 800cde2:	2903      	cmp	r1, #3
 800cde4:	f005 0503 	and.w	r5, r5, #3
 800cde8:	ea43 0385 	orr.w	r3, r3, r5, lsl #2
 800cdec:	d053      	beq.n	800ce96 <GUI__CompactPixelIndices+0x1e2>
 800cdee:	68e4      	ldr	r4, [r4, #12]
 800cdf0:	f004 0403 	and.w	r4, r4, #3
 800cdf4:	4323      	orrs	r3, r4
 800cdf6:	3904      	subs	r1, #4
 800cdf8:	f802 3b01 	strb.w	r3, [r2], #1
 800cdfc:	d1c7      	bne.n	800cd8e <GUI__CompactPixelIndices+0xda>
 800cdfe:	e77c      	b.n	800ccfa <GUI__CompactPixelIndices+0x46>
 800ce00:	6802      	ldr	r2, [r0, #0]
 800ce02:	01d3      	lsls	r3, r2, #7
 800ce04:	2901      	cmp	r1, #1
 800ce06:	b2db      	uxtb	r3, r3
 800ce08:	d042      	beq.n	800ce90 <GUI__CompactPixelIndices+0x1dc>
 800ce0a:	6842      	ldr	r2, [r0, #4]
 800ce0c:	3902      	subs	r1, #2
 800ce0e:	f002 0201 	and.w	r2, r2, #1
 800ce12:	ea43 1382 	orr.w	r3, r3, r2, lsl #6
 800ce16:	f100 0208 	add.w	r2, r0, #8
 800ce1a:	d039      	beq.n	800ce90 <GUI__CompactPixelIndices+0x1dc>
 800ce1c:	4604      	mov	r4, r0
 800ce1e:	6815      	ldr	r5, [r2, #0]
 800ce20:	2901      	cmp	r1, #1
 800ce22:	f005 0501 	and.w	r5, r5, #1
 800ce26:	4620      	mov	r0, r4
 800ce28:	ea43 1345 	orr.w	r3, r3, r5, lsl #5
 800ce2c:	d030      	beq.n	800ce90 <GUI__CompactPixelIndices+0x1dc>
 800ce2e:	6855      	ldr	r5, [r2, #4]
 800ce30:	f005 0501 	and.w	r5, r5, #1
 800ce34:	ea43 1305 	orr.w	r3, r3, r5, lsl #4
 800ce38:	2902      	cmp	r1, #2
 800ce3a:	b2db      	uxtb	r3, r3
 800ce3c:	d028      	beq.n	800ce90 <GUI__CompactPixelIndices+0x1dc>
 800ce3e:	6895      	ldr	r5, [r2, #8]
 800ce40:	2903      	cmp	r1, #3
 800ce42:	f005 0501 	and.w	r5, r5, #1
 800ce46:	ea43 03c5 	orr.w	r3, r3, r5, lsl #3
 800ce4a:	d021      	beq.n	800ce90 <GUI__CompactPixelIndices+0x1dc>
 800ce4c:	68d5      	ldr	r5, [r2, #12]
 800ce4e:	2904      	cmp	r1, #4
 800ce50:	f005 0501 	and.w	r5, r5, #1
 800ce54:	ea43 0385 	orr.w	r3, r3, r5, lsl #2
 800ce58:	d01a      	beq.n	800ce90 <GUI__CompactPixelIndices+0x1dc>
 800ce5a:	6915      	ldr	r5, [r2, #16]
 800ce5c:	2905      	cmp	r1, #5
 800ce5e:	f005 0501 	and.w	r5, r5, #1
 800ce62:	ea43 0345 	orr.w	r3, r3, r5, lsl #1
 800ce66:	d013      	beq.n	800ce90 <GUI__CompactPixelIndices+0x1dc>
 800ce68:	6950      	ldr	r0, [r2, #20]
 800ce6a:	f000 0001 	and.w	r0, r0, #1
 800ce6e:	4303      	orrs	r3, r0
 800ce70:	f804 3b01 	strb.w	r3, [r4], #1
 800ce74:	6993      	ldr	r3, [r2, #24]
 800ce76:	01d8      	lsls	r0, r3, #7
 800ce78:	2906      	cmp	r1, #6
 800ce7a:	b2c3      	uxtb	r3, r0
 800ce7c:	4620      	mov	r0, r4
 800ce7e:	d007      	beq.n	800ce90 <GUI__CompactPixelIndices+0x1dc>
 800ce80:	69d5      	ldr	r5, [r2, #28]
 800ce82:	3220      	adds	r2, #32
 800ce84:	f005 0501 	and.w	r5, r5, #1
 800ce88:	3907      	subs	r1, #7
 800ce8a:	ea43 1385 	orr.w	r3, r3, r5, lsl #6
 800ce8e:	d1c6      	bne.n	800ce1e <GUI__CompactPixelIndices+0x16a>
 800ce90:	7003      	strb	r3, [r0, #0]
 800ce92:	2001      	movs	r0, #1
 800ce94:	e759      	b.n	800cd4a <GUI__CompactPixelIndices+0x96>
 800ce96:	7013      	strb	r3, [r2, #0]
 800ce98:	2001      	movs	r0, #1
 800ce9a:	e756      	b.n	800cd4a <GUI__CompactPixelIndices+0x96>
 800ce9c:	1e4c      	subs	r4, r1, #1
 800ce9e:	07a2      	lsls	r2, r4, #30
 800cea0:	f100 0308 	add.w	r3, r0, #8
 800cea4:	d50b      	bpl.n	800cebe <GUI__CompactPixelIndices+0x20a>
 800cea6:	e913 0014 	ldmdb	r3, {r2, r4}
 800ceaa:	f004 040f 	and.w	r4, r4, #15
 800ceae:	ea44 1202 	orr.w	r2, r4, r2, lsl #4
 800ceb2:	3308      	adds	r3, #8
 800ceb4:	3902      	subs	r1, #2
 800ceb6:	f800 2b01 	strb.w	r2, [r0], #1
 800ceba:	f43f af1e 	beq.w	800ccfa <GUI__CompactPixelIndices+0x46>
 800cebe:	f853 5c08 	ldr.w	r5, [r3, #-8]
 800cec2:	012c      	lsls	r4, r5, #4
 800cec4:	2901      	cmp	r1, #1
 800cec6:	b2e5      	uxtb	r5, r4
 800cec8:	4602      	mov	r2, r0
 800ceca:	f103 0408 	add.w	r4, r3, #8
 800cece:	d016      	beq.n	800cefe <GUI__CompactPixelIndices+0x24a>
 800ced0:	f853 3c04 	ldr.w	r3, [r3, #-4]
 800ced4:	f003 030f 	and.w	r3, r3, #15
 800ced8:	431d      	orrs	r5, r3
 800ceda:	3902      	subs	r1, #2
 800cedc:	f802 5b01 	strb.w	r5, [r2], #1
 800cee0:	f104 0308 	add.w	r3, r4, #8
 800cee4:	f43f af09 	beq.w	800ccfa <GUI__CompactPixelIndices+0x46>
 800cee8:	e914 0060 	ldmdb	r4, {r5, r6}
 800ceec:	f006 040f 	and.w	r4, r6, #15
 800cef0:	ea44 1405 	orr.w	r4, r4, r5, lsl #4
 800cef4:	7044      	strb	r4, [r0, #1]
 800cef6:	1c50      	adds	r0, r2, #1
 800cef8:	3902      	subs	r1, #2
 800cefa:	d1e0      	bne.n	800cebe <GUI__CompactPixelIndices+0x20a>
 800cefc:	e6fd      	b.n	800ccfa <GUI__CompactPixelIndices+0x46>
 800cefe:	7005      	strb	r5, [r0, #0]
 800cf00:	4608      	mov	r0, r1
 800cf02:	e722      	b.n	800cd4a <GUI__CompactPixelIndices+0x96>

0800cf04 <GUI_SelectLCD>:
 800cf04:	b508      	push	{r3, lr}
 800cf06:	f000 f82f 	bl	800cf68 <LCD_SelectLCD>
 800cf0a:	e8bd 4008 	ldmia.w	sp!, {r3, lr}
 800cf0e:	f7ff be15 	b.w	800cb3c <LCD_UpdateColorIndices>
 800cf12:	bf00      	nop

0800cf14 <GUI_CalcColorDist>:
 800cf14:	b2c2      	uxtb	r2, r0
 800cf16:	b2cb      	uxtb	r3, r1
 800cf18:	b410      	push	{r4}
 800cf1a:	1ad4      	subs	r4, r2, r3
 800cf1c:	b2a3      	uxth	r3, r4
 800cf1e:	b29a      	uxth	r2, r3
 800cf20:	0414      	lsls	r4, r2, #16
 800cf22:	d41d      	bmi.n	800cf60 <GUI_CalcColorDist+0x4c>
 800cf24:	f3c1 2307 	ubfx	r3, r1, #8, #8
 800cf28:	f3c0 2407 	ubfx	r4, r0, #8, #8
 800cf2c:	1ae4      	subs	r4, r4, r3
 800cf2e:	b2a4      	uxth	r4, r4
 800cf30:	b2a3      	uxth	r3, r4
 800cf32:	f413 4f00 	tst.w	r3, #32768	; 0x8000
 800cf36:	fb02 f202 	mul.w	r2, r2, r2
 800cf3a:	d10e      	bne.n	800cf5a <GUI_CalcColorDist+0x46>
 800cf3c:	0c09      	lsrs	r1, r1, #16
 800cf3e:	ebc1 4010 	rsb	r0, r1, r0, lsr #16
 800cf42:	b281      	uxth	r1, r0
 800cf44:	b288      	uxth	r0, r1
 800cf46:	fb03 2303 	mla	r3, r3, r3, r2
 800cf4a:	0402      	lsls	r2, r0, #16
 800cf4c:	d501      	bpl.n	800cf52 <GUI_CalcColorDist+0x3e>
 800cf4e:	424a      	negs	r2, r1
 800cf50:	b290      	uxth	r0, r2
 800cf52:	fb00 3000 	mla	r0, r0, r0, r3
 800cf56:	bc10      	pop	{r4}
 800cf58:	4770      	bx	lr
 800cf5a:	4263      	negs	r3, r4
 800cf5c:	b29b      	uxth	r3, r3
 800cf5e:	e7ed      	b.n	800cf3c <GUI_CalcColorDist+0x28>
 800cf60:	425a      	negs	r2, r3
 800cf62:	b292      	uxth	r2, r2
 800cf64:	e7de      	b.n	800cf24 <GUI_CalcColorDist+0x10>
 800cf66:	bf00      	nop

0800cf68 <LCD_SelectLCD>:
 800cf68:	b510      	push	{r4, lr}
 800cf6a:	4c0d      	ldr	r4, [pc, #52]	; (800cfa0 <LCD_SelectLCD+0x38>)
 800cf6c:	4b0d      	ldr	r3, [pc, #52]	; (800cfa4 <LCD_SelectLCD+0x3c>)
 800cf6e:	6822      	ldr	r2, [r4, #0]
 800cf70:	7c51      	ldrb	r1, [r2, #17]
 800cf72:	f853 0021 	ldr.w	r0, [r3, r1, lsl #2]
 800cf76:	b910      	cbnz	r0, 800cf7e <LCD_SelectLCD+0x16>
 800cf78:	e008      	b.n	800cf8c <LCD_SelectLCD+0x24>
 800cf7a:	6800      	ldr	r0, [r0, #0]
 800cf7c:	b130      	cbz	r0, 800cf8c <LCD_SelectLCD+0x24>
 800cf7e:	68c1      	ldr	r1, [r0, #12]
 800cf80:	680b      	ldr	r3, [r1, #0]
 800cf82:	2b04      	cmp	r3, #4
 800cf84:	d1f9      	bne.n	800cf7a <LCD_SelectLCD+0x12>
 800cf86:	f7fa f957 	bl	8007238 <GUI_DEVICE_Unlink>
 800cf8a:	6822      	ldr	r2, [r4, #0]
 800cf8c:	f102 0008 	add.w	r0, r2, #8
 800cf90:	2100      	movs	r1, #0
 800cf92:	6491      	str	r1, [r2, #72]	; 0x48
 800cf94:	6150      	str	r0, [r2, #20]
 800cf96:	e8bd 4010 	ldmia.w	sp!, {r4, lr}
 800cf9a:	f7fe bae5 	b.w	800b568 <LCD_SetClipRectMax>
 800cf9e:	bf00      	nop
 800cfa0:	1ffe8808 	.word	0x1ffe8808
 800cfa4:	1ffe9d08 	.word	0x1ffe9d08

0800cfa8 <__aeabi_drsub>:
 800cfa8:	f081 4100 	eor.w	r1, r1, #2147483648	; 0x80000000
 800cfac:	e002      	b.n	800cfb4 <__adddf3>
 800cfae:	bf00      	nop

0800cfb0 <__aeabi_dsub>:
 800cfb0:	f083 4300 	eor.w	r3, r3, #2147483648	; 0x80000000

0800cfb4 <__adddf3>:
 800cfb4:	b530      	push	{r4, r5, lr}
 800cfb6:	ea4f 0441 	mov.w	r4, r1, lsl #1
 800cfba:	ea4f 0543 	mov.w	r5, r3, lsl #1
 800cfbe:	ea94 0f05 	teq	r4, r5
 800cfc2:	bf08      	it	eq
 800cfc4:	ea90 0f02 	teqeq	r0, r2
 800cfc8:	bf1f      	itttt	ne
 800cfca:	ea54 0c00 	orrsne.w	ip, r4, r0
 800cfce:	ea55 0c02 	orrsne.w	ip, r5, r2
 800cfd2:	ea7f 5c64 	mvnsne.w	ip, r4, asr #21
 800cfd6:	ea7f 5c65 	mvnsne.w	ip, r5, asr #21
 800cfda:	f000 80e2 	beq.w	800d1a2 <__adddf3+0x1ee>
 800cfde:	ea4f 5454 	mov.w	r4, r4, lsr #21
 800cfe2:	ebd4 5555 	rsbs	r5, r4, r5, lsr #21
 800cfe6:	bfb8      	it	lt
 800cfe8:	426d      	neglt	r5, r5
 800cfea:	dd0c      	ble.n	800d006 <__adddf3+0x52>
 800cfec:	442c      	add	r4, r5
 800cfee:	ea80 0202 	eor.w	r2, r0, r2
 800cff2:	ea81 0303 	eor.w	r3, r1, r3
 800cff6:	ea82 0000 	eor.w	r0, r2, r0
 800cffa:	ea83 0101 	eor.w	r1, r3, r1
 800cffe:	ea80 0202 	eor.w	r2, r0, r2
 800d002:	ea81 0303 	eor.w	r3, r1, r3
 800d006:	2d36      	cmp	r5, #54	; 0x36
 800d008:	bf88      	it	hi
 800d00a:	bd30      	pophi	{r4, r5, pc}
 800d00c:	f011 4f00 	tst.w	r1, #2147483648	; 0x80000000
 800d010:	ea4f 3101 	mov.w	r1, r1, lsl #12
 800d014:	f44f 1c80 	mov.w	ip, #1048576	; 0x100000
 800d018:	ea4c 3111 	orr.w	r1, ip, r1, lsr #12
 800d01c:	d002      	beq.n	800d024 <__adddf3+0x70>
 800d01e:	4240      	negs	r0, r0
 800d020:	eb61 0141 	sbc.w	r1, r1, r1, lsl #1
 800d024:	f013 4f00 	tst.w	r3, #2147483648	; 0x80000000
 800d028:	ea4f 3303 	mov.w	r3, r3, lsl #12
 800d02c:	ea4c 3313 	orr.w	r3, ip, r3, lsr #12
 800d030:	d002      	beq.n	800d038 <__adddf3+0x84>
 800d032:	4252      	negs	r2, r2
 800d034:	eb63 0343 	sbc.w	r3, r3, r3, lsl #1
 800d038:	ea94 0f05 	teq	r4, r5
 800d03c:	f000 80a7 	beq.w	800d18e <__adddf3+0x1da>
 800d040:	f1a4 0401 	sub.w	r4, r4, #1
 800d044:	f1d5 0e20 	rsbs	lr, r5, #32
 800d048:	db0d      	blt.n	800d066 <__adddf3+0xb2>
 800d04a:	fa02 fc0e 	lsl.w	ip, r2, lr
 800d04e:	fa22 f205 	lsr.w	r2, r2, r5
 800d052:	1880      	adds	r0, r0, r2
 800d054:	f141 0100 	adc.w	r1, r1, #0
 800d058:	fa03 f20e 	lsl.w	r2, r3, lr
 800d05c:	1880      	adds	r0, r0, r2
 800d05e:	fa43 f305 	asr.w	r3, r3, r5
 800d062:	4159      	adcs	r1, r3
 800d064:	e00e      	b.n	800d084 <__adddf3+0xd0>
 800d066:	f1a5 0520 	sub.w	r5, r5, #32
 800d06a:	f10e 0e20 	add.w	lr, lr, #32
 800d06e:	2a01      	cmp	r2, #1
 800d070:	fa03 fc0e 	lsl.w	ip, r3, lr
 800d074:	bf28      	it	cs
 800d076:	f04c 0c02 	orrcs.w	ip, ip, #2
 800d07a:	fa43 f305 	asr.w	r3, r3, r5
 800d07e:	18c0      	adds	r0, r0, r3
 800d080:	eb51 71e3 	adcs.w	r1, r1, r3, asr #31
 800d084:	f001 4500 	and.w	r5, r1, #2147483648	; 0x80000000
 800d088:	d507      	bpl.n	800d09a <__adddf3+0xe6>
 800d08a:	f04f 0e00 	mov.w	lr, #0
 800d08e:	f1dc 0c00 	rsbs	ip, ip, #0
 800d092:	eb7e 0000 	sbcs.w	r0, lr, r0
 800d096:	eb6e 0101 	sbc.w	r1, lr, r1
 800d09a:	f5b1 1f80 	cmp.w	r1, #1048576	; 0x100000
 800d09e:	d31b      	bcc.n	800d0d8 <__adddf3+0x124>
 800d0a0:	f5b1 1f00 	cmp.w	r1, #2097152	; 0x200000
 800d0a4:	d30c      	bcc.n	800d0c0 <__adddf3+0x10c>
 800d0a6:	0849      	lsrs	r1, r1, #1
 800d0a8:	ea5f 0030 	movs.w	r0, r0, rrx
 800d0ac:	ea4f 0c3c 	mov.w	ip, ip, rrx
 800d0b0:	f104 0401 	add.w	r4, r4, #1
 800d0b4:	ea4f 5244 	mov.w	r2, r4, lsl #21
 800d0b8:	f512 0f80 	cmn.w	r2, #4194304	; 0x400000
 800d0bc:	f080 809a 	bcs.w	800d1f4 <__adddf3+0x240>
 800d0c0:	f1bc 4f00 	cmp.w	ip, #2147483648	; 0x80000000
 800d0c4:	bf08      	it	eq
 800d0c6:	ea5f 0c50 	movseq.w	ip, r0, lsr #1
 800d0ca:	f150 0000 	adcs.w	r0, r0, #0
 800d0ce:	eb41 5104 	adc.w	r1, r1, r4, lsl #20
 800d0d2:	ea41 0105 	orr.w	r1, r1, r5
 800d0d6:	bd30      	pop	{r4, r5, pc}
 800d0d8:	ea5f 0c4c 	movs.w	ip, ip, lsl #1
 800d0dc:	4140      	adcs	r0, r0
 800d0de:	eb41 0101 	adc.w	r1, r1, r1
 800d0e2:	f411 1f80 	tst.w	r1, #1048576	; 0x100000
 800d0e6:	f1a4 0401 	sub.w	r4, r4, #1
 800d0ea:	d1e9      	bne.n	800d0c0 <__adddf3+0x10c>
 800d0ec:	f091 0f00 	teq	r1, #0
 800d0f0:	bf04      	itt	eq
 800d0f2:	4601      	moveq	r1, r0
 800d0f4:	2000      	moveq	r0, #0
 800d0f6:	fab1 f381 	clz	r3, r1
 800d0fa:	bf08      	it	eq
 800d0fc:	3320      	addeq	r3, #32
 800d0fe:	f1a3 030b 	sub.w	r3, r3, #11
 800d102:	f1b3 0220 	subs.w	r2, r3, #32
 800d106:	da0c      	bge.n	800d122 <__adddf3+0x16e>
 800d108:	320c      	adds	r2, #12
 800d10a:	dd08      	ble.n	800d11e <__adddf3+0x16a>
 800d10c:	f102 0c14 	add.w	ip, r2, #20
 800d110:	f1c2 020c 	rsb	r2, r2, #12
 800d114:	fa01 f00c 	lsl.w	r0, r1, ip
 800d118:	fa21 f102 	lsr.w	r1, r1, r2
 800d11c:	e00c      	b.n	800d138 <__adddf3+0x184>
 800d11e:	f102 0214 	add.w	r2, r2, #20
 800d122:	bfd8      	it	le
 800d124:	f1c2 0c20 	rsble	ip, r2, #32
 800d128:	fa01 f102 	lsl.w	r1, r1, r2
 800d12c:	fa20 fc0c 	lsr.w	ip, r0, ip
 800d130:	bfdc      	itt	le
 800d132:	ea41 010c 	orrle.w	r1, r1, ip
 800d136:	4090      	lslle	r0, r2
 800d138:	1ae4      	subs	r4, r4, r3
 800d13a:	bfa2      	ittt	ge
 800d13c:	eb01 5104 	addge.w	r1, r1, r4, lsl #20
 800d140:	4329      	orrge	r1, r5
 800d142:	bd30      	popge	{r4, r5, pc}
 800d144:	ea6f 0404 	mvn.w	r4, r4
 800d148:	3c1f      	subs	r4, #31
 800d14a:	da1c      	bge.n	800d186 <__adddf3+0x1d2>
 800d14c:	340c      	adds	r4, #12
 800d14e:	dc0e      	bgt.n	800d16e <__adddf3+0x1ba>
 800d150:	f104 0414 	add.w	r4, r4, #20
 800d154:	f1c4 0220 	rsb	r2, r4, #32
 800d158:	fa20 f004 	lsr.w	r0, r0, r4
 800d15c:	fa01 f302 	lsl.w	r3, r1, r2
 800d160:	ea40 0003 	orr.w	r0, r0, r3
 800d164:	fa21 f304 	lsr.w	r3, r1, r4
 800d168:	ea45 0103 	orr.w	r1, r5, r3
 800d16c:	bd30      	pop	{r4, r5, pc}
 800d16e:	f1c4 040c 	rsb	r4, r4, #12
 800d172:	f1c4 0220 	rsb	r2, r4, #32
 800d176:	fa20 f002 	lsr.w	r0, r0, r2
 800d17a:	fa01 f304 	lsl.w	r3, r1, r4
 800d17e:	ea40 0003 	orr.w	r0, r0, r3
 800d182:	4629      	mov	r1, r5
 800d184:	bd30      	pop	{r4, r5, pc}
 800d186:	fa21 f004 	lsr.w	r0, r1, r4
 800d18a:	4629      	mov	r1, r5
 800d18c:	bd30      	pop	{r4, r5, pc}
 800d18e:	f094 0f00 	teq	r4, #0
 800d192:	f483 1380 	eor.w	r3, r3, #1048576	; 0x100000
 800d196:	bf06      	itte	eq
 800d198:	f481 1180 	eoreq.w	r1, r1, #1048576	; 0x100000
 800d19c:	3401      	addeq	r4, #1
 800d19e:	3d01      	subne	r5, #1
 800d1a0:	e74e      	b.n	800d040 <__adddf3+0x8c>
 800d1a2:	ea7f 5c64 	mvns.w	ip, r4, asr #21
 800d1a6:	bf18      	it	ne
 800d1a8:	ea7f 5c65 	mvnsne.w	ip, r5, asr #21
 800d1ac:	d029      	beq.n	800d202 <__adddf3+0x24e>
 800d1ae:	ea94 0f05 	teq	r4, r5
 800d1b2:	bf08      	it	eq
 800d1b4:	ea90 0f02 	teqeq	r0, r2
 800d1b8:	d005      	beq.n	800d1c6 <__adddf3+0x212>
 800d1ba:	ea54 0c00 	orrs.w	ip, r4, r0
 800d1be:	bf04      	itt	eq
 800d1c0:	4619      	moveq	r1, r3
 800d1c2:	4610      	moveq	r0, r2
 800d1c4:	bd30      	pop	{r4, r5, pc}
 800d1c6:	ea91 0f03 	teq	r1, r3
 800d1ca:	bf1e      	ittt	ne
 800d1cc:	2100      	movne	r1, #0
 800d1ce:	2000      	movne	r0, #0
 800d1d0:	bd30      	popne	{r4, r5, pc}
 800d1d2:	ea5f 5c54 	movs.w	ip, r4, lsr #21
 800d1d6:	d105      	bne.n	800d1e4 <__adddf3+0x230>
 800d1d8:	0040      	lsls	r0, r0, #1
 800d1da:	4149      	adcs	r1, r1
 800d1dc:	bf28      	it	cs
 800d1de:	f041 4100 	orrcs.w	r1, r1, #2147483648	; 0x80000000
 800d1e2:	bd30      	pop	{r4, r5, pc}
 800d1e4:	f514 0480 	adds.w	r4, r4, #4194304	; 0x400000
 800d1e8:	bf3c      	itt	cc
 800d1ea:	f501 1180 	addcc.w	r1, r1, #1048576	; 0x100000
 800d1ee:	bd30      	popcc	{r4, r5, pc}
 800d1f0:	f001 4500 	and.w	r5, r1, #2147483648	; 0x80000000
 800d1f4:	f045 41fe 	orr.w	r1, r5, #2130706432	; 0x7f000000
 800d1f8:	f441 0170 	orr.w	r1, r1, #15728640	; 0xf00000
 800d1fc:	f04f 0000 	mov.w	r0, #0
 800d200:	bd30      	pop	{r4, r5, pc}
 800d202:	ea7f 5c64 	mvns.w	ip, r4, asr #21
 800d206:	bf1a      	itte	ne
 800d208:	4619      	movne	r1, r3
 800d20a:	4610      	movne	r0, r2
 800d20c:	ea7f 5c65 	mvnseq.w	ip, r5, asr #21
 800d210:	bf1c      	itt	ne
 800d212:	460b      	movne	r3, r1
 800d214:	4602      	movne	r2, r0
 800d216:	ea50 3401 	orrs.w	r4, r0, r1, lsl #12
 800d21a:	bf06      	itte	eq
 800d21c:	ea52 3503 	orrseq.w	r5, r2, r3, lsl #12
 800d220:	ea91 0f03 	teqeq	r1, r3
 800d224:	f441 2100 	orrne.w	r1, r1, #524288	; 0x80000
 800d228:	bd30      	pop	{r4, r5, pc}
 800d22a:	bf00      	nop

0800d22c <__aeabi_ui2d>:
 800d22c:	f090 0f00 	teq	r0, #0
 800d230:	bf04      	itt	eq
 800d232:	2100      	moveq	r1, #0
 800d234:	4770      	bxeq	lr
 800d236:	b530      	push	{r4, r5, lr}
 800d238:	f44f 6480 	mov.w	r4, #1024	; 0x400
 800d23c:	f104 0432 	add.w	r4, r4, #50	; 0x32
 800d240:	f04f 0500 	mov.w	r5, #0
 800d244:	f04f 0100 	mov.w	r1, #0
 800d248:	e750      	b.n	800d0ec <__adddf3+0x138>
 800d24a:	bf00      	nop

0800d24c <__aeabi_i2d>:
 800d24c:	f090 0f00 	teq	r0, #0
 800d250:	bf04      	itt	eq
 800d252:	2100      	moveq	r1, #0
 800d254:	4770      	bxeq	lr
 800d256:	b530      	push	{r4, r5, lr}
 800d258:	f44f 6480 	mov.w	r4, #1024	; 0x400
 800d25c:	f104 0432 	add.w	r4, r4, #50	; 0x32
 800d260:	f010 4500 	ands.w	r5, r0, #2147483648	; 0x80000000
 800d264:	bf48      	it	mi
 800d266:	4240      	negmi	r0, r0
 800d268:	f04f 0100 	mov.w	r1, #0
 800d26c:	e73e      	b.n	800d0ec <__adddf3+0x138>
 800d26e:	bf00      	nop

0800d270 <__aeabi_f2d>:
 800d270:	0042      	lsls	r2, r0, #1
 800d272:	ea4f 01e2 	mov.w	r1, r2, asr #3
 800d276:	ea4f 0131 	mov.w	r1, r1, rrx
 800d27a:	ea4f 7002 	mov.w	r0, r2, lsl #28
 800d27e:	bf1f      	itttt	ne
 800d280:	f012 437f 	andsne.w	r3, r2, #4278190080	; 0xff000000
 800d284:	f093 4f7f 	teqne	r3, #4278190080	; 0xff000000
 800d288:	f081 5160 	eorne.w	r1, r1, #939524096	; 0x38000000
 800d28c:	4770      	bxne	lr
 800d28e:	f092 0f00 	teq	r2, #0
 800d292:	bf14      	ite	ne
 800d294:	f093 4f7f 	teqne	r3, #4278190080	; 0xff000000
 800d298:	4770      	bxeq	lr
 800d29a:	b530      	push	{r4, r5, lr}
 800d29c:	f44f 7460 	mov.w	r4, #896	; 0x380
 800d2a0:	f001 4500 	and.w	r5, r1, #2147483648	; 0x80000000
 800d2a4:	f021 4100 	bic.w	r1, r1, #2147483648	; 0x80000000
 800d2a8:	e720      	b.n	800d0ec <__adddf3+0x138>
 800d2aa:	bf00      	nop

0800d2ac <__aeabi_ul2d>:
 800d2ac:	ea50 0201 	orrs.w	r2, r0, r1
 800d2b0:	bf08      	it	eq
 800d2b2:	4770      	bxeq	lr
 800d2b4:	b530      	push	{r4, r5, lr}
 800d2b6:	f04f 0500 	mov.w	r5, #0
 800d2ba:	e00a      	b.n	800d2d2 <__aeabi_l2d+0x16>

0800d2bc <__aeabi_l2d>:
 800d2bc:	ea50 0201 	orrs.w	r2, r0, r1
 800d2c0:	bf08      	it	eq
 800d2c2:	4770      	bxeq	lr
 800d2c4:	b530      	push	{r4, r5, lr}
 800d2c6:	f011 4500 	ands.w	r5, r1, #2147483648	; 0x80000000
 800d2ca:	d502      	bpl.n	800d2d2 <__aeabi_l2d+0x16>
 800d2cc:	4240      	negs	r0, r0
 800d2ce:	eb61 0141 	sbc.w	r1, r1, r1, lsl #1
 800d2d2:	f44f 6480 	mov.w	r4, #1024	; 0x400
 800d2d6:	f104 0432 	add.w	r4, r4, #50	; 0x32
 800d2da:	ea5f 5c91 	movs.w	ip, r1, lsr #22
 800d2de:	f43f aedc 	beq.w	800d09a <__adddf3+0xe6>
 800d2e2:	f04f 0203 	mov.w	r2, #3
 800d2e6:	ea5f 0cdc 	movs.w	ip, ip, lsr #3
 800d2ea:	bf18      	it	ne
 800d2ec:	3203      	addne	r2, #3
 800d2ee:	ea5f 0cdc 	movs.w	ip, ip, lsr #3
 800d2f2:	bf18      	it	ne
 800d2f4:	3203      	addne	r2, #3
 800d2f6:	eb02 02dc 	add.w	r2, r2, ip, lsr #3
 800d2fa:	f1c2 0320 	rsb	r3, r2, #32
 800d2fe:	fa00 fc03 	lsl.w	ip, r0, r3
 800d302:	fa20 f002 	lsr.w	r0, r0, r2
 800d306:	fa01 fe03 	lsl.w	lr, r1, r3
 800d30a:	ea40 000e 	orr.w	r0, r0, lr
 800d30e:	fa21 f102 	lsr.w	r1, r1, r2
 800d312:	4414      	add	r4, r2
 800d314:	e6c1      	b.n	800d09a <__adddf3+0xe6>
 800d316:	bf00      	nop

0800d318 <__aeabi_dmul>:
 800d318:	b570      	push	{r4, r5, r6, lr}
 800d31a:	f04f 0cff 	mov.w	ip, #255	; 0xff
 800d31e:	f44c 6ce0 	orr.w	ip, ip, #1792	; 0x700
 800d322:	ea1c 5411 	ands.w	r4, ip, r1, lsr #20
 800d326:	bf1d      	ittte	ne
 800d328:	ea1c 5513 	andsne.w	r5, ip, r3, lsr #20
 800d32c:	ea94 0f0c 	teqne	r4, ip
 800d330:	ea95 0f0c 	teqne	r5, ip
 800d334:	f000 f8de 	bleq	800d4f4 <__aeabi_dmul+0x1dc>
 800d338:	442c      	add	r4, r5
 800d33a:	ea81 0603 	eor.w	r6, r1, r3
 800d33e:	ea21 514c 	bic.w	r1, r1, ip, lsl #21
 800d342:	ea23 534c 	bic.w	r3, r3, ip, lsl #21
 800d346:	ea50 3501 	orrs.w	r5, r0, r1, lsl #12
 800d34a:	bf18      	it	ne
 800d34c:	ea52 3503 	orrsne.w	r5, r2, r3, lsl #12
 800d350:	f441 1180 	orr.w	r1, r1, #1048576	; 0x100000
 800d354:	f443 1380 	orr.w	r3, r3, #1048576	; 0x100000
 800d358:	d038      	beq.n	800d3cc <__aeabi_dmul+0xb4>
 800d35a:	fba0 ce02 	umull	ip, lr, r0, r2
 800d35e:	f04f 0500 	mov.w	r5, #0
 800d362:	fbe1 e502 	umlal	lr, r5, r1, r2
 800d366:	f006 4200 	and.w	r2, r6, #2147483648	; 0x80000000
 800d36a:	fbe0 e503 	umlal	lr, r5, r0, r3
 800d36e:	f04f 0600 	mov.w	r6, #0
 800d372:	fbe1 5603 	umlal	r5, r6, r1, r3
 800d376:	f09c 0f00 	teq	ip, #0
 800d37a:	bf18      	it	ne
 800d37c:	f04e 0e01 	orrne.w	lr, lr, #1
 800d380:	f1a4 04ff 	sub.w	r4, r4, #255	; 0xff
 800d384:	f5b6 7f00 	cmp.w	r6, #512	; 0x200
 800d388:	f564 7440 	sbc.w	r4, r4, #768	; 0x300
 800d38c:	d204      	bcs.n	800d398 <__aeabi_dmul+0x80>
 800d38e:	ea5f 0e4e 	movs.w	lr, lr, lsl #1
 800d392:	416d      	adcs	r5, r5
 800d394:	eb46 0606 	adc.w	r6, r6, r6
 800d398:	ea42 21c6 	orr.w	r1, r2, r6, lsl #11
 800d39c:	ea41 5155 	orr.w	r1, r1, r5, lsr #21
 800d3a0:	ea4f 20c5 	mov.w	r0, r5, lsl #11
 800d3a4:	ea40 505e 	orr.w	r0, r0, lr, lsr #21
 800d3a8:	ea4f 2ece 	mov.w	lr, lr, lsl #11
 800d3ac:	f1b4 0cfd 	subs.w	ip, r4, #253	; 0xfd
 800d3b0:	bf88      	it	hi
 800d3b2:	f5bc 6fe0 	cmphi.w	ip, #1792	; 0x700
 800d3b6:	d81e      	bhi.n	800d3f6 <__aeabi_dmul+0xde>
 800d3b8:	f1be 4f00 	cmp.w	lr, #2147483648	; 0x80000000
 800d3bc:	bf08      	it	eq
 800d3be:	ea5f 0e50 	movseq.w	lr, r0, lsr #1
 800d3c2:	f150 0000 	adcs.w	r0, r0, #0
 800d3c6:	eb41 5104 	adc.w	r1, r1, r4, lsl #20
 800d3ca:	bd70      	pop	{r4, r5, r6, pc}
 800d3cc:	f006 4600 	and.w	r6, r6, #2147483648	; 0x80000000
 800d3d0:	ea46 0101 	orr.w	r1, r6, r1
 800d3d4:	ea40 0002 	orr.w	r0, r0, r2
 800d3d8:	ea81 0103 	eor.w	r1, r1, r3
 800d3dc:	ebb4 045c 	subs.w	r4, r4, ip, lsr #1
 800d3e0:	bfc2      	ittt	gt
 800d3e2:	ebd4 050c 	rsbsgt	r5, r4, ip
 800d3e6:	ea41 5104 	orrgt.w	r1, r1, r4, lsl #20
 800d3ea:	bd70      	popgt	{r4, r5, r6, pc}
 800d3ec:	f441 1180 	orr.w	r1, r1, #1048576	; 0x100000
 800d3f0:	f04f 0e00 	mov.w	lr, #0
 800d3f4:	3c01      	subs	r4, #1
 800d3f6:	f300 80ab 	bgt.w	800d550 <__aeabi_dmul+0x238>
 800d3fa:	f114 0f36 	cmn.w	r4, #54	; 0x36
 800d3fe:	bfde      	ittt	le
 800d400:	2000      	movle	r0, #0
 800d402:	f001 4100 	andle.w	r1, r1, #2147483648	; 0x80000000
 800d406:	bd70      	pople	{r4, r5, r6, pc}
 800d408:	f1c4 0400 	rsb	r4, r4, #0
 800d40c:	3c20      	subs	r4, #32
 800d40e:	da35      	bge.n	800d47c <__aeabi_dmul+0x164>
 800d410:	340c      	adds	r4, #12
 800d412:	dc1b      	bgt.n	800d44c <__aeabi_dmul+0x134>
 800d414:	f104 0414 	add.w	r4, r4, #20
 800d418:	f1c4 0520 	rsb	r5, r4, #32
 800d41c:	fa00 f305 	lsl.w	r3, r0, r5
 800d420:	fa20 f004 	lsr.w	r0, r0, r4
 800d424:	fa01 f205 	lsl.w	r2, r1, r5
 800d428:	ea40 0002 	orr.w	r0, r0, r2
 800d42c:	f001 4200 	and.w	r2, r1, #2147483648	; 0x80000000
 800d430:	f021 4100 	bic.w	r1, r1, #2147483648	; 0x80000000
 800d434:	eb10 70d3 	adds.w	r0, r0, r3, lsr #31
 800d438:	fa21 f604 	lsr.w	r6, r1, r4
 800d43c:	eb42 0106 	adc.w	r1, r2, r6
 800d440:	ea5e 0e43 	orrs.w	lr, lr, r3, lsl #1
 800d444:	bf08      	it	eq
 800d446:	ea20 70d3 	biceq.w	r0, r0, r3, lsr #31
 800d44a:	bd70      	pop	{r4, r5, r6, pc}
 800d44c:	f1c4 040c 	rsb	r4, r4, #12
 800d450:	f1c4 0520 	rsb	r5, r4, #32
 800d454:	fa00 f304 	lsl.w	r3, r0, r4
 800d458:	fa20 f005 	lsr.w	r0, r0, r5
 800d45c:	fa01 f204 	lsl.w	r2, r1, r4
 800d460:	ea40 0002 	orr.w	r0, r0, r2
 800d464:	f001 4100 	and.w	r1, r1, #2147483648	; 0x80000000
 800d468:	eb10 70d3 	adds.w	r0, r0, r3, lsr #31
 800d46c:	f141 0100 	adc.w	r1, r1, #0
 800d470:	ea5e 0e43 	orrs.w	lr, lr, r3, lsl #1
 800d474:	bf08      	it	eq
 800d476:	ea20 70d3 	biceq.w	r0, r0, r3, lsr #31
 800d47a:	bd70      	pop	{r4, r5, r6, pc}
 800d47c:	f1c4 0520 	rsb	r5, r4, #32
 800d480:	fa00 f205 	lsl.w	r2, r0, r5
 800d484:	ea4e 0e02 	orr.w	lr, lr, r2
 800d488:	fa20 f304 	lsr.w	r3, r0, r4
 800d48c:	fa01 f205 	lsl.w	r2, r1, r5
 800d490:	ea43 0302 	orr.w	r3, r3, r2
 800d494:	fa21 f004 	lsr.w	r0, r1, r4
 800d498:	f001 4100 	and.w	r1, r1, #2147483648	; 0x80000000
 800d49c:	fa21 f204 	lsr.w	r2, r1, r4
 800d4a0:	ea20 0002 	bic.w	r0, r0, r2
 800d4a4:	eb00 70d3 	add.w	r0, r0, r3, lsr #31
 800d4a8:	ea5e 0e43 	orrs.w	lr, lr, r3, lsl #1
 800d4ac:	bf08      	it	eq
 800d4ae:	ea20 70d3 	biceq.w	r0, r0, r3, lsr #31
 800d4b2:	bd70      	pop	{r4, r5, r6, pc}
 800d4b4:	f094 0f00 	teq	r4, #0
 800d4b8:	d10f      	bne.n	800d4da <__aeabi_dmul+0x1c2>
 800d4ba:	f001 4600 	and.w	r6, r1, #2147483648	; 0x80000000
 800d4be:	0040      	lsls	r0, r0, #1
 800d4c0:	eb41 0101 	adc.w	r1, r1, r1
 800d4c4:	f411 1f80 	tst.w	r1, #1048576	; 0x100000
 800d4c8:	bf08      	it	eq
 800d4ca:	3c01      	subeq	r4, #1
 800d4cc:	d0f7      	beq.n	800d4be <__aeabi_dmul+0x1a6>
 800d4ce:	ea41 0106 	orr.w	r1, r1, r6
 800d4d2:	f095 0f00 	teq	r5, #0
 800d4d6:	bf18      	it	ne
 800d4d8:	4770      	bxne	lr
 800d4da:	f003 4600 	and.w	r6, r3, #2147483648	; 0x80000000
 800d4de:	0052      	lsls	r2, r2, #1
 800d4e0:	eb43 0303 	adc.w	r3, r3, r3
 800d4e4:	f413 1f80 	tst.w	r3, #1048576	; 0x100000
 800d4e8:	bf08      	it	eq
 800d4ea:	3d01      	subeq	r5, #1
 800d4ec:	d0f7      	beq.n	800d4de <__aeabi_dmul+0x1c6>
 800d4ee:	ea43 0306 	orr.w	r3, r3, r6
 800d4f2:	4770      	bx	lr
 800d4f4:	ea94 0f0c 	teq	r4, ip
 800d4f8:	ea0c 5513 	and.w	r5, ip, r3, lsr #20
 800d4fc:	bf18      	it	ne
 800d4fe:	ea95 0f0c 	teqne	r5, ip
 800d502:	d00c      	beq.n	800d51e <__aeabi_dmul+0x206>
 800d504:	ea50 0641 	orrs.w	r6, r0, r1, lsl #1
 800d508:	bf18      	it	ne
 800d50a:	ea52 0643 	orrsne.w	r6, r2, r3, lsl #1
 800d50e:	d1d1      	bne.n	800d4b4 <__aeabi_dmul+0x19c>
 800d510:	ea81 0103 	eor.w	r1, r1, r3
 800d514:	f001 4100 	and.w	r1, r1, #2147483648	; 0x80000000
 800d518:	f04f 0000 	mov.w	r0, #0
 800d51c:	bd70      	pop	{r4, r5, r6, pc}
 800d51e:	ea50 0641 	orrs.w	r6, r0, r1, lsl #1
 800d522:	bf06      	itte	eq
 800d524:	4610      	moveq	r0, r2
 800d526:	4619      	moveq	r1, r3
 800d528:	ea52 0643 	orrsne.w	r6, r2, r3, lsl #1
 800d52c:	d019      	beq.n	800d562 <__aeabi_dmul+0x24a>
 800d52e:	ea94 0f0c 	teq	r4, ip
 800d532:	d102      	bne.n	800d53a <__aeabi_dmul+0x222>
 800d534:	ea50 3601 	orrs.w	r6, r0, r1, lsl #12
 800d538:	d113      	bne.n	800d562 <__aeabi_dmul+0x24a>
 800d53a:	ea95 0f0c 	teq	r5, ip
 800d53e:	d105      	bne.n	800d54c <__aeabi_dmul+0x234>
 800d540:	ea52 3603 	orrs.w	r6, r2, r3, lsl #12
 800d544:	bf1c      	itt	ne
 800d546:	4610      	movne	r0, r2
 800d548:	4619      	movne	r1, r3
 800d54a:	d10a      	bne.n	800d562 <__aeabi_dmul+0x24a>
 800d54c:	ea81 0103 	eor.w	r1, r1, r3
 800d550:	f001 4100 	and.w	r1, r1, #2147483648	; 0x80000000
 800d554:	f041 41fe 	orr.w	r1, r1, #2130706432	; 0x7f000000
 800d558:	f441 0170 	orr.w	r1, r1, #15728640	; 0xf00000
 800d55c:	f04f 0000 	mov.w	r0, #0
 800d560:	bd70      	pop	{r4, r5, r6, pc}
 800d562:	f041 41fe 	orr.w	r1, r1, #2130706432	; 0x7f000000
 800d566:	f441 0178 	orr.w	r1, r1, #16252928	; 0xf80000
 800d56a:	bd70      	pop	{r4, r5, r6, pc}

0800d56c <__aeabi_ddiv>:
 800d56c:	b570      	push	{r4, r5, r6, lr}
 800d56e:	f04f 0cff 	mov.w	ip, #255	; 0xff
 800d572:	f44c 6ce0 	orr.w	ip, ip, #1792	; 0x700
 800d576:	ea1c 5411 	ands.w	r4, ip, r1, lsr #20
 800d57a:	bf1d      	ittte	ne
 800d57c:	ea1c 5513 	andsne.w	r5, ip, r3, lsr #20
 800d580:	ea94 0f0c 	teqne	r4, ip
 800d584:	ea95 0f0c 	teqne	r5, ip
 800d588:	f000 f8a7 	bleq	800d6da <__aeabi_ddiv+0x16e>
 800d58c:	eba4 0405 	sub.w	r4, r4, r5
 800d590:	ea81 0e03 	eor.w	lr, r1, r3
 800d594:	ea52 3503 	orrs.w	r5, r2, r3, lsl #12
 800d598:	ea4f 3101 	mov.w	r1, r1, lsl #12
 800d59c:	f000 8088 	beq.w	800d6b0 <__aeabi_ddiv+0x144>
 800d5a0:	ea4f 3303 	mov.w	r3, r3, lsl #12
 800d5a4:	f04f 5580 	mov.w	r5, #268435456	; 0x10000000
 800d5a8:	ea45 1313 	orr.w	r3, r5, r3, lsr #4
 800d5ac:	ea43 6312 	orr.w	r3, r3, r2, lsr #24
 800d5b0:	ea4f 2202 	mov.w	r2, r2, lsl #8
 800d5b4:	ea45 1511 	orr.w	r5, r5, r1, lsr #4
 800d5b8:	ea45 6510 	orr.w	r5, r5, r0, lsr #24
 800d5bc:	ea4f 2600 	mov.w	r6, r0, lsl #8
 800d5c0:	f00e 4100 	and.w	r1, lr, #2147483648	; 0x80000000
 800d5c4:	429d      	cmp	r5, r3
 800d5c6:	bf08      	it	eq
 800d5c8:	4296      	cmpeq	r6, r2
 800d5ca:	f144 04fd 	adc.w	r4, r4, #253	; 0xfd
 800d5ce:	f504 7440 	add.w	r4, r4, #768	; 0x300
 800d5d2:	d202      	bcs.n	800d5da <__aeabi_ddiv+0x6e>
 800d5d4:	085b      	lsrs	r3, r3, #1
 800d5d6:	ea4f 0232 	mov.w	r2, r2, rrx
 800d5da:	1ab6      	subs	r6, r6, r2
 800d5dc:	eb65 0503 	sbc.w	r5, r5, r3
 800d5e0:	085b      	lsrs	r3, r3, #1
 800d5e2:	ea4f 0232 	mov.w	r2, r2, rrx
 800d5e6:	f44f 1080 	mov.w	r0, #1048576	; 0x100000
 800d5ea:	f44f 2c00 	mov.w	ip, #524288	; 0x80000
 800d5ee:	ebb6 0e02 	subs.w	lr, r6, r2
 800d5f2:	eb75 0e03 	sbcs.w	lr, r5, r3
 800d5f6:	bf22      	ittt	cs
 800d5f8:	1ab6      	subcs	r6, r6, r2
 800d5fa:	4675      	movcs	r5, lr
 800d5fc:	ea40 000c 	orrcs.w	r0, r0, ip
 800d600:	085b      	lsrs	r3, r3, #1
 800d602:	ea4f 0232 	mov.w	r2, r2, rrx
 800d606:	ebb6 0e02 	subs.w	lr, r6, r2
 800d60a:	eb75 0e03 	sbcs.w	lr, r5, r3
 800d60e:	bf22      	ittt	cs
 800d610:	1ab6      	subcs	r6, r6, r2
 800d612:	4675      	movcs	r5, lr
 800d614:	ea40 005c 	orrcs.w	r0, r0, ip, lsr #1
 800d618:	085b      	lsrs	r3, r3, #1
 800d61a:	ea4f 0232 	mov.w	r2, r2, rrx
 800d61e:	ebb6 0e02 	subs.w	lr, r6, r2
 800d622:	eb75 0e03 	sbcs.w	lr, r5, r3
 800d626:	bf22      	ittt	cs
 800d628:	1ab6      	subcs	r6, r6, r2
 800d62a:	4675      	movcs	r5, lr
 800d62c:	ea40 009c 	orrcs.w	r0, r0, ip, lsr #2
 800d630:	085b      	lsrs	r3, r3, #1
 800d632:	ea4f 0232 	mov.w	r2, r2, rrx
 800d636:	ebb6 0e02 	subs.w	lr, r6, r2
 800d63a:	eb75 0e03 	sbcs.w	lr, r5, r3
 800d63e:	bf22      	ittt	cs
 800d640:	1ab6      	subcs	r6, r6, r2
 800d642:	4675      	movcs	r5, lr
 800d644:	ea40 00dc 	orrcs.w	r0, r0, ip, lsr #3
 800d648:	ea55 0e06 	orrs.w	lr, r5, r6
 800d64c:	d018      	beq.n	800d680 <__aeabi_ddiv+0x114>
 800d64e:	ea4f 1505 	mov.w	r5, r5, lsl #4
 800d652:	ea45 7516 	orr.w	r5, r5, r6, lsr #28
 800d656:	ea4f 1606 	mov.w	r6, r6, lsl #4
 800d65a:	ea4f 03c3 	mov.w	r3, r3, lsl #3
 800d65e:	ea43 7352 	orr.w	r3, r3, r2, lsr #29
 800d662:	ea4f 02c2 	mov.w	r2, r2, lsl #3
 800d666:	ea5f 1c1c 	movs.w	ip, ip, lsr #4
 800d66a:	d1c0      	bne.n	800d5ee <__aeabi_ddiv+0x82>
 800d66c:	f411 1f80 	tst.w	r1, #1048576	; 0x100000
 800d670:	d10b      	bne.n	800d68a <__aeabi_ddiv+0x11e>
 800d672:	ea41 0100 	orr.w	r1, r1, r0
 800d676:	f04f 0000 	mov.w	r0, #0
 800d67a:	f04f 4c00 	mov.w	ip, #2147483648	; 0x80000000
 800d67e:	e7b6      	b.n	800d5ee <__aeabi_ddiv+0x82>
 800d680:	f411 1f80 	tst.w	r1, #1048576	; 0x100000
 800d684:	bf04      	itt	eq
 800d686:	4301      	orreq	r1, r0
 800d688:	2000      	moveq	r0, #0
 800d68a:	f1b4 0cfd 	subs.w	ip, r4, #253	; 0xfd
 800d68e:	bf88      	it	hi
 800d690:	f5bc 6fe0 	cmphi.w	ip, #1792	; 0x700
 800d694:	f63f aeaf 	bhi.w	800d3f6 <__aeabi_dmul+0xde>
 800d698:	ebb5 0c03 	subs.w	ip, r5, r3
 800d69c:	bf04      	itt	eq
 800d69e:	ebb6 0c02 	subseq.w	ip, r6, r2
 800d6a2:	ea5f 0c50 	movseq.w	ip, r0, lsr #1
 800d6a6:	f150 0000 	adcs.w	r0, r0, #0
 800d6aa:	eb41 5104 	adc.w	r1, r1, r4, lsl #20
 800d6ae:	bd70      	pop	{r4, r5, r6, pc}
 800d6b0:	f00e 4e00 	and.w	lr, lr, #2147483648	; 0x80000000
 800d6b4:	ea4e 3111 	orr.w	r1, lr, r1, lsr #12
 800d6b8:	eb14 045c 	adds.w	r4, r4, ip, lsr #1
 800d6bc:	bfc2      	ittt	gt
 800d6be:	ebd4 050c 	rsbsgt	r5, r4, ip
 800d6c2:	ea41 5104 	orrgt.w	r1, r1, r4, lsl #20
 800d6c6:	bd70      	popgt	{r4, r5, r6, pc}
 800d6c8:	f441 1180 	orr.w	r1, r1, #1048576	; 0x100000
 800d6cc:	f04f 0e00 	mov.w	lr, #0
 800d6d0:	3c01      	subs	r4, #1
 800d6d2:	e690      	b.n	800d3f6 <__aeabi_dmul+0xde>
 800d6d4:	ea45 0e06 	orr.w	lr, r5, r6
 800d6d8:	e68d      	b.n	800d3f6 <__aeabi_dmul+0xde>
 800d6da:	ea0c 5513 	and.w	r5, ip, r3, lsr #20
 800d6de:	ea94 0f0c 	teq	r4, ip
 800d6e2:	bf08      	it	eq
 800d6e4:	ea95 0f0c 	teqeq	r5, ip
 800d6e8:	f43f af3b 	beq.w	800d562 <__aeabi_dmul+0x24a>
 800d6ec:	ea94 0f0c 	teq	r4, ip
 800d6f0:	d10a      	bne.n	800d708 <__aeabi_ddiv+0x19c>
 800d6f2:	ea50 3401 	orrs.w	r4, r0, r1, lsl #12
 800d6f6:	f47f af34 	bne.w	800d562 <__aeabi_dmul+0x24a>
 800d6fa:	ea95 0f0c 	teq	r5, ip
 800d6fe:	f47f af25 	bne.w	800d54c <__aeabi_dmul+0x234>
 800d702:	4610      	mov	r0, r2
 800d704:	4619      	mov	r1, r3
 800d706:	e72c      	b.n	800d562 <__aeabi_dmul+0x24a>
 800d708:	ea95 0f0c 	teq	r5, ip
 800d70c:	d106      	bne.n	800d71c <__aeabi_ddiv+0x1b0>
 800d70e:	ea52 3503 	orrs.w	r5, r2, r3, lsl #12
 800d712:	f43f aefd 	beq.w	800d510 <__aeabi_dmul+0x1f8>
 800d716:	4610      	mov	r0, r2
 800d718:	4619      	mov	r1, r3
 800d71a:	e722      	b.n	800d562 <__aeabi_dmul+0x24a>
 800d71c:	ea50 0641 	orrs.w	r6, r0, r1, lsl #1
 800d720:	bf18      	it	ne
 800d722:	ea52 0643 	orrsne.w	r6, r2, r3, lsl #1
 800d726:	f47f aec5 	bne.w	800d4b4 <__aeabi_dmul+0x19c>
 800d72a:	ea50 0441 	orrs.w	r4, r0, r1, lsl #1
 800d72e:	f47f af0d 	bne.w	800d54c <__aeabi_dmul+0x234>
 800d732:	ea52 0543 	orrs.w	r5, r2, r3, lsl #1
 800d736:	f47f aeeb 	bne.w	800d510 <__aeabi_dmul+0x1f8>
 800d73a:	e712      	b.n	800d562 <__aeabi_dmul+0x24a>

0800d73c <__aeabi_d2f>:
 800d73c:	ea4f 0241 	mov.w	r2, r1, lsl #1
 800d740:	f1b2 43e0 	subs.w	r3, r2, #1879048192	; 0x70000000
 800d744:	bf24      	itt	cs
 800d746:	f5b3 1c00 	subscs.w	ip, r3, #2097152	; 0x200000
 800d74a:	f1dc 5cfe 	rsbscs	ip, ip, #532676608	; 0x1fc00000
 800d74e:	d90d      	bls.n	800d76c <__aeabi_d2f+0x30>
 800d750:	f001 4c00 	and.w	ip, r1, #2147483648	; 0x80000000
 800d754:	ea4f 02c0 	mov.w	r2, r0, lsl #3
 800d758:	ea4c 7050 	orr.w	r0, ip, r0, lsr #29
 800d75c:	f1b2 4f00 	cmp.w	r2, #2147483648	; 0x80000000
 800d760:	eb40 0083 	adc.w	r0, r0, r3, lsl #2
 800d764:	bf08      	it	eq
 800d766:	f020 0001 	biceq.w	r0, r0, #1
 800d76a:	4770      	bx	lr
 800d76c:	f011 4f80 	tst.w	r1, #1073741824	; 0x40000000
 800d770:	d121      	bne.n	800d7b6 <__aeabi_d2f+0x7a>
 800d772:	f113 7238 	adds.w	r2, r3, #48234496	; 0x2e00000
 800d776:	bfbc      	itt	lt
 800d778:	f001 4000 	andlt.w	r0, r1, #2147483648	; 0x80000000
 800d77c:	4770      	bxlt	lr
 800d77e:	f441 1180 	orr.w	r1, r1, #1048576	; 0x100000
 800d782:	ea4f 5252 	mov.w	r2, r2, lsr #21
 800d786:	f1c2 0218 	rsb	r2, r2, #24
 800d78a:	f1c2 0c20 	rsb	ip, r2, #32
 800d78e:	fa10 f30c 	lsls.w	r3, r0, ip
 800d792:	fa20 f002 	lsr.w	r0, r0, r2
 800d796:	bf18      	it	ne
 800d798:	f040 0001 	orrne.w	r0, r0, #1
 800d79c:	ea4f 23c1 	mov.w	r3, r1, lsl #11
 800d7a0:	ea4f 23d3 	mov.w	r3, r3, lsr #11
 800d7a4:	fa03 fc0c 	lsl.w	ip, r3, ip
 800d7a8:	ea40 000c 	orr.w	r0, r0, ip
 800d7ac:	fa23 f302 	lsr.w	r3, r3, r2
 800d7b0:	ea4f 0343 	mov.w	r3, r3, lsl #1
 800d7b4:	e7cc      	b.n	800d750 <__aeabi_d2f+0x14>
 800d7b6:	ea7f 5362 	mvns.w	r3, r2, asr #21
 800d7ba:	d107      	bne.n	800d7cc <__aeabi_d2f+0x90>
 800d7bc:	ea50 3301 	orrs.w	r3, r0, r1, lsl #12
 800d7c0:	bf1e      	ittt	ne
 800d7c2:	f04f 40fe 	movne.w	r0, #2130706432	; 0x7f000000
 800d7c6:	f440 0040 	orrne.w	r0, r0, #12582912	; 0xc00000
 800d7ca:	4770      	bxne	lr
 800d7cc:	f001 4000 	and.w	r0, r1, #2147483648	; 0x80000000
 800d7d0:	f040 40fe 	orr.w	r0, r0, #2130706432	; 0x7f000000
 800d7d4:	f440 0000 	orr.w	r0, r0, #8388608	; 0x800000
 800d7d8:	4770      	bx	lr
 800d7da:	bf00      	nop

0800d7dc <__aeabi_frsub>:
 800d7dc:	f080 4000 	eor.w	r0, r0, #2147483648	; 0x80000000
 800d7e0:	e002      	b.n	800d7e8 <__addsf3>
 800d7e2:	bf00      	nop

0800d7e4 <__aeabi_fsub>:
 800d7e4:	f081 4100 	eor.w	r1, r1, #2147483648	; 0x80000000

0800d7e8 <__addsf3>:
 800d7e8:	0042      	lsls	r2, r0, #1
 800d7ea:	bf1f      	itttt	ne
 800d7ec:	ea5f 0341 	movsne.w	r3, r1, lsl #1
 800d7f0:	ea92 0f03 	teqne	r2, r3
 800d7f4:	ea7f 6c22 	mvnsne.w	ip, r2, asr #24
 800d7f8:	ea7f 6c23 	mvnsne.w	ip, r3, asr #24
 800d7fc:	d06a      	beq.n	800d8d4 <__addsf3+0xec>
 800d7fe:	ea4f 6212 	mov.w	r2, r2, lsr #24
 800d802:	ebd2 6313 	rsbs	r3, r2, r3, lsr #24
 800d806:	bfc1      	itttt	gt
 800d808:	18d2      	addgt	r2, r2, r3
 800d80a:	4041      	eorgt	r1, r0
 800d80c:	4048      	eorgt	r0, r1
 800d80e:	4041      	eorgt	r1, r0
 800d810:	bfb8      	it	lt
 800d812:	425b      	neglt	r3, r3
 800d814:	2b19      	cmp	r3, #25
 800d816:	bf88      	it	hi
 800d818:	4770      	bxhi	lr
 800d81a:	f010 4f00 	tst.w	r0, #2147483648	; 0x80000000
 800d81e:	f440 0000 	orr.w	r0, r0, #8388608	; 0x800000
 800d822:	f020 407f 	bic.w	r0, r0, #4278190080	; 0xff000000
 800d826:	bf18      	it	ne
 800d828:	4240      	negne	r0, r0
 800d82a:	f011 4f00 	tst.w	r1, #2147483648	; 0x80000000
 800d82e:	f441 0100 	orr.w	r1, r1, #8388608	; 0x800000
 800d832:	f021 417f 	bic.w	r1, r1, #4278190080	; 0xff000000
 800d836:	bf18      	it	ne
 800d838:	4249      	negne	r1, r1
 800d83a:	ea92 0f03 	teq	r2, r3
 800d83e:	d03f      	beq.n	800d8c0 <__addsf3+0xd8>
 800d840:	f1a2 0201 	sub.w	r2, r2, #1
 800d844:	fa41 fc03 	asr.w	ip, r1, r3
 800d848:	eb10 000c 	adds.w	r0, r0, ip
 800d84c:	f1c3 0320 	rsb	r3, r3, #32
 800d850:	fa01 f103 	lsl.w	r1, r1, r3
 800d854:	f000 4300 	and.w	r3, r0, #2147483648	; 0x80000000
 800d858:	d502      	bpl.n	800d860 <__addsf3+0x78>
 800d85a:	4249      	negs	r1, r1
 800d85c:	eb60 0040 	sbc.w	r0, r0, r0, lsl #1
 800d860:	f5b0 0f00 	cmp.w	r0, #8388608	; 0x800000
 800d864:	d313      	bcc.n	800d88e <__addsf3+0xa6>
 800d866:	f1b0 7f80 	cmp.w	r0, #16777216	; 0x1000000
 800d86a:	d306      	bcc.n	800d87a <__addsf3+0x92>
 800d86c:	0840      	lsrs	r0, r0, #1
 800d86e:	ea4f 0131 	mov.w	r1, r1, rrx
 800d872:	f102 0201 	add.w	r2, r2, #1
 800d876:	2afe      	cmp	r2, #254	; 0xfe
 800d878:	d251      	bcs.n	800d91e <__addsf3+0x136>
 800d87a:	f1b1 4f00 	cmp.w	r1, #2147483648	; 0x80000000
 800d87e:	eb40 50c2 	adc.w	r0, r0, r2, lsl #23
 800d882:	bf08      	it	eq
 800d884:	f020 0001 	biceq.w	r0, r0, #1
 800d888:	ea40 0003 	orr.w	r0, r0, r3
 800d88c:	4770      	bx	lr
 800d88e:	0049      	lsls	r1, r1, #1
 800d890:	eb40 0000 	adc.w	r0, r0, r0
 800d894:	f410 0f00 	tst.w	r0, #8388608	; 0x800000
 800d898:	f1a2 0201 	sub.w	r2, r2, #1
 800d89c:	d1ed      	bne.n	800d87a <__addsf3+0x92>
 800d89e:	fab0 fc80 	clz	ip, r0
 800d8a2:	f1ac 0c08 	sub.w	ip, ip, #8
 800d8a6:	ebb2 020c 	subs.w	r2, r2, ip
 800d8aa:	fa00 f00c 	lsl.w	r0, r0, ip
 800d8ae:	bfaa      	itet	ge
 800d8b0:	eb00 50c2 	addge.w	r0, r0, r2, lsl #23
 800d8b4:	4252      	neglt	r2, r2
 800d8b6:	4318      	orrge	r0, r3
 800d8b8:	bfbc      	itt	lt
 800d8ba:	40d0      	lsrlt	r0, r2
 800d8bc:	4318      	orrlt	r0, r3
 800d8be:	4770      	bx	lr
 800d8c0:	f092 0f00 	teq	r2, #0
 800d8c4:	f481 0100 	eor.w	r1, r1, #8388608	; 0x800000
 800d8c8:	bf06      	itte	eq
 800d8ca:	f480 0000 	eoreq.w	r0, r0, #8388608	; 0x800000
 800d8ce:	3201      	addeq	r2, #1
 800d8d0:	3b01      	subne	r3, #1
 800d8d2:	e7b5      	b.n	800d840 <__addsf3+0x58>
 800d8d4:	ea4f 0341 	mov.w	r3, r1, lsl #1
 800d8d8:	ea7f 6c22 	mvns.w	ip, r2, asr #24
 800d8dc:	bf18      	it	ne
 800d8de:	ea7f 6c23 	mvnsne.w	ip, r3, asr #24
 800d8e2:	d021      	beq.n	800d928 <__addsf3+0x140>
 800d8e4:	ea92 0f03 	teq	r2, r3
 800d8e8:	d004      	beq.n	800d8f4 <__addsf3+0x10c>
 800d8ea:	f092 0f00 	teq	r2, #0
 800d8ee:	bf08      	it	eq
 800d8f0:	4608      	moveq	r0, r1
 800d8f2:	4770      	bx	lr
 800d8f4:	ea90 0f01 	teq	r0, r1
 800d8f8:	bf1c      	itt	ne
 800d8fa:	2000      	movne	r0, #0
 800d8fc:	4770      	bxne	lr
 800d8fe:	f012 4f7f 	tst.w	r2, #4278190080	; 0xff000000
 800d902:	d104      	bne.n	800d90e <__addsf3+0x126>
 800d904:	0040      	lsls	r0, r0, #1
 800d906:	bf28      	it	cs
 800d908:	f040 4000 	orrcs.w	r0, r0, #2147483648	; 0x80000000
 800d90c:	4770      	bx	lr
 800d90e:	f112 7200 	adds.w	r2, r2, #33554432	; 0x2000000
 800d912:	bf3c      	itt	cc
 800d914:	f500 0000 	addcc.w	r0, r0, #8388608	; 0x800000
 800d918:	4770      	bxcc	lr
 800d91a:	f000 4300 	and.w	r3, r0, #2147483648	; 0x80000000
 800d91e:	f043 40fe 	orr.w	r0, r3, #2130706432	; 0x7f000000
 800d922:	f440 0000 	orr.w	r0, r0, #8388608	; 0x800000
 800d926:	4770      	bx	lr
 800d928:	ea7f 6222 	mvns.w	r2, r2, asr #24
 800d92c:	bf16      	itet	ne
 800d92e:	4608      	movne	r0, r1
 800d930:	ea7f 6323 	mvnseq.w	r3, r3, asr #24
 800d934:	4601      	movne	r1, r0
 800d936:	0242      	lsls	r2, r0, #9
 800d938:	bf06      	itte	eq
 800d93a:	ea5f 2341 	movseq.w	r3, r1, lsl #9
 800d93e:	ea90 0f01 	teqeq	r0, r1
 800d942:	f440 0080 	orrne.w	r0, r0, #4194304	; 0x400000
 800d946:	4770      	bx	lr

0800d948 <__aeabi_ui2f>:
 800d948:	f04f 0300 	mov.w	r3, #0
 800d94c:	e004      	b.n	800d958 <__aeabi_i2f+0x8>
 800d94e:	bf00      	nop

0800d950 <__aeabi_i2f>:
 800d950:	f010 4300 	ands.w	r3, r0, #2147483648	; 0x80000000
 800d954:	bf48      	it	mi
 800d956:	4240      	negmi	r0, r0
 800d958:	ea5f 0c00 	movs.w	ip, r0
 800d95c:	bf08      	it	eq
 800d95e:	4770      	bxeq	lr
 800d960:	f043 4396 	orr.w	r3, r3, #1258291200	; 0x4b000000
 800d964:	4601      	mov	r1, r0
 800d966:	f04f 0000 	mov.w	r0, #0
 800d96a:	e01c      	b.n	800d9a6 <__aeabi_l2f+0x2a>

0800d96c <__aeabi_ul2f>:
 800d96c:	ea50 0201 	orrs.w	r2, r0, r1
 800d970:	bf08      	it	eq
 800d972:	4770      	bxeq	lr
 800d974:	f04f 0300 	mov.w	r3, #0
 800d978:	e00a      	b.n	800d990 <__aeabi_l2f+0x14>
 800d97a:	bf00      	nop

0800d97c <__aeabi_l2f>:
 800d97c:	ea50 0201 	orrs.w	r2, r0, r1
 800d980:	bf08      	it	eq
 800d982:	4770      	bxeq	lr
 800d984:	f011 4300 	ands.w	r3, r1, #2147483648	; 0x80000000
 800d988:	d502      	bpl.n	800d990 <__aeabi_l2f+0x14>
 800d98a:	4240      	negs	r0, r0
 800d98c:	eb61 0141 	sbc.w	r1, r1, r1, lsl #1
 800d990:	ea5f 0c01 	movs.w	ip, r1
 800d994:	bf02      	ittt	eq
 800d996:	4684      	moveq	ip, r0
 800d998:	4601      	moveq	r1, r0
 800d99a:	2000      	moveq	r0, #0
 800d99c:	f043 43b6 	orr.w	r3, r3, #1526726656	; 0x5b000000
 800d9a0:	bf08      	it	eq
 800d9a2:	f1a3 5380 	subeq.w	r3, r3, #268435456	; 0x10000000
 800d9a6:	f5a3 0300 	sub.w	r3, r3, #8388608	; 0x800000
 800d9aa:	fabc f28c 	clz	r2, ip
 800d9ae:	3a08      	subs	r2, #8
 800d9b0:	eba3 53c2 	sub.w	r3, r3, r2, lsl #23
 800d9b4:	db10      	blt.n	800d9d8 <__aeabi_l2f+0x5c>
 800d9b6:	fa01 fc02 	lsl.w	ip, r1, r2
 800d9ba:	4463      	add	r3, ip
 800d9bc:	fa00 fc02 	lsl.w	ip, r0, r2
 800d9c0:	f1c2 0220 	rsb	r2, r2, #32
 800d9c4:	f1bc 4f00 	cmp.w	ip, #2147483648	; 0x80000000
 800d9c8:	fa20 f202 	lsr.w	r2, r0, r2
 800d9cc:	eb43 0002 	adc.w	r0, r3, r2
 800d9d0:	bf08      	it	eq
 800d9d2:	f020 0001 	biceq.w	r0, r0, #1
 800d9d6:	4770      	bx	lr
 800d9d8:	f102 0220 	add.w	r2, r2, #32
 800d9dc:	fa01 fc02 	lsl.w	ip, r1, r2
 800d9e0:	f1c2 0220 	rsb	r2, r2, #32
 800d9e4:	ea50 004c 	orrs.w	r0, r0, ip, lsl #1
 800d9e8:	fa21 f202 	lsr.w	r2, r1, r2
 800d9ec:	eb43 0002 	adc.w	r0, r3, r2
 800d9f0:	bf08      	it	eq
 800d9f2:	ea20 70dc 	biceq.w	r0, r0, ip, lsr #31
 800d9f6:	4770      	bx	lr

0800d9f8 <__errno>:
 800d9f8:	4b01      	ldr	r3, [pc, #4]	; (800da00 <__errno+0x8>)
 800d9fa:	6818      	ldr	r0, [r3, #0]
 800d9fc:	4770      	bx	lr
 800d9fe:	bf00      	nop
 800da00:	1ffe8998 	.word	0x1ffe8998

0800da04 <__libc_init_array>:
 800da04:	b570      	push	{r4, r5, r6, lr}
 800da06:	4b0e      	ldr	r3, [pc, #56]	; (800da40 <__libc_init_array+0x3c>)
 800da08:	4c0e      	ldr	r4, [pc, #56]	; (800da44 <__libc_init_array+0x40>)
 800da0a:	1ae4      	subs	r4, r4, r3
 800da0c:	10a4      	asrs	r4, r4, #2
 800da0e:	2500      	movs	r5, #0
 800da10:	461e      	mov	r6, r3
 800da12:	42a5      	cmp	r5, r4
 800da14:	d004      	beq.n	800da20 <__libc_init_array+0x1c>
 800da16:	f856 3025 	ldr.w	r3, [r6, r5, lsl #2]
 800da1a:	4798      	blx	r3
 800da1c:	3501      	adds	r5, #1
 800da1e:	e7f8      	b.n	800da12 <__libc_init_array+0xe>
 800da20:	f7f3 faa4 	bl	8000f6c <_init>
 800da24:	4c08      	ldr	r4, [pc, #32]	; (800da48 <__libc_init_array+0x44>)
 800da26:	4b09      	ldr	r3, [pc, #36]	; (800da4c <__libc_init_array+0x48>)
 800da28:	1ae4      	subs	r4, r4, r3
 800da2a:	10a4      	asrs	r4, r4, #2
 800da2c:	2500      	movs	r5, #0
 800da2e:	461e      	mov	r6, r3
 800da30:	42a5      	cmp	r5, r4
 800da32:	d004      	beq.n	800da3e <__libc_init_array+0x3a>
 800da34:	f856 3025 	ldr.w	r3, [r6, r5, lsl #2]
 800da38:	4798      	blx	r3
 800da3a:	3501      	adds	r5, #1
 800da3c:	e7f8      	b.n	800da30 <__libc_init_array+0x2c>
 800da3e:	bd70      	pop	{r4, r5, r6, pc}
 800da40:	1ffe899c 	.word	0x1ffe899c
 800da44:	1ffe899c 	.word	0x1ffe899c
 800da48:	1ffe899c 	.word	0x1ffe899c
 800da4c:	1ffe899c 	.word	0x1ffe899c

0800da50 <malloc>:
 800da50:	4b02      	ldr	r3, [pc, #8]	; (800da5c <malloc+0xc>)
 800da52:	4601      	mov	r1, r0
 800da54:	6818      	ldr	r0, [r3, #0]
 800da56:	f000 b87d 	b.w	800db54 <_malloc_r>
 800da5a:	bf00      	nop
 800da5c:	1ffe8998 	.word	0x1ffe8998

0800da60 <free>:
 800da60:	4b02      	ldr	r3, [pc, #8]	; (800da6c <free+0xc>)
 800da62:	4601      	mov	r1, r0
 800da64:	6818      	ldr	r0, [r3, #0]
 800da66:	f000 b831 	b.w	800dacc <_free_r>
 800da6a:	bf00      	nop
 800da6c:	1ffe8998 	.word	0x1ffe8998

0800da70 <memcpy>:
 800da70:	b510      	push	{r4, lr}
 800da72:	1e43      	subs	r3, r0, #1
 800da74:	440a      	add	r2, r1
 800da76:	4291      	cmp	r1, r2
 800da78:	d004      	beq.n	800da84 <memcpy+0x14>
 800da7a:	f811 4b01 	ldrb.w	r4, [r1], #1
 800da7e:	f803 4f01 	strb.w	r4, [r3, #1]!
 800da82:	e7f8      	b.n	800da76 <memcpy+0x6>
 800da84:	bd10      	pop	{r4, pc}

0800da86 <memmove>:
 800da86:	4281      	cmp	r1, r0
 800da88:	b510      	push	{r4, lr}
 800da8a:	eb01 0302 	add.w	r3, r1, r2
 800da8e:	d301      	bcc.n	800da94 <memmove+0xe>
 800da90:	1e42      	subs	r2, r0, #1
 800da92:	e00b      	b.n	800daac <memmove+0x26>
 800da94:	4298      	cmp	r0, r3
 800da96:	d2fb      	bcs.n	800da90 <memmove+0xa>
 800da98:	1881      	adds	r1, r0, r2
 800da9a:	1ad2      	subs	r2, r2, r3
 800da9c:	42d3      	cmn	r3, r2
 800da9e:	d004      	beq.n	800daaa <memmove+0x24>
 800daa0:	f813 4d01 	ldrb.w	r4, [r3, #-1]!
 800daa4:	f801 4d01 	strb.w	r4, [r1, #-1]!
 800daa8:	e7f8      	b.n	800da9c <memmove+0x16>
 800daaa:	bd10      	pop	{r4, pc}
 800daac:	4299      	cmp	r1, r3
 800daae:	d004      	beq.n	800daba <memmove+0x34>
 800dab0:	f811 4b01 	ldrb.w	r4, [r1], #1
 800dab4:	f802 4f01 	strb.w	r4, [r2, #1]!
 800dab8:	e7f8      	b.n	800daac <memmove+0x26>
 800daba:	bd10      	pop	{r4, pc}

0800dabc <memset>:
 800dabc:	4402      	add	r2, r0
 800dabe:	4603      	mov	r3, r0
 800dac0:	4293      	cmp	r3, r2
 800dac2:	d002      	beq.n	800daca <memset+0xe>
 800dac4:	f803 1b01 	strb.w	r1, [r3], #1
 800dac8:	e7fa      	b.n	800dac0 <memset+0x4>
 800daca:	4770      	bx	lr

0800dacc <_free_r>:
 800dacc:	b530      	push	{r4, r5, lr}
 800dace:	2900      	cmp	r1, #0
 800dad0:	d03d      	beq.n	800db4e <_free_r+0x82>
 800dad2:	f851 2c04 	ldr.w	r2, [r1, #-4]
 800dad6:	1f0b      	subs	r3, r1, #4
 800dad8:	491d      	ldr	r1, [pc, #116]	; (800db50 <_free_r+0x84>)
 800dada:	2a00      	cmp	r2, #0
 800dadc:	bfb8      	it	lt
 800dade:	189b      	addlt	r3, r3, r2
 800dae0:	680a      	ldr	r2, [r1, #0]
 800dae2:	460c      	mov	r4, r1
 800dae4:	b912      	cbnz	r2, 800daec <_free_r+0x20>
 800dae6:	605a      	str	r2, [r3, #4]
 800dae8:	600b      	str	r3, [r1, #0]
 800daea:	bd30      	pop	{r4, r5, pc}
 800daec:	4293      	cmp	r3, r2
 800daee:	d20d      	bcs.n	800db0c <_free_r+0x40>
 800daf0:	6819      	ldr	r1, [r3, #0]
 800daf2:	1858      	adds	r0, r3, r1
 800daf4:	4290      	cmp	r0, r2
 800daf6:	bf01      	itttt	eq
 800daf8:	585a      	ldreq	r2, [r3, r1]
 800dafa:	1852      	addeq	r2, r2, r1
 800dafc:	601a      	streq	r2, [r3, #0]
 800dafe:	6842      	ldreq	r2, [r0, #4]
 800db00:	605a      	str	r2, [r3, #4]
 800db02:	6023      	str	r3, [r4, #0]
 800db04:	bd30      	pop	{r4, r5, pc}
 800db06:	4299      	cmp	r1, r3
 800db08:	d803      	bhi.n	800db12 <_free_r+0x46>
 800db0a:	460a      	mov	r2, r1
 800db0c:	6851      	ldr	r1, [r2, #4]
 800db0e:	2900      	cmp	r1, #0
 800db10:	d1f9      	bne.n	800db06 <_free_r+0x3a>
 800db12:	6814      	ldr	r4, [r2, #0]
 800db14:	1915      	adds	r5, r2, r4
 800db16:	429d      	cmp	r5, r3
 800db18:	d10a      	bne.n	800db30 <_free_r+0x64>
 800db1a:	681b      	ldr	r3, [r3, #0]
 800db1c:	4423      	add	r3, r4
 800db1e:	18d0      	adds	r0, r2, r3
 800db20:	4288      	cmp	r0, r1
 800db22:	6013      	str	r3, [r2, #0]
 800db24:	d113      	bne.n	800db4e <_free_r+0x82>
 800db26:	6808      	ldr	r0, [r1, #0]
 800db28:	4403      	add	r3, r0
 800db2a:	6013      	str	r3, [r2, #0]
 800db2c:	684b      	ldr	r3, [r1, #4]
 800db2e:	e00d      	b.n	800db4c <_free_r+0x80>
 800db30:	d902      	bls.n	800db38 <_free_r+0x6c>
 800db32:	230c      	movs	r3, #12
 800db34:	6003      	str	r3, [r0, #0]
 800db36:	bd30      	pop	{r4, r5, pc}
 800db38:	681c      	ldr	r4, [r3, #0]
 800db3a:	1918      	adds	r0, r3, r4
 800db3c:	4288      	cmp	r0, r1
 800db3e:	bf04      	itt	eq
 800db40:	6808      	ldreq	r0, [r1, #0]
 800db42:	6849      	ldreq	r1, [r1, #4]
 800db44:	6059      	str	r1, [r3, #4]
 800db46:	bf04      	itt	eq
 800db48:	1900      	addeq	r0, r0, r4
 800db4a:	6018      	streq	r0, [r3, #0]
 800db4c:	6053      	str	r3, [r2, #4]
 800db4e:	bd30      	pop	{r4, r5, pc}
 800db50:	1ffe9c40 	.word	0x1ffe9c40

0800db54 <_malloc_r>:
 800db54:	b570      	push	{r4, r5, r6, lr}
 800db56:	1ccc      	adds	r4, r1, #3
 800db58:	f024 0403 	bic.w	r4, r4, #3
 800db5c:	3408      	adds	r4, #8
 800db5e:	2c0c      	cmp	r4, #12
 800db60:	bf38      	it	cc
 800db62:	240c      	movcc	r4, #12
 800db64:	2c00      	cmp	r4, #0
 800db66:	4606      	mov	r6, r0
 800db68:	da03      	bge.n	800db72 <_malloc_r+0x1e>
 800db6a:	230c      	movs	r3, #12
 800db6c:	6033      	str	r3, [r6, #0]
 800db6e:	2000      	movs	r0, #0
 800db70:	bd70      	pop	{r4, r5, r6, pc}
 800db72:	428c      	cmp	r4, r1
 800db74:	d3f9      	bcc.n	800db6a <_malloc_r+0x16>
 800db76:	4a20      	ldr	r2, [pc, #128]	; (800dbf8 <_malloc_r+0xa4>)
 800db78:	6813      	ldr	r3, [r2, #0]
 800db7a:	4610      	mov	r0, r2
 800db7c:	4619      	mov	r1, r3
 800db7e:	b1a1      	cbz	r1, 800dbaa <_malloc_r+0x56>
 800db80:	680a      	ldr	r2, [r1, #0]
 800db82:	1b12      	subs	r2, r2, r4
 800db84:	d40e      	bmi.n	800dba4 <_malloc_r+0x50>
 800db86:	2a0b      	cmp	r2, #11
 800db88:	d903      	bls.n	800db92 <_malloc_r+0x3e>
 800db8a:	600a      	str	r2, [r1, #0]
 800db8c:	188b      	adds	r3, r1, r2
 800db8e:	508c      	str	r4, [r1, r2]
 800db90:	e01f      	b.n	800dbd2 <_malloc_r+0x7e>
 800db92:	428b      	cmp	r3, r1
 800db94:	bf0d      	iteet	eq
 800db96:	685a      	ldreq	r2, [r3, #4]
 800db98:	684a      	ldrne	r2, [r1, #4]
 800db9a:	605a      	strne	r2, [r3, #4]
 800db9c:	6002      	streq	r2, [r0, #0]
 800db9e:	bf18      	it	ne
 800dba0:	460b      	movne	r3, r1
 800dba2:	e016      	b.n	800dbd2 <_malloc_r+0x7e>
 800dba4:	460b      	mov	r3, r1
 800dba6:	6849      	ldr	r1, [r1, #4]
 800dba8:	e7e9      	b.n	800db7e <_malloc_r+0x2a>
 800dbaa:	4d14      	ldr	r5, [pc, #80]	; (800dbfc <_malloc_r+0xa8>)
 800dbac:	682b      	ldr	r3, [r5, #0]
 800dbae:	b91b      	cbnz	r3, 800dbb8 <_malloc_r+0x64>
 800dbb0:	4630      	mov	r0, r6
 800dbb2:	f000 f825 	bl	800dc00 <_sbrk_r>
 800dbb6:	6028      	str	r0, [r5, #0]
 800dbb8:	4630      	mov	r0, r6
 800dbba:	4621      	mov	r1, r4
 800dbbc:	f000 f820 	bl	800dc00 <_sbrk_r>
 800dbc0:	1c42      	adds	r2, r0, #1
 800dbc2:	4603      	mov	r3, r0
 800dbc4:	d0d1      	beq.n	800db6a <_malloc_r+0x16>
 800dbc6:	1cc5      	adds	r5, r0, #3
 800dbc8:	f025 0503 	bic.w	r5, r5, #3
 800dbcc:	4285      	cmp	r5, r0
 800dbce:	d10a      	bne.n	800dbe6 <_malloc_r+0x92>
 800dbd0:	601c      	str	r4, [r3, #0]
 800dbd2:	f103 000b 	add.w	r0, r3, #11
 800dbd6:	1d1a      	adds	r2, r3, #4
 800dbd8:	f020 0007 	bic.w	r0, r0, #7
 800dbdc:	1a82      	subs	r2, r0, r2
 800dbde:	d00a      	beq.n	800dbf6 <_malloc_r+0xa2>
 800dbe0:	4251      	negs	r1, r2
 800dbe2:	5099      	str	r1, [r3, r2]
 800dbe4:	bd70      	pop	{r4, r5, r6, pc}
 800dbe6:	4630      	mov	r0, r6
 800dbe8:	1ae9      	subs	r1, r5, r3
 800dbea:	f000 f809 	bl	800dc00 <_sbrk_r>
 800dbee:	3001      	adds	r0, #1
 800dbf0:	d0bb      	beq.n	800db6a <_malloc_r+0x16>
 800dbf2:	462b      	mov	r3, r5
 800dbf4:	e7ec      	b.n	800dbd0 <_malloc_r+0x7c>
 800dbf6:	bd70      	pop	{r4, r5, r6, pc}
 800dbf8:	1ffe9c40 	.word	0x1ffe9c40
 800dbfc:	1ffe9c3c 	.word	0x1ffe9c3c

0800dc00 <_sbrk_r>:
 800dc00:	b538      	push	{r3, r4, r5, lr}
 800dc02:	4c06      	ldr	r4, [pc, #24]	; (800dc1c <_sbrk_r+0x1c>)
 800dc04:	2300      	movs	r3, #0
 800dc06:	4605      	mov	r5, r0
 800dc08:	4608      	mov	r0, r1
 800dc0a:	6023      	str	r3, [r4, #0]
 800dc0c:	f7f3 f98e 	bl	8000f2c <_sbrk>
 800dc10:	1c43      	adds	r3, r0, #1
 800dc12:	d102      	bne.n	800dc1a <_sbrk_r+0x1a>
 800dc14:	6823      	ldr	r3, [r4, #0]
 800dc16:	b103      	cbz	r3, 800dc1a <_sbrk_r+0x1a>
 800dc18:	602b      	str	r3, [r5, #0]
 800dc1a:	bd38      	pop	{r3, r4, r5, pc}
 800dc1c:	1ffe9dd8 	.word	0x1ffe9dd8

0800dc20 <siprintf>:
 800dc20:	b40e      	push	{r1, r2, r3}
 800dc22:	b500      	push	{lr}
 800dc24:	b09c      	sub	sp, #112	; 0x70
 800dc26:	f44f 7102 	mov.w	r1, #520	; 0x208
 800dc2a:	f8ad 1014 	strh.w	r1, [sp, #20]
 800dc2e:	f06f 4100 	mvn.w	r1, #2147483648	; 0x80000000
 800dc32:	9104      	str	r1, [sp, #16]
 800dc34:	9107      	str	r1, [sp, #28]
 800dc36:	f64f 71ff 	movw	r1, #65535	; 0xffff
 800dc3a:	ab1d      	add	r3, sp, #116	; 0x74
 800dc3c:	f8ad 1016 	strh.w	r1, [sp, #22]
 800dc40:	4908      	ldr	r1, [pc, #32]	; (800dc64 <siprintf+0x44>)
 800dc42:	f853 2b04 	ldr.w	r2, [r3], #4
 800dc46:	9002      	str	r0, [sp, #8]
 800dc48:	9006      	str	r0, [sp, #24]
 800dc4a:	6808      	ldr	r0, [r1, #0]
 800dc4c:	9301      	str	r3, [sp, #4]
 800dc4e:	a902      	add	r1, sp, #8
 800dc50:	f000 f864 	bl	800dd1c <_svfiprintf_r>
 800dc54:	9b02      	ldr	r3, [sp, #8]
 800dc56:	2200      	movs	r2, #0
 800dc58:	701a      	strb	r2, [r3, #0]
 800dc5a:	b01c      	add	sp, #112	; 0x70
 800dc5c:	f85d eb04 	ldr.w	lr, [sp], #4
 800dc60:	b003      	add	sp, #12
 800dc62:	4770      	bx	lr
 800dc64:	1ffe8998 	.word	0x1ffe8998

0800dc68 <__ssputs_r>:
 800dc68:	e92d 47f0 	stmdb	sp!, {r4, r5, r6, r7, r8, r9, sl, lr}
 800dc6c:	688e      	ldr	r6, [r1, #8]
 800dc6e:	42b3      	cmp	r3, r6
 800dc70:	4682      	mov	sl, r0
 800dc72:	460c      	mov	r4, r1
 800dc74:	4690      	mov	r8, r2
 800dc76:	4699      	mov	r9, r3
 800dc78:	d340      	bcc.n	800dcfc <__ssputs_r+0x94>
 800dc7a:	898a      	ldrh	r2, [r1, #12]
 800dc7c:	f412 6f90 	tst.w	r2, #1152	; 0x480
 800dc80:	d03a      	beq.n	800dcf8 <__ssputs_r+0x90>
 800dc82:	6825      	ldr	r5, [r4, #0]
 800dc84:	6909      	ldr	r1, [r1, #16]
 800dc86:	1a6f      	subs	r7, r5, r1
 800dc88:	6965      	ldr	r5, [r4, #20]
 800dc8a:	2302      	movs	r3, #2
 800dc8c:	eb05 0545 	add.w	r5, r5, r5, lsl #1
 800dc90:	fb95 f5f3 	sdiv	r5, r5, r3
 800dc94:	1c7b      	adds	r3, r7, #1
 800dc96:	444b      	add	r3, r9
 800dc98:	429d      	cmp	r5, r3
 800dc9a:	bf38      	it	cc
 800dc9c:	461d      	movcc	r5, r3
 800dc9e:	0553      	lsls	r3, r2, #21
 800dca0:	d50f      	bpl.n	800dcc2 <__ssputs_r+0x5a>
 800dca2:	4629      	mov	r1, r5
 800dca4:	f7ff ff56 	bl	800db54 <_malloc_r>
 800dca8:	4606      	mov	r6, r0
 800dcaa:	b198      	cbz	r0, 800dcd4 <__ssputs_r+0x6c>
 800dcac:	6921      	ldr	r1, [r4, #16]
 800dcae:	463a      	mov	r2, r7
 800dcb0:	f7ff fede 	bl	800da70 <memcpy>
 800dcb4:	89a3      	ldrh	r3, [r4, #12]
 800dcb6:	f423 6390 	bic.w	r3, r3, #1152	; 0x480
 800dcba:	f043 0380 	orr.w	r3, r3, #128	; 0x80
 800dcbe:	81a3      	strh	r3, [r4, #12]
 800dcc0:	e013      	b.n	800dcea <__ssputs_r+0x82>
 800dcc2:	462a      	mov	r2, r5
 800dcc4:	f000 fabb 	bl	800e23e <_realloc_r>
 800dcc8:	4606      	mov	r6, r0
 800dcca:	b970      	cbnz	r0, 800dcea <__ssputs_r+0x82>
 800dccc:	4650      	mov	r0, sl
 800dcce:	6921      	ldr	r1, [r4, #16]
 800dcd0:	f7ff fefc 	bl	800dacc <_free_r>
 800dcd4:	230c      	movs	r3, #12
 800dcd6:	f8ca 3000 	str.w	r3, [sl]
 800dcda:	89a3      	ldrh	r3, [r4, #12]
 800dcdc:	f043 0340 	orr.w	r3, r3, #64	; 0x40
 800dce0:	81a3      	strh	r3, [r4, #12]
 800dce2:	f04f 30ff 	mov.w	r0, #4294967295
 800dce6:	e8bd 87f0 	ldmia.w	sp!, {r4, r5, r6, r7, r8, r9, sl, pc}
 800dcea:	6126      	str	r6, [r4, #16]
 800dcec:	6165      	str	r5, [r4, #20]
 800dcee:	443e      	add	r6, r7
 800dcf0:	1bed      	subs	r5, r5, r7
 800dcf2:	6026      	str	r6, [r4, #0]
 800dcf4:	60a5      	str	r5, [r4, #8]
 800dcf6:	464e      	mov	r6, r9
 800dcf8:	45b1      	cmp	r9, r6
 800dcfa:	d200      	bcs.n	800dcfe <__ssputs_r+0x96>
 800dcfc:	464e      	mov	r6, r9
 800dcfe:	4632      	mov	r2, r6
 800dd00:	6820      	ldr	r0, [r4, #0]
 800dd02:	4641      	mov	r1, r8
 800dd04:	f7ff febf 	bl	800da86 <memmove>
 800dd08:	68a3      	ldr	r3, [r4, #8]
 800dd0a:	1b9b      	subs	r3, r3, r6
 800dd0c:	60a3      	str	r3, [r4, #8]
 800dd0e:	6823      	ldr	r3, [r4, #0]
 800dd10:	441e      	add	r6, r3
 800dd12:	6026      	str	r6, [r4, #0]
 800dd14:	2000      	movs	r0, #0
 800dd16:	e8bd 87f0 	ldmia.w	sp!, {r4, r5, r6, r7, r8, r9, sl, pc}
	...

0800dd1c <_svfiprintf_r>:
 800dd1c:	e92d 43f0 	stmdb	sp!, {r4, r5, r6, r7, r8, r9, lr}
 800dd20:	b09d      	sub	sp, #116	; 0x74
 800dd22:	4606      	mov	r6, r0
 800dd24:	9303      	str	r3, [sp, #12]
 800dd26:	898b      	ldrh	r3, [r1, #12]
 800dd28:	061c      	lsls	r4, r3, #24
 800dd2a:	460d      	mov	r5, r1
 800dd2c:	4690      	mov	r8, r2
 800dd2e:	d50c      	bpl.n	800dd4a <_svfiprintf_r+0x2e>
 800dd30:	690b      	ldr	r3, [r1, #16]
 800dd32:	b953      	cbnz	r3, 800dd4a <_svfiprintf_r+0x2e>
 800dd34:	2140      	movs	r1, #64	; 0x40
 800dd36:	f7ff ff0d 	bl	800db54 <_malloc_r>
 800dd3a:	6028      	str	r0, [r5, #0]
 800dd3c:	6128      	str	r0, [r5, #16]
 800dd3e:	b910      	cbnz	r0, 800dd46 <_svfiprintf_r+0x2a>
 800dd40:	230c      	movs	r3, #12
 800dd42:	6033      	str	r3, [r6, #0]
 800dd44:	e0cc      	b.n	800dee0 <_svfiprintf_r+0x1c4>
 800dd46:	2340      	movs	r3, #64	; 0x40
 800dd48:	616b      	str	r3, [r5, #20]
 800dd4a:	2300      	movs	r3, #0
 800dd4c:	9309      	str	r3, [sp, #36]	; 0x24
 800dd4e:	2320      	movs	r3, #32
 800dd50:	f88d 3029 	strb.w	r3, [sp, #41]	; 0x29
 800dd54:	2330      	movs	r3, #48	; 0x30
 800dd56:	f88d 302a 	strb.w	r3, [sp, #42]	; 0x2a
 800dd5a:	4643      	mov	r3, r8
 800dd5c:	461c      	mov	r4, r3
 800dd5e:	f813 2b01 	ldrb.w	r2, [r3], #1
 800dd62:	b91a      	cbnz	r2, 800dd6c <_svfiprintf_r+0x50>
 800dd64:	ebb4 0908 	subs.w	r9, r4, r8
 800dd68:	d00f      	beq.n	800dd8a <_svfiprintf_r+0x6e>
 800dd6a:	e002      	b.n	800dd72 <_svfiprintf_r+0x56>
 800dd6c:	2a25      	cmp	r2, #37	; 0x25
 800dd6e:	d1f5      	bne.n	800dd5c <_svfiprintf_r+0x40>
 800dd70:	e7f8      	b.n	800dd64 <_svfiprintf_r+0x48>
 800dd72:	4630      	mov	r0, r6
 800dd74:	4629      	mov	r1, r5
 800dd76:	4642      	mov	r2, r8
 800dd78:	464b      	mov	r3, r9
 800dd7a:	f7ff ff75 	bl	800dc68 <__ssputs_r>
 800dd7e:	3001      	adds	r0, #1
 800dd80:	f000 80a9 	beq.w	800ded6 <_svfiprintf_r+0x1ba>
 800dd84:	9b09      	ldr	r3, [sp, #36]	; 0x24
 800dd86:	444b      	add	r3, r9
 800dd88:	9309      	str	r3, [sp, #36]	; 0x24
 800dd8a:	7823      	ldrb	r3, [r4, #0]
 800dd8c:	2b00      	cmp	r3, #0
 800dd8e:	f000 80a2 	beq.w	800ded6 <_svfiprintf_r+0x1ba>
 800dd92:	2300      	movs	r3, #0
 800dd94:	f04f 32ff 	mov.w	r2, #4294967295
 800dd98:	9304      	str	r3, [sp, #16]
 800dd9a:	9307      	str	r3, [sp, #28]
 800dd9c:	9205      	str	r2, [sp, #20]
 800dd9e:	9306      	str	r3, [sp, #24]
 800dda0:	f88d 3053 	strb.w	r3, [sp, #83]	; 0x53
 800dda4:	931a      	str	r3, [sp, #104]	; 0x68
 800dda6:	f104 0801 	add.w	r8, r4, #1
 800ddaa:	4644      	mov	r4, r8
 800ddac:	f8df 9148 	ldr.w	r9, [pc, #328]	; 800def8 <_svfiprintf_r+0x1dc>
 800ddb0:	7821      	ldrb	r1, [r4, #0]
 800ddb2:	4648      	mov	r0, r9
 800ddb4:	2205      	movs	r2, #5
 800ddb6:	f000 fa33 	bl	800e220 <memchr>
 800ddba:	f108 0801 	add.w	r8, r8, #1
 800ddbe:	9b04      	ldr	r3, [sp, #16]
 800ddc0:	b130      	cbz	r0, 800ddd0 <_svfiprintf_r+0xb4>
 800ddc2:	ebc9 0000 	rsb	r0, r9, r0
 800ddc6:	2201      	movs	r2, #1
 800ddc8:	4082      	lsls	r2, r0
 800ddca:	4313      	orrs	r3, r2
 800ddcc:	9304      	str	r3, [sp, #16]
 800ddce:	e7ec      	b.n	800ddaa <_svfiprintf_r+0x8e>
 800ddd0:	06d8      	lsls	r0, r3, #27
 800ddd2:	bf44      	itt	mi
 800ddd4:	2220      	movmi	r2, #32
 800ddd6:	f88d 2053 	strbmi.w	r2, [sp, #83]	; 0x53
 800ddda:	0719      	lsls	r1, r3, #28
 800dddc:	bf44      	itt	mi
 800ddde:	222b      	movmi	r2, #43	; 0x2b
 800dde0:	f88d 2053 	strbmi.w	r2, [sp, #83]	; 0x53
 800dde4:	7822      	ldrb	r2, [r4, #0]
 800dde6:	2a2a      	cmp	r2, #42	; 0x2a
 800dde8:	d002      	beq.n	800ddf0 <_svfiprintf_r+0xd4>
 800ddea:	9907      	ldr	r1, [sp, #28]
 800ddec:	4623      	mov	r3, r4
 800ddee:	e00e      	b.n	800de0e <_svfiprintf_r+0xf2>
 800ddf0:	9a03      	ldr	r2, [sp, #12]
 800ddf2:	1d11      	adds	r1, r2, #4
 800ddf4:	6812      	ldr	r2, [r2, #0]
 800ddf6:	9103      	str	r1, [sp, #12]
 800ddf8:	2a00      	cmp	r2, #0
 800ddfa:	bfbb      	ittet	lt
 800ddfc:	4252      	neglt	r2, r2
 800ddfe:	f043 0302 	orrlt.w	r3, r3, #2
 800de02:	9207      	strge	r2, [sp, #28]
 800de04:	9207      	strlt	r2, [sp, #28]
 800de06:	bfb8      	it	lt
 800de08:	9304      	strlt	r3, [sp, #16]
 800de0a:	3401      	adds	r4, #1
 800de0c:	e00a      	b.n	800de24 <_svfiprintf_r+0x108>
 800de0e:	461c      	mov	r4, r3
 800de10:	3301      	adds	r3, #1
 800de12:	7822      	ldrb	r2, [r4, #0]
 800de14:	3a30      	subs	r2, #48	; 0x30
 800de16:	2a09      	cmp	r2, #9
 800de18:	d803      	bhi.n	800de22 <_svfiprintf_r+0x106>
 800de1a:	200a      	movs	r0, #10
 800de1c:	fb00 2101 	mla	r1, r0, r1, r2
 800de20:	e7f5      	b.n	800de0e <_svfiprintf_r+0xf2>
 800de22:	9107      	str	r1, [sp, #28]
 800de24:	7823      	ldrb	r3, [r4, #0]
 800de26:	2b2e      	cmp	r3, #46	; 0x2e
 800de28:	d11a      	bne.n	800de60 <_svfiprintf_r+0x144>
 800de2a:	7863      	ldrb	r3, [r4, #1]
 800de2c:	2b2a      	cmp	r3, #42	; 0x2a
 800de2e:	d10a      	bne.n	800de46 <_svfiprintf_r+0x12a>
 800de30:	9b03      	ldr	r3, [sp, #12]
 800de32:	1d1a      	adds	r2, r3, #4
 800de34:	681b      	ldr	r3, [r3, #0]
 800de36:	9203      	str	r2, [sp, #12]
 800de38:	2b00      	cmp	r3, #0
 800de3a:	bfb8      	it	lt
 800de3c:	f04f 33ff 	movlt.w	r3, #4294967295
 800de40:	3402      	adds	r4, #2
 800de42:	9305      	str	r3, [sp, #20]
 800de44:	e00c      	b.n	800de60 <_svfiprintf_r+0x144>
 800de46:	1c61      	adds	r1, r4, #1
 800de48:	2200      	movs	r2, #0
 800de4a:	460c      	mov	r4, r1
 800de4c:	3101      	adds	r1, #1
 800de4e:	7823      	ldrb	r3, [r4, #0]
 800de50:	3b30      	subs	r3, #48	; 0x30
 800de52:	2b09      	cmp	r3, #9
 800de54:	d803      	bhi.n	800de5e <_svfiprintf_r+0x142>
 800de56:	200a      	movs	r0, #10
 800de58:	fb00 3202 	mla	r2, r0, r2, r3
 800de5c:	e7f5      	b.n	800de4a <_svfiprintf_r+0x12e>
 800de5e:	9205      	str	r2, [sp, #20]
 800de60:	f8df 8098 	ldr.w	r8, [pc, #152]	; 800defc <_svfiprintf_r+0x1e0>
 800de64:	7821      	ldrb	r1, [r4, #0]
 800de66:	4640      	mov	r0, r8
 800de68:	2203      	movs	r2, #3
 800de6a:	f000 f9d9 	bl	800e220 <memchr>
 800de6e:	b138      	cbz	r0, 800de80 <_svfiprintf_r+0x164>
 800de70:	9a04      	ldr	r2, [sp, #16]
 800de72:	ebc8 0000 	rsb	r0, r8, r0
 800de76:	2340      	movs	r3, #64	; 0x40
 800de78:	4083      	lsls	r3, r0
 800de7a:	4313      	orrs	r3, r2
 800de7c:	9304      	str	r3, [sp, #16]
 800de7e:	3401      	adds	r4, #1
 800de80:	7821      	ldrb	r1, [r4, #0]
 800de82:	481a      	ldr	r0, [pc, #104]	; (800deec <_svfiprintf_r+0x1d0>)
 800de84:	f88d 1028 	strb.w	r1, [sp, #40]	; 0x28
 800de88:	2206      	movs	r2, #6
 800de8a:	f104 0801 	add.w	r8, r4, #1
 800de8e:	f000 f9c7 	bl	800e220 <memchr>
 800de92:	b188      	cbz	r0, 800deb8 <_svfiprintf_r+0x19c>
 800de94:	4b16      	ldr	r3, [pc, #88]	; (800def0 <_svfiprintf_r+0x1d4>)
 800de96:	b933      	cbnz	r3, 800dea6 <_svfiprintf_r+0x18a>
 800de98:	9b03      	ldr	r3, [sp, #12]
 800de9a:	3307      	adds	r3, #7
 800de9c:	f023 0307 	bic.w	r3, r3, #7
 800dea0:	3308      	adds	r3, #8
 800dea2:	9303      	str	r3, [sp, #12]
 800dea4:	e013      	b.n	800dece <_svfiprintf_r+0x1b2>
 800dea6:	ab03      	add	r3, sp, #12
 800dea8:	9300      	str	r3, [sp, #0]
 800deaa:	4630      	mov	r0, r6
 800deac:	a904      	add	r1, sp, #16
 800deae:	462a      	mov	r2, r5
 800deb0:	4b10      	ldr	r3, [pc, #64]	; (800def4 <_svfiprintf_r+0x1d8>)
 800deb2:	f3af 8000 	nop.w
 800deb6:	e007      	b.n	800dec8 <_svfiprintf_r+0x1ac>
 800deb8:	ab03      	add	r3, sp, #12
 800deba:	9300      	str	r3, [sp, #0]
 800debc:	4630      	mov	r0, r6
 800debe:	a904      	add	r1, sp, #16
 800dec0:	462a      	mov	r2, r5
 800dec2:	4b0c      	ldr	r3, [pc, #48]	; (800def4 <_svfiprintf_r+0x1d8>)
 800dec4:	f000 f892 	bl	800dfec <_printf_i>
 800dec8:	1c42      	adds	r2, r0, #1
 800deca:	4607      	mov	r7, r0
 800decc:	d003      	beq.n	800ded6 <_svfiprintf_r+0x1ba>
 800dece:	9b09      	ldr	r3, [sp, #36]	; 0x24
 800ded0:	443b      	add	r3, r7
 800ded2:	9309      	str	r3, [sp, #36]	; 0x24
 800ded4:	e741      	b.n	800dd5a <_svfiprintf_r+0x3e>
 800ded6:	89ab      	ldrh	r3, [r5, #12]
 800ded8:	065b      	lsls	r3, r3, #25
 800deda:	d401      	bmi.n	800dee0 <_svfiprintf_r+0x1c4>
 800dedc:	9809      	ldr	r0, [sp, #36]	; 0x24
 800dede:	e001      	b.n	800dee4 <_svfiprintf_r+0x1c8>
 800dee0:	f04f 30ff 	mov.w	r0, #4294967295
 800dee4:	b01d      	add	sp, #116	; 0x74
 800dee6:	e8bd 83f0 	ldmia.w	sp!, {r4, r5, r6, r7, r8, r9, pc}
 800deea:	bf00      	nop
 800deec:	0801075c 	.word	0x0801075c
 800def0:	00000000 	.word	0x00000000
 800def4:	0800dc69 	.word	0x0800dc69
 800def8:	08010752 	.word	0x08010752
 800defc:	08010758 	.word	0x08010758

0800df00 <_printf_common>:
 800df00:	e92d 43f8 	stmdb	sp!, {r3, r4, r5, r6, r7, r8, r9, lr}
 800df04:	4691      	mov	r9, r2
 800df06:	461f      	mov	r7, r3
 800df08:	688a      	ldr	r2, [r1, #8]
 800df0a:	690b      	ldr	r3, [r1, #16]
 800df0c:	f8dd 8020 	ldr.w	r8, [sp, #32]
 800df10:	4293      	cmp	r3, r2
 800df12:	bfb8      	it	lt
 800df14:	4613      	movlt	r3, r2
 800df16:	f8c9 3000 	str.w	r3, [r9]
 800df1a:	f891 2043 	ldrb.w	r2, [r1, #67]	; 0x43
 800df1e:	4606      	mov	r6, r0
 800df20:	460c      	mov	r4, r1
 800df22:	b112      	cbz	r2, 800df2a <_printf_common+0x2a>
 800df24:	3301      	adds	r3, #1
 800df26:	f8c9 3000 	str.w	r3, [r9]
 800df2a:	6823      	ldr	r3, [r4, #0]
 800df2c:	0699      	lsls	r1, r3, #26
 800df2e:	bf42      	ittt	mi
 800df30:	f8d9 3000 	ldrmi.w	r3, [r9]
 800df34:	3302      	addmi	r3, #2
 800df36:	f8c9 3000 	strmi.w	r3, [r9]
 800df3a:	6825      	ldr	r5, [r4, #0]
 800df3c:	f015 0506 	ands.w	r5, r5, #6
 800df40:	d01c      	beq.n	800df7c <_printf_common+0x7c>
 800df42:	f894 3043 	ldrb.w	r3, [r4, #67]	; 0x43
 800df46:	6822      	ldr	r2, [r4, #0]
 800df48:	3300      	adds	r3, #0
 800df4a:	bf18      	it	ne
 800df4c:	2301      	movne	r3, #1
 800df4e:	0692      	lsls	r2, r2, #26
 800df50:	d51f      	bpl.n	800df92 <_printf_common+0x92>
 800df52:	18e1      	adds	r1, r4, r3
 800df54:	1c5a      	adds	r2, r3, #1
 800df56:	2030      	movs	r0, #48	; 0x30
 800df58:	f881 0043 	strb.w	r0, [r1, #67]	; 0x43
 800df5c:	4422      	add	r2, r4
 800df5e:	f894 1045 	ldrb.w	r1, [r4, #69]	; 0x45
 800df62:	f882 1043 	strb.w	r1, [r2, #67]	; 0x43
 800df66:	3302      	adds	r3, #2
 800df68:	e013      	b.n	800df92 <_printf_common+0x92>
 800df6a:	4630      	mov	r0, r6
 800df6c:	4639      	mov	r1, r7
 800df6e:	f104 0219 	add.w	r2, r4, #25
 800df72:	2301      	movs	r3, #1
 800df74:	47c0      	blx	r8
 800df76:	3001      	adds	r0, #1
 800df78:	d007      	beq.n	800df8a <_printf_common+0x8a>
 800df7a:	3501      	adds	r5, #1
 800df7c:	68e3      	ldr	r3, [r4, #12]
 800df7e:	f8d9 2000 	ldr.w	r2, [r9]
 800df82:	1a9b      	subs	r3, r3, r2
 800df84:	429d      	cmp	r5, r3
 800df86:	dbf0      	blt.n	800df6a <_printf_common+0x6a>
 800df88:	e7db      	b.n	800df42 <_printf_common+0x42>
 800df8a:	f04f 30ff 	mov.w	r0, #4294967295
 800df8e:	e8bd 83f8 	ldmia.w	sp!, {r3, r4, r5, r6, r7, r8, r9, pc}
 800df92:	4630      	mov	r0, r6
 800df94:	4639      	mov	r1, r7
 800df96:	f104 0243 	add.w	r2, r4, #67	; 0x43
 800df9a:	47c0      	blx	r8
 800df9c:	3001      	adds	r0, #1
 800df9e:	d0f4      	beq.n	800df8a <_printf_common+0x8a>
 800dfa0:	6822      	ldr	r2, [r4, #0]
 800dfa2:	f8d9 5000 	ldr.w	r5, [r9]
 800dfa6:	68e3      	ldr	r3, [r4, #12]
 800dfa8:	f002 0206 	and.w	r2, r2, #6
 800dfac:	2a04      	cmp	r2, #4
 800dfae:	bf08      	it	eq
 800dfb0:	1b5d      	subeq	r5, r3, r5
 800dfb2:	6922      	ldr	r2, [r4, #16]
 800dfb4:	68a3      	ldr	r3, [r4, #8]
 800dfb6:	bf0c      	ite	eq
 800dfb8:	ea25 75e5 	biceq.w	r5, r5, r5, asr #31
 800dfbc:	2500      	movne	r5, #0
 800dfbe:	4293      	cmp	r3, r2
 800dfc0:	bfc4      	itt	gt
 800dfc2:	1a9b      	subgt	r3, r3, r2
 800dfc4:	18ed      	addgt	r5, r5, r3
 800dfc6:	f04f 0900 	mov.w	r9, #0
 800dfca:	45a9      	cmp	r9, r5
 800dfcc:	da0a      	bge.n	800dfe4 <_printf_common+0xe4>
 800dfce:	4630      	mov	r0, r6
 800dfd0:	4639      	mov	r1, r7
 800dfd2:	f104 021a 	add.w	r2, r4, #26
 800dfd6:	2301      	movs	r3, #1
 800dfd8:	47c0      	blx	r8
 800dfda:	3001      	adds	r0, #1
 800dfdc:	d0d5      	beq.n	800df8a <_printf_common+0x8a>
 800dfde:	f109 0901 	add.w	r9, r9, #1
 800dfe2:	e7f2      	b.n	800dfca <_printf_common+0xca>
 800dfe4:	2000      	movs	r0, #0
 800dfe6:	e8bd 83f8 	ldmia.w	sp!, {r3, r4, r5, r6, r7, r8, r9, pc}
	...

0800dfec <_printf_i>:
 800dfec:	e92d 41ff 	stmdb	sp!, {r0, r1, r2, r3, r4, r5, r6, r7, r8, lr}
 800dff0:	460c      	mov	r4, r1
 800dff2:	4617      	mov	r7, r2
 800dff4:	7e22      	ldrb	r2, [r4, #24]
 800dff6:	2a6e      	cmp	r2, #110	; 0x6e
 800dff8:	4698      	mov	r8, r3
 800dffa:	4606      	mov	r6, r0
 800dffc:	9b0a      	ldr	r3, [sp, #40]	; 0x28
 800dffe:	f101 0143 	add.w	r1, r1, #67	; 0x43
 800e002:	f000 80a9 	beq.w	800e158 <_printf_i+0x16c>
 800e006:	d812      	bhi.n	800e02e <_printf_i+0x42>
 800e008:	2a63      	cmp	r2, #99	; 0x63
 800e00a:	d023      	beq.n	800e054 <_printf_i+0x68>
 800e00c:	d80a      	bhi.n	800e024 <_printf_i+0x38>
 800e00e:	2a00      	cmp	r2, #0
 800e010:	f000 80b6 	beq.w	800e180 <_printf_i+0x194>
 800e014:	2a58      	cmp	r2, #88	; 0x58
 800e016:	f040 80c5 	bne.w	800e1a4 <_printf_i+0x1b8>
 800e01a:	f884 2045 	strb.w	r2, [r4, #69]	; 0x45
 800e01e:	f8df e1f8 	ldr.w	lr, [pc, #504]	; 800e218 <_printf_i+0x22c>
 800e022:	e051      	b.n	800e0c8 <_printf_i+0xdc>
 800e024:	2a64      	cmp	r2, #100	; 0x64
 800e026:	d01e      	beq.n	800e066 <_printf_i+0x7a>
 800e028:	2a69      	cmp	r2, #105	; 0x69
 800e02a:	d01c      	beq.n	800e066 <_printf_i+0x7a>
 800e02c:	e0ba      	b.n	800e1a4 <_printf_i+0x1b8>
 800e02e:	2a73      	cmp	r2, #115	; 0x73
 800e030:	f000 80aa 	beq.w	800e188 <_printf_i+0x19c>
 800e034:	d809      	bhi.n	800e04a <_printf_i+0x5e>
 800e036:	2a6f      	cmp	r2, #111	; 0x6f
 800e038:	d02b      	beq.n	800e092 <_printf_i+0xa6>
 800e03a:	2a70      	cmp	r2, #112	; 0x70
 800e03c:	f040 80b2 	bne.w	800e1a4 <_printf_i+0x1b8>
 800e040:	6822      	ldr	r2, [r4, #0]
 800e042:	f042 0220 	orr.w	r2, r2, #32
 800e046:	6022      	str	r2, [r4, #0]
 800e048:	e039      	b.n	800e0be <_printf_i+0xd2>
 800e04a:	2a75      	cmp	r2, #117	; 0x75
 800e04c:	d021      	beq.n	800e092 <_printf_i+0xa6>
 800e04e:	2a78      	cmp	r2, #120	; 0x78
 800e050:	d035      	beq.n	800e0be <_printf_i+0xd2>
 800e052:	e0a7      	b.n	800e1a4 <_printf_i+0x1b8>
 800e054:	681a      	ldr	r2, [r3, #0]
 800e056:	1d11      	adds	r1, r2, #4
 800e058:	6019      	str	r1, [r3, #0]
 800e05a:	6813      	ldr	r3, [r2, #0]
 800e05c:	f884 3042 	strb.w	r3, [r4, #66]	; 0x42
 800e060:	f104 0542 	add.w	r5, r4, #66	; 0x42
 800e064:	e0a2      	b.n	800e1ac <_printf_i+0x1c0>
 800e066:	6820      	ldr	r0, [r4, #0]
 800e068:	681a      	ldr	r2, [r3, #0]
 800e06a:	f010 0f80 	tst.w	r0, #128	; 0x80
 800e06e:	d003      	beq.n	800e078 <_printf_i+0x8c>
 800e070:	1d10      	adds	r0, r2, #4
 800e072:	6018      	str	r0, [r3, #0]
 800e074:	6813      	ldr	r3, [r2, #0]
 800e076:	e005      	b.n	800e084 <_printf_i+0x98>
 800e078:	0645      	lsls	r5, r0, #25
 800e07a:	d5f9      	bpl.n	800e070 <_printf_i+0x84>
 800e07c:	1d10      	adds	r0, r2, #4
 800e07e:	6018      	str	r0, [r3, #0]
 800e080:	f9b2 3000 	ldrsh.w	r3, [r2]
 800e084:	2b00      	cmp	r3, #0
 800e086:	da3b      	bge.n	800e100 <_printf_i+0x114>
 800e088:	222d      	movs	r2, #45	; 0x2d
 800e08a:	425b      	negs	r3, r3
 800e08c:	f884 2043 	strb.w	r2, [r4, #67]	; 0x43
 800e090:	e036      	b.n	800e100 <_printf_i+0x114>
 800e092:	6820      	ldr	r0, [r4, #0]
 800e094:	681a      	ldr	r2, [r3, #0]
 800e096:	f010 0f80 	tst.w	r0, #128	; 0x80
 800e09a:	d003      	beq.n	800e0a4 <_printf_i+0xb8>
 800e09c:	1d10      	adds	r0, r2, #4
 800e09e:	6018      	str	r0, [r3, #0]
 800e0a0:	6813      	ldr	r3, [r2, #0]
 800e0a2:	e004      	b.n	800e0ae <_printf_i+0xc2>
 800e0a4:	0640      	lsls	r0, r0, #25
 800e0a6:	d5f9      	bpl.n	800e09c <_printf_i+0xb0>
 800e0a8:	1d10      	adds	r0, r2, #4
 800e0aa:	6018      	str	r0, [r3, #0]
 800e0ac:	8813      	ldrh	r3, [r2, #0]
 800e0ae:	7e22      	ldrb	r2, [r4, #24]
 800e0b0:	f8df e164 	ldr.w	lr, [pc, #356]	; 800e218 <_printf_i+0x22c>
 800e0b4:	2a6f      	cmp	r2, #111	; 0x6f
 800e0b6:	bf0c      	ite	eq
 800e0b8:	2208      	moveq	r2, #8
 800e0ba:	220a      	movne	r2, #10
 800e0bc:	e01c      	b.n	800e0f8 <_printf_i+0x10c>
 800e0be:	2278      	movs	r2, #120	; 0x78
 800e0c0:	f8df e158 	ldr.w	lr, [pc, #344]	; 800e21c <_printf_i+0x230>
 800e0c4:	f884 2045 	strb.w	r2, [r4, #69]	; 0x45
 800e0c8:	6822      	ldr	r2, [r4, #0]
 800e0ca:	6818      	ldr	r0, [r3, #0]
 800e0cc:	f012 0f80 	tst.w	r2, #128	; 0x80
 800e0d0:	f100 0504 	add.w	r5, r0, #4
 800e0d4:	601d      	str	r5, [r3, #0]
 800e0d6:	d001      	beq.n	800e0dc <_printf_i+0xf0>
 800e0d8:	6803      	ldr	r3, [r0, #0]
 800e0da:	e002      	b.n	800e0e2 <_printf_i+0xf6>
 800e0dc:	0655      	lsls	r5, r2, #25
 800e0de:	d5fb      	bpl.n	800e0d8 <_printf_i+0xec>
 800e0e0:	8803      	ldrh	r3, [r0, #0]
 800e0e2:	07d0      	lsls	r0, r2, #31
 800e0e4:	bf44      	itt	mi
 800e0e6:	f042 0220 	orrmi.w	r2, r2, #32
 800e0ea:	6022      	strmi	r2, [r4, #0]
 800e0ec:	b91b      	cbnz	r3, 800e0f6 <_printf_i+0x10a>
 800e0ee:	6822      	ldr	r2, [r4, #0]
 800e0f0:	f022 0220 	bic.w	r2, r2, #32
 800e0f4:	6022      	str	r2, [r4, #0]
 800e0f6:	2210      	movs	r2, #16
 800e0f8:	2000      	movs	r0, #0
 800e0fa:	f884 0043 	strb.w	r0, [r4, #67]	; 0x43
 800e0fe:	e002      	b.n	800e106 <_printf_i+0x11a>
 800e100:	f8df e114 	ldr.w	lr, [pc, #276]	; 800e218 <_printf_i+0x22c>
 800e104:	220a      	movs	r2, #10
 800e106:	6865      	ldr	r5, [r4, #4]
 800e108:	60a5      	str	r5, [r4, #8]
 800e10a:	2d00      	cmp	r5, #0
 800e10c:	bfa2      	ittt	ge
 800e10e:	6820      	ldrge	r0, [r4, #0]
 800e110:	f020 0004 	bicge.w	r0, r0, #4
 800e114:	6020      	strge	r0, [r4, #0]
 800e116:	b903      	cbnz	r3, 800e11a <_printf_i+0x12e>
 800e118:	b165      	cbz	r5, 800e134 <_printf_i+0x148>
 800e11a:	460d      	mov	r5, r1
 800e11c:	fbb3 f0f2 	udiv	r0, r3, r2
 800e120:	fb02 3310 	mls	r3, r2, r0, r3
 800e124:	f81e 3003 	ldrb.w	r3, [lr, r3]
 800e128:	f805 3d01 	strb.w	r3, [r5, #-1]!
 800e12c:	4603      	mov	r3, r0
 800e12e:	2800      	cmp	r0, #0
 800e130:	d1f4      	bne.n	800e11c <_printf_i+0x130>
 800e132:	e000      	b.n	800e136 <_printf_i+0x14a>
 800e134:	460d      	mov	r5, r1
 800e136:	2a08      	cmp	r2, #8
 800e138:	d10b      	bne.n	800e152 <_printf_i+0x166>
 800e13a:	6823      	ldr	r3, [r4, #0]
 800e13c:	07da      	lsls	r2, r3, #31
 800e13e:	d508      	bpl.n	800e152 <_printf_i+0x166>
 800e140:	6923      	ldr	r3, [r4, #16]
 800e142:	6862      	ldr	r2, [r4, #4]
 800e144:	429a      	cmp	r2, r3
 800e146:	bfde      	ittt	le
 800e148:	2330      	movle	r3, #48	; 0x30
 800e14a:	f805 3c01 	strble.w	r3, [r5, #-1]
 800e14e:	f105 35ff 	addle.w	r5, r5, #4294967295
 800e152:	1b49      	subs	r1, r1, r5
 800e154:	6121      	str	r1, [r4, #16]
 800e156:	e02e      	b.n	800e1b6 <_printf_i+0x1ca>
 800e158:	6825      	ldr	r5, [r4, #0]
 800e15a:	681a      	ldr	r2, [r3, #0]
 800e15c:	6960      	ldr	r0, [r4, #20]
 800e15e:	f015 0f80 	tst.w	r5, #128	; 0x80
 800e162:	d003      	beq.n	800e16c <_printf_i+0x180>
 800e164:	1d15      	adds	r5, r2, #4
 800e166:	601d      	str	r5, [r3, #0]
 800e168:	6813      	ldr	r3, [r2, #0]
 800e16a:	e008      	b.n	800e17e <_printf_i+0x192>
 800e16c:	f015 0f40 	tst.w	r5, #64	; 0x40
 800e170:	f102 0504 	add.w	r5, r2, #4
 800e174:	601d      	str	r5, [r3, #0]
 800e176:	6813      	ldr	r3, [r2, #0]
 800e178:	d001      	beq.n	800e17e <_printf_i+0x192>
 800e17a:	8018      	strh	r0, [r3, #0]
 800e17c:	e000      	b.n	800e180 <_printf_i+0x194>
 800e17e:	6018      	str	r0, [r3, #0]
 800e180:	2300      	movs	r3, #0
 800e182:	6123      	str	r3, [r4, #16]
 800e184:	460d      	mov	r5, r1
 800e186:	e016      	b.n	800e1b6 <_printf_i+0x1ca>
 800e188:	681a      	ldr	r2, [r3, #0]
 800e18a:	1d11      	adds	r1, r2, #4
 800e18c:	6019      	str	r1, [r3, #0]
 800e18e:	6815      	ldr	r5, [r2, #0]
 800e190:	6862      	ldr	r2, [r4, #4]
 800e192:	4628      	mov	r0, r5
 800e194:	2100      	movs	r1, #0
 800e196:	f000 f843 	bl	800e220 <memchr>
 800e19a:	b108      	cbz	r0, 800e1a0 <_printf_i+0x1b4>
 800e19c:	1b40      	subs	r0, r0, r5
 800e19e:	6060      	str	r0, [r4, #4]
 800e1a0:	6863      	ldr	r3, [r4, #4]
 800e1a2:	e004      	b.n	800e1ae <_printf_i+0x1c2>
 800e1a4:	f104 0542 	add.w	r5, r4, #66	; 0x42
 800e1a8:	f884 2042 	strb.w	r2, [r4, #66]	; 0x42
 800e1ac:	2301      	movs	r3, #1
 800e1ae:	6123      	str	r3, [r4, #16]
 800e1b0:	2300      	movs	r3, #0
 800e1b2:	f884 3043 	strb.w	r3, [r4, #67]	; 0x43
 800e1b6:	f8cd 8000 	str.w	r8, [sp]
 800e1ba:	4630      	mov	r0, r6
 800e1bc:	4621      	mov	r1, r4
 800e1be:	aa03      	add	r2, sp, #12
 800e1c0:	463b      	mov	r3, r7
 800e1c2:	f7ff fe9d 	bl	800df00 <_printf_common>
 800e1c6:	3001      	adds	r0, #1
 800e1c8:	d102      	bne.n	800e1d0 <_printf_i+0x1e4>
 800e1ca:	f04f 30ff 	mov.w	r0, #4294967295
 800e1ce:	e01f      	b.n	800e210 <_printf_i+0x224>
 800e1d0:	4630      	mov	r0, r6
 800e1d2:	4639      	mov	r1, r7
 800e1d4:	462a      	mov	r2, r5
 800e1d6:	6923      	ldr	r3, [r4, #16]
 800e1d8:	47c0      	blx	r8
 800e1da:	3001      	adds	r0, #1
 800e1dc:	d0f5      	beq.n	800e1ca <_printf_i+0x1de>
 800e1de:	6823      	ldr	r3, [r4, #0]
 800e1e0:	079b      	lsls	r3, r3, #30
 800e1e2:	d405      	bmi.n	800e1f0 <_printf_i+0x204>
 800e1e4:	68e0      	ldr	r0, [r4, #12]
 800e1e6:	9b03      	ldr	r3, [sp, #12]
 800e1e8:	4298      	cmp	r0, r3
 800e1ea:	bfb8      	it	lt
 800e1ec:	4618      	movlt	r0, r3
 800e1ee:	e00f      	b.n	800e210 <_printf_i+0x224>
 800e1f0:	2500      	movs	r5, #0
 800e1f2:	68e3      	ldr	r3, [r4, #12]
 800e1f4:	9a03      	ldr	r2, [sp, #12]
 800e1f6:	1a9b      	subs	r3, r3, r2
 800e1f8:	429d      	cmp	r5, r3
 800e1fa:	daf3      	bge.n	800e1e4 <_printf_i+0x1f8>
 800e1fc:	4630      	mov	r0, r6
 800e1fe:	4639      	mov	r1, r7
 800e200:	f104 0219 	add.w	r2, r4, #25
 800e204:	2301      	movs	r3, #1
 800e206:	47c0      	blx	r8
 800e208:	3001      	adds	r0, #1
 800e20a:	d0de      	beq.n	800e1ca <_printf_i+0x1de>
 800e20c:	3501      	adds	r5, #1
 800e20e:	e7f0      	b.n	800e1f2 <_printf_i+0x206>
 800e210:	b004      	add	sp, #16
 800e212:	e8bd 81f0 	ldmia.w	sp!, {r4, r5, r6, r7, r8, pc}
 800e216:	bf00      	nop
 800e218:	08010763 	.word	0x08010763
 800e21c:	08010774 	.word	0x08010774

0800e220 <memchr>:
 800e220:	b510      	push	{r4, lr}
 800e222:	b2c9      	uxtb	r1, r1
 800e224:	4402      	add	r2, r0
 800e226:	4290      	cmp	r0, r2
 800e228:	4603      	mov	r3, r0
 800e22a:	d006      	beq.n	800e23a <memchr+0x1a>
 800e22c:	781c      	ldrb	r4, [r3, #0]
 800e22e:	428c      	cmp	r4, r1
 800e230:	f100 0001 	add.w	r0, r0, #1
 800e234:	d1f7      	bne.n	800e226 <memchr+0x6>
 800e236:	4618      	mov	r0, r3
 800e238:	bd10      	pop	{r4, pc}
 800e23a:	2000      	movs	r0, #0
 800e23c:	bd10      	pop	{r4, pc}

0800e23e <_realloc_r>:
 800e23e:	b5f8      	push	{r3, r4, r5, r6, r7, lr}
 800e240:	4607      	mov	r7, r0
 800e242:	4615      	mov	r5, r2
 800e244:	460e      	mov	r6, r1
 800e246:	b921      	cbnz	r1, 800e252 <_realloc_r+0x14>
 800e248:	4611      	mov	r1, r2
 800e24a:	e8bd 40f8 	ldmia.w	sp!, {r3, r4, r5, r6, r7, lr}
 800e24e:	f7ff bc81 	b.w	800db54 <_malloc_r>
 800e252:	b91a      	cbnz	r2, 800e25c <_realloc_r+0x1e>
 800e254:	f7ff fc3a 	bl	800dacc <_free_r>
 800e258:	4628      	mov	r0, r5
 800e25a:	bdf8      	pop	{r3, r4, r5, r6, r7, pc}
 800e25c:	f000 f815 	bl	800e28a <_malloc_usable_size_r>
 800e260:	42a8      	cmp	r0, r5
 800e262:	d20e      	bcs.n	800e282 <_realloc_r+0x44>
 800e264:	4638      	mov	r0, r7
 800e266:	4629      	mov	r1, r5
 800e268:	f7ff fc74 	bl	800db54 <_malloc_r>
 800e26c:	4604      	mov	r4, r0
 800e26e:	b150      	cbz	r0, 800e286 <_realloc_r+0x48>
 800e270:	4631      	mov	r1, r6
 800e272:	462a      	mov	r2, r5
 800e274:	f7ff fbfc 	bl	800da70 <memcpy>
 800e278:	4638      	mov	r0, r7
 800e27a:	4631      	mov	r1, r6
 800e27c:	f7ff fc26 	bl	800dacc <_free_r>
 800e280:	e001      	b.n	800e286 <_realloc_r+0x48>
 800e282:	4630      	mov	r0, r6
 800e284:	bdf8      	pop	{r3, r4, r5, r6, r7, pc}
 800e286:	4620      	mov	r0, r4
 800e288:	bdf8      	pop	{r3, r4, r5, r6, r7, pc}

0800e28a <_malloc_usable_size_r>:
 800e28a:	f851 0c04 	ldr.w	r0, [r1, #-4]
 800e28e:	2800      	cmp	r0, #0
 800e290:	bfbe      	ittt	lt
 800e292:	1809      	addlt	r1, r1, r0
 800e294:	f851 3c04 	ldrlt.w	r3, [r1, #-4]
 800e298:	18c0      	addlt	r0, r0, r3
 800e29a:	3804      	subs	r0, #4
 800e29c:	4770      	bx	lr
	...

0800e2a0 <CSWTCH.37>:
	...
 800e2a8:	0002 0000 0002 0000 000c 0000 000c 0000     ................
 800e2b8:	000c 0000 000c 0000 0008 0000 000a 0000     ................

0800e2c8 <CSWTCH.38>:
 800e2c8:	0003 0000 0003 0000 000c 0000 000c 0000     ................
 800e2d8:	3000 0000 3000 0000 3000 0000 3000 0000     .0...0...0...0..
 800e2e8:	0300 0000 0c00 0000                         ........

0800e2f0 <CSWTCH.43>:
 800e2f0:	0003 0000 0003 0000 000c 0000 000c 0000     ................
 800e300:	0030 0000 0030 0000 3000 0000 3000 0000     0...0....0...0..
 800e310:	0300 0000 0c00 0000                         ........

0800e318 <CSWTCH.44>:
	...
 800e320:	0002 0000 0002 0000 0004 0000 0004 0000     ................
 800e330:	000c 0000 000c 0000 0008 0000 000a 0000     ................

0800e340 <SPI_MASTER_1_SS_0>:
 800e340:	8300 4802 000b 0000                         ...H....

0800e348 <SPI_MASTER_1_SS_0_Config>:
 800e348:	0090 0000 0001 0000 0001 0000 0000 0000     ................
 800e358:	0000 0004                                   ....

0800e35c <SPI_MASTER_1_MOSI>:
 800e35c:	8300 4802 000d 0000                         ...H....

0800e364 <SPI_MASTER_1_SCLKOUT_Config>:
 800e364:	0090 0000 0001 0000 0001 0000 0000 0000     ................
 800e374:	0000 0000                                   ....

0800e378 <SPI_MASTER_1_SCLKOUT>:
 800e378:	8600 4802 0002 0000                         ...H....

0800e380 <SPI_MASTER_1_MISO>:
 800e380:	8600 4802 0003 0000                         ...H....

0800e388 <SPI_MASTER_1_Config>:
 800e388:	8888 1ffe 144d 0800 e35c 0800 8874 1ffe     ....M...\...t...
 800e398:	e380 0800 8a64 1ffe 0000 0000 0000 0000     ....d...........
	...
 800e3b0:	e378 0800 e364 0800 e340 0800 0000 0000     x...d...@.......
	...
 800e3d8:	e348 0800 0000 0000 0000 0000 0000 0000     H...............
	...
 800e404:	0404 0000 0000 8000 0000 0100 0302 0005     ................

0800e414 <PWM_CCU8_0_event1_config>:
 800e414:	0000 0001                                   ....

0800e418 <PWM_CCU8_0_timer_handle>:
	...
 800e420:	0014 0000 0001 0000                         ........

0800e428 <PWM_CCU8_0_event2_config>:
 800e428:	0000 0001                                   ....

0800e42c <PWM_CCU8_0_ch1_out0_config>:
 800e42c:	0098 0000 0000 0001 0004 0000               ............

0800e438 <PWM_CCU8_0_ch1_out1_config>:
 800e438:	0098 0000 0000 0001 0004 0000               ............

0800e444 <PWM_CCU8_0_config_handle>:
 800e444:	0000 0cc7 0664 0664 0000 0000 0000 0000     ....d.d.........
	...
 800e460:	e4e0 0800 e414 0800 e428 0800 0000 0000     ........(.......
	...
 800e47c:	0001 0000 0000 1000 e4d4 0800 0001 0000     ................
 800e48c:	e418 0800 0001 0000 8000 4802 0003 0000     ...........H....
 800e49c:	e42c 0800 0001 0000 8000 4802 0000 0000     ,..........H....
 800e4ac:	e438 0800 0000 0000 0000 0000 0000 0000     8...............
	...
 800e4d0:	88d0 1ffe                                   ....

0800e4d4 <PWM_CCU8_0_dt_config>:
	...

0800e4e0 <PWM_CCU8_0_event0_config>:
 800e4e0:	0000 0001                                   ....

0800e4e4 <ENCODER_INTERRUPT>:
 800e4e4:	3f39 0100                                   9?..

0800e4e8 <GUI_SEGGERLIBRARY_0_config>:
 800e4e8:	e4f4 0800 8000 4802 000c 0000               .......H....

0800e4f4 <GUI_SEGGERLIBRARY_0_gpio_pin_config>:
 800e4f4:	0080 0000 0001 0000 0004 0000 4449 454c     ............IDLE
 800e504:	0000 0000 2509 0963 7525 2509 0975 7525     .....%c.%u.%u.%u
 800e514:	0a0d 0000 6d54 5172 0000 0000 6d54 2072     ....TmrQ....Tmr 
 800e524:	7653 0063                                   Svc.

0800e528 <TEST_PIN>:
 800e528:	8500 4802 0080 0000 0000 0001 0000 0000     ...H............
 800e538:	000a 0000                                   ....

0800e53c <LED1>:
 800e53c:	8500 4802 0080 0000 0000 0001 0000 0000     ...H............
 800e54c:	0009 0000                                   ....

0800e550 <LED2>:
 800e550:	8500 4802 0080 0000 0000 0001 0000 0000     ...H............
 800e560:	0008 0000                                   ....

0800e564 <INH_2>:
 800e564:	8000 4802 0080 0000 0000 0001 0000 0000     ...H............
 800e574:	000a 0000                                   ....

0800e578 <ENC_A>:
 800e578:	8000 4802 0000 0000 0000 0000 0000 0000     ...H............
 800e588:	0005 0000                                   ....

0800e58c <ENC_B>:
 800e58c:	8000 4802 0000 0000 0000 0000 0000 0000     ...H............
 800e59c:	0006 0000                                   ....

0800e5a0 <INH_1>:
 800e5a0:	8000 4802 0080 0000 0000 0001 0000 0000     ...H............
 800e5b0:	0001 0000 0230 0101 0000 0001 0000 0000     ....0...........
 800e5c0:	0000 0001 0102 0101 6f50 6973 6974 6e6f     ........Position
 800e5d0:	003a 0000 7053 6565 3a64 0000 5750 3a4d     :...Speed:..PWM:
 800e5e0:	0000 0000 6c25 2e64 6c25 0064 6f43 746e     ....%ld.%ld.Cont
 800e5f0:	6f72 206c 6154 6b73 0000 0000 434c 2044     rol Task....LCD 
 800e600:	6154 6b73 0000 0000                         Task....

0800e608 <GUI_Font6x9>:
 800e608:	75ed 0800 7749 0800 7761 0800 7769 0800     .u..Iw..aw..iw..
	...
 800e620:	0908 0101 e650 0800 0507 0007               ....P.......

0800e62c <GUI_Font6x8>:
 800e62c:	75ed 0800 7749 0800 7761 0800 7769 0800     .u..Iw..aw..iw..
	...
 800e644:	0808 0101 e650 0800 0507 0007               ....P.......

0800e650 <GUI_F6x8_Mono>:
 800e650:	e664 0800 e664 0800 eb7c 0800 0020 007e     d...d...|... .~.
 800e660:	0606 0001                                   ....

0800e664 <GUI_acFont6x8>:
	...
 800e66c:	2020 2020 0020 0020 4848 0048 0000 0000          . .HHH.....
 800e67c:	5050 50f8 50f8 0050 7820 70a0 f028 0020     PP.P.PP. x.p(. .
 800e68c:	c8c0 2010 9840 0018 9060 40a0 90a8 0068     ... @...`..@..h.
 800e69c:	2060 0040 0000 0000 2010 4040 2040 0010     ` @...... @@@ ..
 800e6ac:	2040 1010 2010 0040 5000 f820 5020 0000     @ ... @..P . P..
 800e6bc:	2000 f820 2020 0000 0000 0000 6000 4020     .  .  .......` @
 800e6cc:	0000 f800 0000 0000 0000 0000 6000 0060     .............``.
 800e6dc:	0800 2010 8040 0000 8870 a898 88c8 0070     ... @...p.....p.
 800e6ec:	6020 2020 2020 0070 8870 3008 8040 00f8      `    p.p..0@...
 800e6fc:	8870 3008 8808 0070 3010 9050 10f8 0010     p..0..p..0P.....
 800e70c:	80f8 08f0 8808 0070 4030 f080 8888 0070     ......p.0@....p.
 800e71c:	08f8 2010 4040 0040 8870 7088 8888 0070     ... @@@.p..p..p.
 800e72c:	8870 7888 1008 0060 6000 0060 6060 0000     p..x..`..``.``..
 800e73c:	0000 6060 6000 4020 2010 8040 2040 0010     ..``.` @. @.@ ..
 800e74c:	0000 00f8 00f8 0000 4080 1020 4020 0080     .........@ . @..
 800e75c:	8870 1008 0020 0020 8870 6808 a8a8 0070     p... . .p..h..p.
 800e76c:	8870 f888 8888 0088 88f0 f088 8888 00f0     p...............
 800e77c:	8870 8080 8880 0070 90e0 8888 9088 00e0     p.....p.........
 800e78c:	80f8 f080 8080 00f8 80f8 f080 8080 0080     ................
 800e79c:	8870 8080 8898 0078 8888 f888 8888 0088     p.....x.........
 800e7ac:	2070 2020 2020 0070 1038 1010 9010 0060     p     p.8.....`.
 800e7bc:	9088 c0a0 90a0 0088 8080 8080 8080 00f8     ................
 800e7cc:	d888 a8a8 8888 0088 8888 a8c8 8898 0088     ................
 800e7dc:	8870 8888 8888 0070 88f0 f088 8080 0080     p.....p.........
 800e7ec:	8870 8888 90a8 0068 88f0 f088 90a0 0088     p.....h.........
 800e7fc:	8870 7080 8808 0070 20f8 2020 2020 0020     p..p..p..      .
 800e80c:	8888 8888 8888 0070 8888 8888 5088 0020     ......p......P .
 800e81c:	8888 a888 a8a8 0050 8888 2050 8850 0088     ......P...P P...
 800e82c:	8888 5088 2020 0020 08f8 2010 8040 00f8     ...P   .... @...
 800e83c:	4070 4040 4040 0070 8000 2040 0810 0000     p@@@@@p...@ ....
 800e84c:	1070 1010 1010 0070 5020 0088 0000 0000     p.....p. P......
 800e85c:	0000 0000 0000 f800 2040 0010 0000 0000     ........@ ......
 800e86c:	0000 0870 8878 0078 8080 c8b0 8888 00f0     ..p.x.x.........
 800e87c:	0000 8070 8880 0070 0808 9868 8888 0078     ..p...p...h...x.
 800e88c:	0000 8870 80f8 0070 4830 e040 4040 0040     ..p...p.0H@.@@@.
 800e89c:	0000 8878 7888 7008 8080 c8b0 8888 0088     ..x..x.p........
 800e8ac:	0020 2060 2020 0070 0010 1030 1010 6090      .`   p...0....`
 800e8bc:	8080 a090 a0c0 0090 2060 2020 2020 0070     ........`     p.
 800e8cc:	0000 a8d0 8888 0088 0000 c8b0 8888 0088     ................
 800e8dc:	0000 8870 8888 0070 0000 88f0 f088 8080     ..p...p.........
 800e8ec:	0000 8878 7888 0808 0000 c8b0 8080 0080     ..x..x..........
 800e8fc:	0000 8078 0870 00f0 4040 40e0 4840 0030     ..x.p...@@.@@H0.
 800e90c:	0000 8888 9888 0068 0000 8888 5088 0020     ......h......P .
 800e91c:	0000 8888 a8a8 0050 0000 5088 5020 0088     ......P....P P..
 800e92c:	0000 8888 7888 7008 0000 10f8 4020 00f8     .....x.p.... @..
 800e93c:	2010 4020 2020 0010 2020 2020 2020 0020     .  @  ..       .
 800e94c:	2040 1020 2020 0040 9068 0000 0000 0000     @  .  @.h.......
 800e95c:	2018 0000 0000 0000 20c0 0000 0000 0000     . ....... ......
 800e96c:	8870 0000 0000 0000 0050 0000 0000 0000     p.......P.......
 800e97c:	9068 0000 0000 0000 0000 6000 2020 0070     h..........`  p.
 800e98c:	6000 f090 8888 80b0 0020 8870 88f8 0088     .`...... .p.....
 800e99c:	0020 0870 8878 0078 6038 b8a0 a0e0 00b8      .p.x.x.8`......
 800e9ac:	4870 e848 4848 0070 40e0 4870 7048 e040     pHH.HHp..@pHHp@.
 800e9bc:	0000 28d0 a078 0058 40a0 10a0 8878 0070     ...(x.X..@..x.p.
 800e9cc:	2060 2830 2030 0070 8870 a898 88c8 0070     ` 0(0 p.p.....p.
 800e9dc:	0000 9870 c8a8 0070 0000 8870 88f8 0088     ..p...p...p.....
 800e9ec:	0000 80f8 80e0 00f8 0000 2070 2020 0070     ..........p   p.
 800e9fc:	0000 8870 8888 0070 0000 8888 8888 0070     ..p...p.......p.
 800ea0c:	0000 c888 98a8 0088 0020 2020 2020 0020     ........ .     .
 800ea1c:	0020 4020 8880 0070 2018 0000 0000 0000      . @..p.. ......
 800ea2c:	20c0 0000 0000 0000 5020 0000 0000 0000     . ...... P......
 800ea3c:	0050 0000 0000 0000 9068 0000 0000 0000     P.......h.......
 800ea4c:	0000 0000 0000 2000 0000 0000 0000 0000     ....... ........
 800ea5c:	2000 a070 a8a0 2070 4030 e040 4840 00b0     . p...p 0@@.@H..
 800ea6c:	0000 7088 7050 0088 5088 20f8 20f8 0020     ...pPp...P. .  .
 800ea7c:	2020 0020 2020 0020 4830 5020 9020 0060        .   .0H P .`.
 800ea8c:	0088 0000 0000 0000 88f8 b8a8 88a8 00f8     ................
 800ea9c:	0870 8878 0070 0000 2800 a050 2850 0000     p.x.p....(P.P(..
 800eaac:	0000 f800 0808 0000 0000 7000 0000 0000     ...........p....
 800eabc:	88f8 88a8 a898 00f8 00f8 0000 0000 0000     ................
 800eacc:	5020 0020 0000 0000 2000 2070 7000 0000      P ...... p .p..
 800eadc:	9060 4020 00f0 0000 10e0 1060 00e0 0000     `. @......`.....
 800eaec:	2018 0000 0000 0000 0000 8888 c888 80b0     . ..............
 800eafc:	9878 7898 1818 0018 0000 3000 0030 0000     x..x.......00...
 800eb0c:	c040 4040 00e0 0000 8870 8888 0070 0000     @.@@....p...p...
 800eb1c:	a000 2850 a050 0000 9088 50a0 50b0 1078     ..P(P......P.Px.
 800eb2c:	9088 40a0 08b8 3810 40c0 48c0 28d8 0838     ...@...8.@.H.(8.
 800eb3c:	8800 2050 8850 0000 2000 f800 2000 0000     ..P P.... ... ..
 800eb4c:	3010 fc70 3070 0010 3020 fc38 3038 0020     .0p.p0.. 08.80 .
 800eb5c:	2000 f870 2020 0000 2000 f820 2070 0000     . p.  ...  .p ..
 800eb6c:	0800 6828 60f8 0020 0400 0804 9008 2050     ..(h.` .......P 

0800eb7c <GUI_F6x8_TI8859_1>:
 800eb7c:	0090 00ff eb84 0800                         ........

0800eb84 <GUI_F6x8_TL8859_1>:
 800eb84:	009d ffff 009e ffff 009f ffff 00a0 ffff     ................
 800eb94:	00a1 ffff 00a2 ffff ffff ffff ffff ffff     ................
 800eba4:	ffff ffff ffff ffff ffff ffff ffff ffff     ................
 800ebb4:	ffff ffff ffff ffff ffff ffff ffff ffff     ................
 800ebc4:	007e ffff 0076 ffff 007f ffff 0080 ffff     ~...v...........
 800ebd4:	0081 ffff 0082 ffff 0083 ffff 0084 ffff     ................
 800ebe4:	0085 ffff 0086 ffff 0087 ffff 0088 ffff     ................
 800ebf4:	0089 ffff 008a ffff 008b ffff 008c ffff     ................
 800ec04:	008d ffff 008e ffff 008f ffff 0090 ffff     ................
 800ec14:	0091 ffff 0092 ffff 0093 ffff 0094 ffff     ................
 800ec24:	007d ffff 0095 ffff 0096 ffff 0097 ffff     }...............
 800ec34:	0098 ffff 0099 ffff 009a ffff 0077 ffff     ............w...
 800ec44:	0070 0079 0070 0078 0070 007a 0070 007c     p.y.p.x.p.z.p.|.
 800ec54:	0070 007b 0066 ffff 0068 ffff 0023 007d     p.{.f...h...#.}.
 800ec64:	0071 0079 0071 0078 0071 007a 0071 007b     q.y.q.x.q.z.q.{.
 800ec74:	0072 0079 0072 0078 0072 007a 0072 007b     r.y.r.x.r.z.r.{.
 800ec84:	0069 ffff 0075 007c 0073 0079 0073 0078     i...u.|.s.y.s.x.
 800ec94:	0073 007a 0073 007c 0073 007b 009b ffff     s.z.s.|.s.{.....
 800eca4:	006e ffff 0074 0079 0074 0078 0074 007a     n...t.y.t.x.t.z.
 800ecb4:	0074 007b 0039 0078 006a ffff 0065 ffff     t.{.9.x.j...e...
 800ecc4:	0041 0060 0041 005f 0041 0061 0041 0063     A.`.A._.A.a.A.c.
 800ecd4:	0041 0062 0067 ffff 006b ffff 0043 007d     A.b.g...k...C.}.
 800ece4:	0045 0060 0045 005f 0045 0061 0045 0062     E.`.E._.E.a.E.b.
 800ecf4:	0064 0060 0064 005f 0064 0061 0064 0062     d.`.d._.d.a.d.b.
 800ed04:	006c ffff 004e 0063 004f 0060 004f 005f     l...N.c.O.`.O._.
 800ed14:	004f 0061 004f 0063 004f 0062 009c ffff     O.a.O.c.O.b.....
 800ed24:	006f ffff 0055 0060 0055 005f 0055 0061     o...U.`.U._.U.a.
 800ed34:	0055 0062 0059 005f 006d ffff 0059 0062     U.b.Y._.m...Y.b.

0800ed44 <GUI_Font16B_1>:
 800ed44:	748d 0800 7581 0800 75c9 0800 75d1 0800     .t...u...u...u..
	...
 800ed5c:	1010 0101 ed68 0800 070d 000a               ....h.......

0800ed68 <GUI_Font16B_1_Prop1>:
 800ed68:	00a0 00ff ed74 0800 f958 0800               ....t...X...

0800ed74 <GUI_Font16B_1_CharInfo>:
 800ed74:	0404 0001 f074 0800 0404 0001 f084 0800     ....t...........
 800ed84:	0707 0001 f094 0800 0707 0001 f0a4 0800     ................
 800ed94:	0707 0001 f0b4 0800 0707 0001 f0c4 0800     ................
 800eda4:	0303 0001 f0d4 0800 0707 0001 f0e4 0800     ................
 800edb4:	0404 0001 f0f4 0800 0a0a 0002 f104 0800     ................
 800edc4:	0505 0001 f124 0800 0707 0001 f134 0800     ....$.......4...
 800edd4:	0808 0001 f144 0800 0404 0001 f154 0800     ....D.......T...
 800ede4:	0a0a 0002 f164 0800 0707 0001 f184 0800     ....d...........
 800edf4:	0505 0001 f194 0800 0707 0001 f1a4 0800     ................
 800ee04:	0404 0001 f1b4 0800 0404 0001 f1c4 0800     ................
 800ee14:	0404 0001 f1d4 0800 0707 0001 f1e4 0800     ................
 800ee24:	0707 0001 f1f4 0800 0404 0001 f204 0800     ................
 800ee34:	0404 0001 f214 0800 0404 0001 f224 0800     ............$...
 800ee44:	0505 0001 f234 0800 0707 0001 f244 0800     ....4.......D...
 800ee54:	0b0b 0002 f254 0800 0b0b 0002 f274 0800     ....T.......t...
 800ee64:	0b0b 0002 f294 0800 0808 0001 f2b4 0800     ................
 800ee74:	0909 0002 f2c4 0800 0909 0002 f2e4 0800     ................
 800ee84:	0909 0002 f304 0800 0909 0002 f324 0800     ............$...
 800ee94:	0909 0002 f344 0800 0909 0002 f364 0800     ....D.......d...
 800eea4:	0d0d 0002 f384 0800 0909 0002 f3a4 0800     ................
 800eeb4:	0808 0001 f3c4 0800 0808 0001 f3d4 0800     ................
 800eec4:	0808 0001 f3e4 0800 0808 0001 f3f4 0800     ................
 800eed4:	0404 0001 f404 0800 0404 0001 f414 0800     ................
 800eee4:	0404 0001 f424 0800 0404 0001 f434 0800     ....$.......4...
 800eef4:	0909 0002 f444 0800 0909 0002 f464 0800     ....D.......d...
 800ef04:	0a0a 0002 f484 0800 0a0a 0002 f4a4 0800     ................
 800ef14:	0a0a 0002 f4c4 0800 0a0a 0002 f4e4 0800     ................
 800ef24:	0a0a 0002 f504 0800 0808 0001 f524 0800     ............$...
 800ef34:	0a0a 0002 f534 0800 0909 0002 f554 0800     ....4.......T...
 800ef44:	0909 0002 f574 0800 0909 0002 f594 0800     ....t...........
 800ef54:	0909 0002 f5b4 0800 0808 0001 f5d4 0800     ................
 800ef64:	0909 0002 f5e4 0800 0808 0001 f604 0800     ................
 800ef74:	0808 0001 f614 0800 0808 0001 f624 0800     ............$...
 800ef84:	0808 0001 f634 0800 0808 0001 f644 0800     ....4.......D...
 800ef94:	0808 0001 f654 0800 0808 0001 f664 0800     ....T.......d...
 800efa4:	0c0c 0002 f674 0800 0707 0001 f694 0800     ....t...........
 800efb4:	0808 0001 f6a4 0800 0808 0001 f6b4 0800     ................
 800efc4:	0808 0001 f6c4 0800 0808 0001 f6d4 0800     ................
 800efd4:	0404 0001 f6e4 0800 0404 0001 f6f4 0800     ................
 800efe4:	0404 0001 f704 0800 0404 0001 f714 0800     ................
 800eff4:	0808 0001 f724 0800 0808 0001 f734 0800     ....$.......4...
 800f004:	0808 0001 f744 0800 0808 0001 f754 0800     ....D.......T...
 800f014:	0808 0001 f764 0800 0808 0001 f774 0800     ....d.......t...
 800f024:	0808 0001 f784 0800 0707 0001 f794 0800     ................
 800f034:	0808 0001 f7a4 0800 0808 0001 f7b4 0800     ................
 800f044:	0808 0001 f7c4 0800 0808 0001 f7d4 0800     ................
 800f054:	0808 0001 f7e4 0800 0707 0001 f7f4 0800     ................
 800f064:	0808 0001 f804 0800 0707 0001 f814 0800     ................

0800f074 <acFont16B_1_00A0>:
	...

0800f084 <acFont16B_1_00A1>:
 800f084:	0000 0000 0000 6060 6000 6060 6060 6060     ......``.```````

0800f094 <acFont16B_1_00A2>:
 800f094:	0000 0800 1008 dc78 d0d0 e4d0 2078 4040     ......x.....x @@

0800f0a4 <acFont16B_1_00A3>:
 800f0a4:	0000 3c00 6066 6060 30fc fa70 004e 0000     ...<f```.0p.N...

0800f0b4 <acFont16B_1_00A4>:
 800f0b4:	0000 0000 8400 ccfe 8484 fecc 0084 0000     ................

0800f0c4 <acFont16B_1_00A5>:
 800f0c4:	0000 cc00 78cc fc78 fc30 3030 0030 0000     .....xx.0.000...

0800f0d4 <acFont16B_1_00A6>:
 800f0d4:	0000 4000 4040 4040 0000 4040 4040 0040     ...@@@@@..@@@@@.

0800f0e4 <acFont16B_1_00A7>:
 800f0e4:	0000 3800 606c f870 ccdc 78ec 1838 70d8     ...8l`p....x8..p

0800f0f4 <acFont16B_1_00A8>:
 800f0f4:	0000 9000 0000 0000 0000 0000 0000 0000     ................

0800f104 <acFont16B_1_00A9>:
 800f104:	0000 0000 0000 001e 8061 804c 4092 4090     ........a.L..@.@
 800f114:	4090 4092 804c 8061 001e 0000 0000 0000     .@.@L.a.........

0800f124 <acFont16B_1_00AA>:
 800f124:	0000 7000 7090 f090 0000 0000 0000 0000     ...p.p..........

0800f134 <acFont16B_1_00AB>:
 800f134:	0000 0000 0000 2400 d86c 6cd8 0024 0000     .......$l..l$...

0800f144 <acFont16B_1_00AC>:
 800f144:	0000 0000 0000 06fe 0606 0000 0000 0000     ................

0800f154 <acFont16B_1_00AD>:
	...
 800f15c:	0000 0070 0000 0000                         ..p.....

0800f164 <acFont16B_1_00AE>:
 800f164:	0000 0000 0000 001e 8061 805c 4092 4092     ........a.\..@.@
 800f174:	409c 4094 8052 8061 001e 0000 0000 0000     .@.@R.a.........

0800f184 <acFont16B_1_00AF>:
 800f184:	0000 00fe 0000 0000 0000 0000 0000 0000     ................

0800f194 <acFont16B_1_00B0>:
 800f194:	0000 6000 9090 0060 0000 0000 0000 0000     ...`..`.........

0800f1a4 <acFont16B_1_00B1>:
 800f1a4:	0000 0000 0000 3030 30fc 0030 00fc 0000     ......00.00.....

0800f1b4 <acFont16B_1_00B2>:
 800f1b4:	0000 7000 2090 f040 0000 0000 0000 0000     ...p. @.........

0800f1c4 <acFont16B_1_00B3>:
 800f1c4:	0000 6000 2090 6090 0000 0000 0000 0000     ...`. .`........

0800f1d4 <acFont16B_1_00B4>:
 800f1d4:	0000 3000 0060 0000 0000 0000 0000 0000     ...0`...........

0800f1e4 <acFont16B_1_00B5>:
 800f1e4:	0000 0000 0000 cccc cccc cccc c0fc c0c0     ................

0800f1f4 <acFont16B_1_00B6>:
 800f1f4:	0000 7e00 f4f4 74f4 1414 1414 1414 0014     ...~...t........

0800f204 <acFont16B_1_00B7>:
 800f204:	0000 0000 0000 6000 0060 0000 0000 0000     .......``.......

0800f214 <acFont16B_1_00B8>:
	...
 800f220:	6000 c020                                   .` .

0800f224 <acFont16B_1_00B9>:
 800f224:	0000 2000 2060 2020 0000 0000 0000 0000     ... `   ........

0800f234 <acFont16B_1_00BA>:
 800f234:	0000 3000 4848 3048 0000 0000 0000 0000     ...0HHH0........

0800f244 <acFont16B_1_00BB>:
 800f244:	0000 0000 0000 4800 366c 6c36 0048 0000     .......Hl66lH...

0800f254 <acFont16B_1_00BC>:
 800f254:	0000 0000 0000 0041 00c2 0044 0044 0048     ......A...D.D.H.
 800f264:	8008 8011 8022 c023 8040 0000 0000 0000     ....".#.@.......

0800f274 <acFont16B_1_00BD>:
 800f274:	0000 0000 0000 0041 00c2 0042 0044 0048     ......A...B.D.H.
 800f284:	c009 4012 8010 0021 c043 0000 0000 0000     ...@..!.C.......

0800f294 <acFont16B_1_00BE>:
 800f294:	0000 0000 0000 8060 0091 0021 0092 0062     ......`...!...b.
 800f2a4:	4004 c008 4009 e011 4010 0000 0000 0000     .@...@...@......

0800f2b4 <acFont16B_1_00BF>:
 800f2b4:	0000 0000 0000 1818 1800 6030 c0c0 7cc6     ..........0`...|

0800f2c4 <acFont16B_1_00C0>:
 800f2c4:	0018 000c 0000 001c 001c 0036 0036 0036     ..........6.6.6.
 800f2d4:	0063 0063 007f 80c1 80c1 0000 0000 0000     c.c.............

0800f2e4 <acFont16B_1_00C1>:
 800f2e4:	0006 000c 0000 001c 001c 0036 0036 0036     ..........6.6.6.
 800f2f4:	0063 0063 007f 80c1 80c1 0000 0000 0000     c.c.............

0800f304 <acFont16B_1_00C2>:
 800f304:	0008 0014 0000 001c 001c 0036 0036 0036     ..........6.6.6.
 800f314:	0063 0063 007f 80c1 80c1 0000 0000 0000     c.c.............

0800f324 <acFont16B_1_00C3>:
 800f324:	001a 0016 0000 001c 001c 0036 0036 0036     ..........6.6.6.
 800f334:	0063 0063 007f 80c1 80c1 0000 0000 0000     c.c.............

0800f344 <acFont16B_1_00C4>:
 800f344:	0000 0012 0000 001c 001c 0036 0036 0036     ..........6.6.6.
 800f354:	0063 0063 007f 80c1 80c1 0000 0000 0000     c.c.............

0800f364 <acFont16B_1_00C5>:
 800f364:	000c 0012 0012 001c 001c 0036 0036 0036     ..........6.6.6.
 800f374:	0063 0063 007f 80c1 80c1 0000 0000 0000     c.c.............

0800f384 <acFont16B_1_00C6>:
 800f384:	0000 0000 0000 f00f 001b 001b 001b f033     ..............3.
 800f394:	0033 0063 007f 0063 f0c3 0000 0000 0000     3.c...c.........

0800f3a4 <acFont16B_1_00C7>:
 800f3a4:	0000 0000 0000 001f 8031 0060 0060 0060     ........1.`.`.`.
 800f3b4:	0060 0060 0060 8031 001f 000c 0004 0018     `.`.`.1.........

0800f3c4 <acFont16B_1_00C8>:
 800f3c4:	1830 7e00 6060 7e60 6060 6060 007e 0000     0..~```~````~...

0800f3d4 <acFont16B_1_00C9>:
 800f3d4:	0c06 7e00 6060 7e60 6060 6060 007e 0000     ...~```~````~...

0800f3e4 <acFont16B_1_00CA>:
 800f3e4:	1408 7e00 6060 7e60 6060 6060 007e 0000     ...~```~````~...

0800f3f4 <acFont16B_1_00CB>:
 800f3f4:	2400 7e00 6060 7e60 6060 6060 007e 0000     .$.~```~````~...

0800f404 <acFont16B_1_00CC>:
 800f404:	60c0 6000 6060 6060 6060 6060 0060 0000     .`.``````````...

0800f414 <acFont16B_1_00CD>:
 800f414:	6030 6000 6060 6060 6060 6060 0060 0000     0`.``````````...

0800f424 <acFont16B_1_00CE>:
 800f424:	5020 6000 6060 6060 6060 6060 0060 0000      P.``````````...

0800f434 <acFont16B_1_00CF>:
 800f434:	9000 6000 6060 6060 6060 6060 0060 0000     ...``````````...

0800f444 <acFont16B_1_00D0>:
 800f444:	0000 0000 0000 007c 0066 0063 0063 00fb     ......|.f.c.c...
 800f454:	0063 0063 0063 0066 007c 0000 0000 0000     c.c.c.f.|.......

0800f464 <acFont16B_1_00D1>:
 800f464:	001a 0016 0000 0063 0073 0073 007b 006b     ......c.s.s.{.k.
 800f474:	006f 0067 0067 0063 0063 0000 0000 0000     o.g.g.c.c.......

0800f484 <acFont16B_1_00D2>:
 800f484:	0018 000c 0000 001e 0033 8061 8061 8061     ........3.a.a.a.
 800f494:	8061 8061 8061 0033 001e 0000 0000 0000     a.a.a.3.........

0800f4a4 <acFont16B_1_00D3>:
 800f4a4:	0006 000c 0000 001e 0033 8061 8061 8061     ........3.a.a.a.
 800f4b4:	8061 8061 8061 0033 001e 0000 0000 0000     a.a.a.3.........

0800f4c4 <acFont16B_1_00D4>:
 800f4c4:	0004 000a 0000 001e 0033 8061 8061 8061     ........3.a.a.a.
 800f4d4:	8061 8061 8061 0033 001e 0000 0000 0000     a.a.a.3.........

0800f4e4 <acFont16B_1_00D5>:
 800f4e4:	001a 0016 0000 001e 0033 8061 8061 8061     ........3.a.a.a.
 800f4f4:	8061 8061 8061 0033 001e 0000 0000 0000     a.a.a.3.........

0800f504 <acFont16B_1_00D6>:
 800f504:	0000 0012 0000 001e 0033 8061 8061 8061     ........3.a.a.a.
 800f514:	8061 8061 8061 0033 001e 0000 0000 0000     a.a.a.3.........

0800f524 <acFont16B_1_00D7>:
 800f524:	0000 0000 0000 6c44 3838 446c 0000 0000     ......Dl88lD....

0800f534 <acFont16B_1_00D8>:
 800f534:	0000 0000 8000 c01e 8033 8063 8067 8065     ........3.c.g.e.
 800f544:	8069 8079 8071 0073 00de 0040 0000 0000     i.y.q.s...@.....

0800f554 <acFont16B_1_00D9>:
 800f554:	0018 000c 0000 0063 0063 0063 0063 0063     ......c.c.c.c.c.
 800f564:	0063 0063 0063 0063 003e 0000 0000 0000     c.c.c.c.>.......

0800f574 <acFont16B_1_00DA>:
 800f574:	000c 0018 0000 0063 0063 0063 0063 0063     ......c.c.c.c.c.
 800f584:	0063 0063 0063 0063 003e 0000 0000 0000     c.c.c.c.>.......

0800f594 <acFont16B_1_00DB>:
 800f594:	0008 0014 0000 0063 0063 0063 0063 0063     ......c.c.c.c.c.
 800f5a4:	0063 0063 0063 0063 003e 0000 0000 0000     c.c.c.c.>.......

0800f5b4 <acFont16B_1_00DC>:
 800f5b4:	0000 0012 0000 0063 0063 0063 0063 0063     ......c.c.c.c.c.
 800f5c4:	0063 0063 0063 0063 003e 0000 0000 0000     c.c.c.c.>.......

0800f5d4 <acFont16B_1_00DD>:
 800f5d4:	180c c300 66c3 3c3c 1818 1818 0018 0000     .....f<<........

0800f5e4 <acFont16B_1_00DE>:
 800f5e4:	0000 0000 0000 0060 0060 007e 0063 0063     ......`.`.~.c.c.
 800f5f4:	0063 0063 007e 0060 0060 0000 0000 0000     c.c.~.`.`.......

0800f604 <acFont16B_1_00DF>:
 800f604:	0000 3800 6c6c 7868 6e7c 6666 006c 0000     ...8llhx|nffl...

0800f614 <acFont16B_1_00E0>:
 800f614:	0000 3000 0018 463c 361e 6666 003e 0000     ...0..<F.6ff>...

0800f624 <acFont16B_1_00E1>:
 800f624:	0000 0c00 0018 463c 361e 6666 003e 0000     ......<F.6ff>...

0800f634 <acFont16B_1_00E2>:
 800f634:	0000 0800 0014 463c 361e 6666 003e 0000     ......<F.6ff>...

0800f644 <acFont16B_1_00E3>:
 800f644:	0000 3400 002c 463c 361e 6666 003e 0000     ...4,.<F.6ff>...

0800f654 <acFont16B_1_00E4>:
 800f654:	0000 0000 0024 463c 361e 6666 003e 0000     ....$.<F.6ff>...

0800f664 <acFont16B_1_00E5>:
 800f664:	1800 2424 0018 463c 361e 6666 003e 0000     ..$$..<F.6ff>...

0800f674 <acFont16B_1_00E6>:
	...
 800f680:	c03d 6046 601e e037 0066 6066 c03b 0000     =.F`.`7.f.f`;...
 800f690:	0000 0000                                   ....

0800f694 <acFont16B_1_00E7>:
 800f694:	0000 0000 0000 663c 6060 6660 183c 3008     ......<f```f<..0

0800f6a4 <acFont16B_1_00E8>:
 800f6a4:	0000 3000 0018 663c 7e66 6660 003c 0000     ...0..<ff~`f<...

0800f6b4 <acFont16B_1_00E9>:
 800f6b4:	0000 0c00 0018 663c 7e66 6660 003c 0000     ......<ff~`f<...

0800f6c4 <acFont16B_1_00EA>:
 800f6c4:	0000 0800 0014 663c 7e66 6660 003c 0000     ......<ff~`f<...

0800f6d4 <acFont16B_1_00EB>:
 800f6d4:	0000 0000 0024 663c 7e66 6660 003c 0000     ....$.<ff~`f<...

0800f6e4 <acFont16B_1_00EC>:
 800f6e4:	0000 c000 0060 6060 6060 6060 0060 0000     ....`.```````...

0800f6f4 <acFont16B_1_00ED>:
 800f6f4:	0000 3000 0060 6060 6060 6060 0060 0000     ...0`.```````...

0800f704 <acFont16B_1_00EE>:
 800f704:	0000 2000 0050 6060 6060 6060 0060 0000     ... P.```````...

0800f714 <acFont16B_1_00EF>:
 800f714:	0000 0000 0090 6060 6060 6060 0060 0000     ......```````...

0800f724 <acFont16B_1_00F0>:
 800f724:	0000 1400 1408 663e 6666 6666 003c 0000     ......>fffff<...

0800f734 <acFont16B_1_00F1>:
 800f734:	0000 3400 002c 766c 6666 6666 0066 0000     ...4,.lvfffff...

0800f744 <acFont16B_1_00F2>:
 800f744:	0000 1800 000c 663c 6666 6666 003c 0000     ......<fffff<...

0800f754 <acFont16B_1_00F3>:
 800f754:	0000 0c00 0018 663c 6666 6666 003c 0000     ......<fffff<...

0800f764 <acFont16B_1_00F4>:
 800f764:	0000 0800 0014 663c 6666 6666 003c 0000     ......<fffff<...

0800f774 <acFont16B_1_00F5>:
 800f774:	0000 3400 002c 663c 6666 6666 003c 0000     ...4,.<fffff<...

0800f784 <acFont16B_1_00F6>:
 800f784:	0000 0000 0024 663c 6666 6666 003c 0000     ....$.<fffff<...

0800f794 <acFont16B_1_00F7>:
 800f794:	0000 0000 3000 0030 00fc 3030 0000 0000     .....00...00....

0800f7a4 <acFont16B_1_00F8>:
 800f7a4:	0000 0000 0400 6c3e 7e6e 3676 207c 0000     ......>ln~v6| ..

0800f7b4 <acFont16B_1_00F9>:
 800f7b4:	0000 3000 0018 6666 6666 6e66 0036 0000     ...0..fffffn6...

0800f7c4 <acFont16B_1_00FA>:
 800f7c4:	0000 0c00 0018 6666 6666 6e66 0036 0000     ......fffffn6...

0800f7d4 <acFont16B_1_00FB>:
 800f7d4:	0000 0800 0014 6666 6666 6e66 0036 0000     ......fffffn6...

0800f7e4 <acFont16B_1_00FC>:
 800f7e4:	0000 0000 0024 6666 6666 6e66 0036 0000     ....$.fffffn6...

0800f7f4 <acFont16B_1_00FD>:
 800f7f4:	0000 0c00 0018 c6c6 6c6c 386c 3838 f030     ........lll8880.

0800f804 <acFont16B_1_00FE>:
 800f804:	0000 6000 6060 667c 6666 6666 607c 6060     ...```|fffff|```

0800f814 <acFont16B_1_00FF>:
 800f814:	0000 0000 0024 c6c6 6c6c 386c 3838 f030     ....$...lll8880.
 800f824:	0206 0004 0307 0105 66e1 0800 66e5 0800     .........f...f..
 800f834:	66ed 0800 66f1 0800 66f9 0800 66fd 0800     .f...f...f...f..
 800f844:	6705 0800 6709 0800 6711 0800 6715 0800     .g...g...g...g..
 800f854:	6719 0800 6721 0800 6729 0800 672d 0800     .g..!g..)g..-g..
 800f864:	6731 0800 6739 0800                         1g..9g..

0800f86c <GUIDRV_FlexColor_API>:
 800f86c:	0000 0000 67c5 0800 6789 0800 679d 0800     .....g...g...g..
 800f87c:	67b1 0800 674d 0800 6741 0800 6759 0800     .g..Mg..Ag..Yg..
 800f88c:	6a15 0800 68d1 0800 693d 0800 69a1 0800     .j...h..=i...i..
 800f89c:	69ad 0800                                   .i..

0800f8a0 <_HL_APIList>:
 800f8a0:	a9f9 0800 a99d 0800                         ........

0800f8a8 <LCD_API_ColorConv_M565>:
 800f8a8:	8b35 0800 8b05 0800 8b65 0800 0001 0000     5.......e.......
 800f8b8:	8b6d 0800 8c55 0800                         m...U...

0800f8c0 <GUI_MEMDEV_DEVICE_16>:
 800f8c0:	0004 0000 8d89 0800 a719 0800 a341 0800     ............A...
 800f8d0:	a4f5 0800 a28d 0800 a2cd 0800 a209 0800     ................
 800f8e0:	8d31 0800 8d21 0800 8d41 0800 8d11 0800     1...!...A.......
 800f8f0:	8d55 0800                                   U...

0800f8f4 <_aID>:
 800f8f4:	0000 0000 0001 0000 0002 0000 0003 0000     ................
 800f904:	0004 0000 0005 0000 0006 0000 0007 0000     ................
 800f914:	0008 0000 0009 0000 000a 0000 000b 0000     ................
 800f924:	000c 0000 000d 0000 000e 0000 000f 0000     ................

0800f934 <GUI_Font16B_ASCII>:
 800f934:	748d 0800 7581 0800 75c9 0800 75d1 0800     .t...u...u...u..
	...
 800f94c:	1010 0101 f958 0800 070d 000a               ....X.......

0800f958 <GUI_Font16B_ASCII_Prop1>:
 800f958:	0020 007e f964 0800 0000 0000                .~.d.......

0800f964 <GUI_Font16B_ASCII_CharInfo>:
 800f964:	0404 0001 fc5c 0800 0404 0001 fc6c 0800     ....\.......l...
 800f974:	0606 0001 fc7c 0800 0707 0001 fc8c 0800     ....|...........
 800f984:	0707 0001 fc9c 0800 0a0a 0002 fcac 0800     ................
 800f994:	0909 0002 fccc 0800 0303 0001 fcec 0800     ................
 800f9a4:	0404 0001 fcfc 0800 0404 0001 fd0c 0800     ................
 800f9b4:	0505 0001 fd1c 0800 0808 0001 fd2c 0800     ............,...
 800f9c4:	0404 0001 fd3c 0800 0404 0001 fd4c 0800     ....<.......L...
 800f9d4:	0404 0001 fd5c 0800 0404 0001 fd6c 0800     ....\.......l...
 800f9e4:	0707 0001 fd7c 0800 0707 0001 fd8c 0800     ....|...........
 800f9f4:	0707 0001 fd9c 0800 0707 0001 fdac 0800     ................
 800fa04:	0707 0001 fdbc 0800 0707 0001 fdcc 0800     ................
 800fa14:	0707 0001 fddc 0800 0707 0001 fdec 0800     ................
 800fa24:	0707 0001 fdfc 0800 0707 0001 fe0c 0800     ................
 800fa34:	0404 0001 fe1c 0800 0404 0001 fe2c 0800     ............,...
 800fa44:	0808 0001 fe3c 0800 0808 0001 fe4c 0800     ....<.......L...
 800fa54:	0808 0001 fe5c 0800 0808 0001 fe6c 0800     ....\.......l...
 800fa64:	0d0d 0002 fe7c 0800 0909 0002 fe9c 0800     ....|...........
 800fa74:	0909 0002 febc 0800 0909 0002 fedc 0800     ................
 800fa84:	0909 0002 fefc 0800 0808 0001 ff1c 0800     ................
 800fa94:	0808 0001 ff2c 0800 0a0a 0002 ff3c 0800     ....,.......<...
 800faa4:	0909 0002 ff5c 0800 0404 0001 ff7c 0800     ....\.......|...
 800fab4:	0707 0001 ff8c 0800 0909 0002 ff9c 0800     ................
 800fac4:	0808 0001 ffbc 0800 0b0b 0002 ffcc 0800     ................
 800fad4:	0909 0002 ffec 0800 0a0a 0002 000c 0801     ................
 800fae4:	0909 0002 002c 0801 0a0a 0002 004c 0801     ....,.......L...
 800faf4:	0909 0002 006c 0801 0909 0002 008c 0801     ....l...........
 800fb04:	0808 0001 00ac 0801 0909 0002 00bc 0801     ................
 800fb14:	0909 0002 00dc 0801 0d0d 0002 00fc 0801     ................
 800fb24:	0909 0002 011c 0801 0808 0001 013c 0801     ............<...
 800fb34:	0707 0001 014c 0801 0404 0001 015c 0801     ....L.......\...
 800fb44:	0404 0001 016c 0801 0404 0001 017c 0801     ....l.......|...
 800fb54:	0808 0001 018c 0801 0707 0001 019c 0801     ................
 800fb64:	0404 0001 01ac 0801 0808 0001 01bc 0801     ................
 800fb74:	0808 0001 01cc 0801 0707 0001 01dc 0801     ................
 800fb84:	0808 0001 01ec 0801 0808 0001 01fc 0801     ................
 800fb94:	0404 0001 020c 0801 0808 0001 021c 0801     ................
 800fba4:	0808 0001 022c 0801 0404 0001 023c 0801     ....,.......<...
 800fbb4:	0404 0001 024c 0801 0707 0001 025c 0801     ....L.......\...
 800fbc4:	0404 0001 026c 0801 0c0c 0002 027c 0801     ....l.......|...
 800fbd4:	0808 0001 029c 0801 0808 0001 02ac 0801     ................
 800fbe4:	0808 0001 02bc 0801 0808 0001 02cc 0801     ................
 800fbf4:	0505 0001 02dc 0801 0606 0001 02ec 0801     ................
 800fc04:	0404 0001 02fc 0801 0808 0001 030c 0801     ................
 800fc14:	0707 0001 031c 0801 0b0b 0002 032c 0801     ............,...
 800fc24:	0808 0001 034c 0801 0707 0001 035c 0801     ....L.......\...
 800fc34:	0707 0001 036c 0801 0505 0001 037c 0801     ....l.......|...
 800fc44:	0303 0001 038c 0801 0505 0001 039c 0801     ................
 800fc54:	0808 0001 03ac 0801                         ........

0800fc5c <acFont16B_ASCII_0020>:
	...

0800fc6c <acFont16B_ASCII_0021>:
 800fc6c:	0000 6000 6060 6060 6060 6000 0060 0000     ...```````.``...

0800fc7c <acFont16B_ASCII_0022>:
 800fc7c:	0000 6c00 6c6c 0000 0000 0000 0000 0000     ...lll..........

0800fc8c <acFont16B_ASCII_0023>:
 800fc8c:	0000 2400 2424 48fc fc48 9090 0090 0000     ...$$$.HH.......

0800fc9c <acFont16B_ASCII_0024>:
 800fc9c:	0000 3810 5054 7870 1c3c 5414 1038 0000     ...8TPpx<..T8...

0800fcac <acFont16B_ASCII_0025>:
 800fcac:	0000 0000 0000 0072 0052 0052 0054 0074     ......r.R.R.T.t.
 800fcbc:	800b 800a 800a 8012 8013 0000 0000 0000     ................

0800fccc <acFont16B_ASCII_0026>:
 800fccc:	0000 0000 0000 001c 0036 0036 001e 0018     ........6.6.....
 800fcdc:	003d 006d 0067 0067 803d 0000 0000 0000     =.m.g.g.=.......

0800fcec <acFont16B_ASCII_0027>:
 800fcec:	0000 6000 6060 0000 0000 0000 0000 0000     ...```..........

0800fcfc <acFont16B_ASCII_0028>:
 800fcfc:	0000 1000 2030 6060 6060 6060 2060 1030     ....0 ``````` 0.

0800fd0c <acFont16B_ASCII_0029>:
 800fd0c:	0000 8000 40c0 6060 6060 6060 4060 80c0     .....@```````@..

0800fd1c <acFont16B_ASCII_002A>:
 800fd1c:	0000 2000 20f8 00d8 0000 0000 0000 0000     ... . ..........

0800fd2c <acFont16B_ASCII_002B>:
 800fd2c:	0000 0000 0000 1800 7e18 1818 0000 0000     .........~......

0800fd3c <acFont16B_ASCII_002C>:
	...
 800fd44:	0000 6000 2060 0040                         ...`` @.

0800fd4c <acFont16B_ASCII_002D>:
	...
 800fd54:	0000 0070 0000 0000                         ..p.....

0800fd5c <acFont16B_ASCII_002E>:
	...
 800fd64:	0000 6000 0060 0000                         ...``...

0800fd6c <acFont16B_ASCII_002F>:
 800fd6c:	0000 1000 2010 2020 4040 8040 0080 0000     .....   @@@.....

0800fd7c <acFont16B_ASCII_0030>:
 800fd7c:	0000 7800 cccc cccc cccc cccc 0078 0000     ...x........x...

0800fd8c <acFont16B_ASCII_0031>:
 800fd8c:	0000 1800 7838 1858 1818 1818 0018 0000     ....8xX.........

0800fd9c <acFont16B_ASCII_0032>:
 800fd9c:	0000 7800 0ccc 180c 3038 c060 00fc 0000     ...x....80`.....

0800fdac <acFont16B_ASCII_0033>:
 800fdac:	0000 7800 0ccc 380c 0c0c cc0c 0078 0000     ...x...8....x...

0800fdbc <acFont16B_ASCII_0034>:
 800fdbc:	0000 1800 3818 5838 9858 18fc 0018 0000     .....88XX.......

0800fdcc <acFont16B_ASCII_0035>:
 800fdcc:	0000 7c00 c060 ccf8 0c0c cc0c 0078 0000     ...|`.......x...

0800fddc <acFont16B_ASCII_0036>:
 800fddc:	0000 3800 c04c f8c0 cccc cccc 0078 0000     ...8L.......x...

0800fdec <acFont16B_ASCII_0037>:
 800fdec:	0000 fc00 180c 3018 3030 6060 0060 0000     .......000```...

0800fdfc <acFont16B_ASCII_0038>:
 800fdfc:	0000 7800 cccc 78cc cccc cccc 0078 0000     ...x...x....x...

0800fe0c <acFont16B_ASCII_0039>:
 800fe0c:	0000 7800 cccc cccc 0c7c c80c 0070 0000     ...x....|...p...

0800fe1c <acFont16B_ASCII_003A>:
 800fe1c:	0000 0000 0000 6060 0000 6000 0060 0000     ......``...``...

0800fe2c <acFont16B_ASCII_003B>:
 800fe2c:	0000 0000 0000 6060 0000 6000 2060 0040     ......``...`` @.

0800fe3c <acFont16B_ASCII_003C>:
 800fe3c:	0000 0000 0400 701c 70c0 041c 0000 0000     .......p.p......

0800fe4c <acFont16B_ASCII_003D>:
 800fe4c:	0000 0000 0000 fe00 fe00 0000 0000 0000     ................

0800fe5c <acFont16B_ASCII_003E>:
 800fe5c:	0000 0000 4000 1c70 1c06 4070 0000 0000     .....@p...p@....

0800fe6c <acFont16B_ASCII_003F>:
 800fe6c:	0000 7c00 06c6 0c06 3018 3000 0030 0000     ...|.....0.00...

0800fe7c <acFont16B_ASCII_0040>:
 800fe7c:	0000 0000 0000 c00f 2030 1060 c84e c89f     ........0 `.N...
 800fe8c:	c8b9 88b1 90b3 b0bf c05d 0840 3030 c00f     ........].@.00..

0800fe9c <acFont16B_ASCII_0041>:
 800fe9c:	0000 0000 0000 001c 001c 0036 0036 0036     ..........6.6.6.
 800feac:	0063 0063 007f 80c1 80c1 0000 0000 0000     c.c.............

0800febc <acFont16B_ASCII_0042>:
 800febc:	0000 0000 0000 007e 0063 0063 0063 007e     ......~.c.c.c.~.
 800fecc:	0063 0063 0063 0063 007e 0000 0000 0000     c.c.c.c.~.......

0800fedc <acFont16B_ASCII_0043>:
 800fedc:	0000 0000 0000 001f 8031 0060 0060 0060     ........1.`.`.`.
 800feec:	0060 0060 0060 8031 001f 0000 0000 0000     `.`.`.1.........

0800fefc <acFont16B_ASCII_0044>:
 800fefc:	0000 0000 0000 007c 0066 0063 0063 0063     ......|.f.c.c.c.
 800ff0c:	0063 0063 0063 0066 007c 0000 0000 0000     c.c.c.f.|.......

0800ff1c <acFont16B_ASCII_0045>:
 800ff1c:	0000 7e00 6060 7e60 6060 6060 007e 0000     ...~```~````~...

0800ff2c <acFont16B_ASCII_0046>:
 800ff2c:	0000 7e00 6060 6060 607e 6060 0060 0000     ...~````~````...

0800ff3c <acFont16B_ASCII_0047>:
 800ff3c:	0000 0000 0000 001f 8031 0060 0060 0060     ........1.`.`.`.
 800ff4c:	8067 8061 8061 8031 001f 0000 0000 0000     g.a.a.1.........

0800ff5c <acFont16B_ASCII_0048>:
 800ff5c:	0000 0000 0000 0063 0063 0063 0063 007f     ......c.c.c.c...
 800ff6c:	0063 0063 0063 0063 0063 0000 0000 0000     c.c.c.c.c.......

0800ff7c <acFont16B_ASCII_0049>:
 800ff7c:	0000 6000 6060 6060 6060 6060 0060 0000     ...``````````...

0800ff8c <acFont16B_ASCII_004A>:
 800ff8c:	0000 0c00 0c0c 0c0c 0c0c cccc 0078 0000     ............x...

0800ff9c <acFont16B_ASCII_004B>:
 800ff9c:	0000 0000 0000 0063 0066 006c 006c 007c     ......c.f.l.l.|.
 800ffac:	0076 0066 0066 0063 0063 0000 0000 0000     v.f.f.c.c.......

0800ffbc <acFont16B_ASCII_004C>:
 800ffbc:	0000 6000 6060 6060 6060 6060 007e 0000     ...`````````~...

0800ffcc <acFont16B_ASCII_004D>:
 800ffcc:	0000 0000 0000 c071 c071 c07b c07b c06a     ......q.q.{.{.j.
 800ffdc:	c06a c06a c06e c06e c064 0000 0000 0000     j.j.n.n.d.......

0800ffec <acFont16B_ASCII_004E>:
 800ffec:	0000 0000 0000 0063 0073 0073 007b 006b     ......c.s.s.{.k.
 800fffc:	006f 0067 0067 0063 0063 0000 0000 0000     o.g.g.c.c.......

0801000c <acFont16B_ASCII_004F>:
 801000c:	0000 0000 0000 001e 0033 8061 8061 8061     ........3.a.a.a.
 801001c:	8061 8061 8061 0033 001e 0000 0000 0000     a.a.a.3.........

0801002c <acFont16B_ASCII_0050>:
 801002c:	0000 0000 0000 007e 0063 0063 0063 0063     ......~.c.c.c.c.
 801003c:	007e 0060 0060 0060 0060 0000 0000 0000     ~.`.`.`.`.......

0801004c <acFont16B_ASCII_0051>:
 801004c:	0000 0000 0000 001e 0033 8061 8061 8061     ........3.a.a.a.
 801005c:	8061 8061 8065 0033 001f 8000 0000 0000     a.a.e.3.........

0801006c <acFont16B_ASCII_0052>:
 801006c:	0000 0000 0000 007e 0063 0063 0063 0063     ......~.c.c.c.c.
 801007c:	007e 0066 0063 0063 8061 0000 0000 0000     ~.f.c.c.a.......

0801008c <acFont16B_ASCII_0053>:
 801008c:	0000 0000 0000 003e 0063 0060 0070 003c     ......>.c.`.p.<.
 801009c:	001e 0007 0003 0063 003e 0000 0000 0000     ......c.>.......

080100ac <acFont16B_ASCII_0054>:
 80100ac:	0000 ff00 1818 1818 1818 1818 0018 0000     ................

080100bc <acFont16B_ASCII_0055>:
 80100bc:	0000 0000 0000 0063 0063 0063 0063 0063     ......c.c.c.c.c.
 80100cc:	0063 0063 0063 0063 003e 0000 0000 0000     c.c.c.c.>.......

080100dc <acFont16B_ASCII_0056>:
 80100dc:	0000 0000 0000 80c1 80c1 0063 0063 0063     ..........c.c.c.
 80100ec:	0036 0036 0036 001c 001c 0000 0000 0000     6.6.6...........

080100fc <acFont16B_ASCII_0057>:
 80100fc:	0000 0000 0000 18c7 18c7 3067 b06d b06d     ..........g0m.m.
 801010c:	b06d b06d e038 e038 e038 0000 0000 0000     m.m.8.8.8.......

0801011c <acFont16B_ASCII_0058>:
 801011c:	0000 0000 0000 0063 0063 0036 001c 001c     ......c.c.6.....
 801012c:	001c 001c 0036 0063 0063 0000 0000 0000     ....6.c.c.......

0801013c <acFont16B_ASCII_0059>:
 801013c:	0000 c300 66c3 3c3c 1818 1818 0018 0000     .....f<<........

0801014c <acFont16B_ASCII_005A>:
 801014c:	0000 fe00 0c06 1818 3030 c060 00fe 0000     ........00`.....

0801015c <acFont16B_ASCII_005B>:
 801015c:	0000 7000 6060 6060 6060 6060 6060 7060     ...p```````````p

0801016c <acFont16B_ASCII_005C>:
 801016c:	0000 8000 4080 4040 2020 1020 0010 0000     .....@@@   .....

0801017c <acFont16B_ASCII_005D>:
 801017c:	0000 e000 6060 6060 6060 6060 6060 e060     ....```````````.

0801018c <acFont16B_ASCII_005E>:
 801018c:	0000 0000 3030 4878 00cc 0000 0000 0000     ....00xH........

0801019c <acFont16B_ASCII_005F>:
	...
 80101a8:	0000 fe00                                   ....

080101ac <acFont16B_ASCII_0060>:
 80101ac:	0000 c000 0060 0000 0000 0000 0000 0000     ....`...........

080101bc <acFont16B_ASCII_0061>:
 80101bc:	0000 0000 0000 463c 361e 6666 003e 0000     ......<F.6ff>...

080101cc <acFont16B_ASCII_0062>:
 80101cc:	0000 6000 6060 766c 6666 7666 006c 0000     ...```lvfffvl...

080101dc <acFont16B_ASCII_0063>:
 80101dc:	0000 0000 0000 663c 6060 6660 003c 0000     ......<f```f<...

080101ec <acFont16B_ASCII_0064>:
 80101ec:	0000 0600 0606 6e36 6666 6e66 0036 0000     ......6nfffn6...

080101fc <acFont16B_ASCII_0065>:
 80101fc:	0000 0000 0000 663c 7e66 6660 003c 0000     ......<ff~`f<...

0801020c <acFont16B_ASCII_0066>:
 801020c:	0000 3000 6060 60f0 6060 6060 0060 0000     ...0``.``````...

0801021c <acFont16B_ASCII_0067>:
 801021c:	0000 0000 0000 6e36 6666 6e66 0636 3c46     ......6nfffn6.F<

0801022c <acFont16B_ASCII_0068>:
 801022c:	0000 6000 6060 766c 6666 6666 0066 0000     ...```lvfffff...

0801023c <acFont16B_ASCII_0069>:
 801023c:	0000 6000 0060 6060 6060 6060 0060 0000     ...``.```````...

0801024c <acFont16B_ASCII_006A>:
 801024c:	0000 6000 0060 6060 6060 6060 6060 c060     ...``.`````````.

0801025c <acFont16B_ASCII_006B>:
 801025c:	0000 6000 6060 6c66 7878 6c6c 0066 0000     ...```flxxllf...

0801026c <acFont16B_ASCII_006C>:
 801026c:	0000 6000 6060 6060 6060 6060 0060 0000     ...``````````...

0801027c <acFont16B_ASCII_006D>:
	...
 8010288:	c06e 6077 6066 6066 6066 6066 6066 0000     n.w`f`f`f`f`f`..
 8010298:	0000 0000                                   ....

0801029c <acFont16B_ASCII_006E>:
 801029c:	0000 0000 0000 766c 6666 6666 0066 0000     ......lvfffff...

080102ac <acFont16B_ASCII_006F>:
 80102ac:	0000 0000 0000 663c 6666 6666 003c 0000     ......<fffff<...

080102bc <acFont16B_ASCII_0070>:
 80102bc:	0000 0000 0000 766c 6666 7666 606c 6060     ......lvfffvl```

080102cc <acFont16B_ASCII_0071>:
 80102cc:	0000 0000 0000 6e36 6666 6e66 0636 0606     ......6nfffn6...

080102dc <acFont16B_ASCII_0072>:
 80102dc:	0000 0000 0000 6078 6060 6060 0060 0000     ......x``````...

080102ec <acFont16B_ASCII_0073>:
 80102ec:	0000 0000 0000 cc78 78e0 cc1c 0078 0000     ......x..x..x...

080102fc <acFont16B_ASCII_0074>:
 80102fc:	0000 0000 6020 60f0 6060 6060 0030 0000     .... `.`````0...

0801030c <acFont16B_ASCII_0075>:
 801030c:	0000 0000 0000 6666 6666 6e66 0036 0000     ......fffffn6...

0801031c <acFont16B_ASCII_0076>:
 801031c:	0000 0000 0000 c6c6 6c6c 386c 0038 0000     ........lll88...

0801032c <acFont16B_ASCII_0077>:
	...
 8010338:	60c4 60ce c06e c06a c07b 803b 8031 0000     .`.`n.j.{.;.1...
 8010348:	0000 0000                                   ....

0801034c <acFont16B_ASCII_0078>:
 801034c:	0000 0000 0000 6666 183c 663c 0066 0000     ......ff<.<ff...

0801035c <acFont16B_ASCII_0079>:
 801035c:	0000 0000 0000 c6c6 6c6c 386c 3838 f030     ........lll8880.

0801036c <acFont16B_ASCII_007A>:
 801036c:	0000 0000 0000 0c7c 3018 6030 007c 0000     ......|..00`|...

0801037c <acFont16B_ASCII_007B>:
 801037c:	0000 3800 6060 6060 c060 6060 6060 3860     ...8`````.`````8

0801038c <acFont16B_ASCII_007C>:
 801038c:	0000 4000 4040 4040 4040 4040 4040 0040     ...@@@@@@@@@@@@.

0801039c <acFont16B_ASCII_007D>:
 801039c:	0000 e000 3030 3030 1830 3030 3030 e030     ....00000.00000.

080103ac <acFont16B_ASCII_007E>:
	...
 80103b4:	9c72 0000 0000 0000                         r.......

080103bc <LCD_aMirror>:
 80103bc:	8000 c040 a020 e060 9010 d050 b030 f070     ..@. .`...P.0.p.
 80103cc:	8808 c848 a828 e868 9818 d858 b838 f878     ..H.(.h...X.8.x.
 80103dc:	8404 c444 a424 e464 9414 d454 b434 f474     ..D.$.d...T.4.t.
 80103ec:	8c0c cc4c ac2c ec6c 9c1c dc5c bc3c fc7c     ..L.,.l...\.<.|.
 80103fc:	8202 c242 a222 e262 9212 d252 b232 f272     ..B.".b...R.2.r.
 801040c:	8a0a ca4a aa2a ea6a 9a1a da5a ba3a fa7a     ..J.*.j...Z.:.z.
 801041c:	8606 c646 a626 e666 9616 d656 b636 f676     ..F.&.f...V.6.v.
 801042c:	8e0e ce4e ae2e ee6e 9e1e de5e be3e fe7e     ..N...n...^.>.~.
 801043c:	8101 c141 a121 e161 9111 d151 b131 f171     ..A.!.a...Q.1.q.
 801044c:	8909 c949 a929 e969 9919 d959 b939 f979     ..I.).i...Y.9.y.
 801045c:	8505 c545 a525 e565 9515 d555 b535 f575     ..E.%.e...U.5.u.
 801046c:	8d0d cd4d ad2d ed6d 9d1d dd5d bd3d fd7d     ..M.-.m...].=.}.
 801047c:	8303 c343 a323 e363 9313 d353 b333 f373     ..C.#.c...S.3.s.
 801048c:	8b0b cb4b ab2b eb6b 9b1b db5b bb3b fb7b     ..K.+.k...[.;.{.
 801049c:	8707 c747 a727 e767 9717 d757 b737 f777     ..G.'.g...W.7.w.
 80104ac:	8f0f cf4f af2f ef6f 9f1f df5f bf3f ff7f     ..O./.o..._.?...

080104bc <_SetColorAPI>:
 80104bc:	a925 0800 a8e9 0800 a961 0800               %.......a...

080104c8 <GUI__aConvert_63_255>:
 80104c8:	0400 0c08 1410 1c18 2420 2d28 3531 3d39     ........ $(-159=
 80104d8:	4541 4d49 5551 5d59 6561 6d69 7571 7d79     AEIMQUY]aeimquy}
 80104e8:	8682 8e8a 9692 9e9a a6a2 aeaa b6b2 beba     ................
 80104f8:	c6c2 ceca d7d2 dfdb e7e3 efeb f7f3 fffb     ................

08010508 <GUI__aConvert_31_255>:
 8010508:	0800 1910 2921 3a31 4a42 5b52 6b63 7b73     ....!)1:BJR[cks{
 8010518:	8c84 9c94 ada5 bdb5 cec5 ded6 efe6 fff7     ................

08010528 <GUI__aConvert_255_63>:
 8010528:	0000 0100 0101 0201 0202 0302 0303 0403     ................
 8010538:	0404 0504 0505 0605 0606 0706 0707 0807     ................
 8010548:	0808 0908 0909 0a09 0a0a 0b0a 0b0b 0c0b     ................
 8010558:	0c0c 0d0c 0d0d 0e0d 0e0e 0f0e 0f0f 100f     ................
 8010568:	1010 1110 1111 1211 1212 1312 1313 1413     ................
 8010578:	1414 1514 1515 1515 1616 1616 1717 1717     ................
 8010588:	1818 1818 1919 1919 1a1a 1a1a 1b1b 1b1b     ................
 8010598:	1c1c 1c1c 1d1d 1d1d 1e1e 1e1e 1f1f 1f1f     ................
 80105a8:	2020 2020 2121 2121 2222 2222 2323 2323         !!!!""""####
 80105b8:	2424 2424 2525 2525 2626 2626 2727 2727     $$$$%%%%&&&&''''
 80105c8:	2828 2828 2929 2929 2a2a 2a2a 2b2a 2b2b     (((())))*****+++
 80105d8:	2c2b 2c2c 2d2c 2d2d 2e2d 2e2e 2f2e 2f2f     +,,,,----....///
 80105e8:	302f 3030 3130 3131 3231 3232 3332 3333     /000011112222333
 80105f8:	3433 3434 3534 3535 3635 3636 3736 3737     3444455556666777
 8010608:	3837 3838 3938 3939 3a39 3a3a 3b3a 3b3b     788889999::::;;;
 8010618:	3c3b 3c3c 3d3c 3d3d 3e3d 3e3e 3f3e 3f3f     ;<<<<====>>>>???

08010628 <GUI__aConvert_255_31>:
 8010628:	0000 0000 0100 0101 0101 0101 0201 0202     ................
 8010638:	0202 0202 0302 0303 0303 0303 0403 0404     ................
 8010648:	0404 0404 0504 0505 0505 0505 0505 0606     ................
 8010658:	0606 0606 0606 0707 0707 0707 0707 0808     ................
 8010668:	0808 0808 0808 0909 0909 0909 0909 0a09     ................
 8010678:	0a0a 0a0a 0a0a 0b0a 0b0b 0b0b 0b0b 0c0b     ................
 8010688:	0c0c 0c0c 0c0c 0d0c 0d0d 0d0d 0d0d 0d0d     ................
 8010698:	0e0e 0e0e 0e0e 0e0e 0f0f 0f0f 0f0f 0f0f     ................
 80106a8:	1010 1010 1010 1010 1111 1111 1111 1111     ................
 80106b8:	1212 1212 1212 1212 1312 1313 1313 1313     ................
 80106c8:	1413 1414 1414 1414 1514 1515 1515 1515     ................
 80106d8:	1615 1616 1616 1616 1616 1717 1717 1717     ................
 80106e8:	1717 1818 1818 1818 1818 1919 1919 1919     ................
 80106f8:	1919 1a1a 1a1a 1a1a 1a1a 1b1b 1b1b 1b1b     ................
 8010708:	1b1b 1c1b 1c1c 1c1c 1c1c 1d1c 1d1d 1d1d     ................
 8010718:	1d1d 1e1d 1e1e 1e1e 1e1e 1f1e 1f1f 1f1f     ................

08010728 <GUI_UC_None>:
 8010728:	b8a1 0800 b8a5 0800 b8a9 0800 b8ad 0800     ................

08010738 <LCD_API_ColorConv_0>:
 8010738:	ba75 0800 ba55 0800 ba09 0800 0000 0000     u...U...........
	...
 8010750:	0043 2d23 2b30 0020 6c68 004c 6665 4567     C.#-0+ .hlL.efgE
 8010760:	4746 3000 3231 3433 3635 3837 4139 4342     FG.0123456789ABC
 8010770:	4544 0046 3130 3332 3534 3736 3938 6261     DEF.0123456789ab
 8010780:	6463 6665 0000 0000                         cdef....
