   1              	 .syntax unified
   2              	 .cpu cortex-m4
   3              	 .eabi_attribute 27,3
   4              	 .fpu fpv4-sp-d16
   5              	 .eabi_attribute 20,1
   6              	 .eabi_attribute 21,1
   7              	 .eabi_attribute 23,3
   8              	 .eabi_attribute 24,1
   9              	 .eabi_attribute 25,1
  10              	 .eabi_attribute 26,1
  11              	 .eabi_attribute 30,2
  12              	 .eabi_attribute 34,1
  13              	 .eabi_attribute 18,4
  14              	 .thumb
  15              	 .file "xmc_usbh.c"
  16              	 .section .text.XMC_USBH_GetVersion,"ax",%progbits
  17              	 .align 2
  18              	 .thumb
  19              	 .thumb_func
  21              	XMC_USBH_GetVersion:
  22              	 
  23              	 
  24              	 
  25 0000 054B     	 ldr r3,.L3
  26 0002 1B68     	 ldr r3,[r3]
  27 0004 0020     	 movs r0,#0
  28 0006 9AB2     	 uxth r2,r3
  29 0008 62F30F00 	 bfi r0,r2,#0,#16
  30 000c 1B0C     	 lsrs r3,r3,#16
  31 000e 63F31F40 	 bfi r0,r3,#16,#16
  32 0012 82B0     	 sub sp,sp,#8
  33 0014 02B0     	 add sp,sp,#8
  34              	 
  35 0016 7047     	 bx lr
  36              	.L4:
  37              	 .align 2
  38              	.L3:
  39 0018 00000000 	 .word .LANCHOR0
  41              	 .section .text.XMC_USBH_GetCapabilities,"ax",%progbits
  42              	 .align 2
  43              	 .thumb
  44              	 .thumb_func
  46              	XMC_USBH_GetCapabilities:
  47              	 
  48              	 
  49              	 
  50 0000 0123     	 movs r3,#1
  51 0002 0020     	 movs r0,#0
  52 0004 63F30E00 	 bfi r0,r3,#0,#15
  53 0008 6FF3CF30 	 bfc r0,#15,#1
  54 000c 40F44030 	 orr r0,r0,#196608
  55 0010 20F48020 	 bic r0,r0,#262144
  56 0014 7047     	 bx lr
  58 0016 00BF     	 .section .text.XMC_USBH_PortSuspend,"ax",%progbits
  59              	 .align 2
  60              	 .thumb
  61              	 .thumb_func
  63              	XMC_USBH_PortSuspend:
  64              	 
  65              	 
  66              	 
  67 0000 0C4B     	 ldr r3,.L11
  68 0002 5A7C     	 ldrb r2,[r3,#17]
  69 0004 82B1     	 cbz r2,.L8
  70 0006 90B9     	 cbnz r0,.L9
  71 0008 1A68     	 ldr r2,[r3]
  72 000a D2F84034 	 ldr r3,[r2,#1088]
  73 000e 23F00403 	 bic r3,r3,#4
  74 0012 43F08003 	 orr r3,r3,#128
  75 0016 C2F84034 	 str r3,[r2,#1088]
  76 001a D2F8003E 	 ldr r3,[r2,#3584]
  77 001e 43F00303 	 orr r3,r3,#3
  78 0022 C2F8003E 	 str r3,[r2,#3584]
  79 0026 7047     	 bx lr
  80              	.L8:
  81 0028 4FF0FF30 	 mov r0,#-1
  82 002c 7047     	 bx lr
  83              	.L9:
  84 002e 6FF00400 	 mvn r0,#4
  85 0032 7047     	 bx lr
  86              	.L12:
  87              	 .align 2
  88              	.L11:
  89 0034 00000000 	 .word .LANCHOR1
  91              	 .section .text.XMC_USBH_PortGetState,"ax",%progbits
  92              	 .align 2
  93              	 .thumb
  94              	 .thumb_func
  96              	XMC_USBH_PortGetState:
  97              	 
  98              	 
  99              	 
 100 0000 0D4A     	 ldr r2,.L20
 101 0002 537C     	 ldrb r3,[r2,#17]
 102 0004 73B1     	 cbz r3,.L19
 103 0006 60B9     	 cbnz r0,.L17
 104 0008 1368     	 ldr r3,[r2]
 105 000a D3F84024 	 ldr r2,[r3,#1088]
 106 000e C2F34143 	 ubfx r3,r2,#17,#2
 107 0012 A3F10103 	 sub r3,#1
 108 0016 02F00102 	 and r2,r2,#1
 109 001a B3FA83F3 	 clz r3,r3
 110 001e 5B09     	 lsrs r3,r3,#5
 111 0020 01E0     	 b .L14
 112              	.L17:
 113 0022 0023     	 movs r3,#0
 114              	.L19:
 115 0024 1A46     	 mov r2,r3
 116              	.L14:
 117 0026 0020     	 movs r0,#0
 118 0028 62F30000 	 bfi r0,r2,#0,#1
 119 002c 6FF34100 	 bfc r0,#1,#1
 120 0030 63F38300 	 bfi r0,r3,#2,#2
 121 0034 7047     	 bx lr
 122              	.L21:
 123 0036 00BF     	 .align 2
 124              	.L20:
 125 0038 00000000 	 .word .LANCHOR1
 127              	 .section .text.XMC_USBH_PipeModify,"ax",%progbits
 128              	 .align 2
 129              	 .thumb
 130              	 .thumb_func
 132              	XMC_USBH_PipeModify:
 133              	 
 134              	 
 135              	 
 136 0000 F0B4     	 push {r4,r5,r6,r7}
 137 0002 144B     	 ldr r3,.L28
 138 0004 BDF81440 	 ldrh r4,[sp,#20]
 139 0008 5A7C     	 ldrb r2,[r3,#17]
 140 000a CAB1     	 cbz r2,.L24
 141 000c 0546     	 mov r5,r0
 142 000e D0B1     	 cbz r0,.L25
 143 0010 5B68     	 ldr r3,[r3,#4]
 144 0012 114A     	 ldr r2,.L28+4
 145 0014 C31A     	 subs r3,r0,r3
 146 0016 23F01F03 	 bic r3,r3,#31
 147 001a 1344     	 add r3,r3,r2
 148 001c DA7E     	 ldrb r2,[r3,#27]
 149 001e 02F0FF00 	 and r0,r2,#255
 150 0022 9AB9     	 cbnz r2,.L26
 151 0024 2E68     	 ldr r6,[r5]
 152 0026 0D4A     	 ldr r2,.L28+8
 153 0028 8905     	 lsls r1,r1,#22
 154 002a 01F0FE51 	 and r1,r1,#532676608
 155 002e C4F30A07 	 ubfx r7,r4,#0,#11
 156 0032 3943     	 orrs r1,r1,r7
 157 0034 3240     	 ands r2,r2,r6
 158 0036 1143     	 orrs r1,r1,r2
 159 0038 2960     	 str r1,[r5]
 160 003a 9C82     	 strh r4,[r3,#20]
 161              	.L23:
 162 003c F0BC     	 pop {r4,r5,r6,r7}
 163 003e 7047     	 bx lr
 164              	.L24:
 165 0040 4FF0FF30 	 mov r0,#-1
 166 0044 FAE7     	 b .L23
 167              	.L25:
 168 0046 6FF00400 	 mvn r0,#4
 169 004a F7E7     	 b .L23
 170              	.L26:
 171 004c 6FF00100 	 mvn r0,#1
 172 0050 F4E7     	 b .L23
 173              	.L29:
 174 0052 00BF     	 .align 2
 175              	.L28:
 176 0054 00000000 	 .word .LANCHOR1
 177 0058 00000000 	 .word pipe
 178 005c 00F83FE0 	 .word -532678656
 180              	 .section .text.XMC_USBH_PipeReset,"ax",%progbits
 181              	 .align 2
 182              	 .thumb
 183              	 .thumb_func
 185              	XMC_USBH_PipeReset:
 186              	 
 187              	 
 188              	 
 189 0000 0E4A     	 ldr r2,.L35
 190 0002 517C     	 ldrb r1,[r2,#17]
 191 0004 0346     	 mov r3,r0
 192 0006 79B1     	 cbz r1,.L32
 193 0008 88B1     	 cbz r0,.L33
 194 000a 5268     	 ldr r2,[r2,#4]
 195 000c 0C49     	 ldr r1,.L35+4
 196 000e 821A     	 subs r2,r0,r2
 197 0010 22F01F02 	 bic r2,r2,#31
 198 0014 0A44     	 add r2,r2,r1
 199 0016 D178     	 ldrb r1,[r2,#3]
 200 0018 01F0FF02 	 and r2,r1,#255
 201 001c 51B9     	 cbnz r1,.L34
 202 001e 8260     	 str r2,[r0,#8]
 203 0020 DA60     	 str r2,[r3,#12]
 204 0022 1046     	 mov r0,r2
 205 0024 1A61     	 str r2,[r3,#16]
 206 0026 7047     	 bx lr
 207              	.L32:
 208 0028 4FF0FF30 	 mov r0,#-1
 209 002c 7047     	 bx lr
 210              	.L33:
 211 002e 6FF00400 	 mvn r0,#4
 212 0032 7047     	 bx lr
 213              	.L34:
 214 0034 6FF00100 	 mvn r0,#1
 215 0038 7047     	 bx lr
 216              	.L36:
 217 003a 00BF     	 .align 2
 218              	.L35:
 219 003c 00000000 	 .word .LANCHOR1
 220 0040 18000000 	 .word pipe+24
 222              	 .section .text.XMC_USBH_PipeDelete,"ax",%progbits
 223              	 .align 2
 224              	 .thumb
 225              	 .thumb_func
 227              	XMC_USBH_PipeDelete:
 228              	 
 229              	 
 230 0000 114A     	 ldr r2,.L44
 231 0002 517C     	 ldrb r1,[r2,#17]
 232 0004 C9B1     	 cbz r1,.L39
 233 0006 0346     	 mov r3,r0
 234 0008 D0B1     	 cbz r0,.L40
 235 000a 5268     	 ldr r2,[r2,#4]
 236 000c 0F48     	 ldr r0,.L44+4
 237 000e 10B5     	 push {r4,lr}
 238 0010 9A1A     	 subs r2,r3,r2
 239 0012 22F01F02 	 bic r2,r2,#31
 240 0016 1044     	 add r0,r0,r2
 241 0018 C27E     	 ldrb r2,[r0,#27]
 242 001a 02F0FF04 	 and r4,r2,#255
 243 001e 4AB9     	 cbnz r2,.L41
 244 0020 1C60     	 str r4,[r3]
 245 0022 2146     	 mov r1,r4
 246 0024 9C60     	 str r4,[r3,#8]
 247 0026 2022     	 movs r2,#32
 248 0028 DC60     	 str r4,[r3,#12]
 249 002a 1C61     	 str r4,[r3,#16]
 250 002c FFF7FEFF 	 bl memset
 251 0030 2046     	 mov r0,r4
 252 0032 10BD     	 pop {r4,pc}
 253              	.L41:
 254 0034 6FF00100 	 mvn r0,#1
 255 0038 10BD     	 pop {r4,pc}
 256              	.L39:
 257 003a 4FF0FF30 	 mov r0,#-1
 258 003e 7047     	 bx lr
 259              	.L40:
 260 0040 6FF00400 	 mvn r0,#4
 261 0044 7047     	 bx lr
 262              	.L45:
 263 0046 00BF     	 .align 2
 264              	.L44:
 265 0048 00000000 	 .word .LANCHOR1
 266 004c 00000000 	 .word pipe
 268              	 .section .text.XMC_USBH_PipeCreate,"ax",%progbits
 269              	 .align 2
 270              	 .thumb
 271              	 .thumb_func
 273              	XMC_USBH_PipeCreate:
 274              	 
 275              	 
 276 0000 2DE9F04F 	 push {r4,r5,r6,r7,r8,r9,r10,fp,lr}
 277 0004 634B     	 ldr r3,.L103
 278 0006 9DF82470 	 ldrb r7,[sp,#36]
 279 000a 5A7C     	 ldrb r2,[r3,#17]
 280 000c 9DF82860 	 ldrb r6,[sp,#40]
 281 0010 BDF82C10 	 ldrh r1,[sp,#44]
 282 0014 9DF83050 	 ldrb r5,[sp,#48]
 283 0018 002A     	 cmp r2,#0
 284 001a 00F0A380 	 beq .L102
 285 001e 5B68     	 ldr r3,[r3,#4]
 286 0020 1A68     	 ldr r2,[r3]
 287 0022 22F04042 	 bic r2,r2,#-1073741824
 288 0026 002A     	 cmp r2,#0
 289 0028 5ED0     	 beq .L54
 290 002a 1C6A     	 ldr r4,[r3,#32]
 291 002c 24F04044 	 bic r4,r4,#-1073741824
 292 0030 03F12002 	 add r2,r3,#32
 293 0034 002C     	 cmp r4,#0
 294 0036 58D0     	 beq .L48
 295 0038 1C6C     	 ldr r4,[r3,#64]
 296 003a 24F04044 	 bic r4,r4,#-1073741824
 297 003e 03F14002 	 add r2,r3,#64
 298 0042 002C     	 cmp r4,#0
 299 0044 51D0     	 beq .L48
 300 0046 1C6E     	 ldr r4,[r3,#96]
 301 0048 24F04044 	 bic r4,r4,#-1073741824
 302 004c 03F16002 	 add r2,r3,#96
 303 0050 002C     	 cmp r4,#0
 304 0052 4AD0     	 beq .L48
 305 0054 D3F88040 	 ldr r4,[r3,#128]
 306 0058 24F04044 	 bic r4,r4,#-1073741824
 307 005c 03F18002 	 add r2,r3,#128
 308 0060 002C     	 cmp r4,#0
 309 0062 42D0     	 beq .L48
 310 0064 D3F8A040 	 ldr r4,[r3,#160]
 311 0068 24F04044 	 bic r4,r4,#-1073741824
 312 006c 03F1A002 	 add r2,r3,#160
 313 0070 DCB3     	 cbz r4,.L48
 314 0072 D3F8C040 	 ldr r4,[r3,#192]
 315 0076 24F04044 	 bic r4,r4,#-1073741824
 316 007a 03F1C002 	 add r2,r3,#192
 317 007e A4B3     	 cbz r4,.L48
 318 0080 D3F8E040 	 ldr r4,[r3,#224]
 319 0084 24F04044 	 bic r4,r4,#-1073741824
 320 0088 03F1E002 	 add r2,r3,#224
 321 008c 6CB3     	 cbz r4,.L48
 322 008e D3F80041 	 ldr r4,[r3,#256]
 323 0092 24F04044 	 bic r4,r4,#-1073741824
 324 0096 03F58072 	 add r2,r3,#256
 325 009a 34B3     	 cbz r4,.L48
 326 009c D3F82041 	 ldr r4,[r3,#288]
 327 00a0 24F04044 	 bic r4,r4,#-1073741824
 328 00a4 03F59072 	 add r2,r3,#288
 329 00a8 FCB1     	 cbz r4,.L48
 330 00aa D3F84041 	 ldr r4,[r3,#320]
 331 00ae 24F04044 	 bic r4,r4,#-1073741824
 332 00b2 03F5A072 	 add r2,r3,#320
 333 00b6 C4B1     	 cbz r4,.L48
 334 00b8 D3F86041 	 ldr r4,[r3,#352]
 335 00bc 24F04044 	 bic r4,r4,#-1073741824
 336 00c0 03F5B072 	 add r2,r3,#352
 337 00c4 8CB1     	 cbz r4,.L48
 338 00c6 D3F88041 	 ldr r4,[r3,#384]
 339 00ca 24F04044 	 bic r4,r4,#-1073741824
 340 00ce 03F5C072 	 add r2,r3,#384
 341 00d2 54B1     	 cbz r4,.L48
 342 00d4 D3F8A041 	 ldr r4,[r3,#416]
 343 00d8 24F04044 	 bic r4,r4,#-1073741824
 344 00dc 03F5D072 	 add r2,r3,#416
 345 00e0 1CB1     	 cbz r4,.L48
 346 00e2 0020     	 movs r0,#0
 347 00e4 BDE8F08F 	 pop {r4,r5,r6,r7,r8,r9,r10,fp,pc}
 348              	.L54:
 349 00e8 1A46     	 mov r2,r3
 350              	.L48:
 351 00ea DFF8AC80 	 ldr r8,.L103+4
 352 00ee D31A     	 subs r3,r2,r3
 353 00f0 23F01F03 	 bic r3,r3,#31
 354 00f4 08EB030C 	 add ip,r8,r3
 355 00f8 0CF10804 	 add r4,ip,#8
 356 00fc 4FF0000E 	 mov lr,#0
 357 0100 48F803E0 	 str lr,[r8,r3]
 358 0104 CCF804E0 	 str lr,[ip,#4]
 359 0108 44F804EB 	 str lr,[r4],#4
 360 010c 44F804EB 	 str lr,[r4],#4
 361 0110 4FEA8649 	 lsl r9,r6,#18
 362 0114 44F804EB 	 str lr,[r4],#4
 363 0118 4FEA805A 	 lsl r10,r0,#22
 364 011c 09F4402B 	 and fp,r9,#786432
 365 0120 C1F30A00 	 ubfx r0,r1,#0,#11
 366 0124 44F804EB 	 str lr,[r4],#4
 367 0128 40EA0B09 	 orr r9,r0,fp
 368 012c 0AF0FE5A 	 and r10,r10,#532676608
 369 0130 F802     	 lsls r0,r7,#11
 370 0132 FF09     	 lsrs r7,r7,#7
 371 0134 00F4F047 	 and r7,r0,#30720
 372 0138 49EA0A00 	 orr r0,r9,r10
 373 013c 44F804EB 	 str lr,[r4],#4
 374 0140 40EA0700 	 orr r0,r0,r7
 375 0144 0CBF     	 ite eq
 376 0146 4FF40047 	 moveq r7,#32768
 377 014a 7746     	 movne r7,lr
 378 014c 3843     	 orrs r0,r0,r7
 379 014e 012E     	 cmp r6,#1
 380 0150 C4F800E0 	 str lr,[r4]
 381 0154 1060     	 str r0,[r2]
 382 0156 ACF81410 	 strh r1,[ip,#20]
 383 015a 8CF81A60 	 strb r6,[ip,#26]
 384 015e 04D0     	 beq .L49
 385 0160 032E     	 cmp r6,#3
 386 0162 02D0     	 beq .L49
 387              	.L102:
 388 0164 1046     	 mov r0,r2
 389 0166 BDE8F08F 	 pop {r4,r5,r6,r7,r8,r9,r10,fp,pc}
 390              	.L49:
 391 016a 08EB0300 	 add r0,r8,r3
 392 016e 75B9     	 cbnz r5,.L50
 393 0170 C58A     	 ldrh r5,[r0,#22]
 394 0172 ADB2     	 uxth r5,r5
 395              	.L51:
 396 0174 4344     	 add r3,r3,r8
 397 0176 C90A     	 lsrs r1,r1,#11
 398 0178 1D83     	 strh r5,[r3,#24]
 399 017a 4B1C     	 adds r3,r1,#1
 400 017c 1168     	 ldr r1,[r2]
 401 017e 03F00303 	 and r3,r3,#3
 402 0182 41EA0353 	 orr r3,r1,r3,lsl#20
 403 0186 1360     	 str r3,[r2]
 404 0188 1046     	 mov r0,r2
 405 018a BDE8F08F 	 pop {r4,r5,r6,r7,r8,r9,r10,fp,pc}
 406              	.L50:
 407 018e ADB2     	 uxth r5,r5
 408 0190 C582     	 strh r5,[r0,#22]
 409 0192 EFE7     	 b .L51
 410              	.L104:
 411              	 .align 2
 412              	.L103:
 413 0194 00000000 	 .word .LANCHOR1
 414 0198 00000000 	 .word pipe
 416              	 .section .text.XMC_USBH_PipeTransferGetResult,"ax",%progbits
 417              	 .align 2
 418              	 .thumb
 419              	 .thumb_func
 421              	XMC_USBH_PipeTransferGetResult:
 422              	 
 423              	 
 424              	 
 425 0000 38B1     	 cbz r0,.L106
 426 0002 044A     	 ldr r2,.L108
 427 0004 044B     	 ldr r3,.L108+4
 428 0006 5268     	 ldr r2,[r2,#4]
 429 0008 801A     	 subs r0,r0,r2
 430 000a 20F01F00 	 bic r0,r0,#31
 431 000e 1844     	 add r0,r0,r3
 432 0010 4068     	 ldr r0,[r0,#4]
 433              	.L106:
 434 0012 7047     	 bx lr
 435              	.L109:
 436              	 .align 2
 437              	.L108:
 438 0014 00000000 	 .word .LANCHOR1
 439 0018 08000000 	 .word pipe+8
 441              	 .section .text.XMC_USBH_GetFrameNumber,"ax",%progbits
 442              	 .align 2
 443              	 .thumb
 444              	 .thumb_func
 446              	XMC_USBH_GetFrameNumber:
 447              	 
 448              	 
 449              	 
 450 0000 044B     	 ldr r3,.L113
 451 0002 587C     	 ldrb r0,[r3,#17]
 452 0004 20B1     	 cbz r0,.L111
 453 0006 1B68     	 ldr r3,[r3]
 454 0008 D3F80804 	 ldr r0,[r3,#1032]
 455 000c C0F30B00 	 ubfx r0,r0,#0,#12
 456              	.L111:
 457 0010 7047     	 bx lr
 458              	.L114:
 459 0012 00BF     	 .align 2
 460              	.L113:
 461 0014 00000000 	 .word .LANCHOR1
 463              	 .section .text.XMC_USBH_PortVbusOnOff,"ax",%progbits
 464              	 .align 2
 465              	 .thumb
 466              	 .thumb_func
 468              	XMC_USBH_PortVbusOnOff:
 469              	 
 470              	 
 471 0000 38B5     	 push {r3,r4,r5,lr}
 472 0002 134B     	 ldr r3,.L122
 473 0004 5A7C     	 ldrb r2,[r3,#17]
 474 0006 E2B1     	 cbz r2,.L118
 475 0008 F0B9     	 cbnz r0,.L119
 476 000a 0C46     	 mov r4,r1
 477 000c 0546     	 mov r5,r0
 478 000e 1A68     	 ldr r2,[r3]
 479 0010 1048     	 ldr r0,.L122+4
 480 0012 1149     	 ldr r1,.L122+8
 481 0014 D2F84034 	 ldr r3,[r2,#1088]
 482 0018 0068     	 ldr r0,[r0]
 483 001a 0978     	 ldrb r1,[r1]
 484 001c 44B9     	 cbnz r4,.L121
 485 001e 23F48053 	 bic r3,r3,#4096
 486 0022 C2F84034 	 str r3,[r2,#1088]
 487 0026 2246     	 mov r2,r4
 488 0028 FFF7FEFF 	 bl XMC_GPIO_SetMode
 489 002c 2046     	 mov r0,r4
 490 002e 38BD     	 pop {r3,r4,r5,pc}
 491              	.L121:
 492 0030 43F48053 	 orr r3,r3,#4096
 493 0034 C2F84034 	 str r3,[r2,#1088]
 494 0038 8822     	 movs r2,#136
 495 003a FFF7FEFF 	 bl XMC_GPIO_SetMode
 496 003e 2846     	 mov r0,r5
 497 0040 38BD     	 pop {r3,r4,r5,pc}
 498              	.L118:
 499 0042 4FF0FF30 	 mov r0,#-1
 500 0046 38BD     	 pop {r3,r4,r5,pc}
 501              	.L119:
 502 0048 6FF00400 	 mvn r0,#4
 503 004c 38BD     	 pop {r3,r4,r5,pc}
 504              	.L123:
 505 004e 00BF     	 .align 2
 506              	.L122:
 507 0050 00000000 	 .word .LANCHOR1
 508 0054 00000000 	 .word .LANCHOR2
 509 0058 00000000 	 .word .LANCHOR3
 511              	 .section .text.XMC_USBH_Initialize,"ax",%progbits
 512              	 .align 2
 513              	 .thumb
 514              	 .thumb_func
 516              	XMC_USBH_Initialize:
 517              	 
 518              	 
 519 0000 2DE9F84F 	 push {r3,r4,r5,r6,r7,r8,r9,r10,fp,lr}
 520 0004 214C     	 ldr r4,.L127
 521 0006 237C     	 ldrb r3,[r4,#16]
 522 0008 002B     	 cmp r3,#0
 523 000a 3CD1     	 bne .L125
 524 000c 8C46     	 mov ip,r1
 525 000e 204A     	 ldr r2,.L127+4
 526 0010 2049     	 ldr r1,.L127+8
 527 0012 214B     	 ldr r3,.L127+12
 528 0014 DFF894E0 	 ldr lr,.L127+32
 529 0018 204F     	 ldr r7,.L127+16
 530 001a 214E     	 ldr r6,.L127+20
 531 001c 214D     	 ldr r5,.L127+24
 532 001e C3F800E0 	 str lr,[r3]
 533 0022 8046     	 mov r8,r0
 534 0024 0868     	 ldr r0,[r1]
 535 0026 1178     	 ldrb r1,[r2]
 536 0028 1F4A     	 ldr r2,.L127+28
 537 002a 5F60     	 str r7,[r3,#4]
 538 002c 9E60     	 str r6,[r3,#8]
 539 002e DD60     	 str r5,[r3,#12]
 540 0030 1A61     	 str r2,[r3,#16]
 541 0032 C4F80880 	 str r8,[r4,#8]
 542 0036 C4F80CC0 	 str ip,[r4,#12]
 543 003a 0EF5204E 	 add lr,lr,#40960
 544 003e DFF870C0 	 ldr ip,.L127+36
 545 0042 DFF870B0 	 ldr fp,.L127+40
 546 0046 DFF870A0 	 ldr r10,.L127+44
 547 004a DFF87090 	 ldr r9,.L127+48
 548 004e DFF87080 	 ldr r8,.L127+52
 549 0052 C3F814B0 	 str fp,[r3,#20]
 550 0056 07F52047 	 add r7,r7,#40960
 551 005a 06F52046 	 add r6,r6,#40960
 552 005e 05F52045 	 add r5,r5,#40960
 553 0062 8822     	 movs r2,#136
 554 0064 C3F818A0 	 str r10,[r3,#24]
 555 0068 C3F81C90 	 str r9,[r3,#28]
 556 006c C3F82080 	 str r8,[r3,#32]
 557 0070 C3F824C0 	 str ip,[r3,#36]
 558 0074 C3F828E0 	 str lr,[r3,#40]
 559 0078 DF62     	 str r7,[r3,#44]
 560 007a 1E63     	 str r6,[r3,#48]
 561 007c 5D63     	 str r5,[r3,#52]
 562 007e FFF7FEFF 	 bl XMC_GPIO_SetMode
 563 0082 0123     	 movs r3,#1
 564 0084 2374     	 strb r3,[r4,#16]
 565              	.L125:
 566 0086 0020     	 movs r0,#0
 567 0088 BDE8F88F 	 pop {r3,r4,r5,r6,r7,r8,r9,r10,fp,pc}
 568              	.L128:
 569              	 .align 2
 570              	.L127:
 571 008c 00000000 	 .word .LANCHOR1
 572 0090 00000000 	 .word .LANCHOR3
 573 0094 00000000 	 .word .LANCHOR2
 574 0098 00000000 	 .word .LANCHOR4
 575 009c 00200450 	 .word 1342447616
 576 00a0 00300450 	 .word 1342451712
 577 00a4 00400450 	 .word 1342455808
 578 00a8 00500450 	 .word 1342459904
 579 00ac 00100450 	 .word 1342443520
 580 00b0 00A00450 	 .word 1342480384
 581 00b4 00600450 	 .word 1342464000
 582 00b8 00700450 	 .word 1342468096
 583 00bc 00800450 	 .word 1342472192
 584 00c0 00900450 	 .word 1342476288
 586              	 .section .text.XMC_USBH_Uninitialize,"ax",%progbits
 587              	 .align 2
 588              	 .thumb
 589              	 .thumb_func
 591              	XMC_USBH_Uninitialize:
 592              	 
 593              	 
 594 0000 70B5     	 push {r4,r5,r6,lr}
 595 0002 164B     	 ldr r3,.L131
 596 0004 164D     	 ldr r5,.L131+4
 597 0006 0024     	 movs r4,#0
 598 0008 4FF40062 	 mov r2,#2048
 599 000c 2C74     	 strb r4,[r5,#16]
 600 000e C3F88C20 	 str r2,[r3,#140]
 601              	
 602 0012 BFF34F8F 	 dsb 0xF
 603              	
 604              	
 605 0016 BFF36F8F 	 isb 0xF
 606              	
 607              	 .thumb
 608 001a C3F88C21 	 str r2,[r3,#396]
 609 001e 2A68     	 ldr r2,[r5]
 610 0020 104E     	 ldr r6,.L131+8
 611 0022 9368     	 ldr r3,[r2,#8]
 612 0024 6C74     	 strb r4,[r5,#17]
 613 0026 23F00103 	 bic r3,r3,#1
 614 002a 3046     	 mov r0,r6
 615 002c 9360     	 str r3,[r2,#8]
 616 002e FFF7FEFF 	 bl XMC_SCU_CLOCK_GatePeripheralClock
 617 0032 2A68     	 ldr r2,[r5]
 618 0034 D2F8003E 	 ldr r3,[r2,#3584]
 619 0038 43F00103 	 orr r3,r3,#1
 620 003c C2F8003E 	 str r3,[r2,#3584]
 621 0040 FFF7FEFF 	 bl XMC_SCU_POWER_DisableUsb
 622 0044 3046     	 mov r0,r6
 623 0046 FFF7FEFF 	 bl XMC_SCU_RESET_AssertPeripheralReset
 624 004a 2146     	 mov r1,r4
 625 004c 4FF4E072 	 mov r2,#448
 626 0050 0548     	 ldr r0,.L131+12
 627 0052 AC74     	 strb r4,[r5,#18]
 628 0054 FFF7FEFF 	 bl memset
 629 0058 2046     	 mov r0,r4
 630 005a 70BD     	 pop {r4,r5,r6,pc}
 631              	.L132:
 632              	 .align 2
 633              	.L131:
 634 005c 00E100E0 	 .word -536813312
 635 0060 00000000 	 .word .LANCHOR1
 636 0064 80000020 	 .word 536871040
 637 0068 00000000 	 .word pipe
 639              	 .section .text.XMC_USBH_PipeTransfer,"ax",%progbits
 640              	 .align 2
 641              	 .thumb
 642              	 .thumb_func
 644              	XMC_USBH_PipeTransfer:
 645              	 
 646              	 
 647 0000 2DE9F047 	 push {r4,r5,r6,r7,r8,r9,r10,lr}
 648 0004 794C     	 ldr r4,.L179
 649 0006 657C     	 ldrb r5,[r4,#17]
 650 0008 002D     	 cmp r5,#0
 651 000a 73D0     	 beq .L136
 652 000c 01F00F0A 	 and r10,r1,#15
 653 0010 0AF1FF35 	 add r5,r10,#-1
 654 0014 022D     	 cmp r5,#2
 655 0016 00F2E180 	 bhi .L159
 656 001a 0028     	 cmp r0,#0
 657 001c 00F0DE80 	 beq .L159
 658 0020 D4F80090 	 ldr r9,[r4]
 659 0024 D9F84054 	 ldr r5,[r9,#1088]
 660 0028 ED07     	 lsls r5,r5,#31
 661 002a 63D5     	 bpl .L136
 662 002c 6768     	 ldr r7,[r4,#4]
 663 002e DFF8C881 	 ldr r8,.L179+12
 664 0032 C71B     	 subs r7,r0,r7
 665 0034 7F11     	 asrs r7,r7,#5
 666 0036 4FEA471E 	 lsl lr,r7,#5
 667 003a 08EB0E06 	 add r6,r8,lr
 668 003e 06F11805 	 add r5,r6,#24
 669 0042 96F81BC0 	 ldrb ip,[r6,#27]
 670 0046 0CF0FF04 	 and r4,ip,#255
 671 004a BCF1000F 	 cmp ip,#0
 672 004e 40F0C980 	 bne .L160
 673 0052 48F80E10 	 str r1,[r8,lr]
 674 0056 7260     	 str r2,[r6,#4]
 675 0058 B360     	 str r3,[r6,#8]
 676 005a F460     	 str r4,[r6,#12]
 677 005c 3461     	 str r4,[r6,#16]
 678 005e F476     	 strb r4,[r6,#27]
 679 0060 3477     	 strb r4,[r6,#28]
 680 0062 7477     	 strb r4,[r6,#29]
 681 0064 B477     	 strb r4,[r6,#30]
 682 0066 96F81AC0 	 ldrb ip,[r6,#26]
 683 006a 5FFA8CFC 	 uxtb ip,ip
 684 006e BCF1030F 	 cmp ip,#3
 685 0072 36D0     	 beq .L177
 686              	.L137:
 687 0074 08EB0E04 	 add r4,r8,lr
 688 0078 0125     	 movs r5,#1
 689 007a 2577     	 strb r5,[r4,#28]
 690 007c E576     	 strb r5,[r4,#27]
 691 007e D9F84044 	 ldr r4,[r9,#1088]
 692 0082 E407     	 lsls r4,r4,#31
 693 0084 36D5     	 bpl .L136
 694 0086 0668     	 ldr r6,[r0]
 695 0088 0569     	 ldr r5,[r0,#16]
 696 008a 26F08046 	 bic r6,r6,#1073741824
 697 008e 26F40046 	 bic r6,r6,#32768
 698 0092 BAF1010F 	 cmp r10,#1
 699 0096 46F00044 	 orr r4,r6,#-2147483648
 700 009a 05F0C045 	 and r5,r5,#1610612736
 701 009e 00F08D80 	 beq .L161
 702 00a2 BAF1030F 	 cmp r10,#3
 703 00a6 01F0F001 	 and r1,r1,#240
 704 00aa 0ABF     	 itet eq
 705 00ac 46F08024 	 orreq r4,r6,#-2147450880
 706 00b0 9926     	 movne r6,#153
 707 00b2 40F2B956 	 movweq r6,#1465
 708 00b6 1029     	 cmp r1,#16
 709 00b8 00F08980 	 beq .L142
 710              	.L178:
 711 00bc 2029     	 cmp r1,#32
 712 00be 08BF     	 it eq
 713 00c0 4FF08045 	 moveq r5,#1073741824
 714              	.L141:
 715 00c4 D9F80814 	 ldr r1,[r9,#1032]
 716 00c8 C907     	 lsls r1,r1,#31
 717 00ca 4CBF     	 ite mi
 718 00cc 24F0005A 	 bicmi r10,r4,#536870912
 719 00d0 44F0005A 	 orrpl r10,r4,#536870912
 720 00d4 BCF1030F 	 cmp ip,#3
 721 00d8 7BD8     	 bhi .L146
 722 00da DFE80CF0 	 tbb [pc,ip]
 723              	.L148:
 724 00de 63       	 .byte (.L147-.L148)/2
 725 00df 0F       	 .byte (.L149-.L148)/2
 726 00e0 63       	 .byte (.L147-.L148)/2
 727 00e1 0F       	 .byte (.L149-.L148)/2
 728              	 .p2align 1
 729              	.L177:
 730 00e2 368B     	 ldrh r6,[r6,#24]
 731 00e4 B6B2     	 uxth r6,r6
 732 00e6 002E     	 cmp r6,#0
 733 00e8 C4D0     	 beq .L137
 734 00ea 0123     	 movs r3,#1
 735 00ec EB70     	 strb r3,[r5,#3]
 736 00ee 2046     	 mov r0,r4
 737 00f0 BDE8F087 	 pop {r4,r5,r6,r7,r8,r9,r10,pc}
 738              	.L136:
 739 00f4 4FF0FF30 	 mov r0,#-1
 740 00f8 BDE8F087 	 pop {r4,r5,r6,r7,r8,r9,r10,pc}
 741              	.L149:
 742 00fc 1AF4004F 	 tst r10,#32768
 743 0100 59D1     	 bne .L164
 744 0102 D9F81044 	 ldr r4,[r9,#1040]
 745              	.L151:
 746 0106 A1B2     	 uxth r1,r4
 747 0108 8900     	 lsls r1,r1,#2
 748 010a 8B42     	 cmp r3,r1
 749 010c 28BF     	 it cs
 750 010e 0B46     	 movcs r3,r1
 751 0110 C4F30749 	 ubfx r9,r4,#16,#8
 752              	.L157:
 753 0114 08EB0E0C 	 add ip,r8,lr
 754 0118 354C     	 ldr r4,.L179+4
 755 011a BCF81410 	 ldrh r1,[ip,#20]
 756 011e 54F82740 	 ldr r4,[r4,r7,lsl#2]
 757 0122 89B2     	 uxth r1,r1
 758 0124 4F1E     	 subs r7,r1,#1
 759 0126 1F44     	 add r7,r7,r3
 760 0128 B7FBF1F7 	 udiv r7,r7,r1
 761 012c 4F45     	 cmp r7,r9
 762 012e 28BF     	 it cs
 763 0130 4F46     	 movcs r7,r9
 764 0132 01FB07F1 	 mul r1,r1,r7
 765 0136 8B42     	 cmp r3,r1
 766 0138 28BF     	 it cs
 767 013a 0B46     	 movcs r3,r1
 768 013c D91C     	 adds r1,r3,#3
 769 013e CCF81030 	 str r3,[ip,#16]
 770 0142 C1F38F01 	 ubfx r1,r1,#2,#16
 771              	.L150:
 772 0146 9BB3     	 cbz r3,.L152
 773 0148 C644     	 add lr,lr,r8
 774 014a 0EF1100E 	 add lr,lr,#16
 775 014e 1D43     	 orrs r5,r5,r3
 776 0150 BEF804E0 	 ldrh lr,[lr,#4]
 777 0154 1FFA8EFE 	 uxth lr,lr
 778 0158 0EF1FF37 	 add r7,lr,#-1
 779 015c 3B44     	 add r3,r3,r7
 780 015e B3FBFEF3 	 udiv r3,r3,lr
 781 0162 45EAC345 	 orr r5,r5,r3,lsl#19
 782              	.L153:
 783 0166 234B     	 ldr r3,.L179+8
 784 0168 4FF40067 	 mov r7,#2048
 785 016c C3F88C70 	 str r7,[r3,#140]
 786              	
 787 0170 BFF34F8F 	 dsb 0xF
 788              	
 789              	
 790 0174 BFF36F8F 	 isb 0xF
 791              	
 792              	 .thumb
 793 0178 C660     	 str r6,[r0,#12]
 794 017a 0561     	 str r5,[r0,#16]
 795 017c C0F800A0 	 str r10,[r0]
 796 0180 49B1     	 cbz r1,.L156
 797 0182 0139     	 subs r1,r1,#1
 798 0184 89B2     	 uxth r1,r1
 799 0186 0131     	 adds r1,r1,#1
 800 0188 02EB8101 	 add r1,r2,r1,lsl#2
 801              	.L155:
 802 018c 52F8043B 	 ldr r3,[r2],#4
 803 0190 2360     	 str r3,[r4]
 804 0192 8A42     	 cmp r2,r1
 805 0194 FAD1     	 bne .L155
 806              	.L156:
 807 0196 174B     	 ldr r3,.L179+8
 808 0198 4FF40062 	 mov r2,#2048
 809 019c DA60     	 str r2,[r3,#12]
 810 019e 0020     	 movs r0,#0
 811 01a0 BDE8F087 	 pop {r4,r5,r6,r7,r8,r9,r10,pc}
 812              	.L147:
 813 01a4 1AF4004F 	 tst r10,#32768
 814 01a8 05D1     	 bne .L164
 815 01aa D9F82C40 	 ldr r4,[r9,#44]
 816 01ae AAE7     	 b .L151
 817              	.L152:
 818 01b0 45F40025 	 orr r5,r5,#524288
 819 01b4 D7E7     	 b .L153
 820              	.L164:
 821 01b6 0021     	 movs r1,#0
 822 01b8 0C46     	 mov r4,r1
 823 01ba C4E7     	 b .L150
 824              	.L161:
 825 01bc 01F0F001 	 and r1,r1,#240
 826 01c0 1029     	 cmp r1,#16
 827 01c2 4FF09906 	 mov r6,#153
 828 01c6 4FF0C045 	 mov r5,#1610612736
 829 01ca 7FF477AF 	 bne .L178
 830              	.L142:
 831 01ce 0025     	 movs r5,#0
 832 01d0 78E7     	 b .L141
 833              	.L146:
 834 01d2 1AF40049 	 ands r9,r10,#32768
 835 01d6 EED1     	 bne .L164
 836 01d8 4B46     	 mov r3,r9
 837 01da 9BE7     	 b .L157
 838              	.L159:
 839 01dc 6FF00400 	 mvn r0,#4
 840 01e0 BDE8F087 	 pop {r4,r5,r6,r7,r8,r9,r10,pc}
 841              	.L160:
 842 01e4 6FF00100 	 mvn r0,#1
 843 01e8 BDE8F087 	 pop {r4,r5,r6,r7,r8,r9,r10,pc}
 844              	.L180:
 845              	 .align 2
 846              	.L179:
 847 01ec 00000000 	 .word .LANCHOR1
 848 01f0 00000000 	 .word .LANCHOR4
 849 01f4 00E100E0 	 .word -536813312
 850 01f8 00000000 	 .word pipe
 852              	 .section .text.XMC_USBH_HandleIrq,"ax",%progbits
 853              	 .align 2
 854              	 .global XMC_USBH_HandleIrq
 855              	 .thumb
 856              	 .thumb_func
 858              	XMC_USBH_HandleIrq:
 859              	 
 860              	 
 861 0000 2DE9F04F 	 push {r4,r5,r6,r7,r8,r9,r10,fp,lr}
 862 0004 85B0     	 sub sp,sp,#20
 863 0006 C101     	 lsls r1,r0,#7
 864 0008 0190     	 str r0,[sp,#4]
 865 000a 21D5     	 bpl .L183
 866 000c DFF820A3 	 ldr r10,.L341+4
 867 0010 DAF80030 	 ldr r3,[r10]
 868 0014 D3F84044 	 ldr r4,[r3,#1088]
 869 0018 24F00402 	 bic r2,r4,#4
 870 001c C3F84024 	 str r2,[r3,#1088]
 871 0020 A207     	 lsls r2,r4,#30
 872 0022 40F10981 	 bpl .L184
 873 0026 9AF81200 	 ldrb r0,[r10,#18]
 874 002a 40F20522 	 movw r2,#517
 875 002e C3F80024 	 str r2,[r3,#1024]
 876 0032 0028     	 cmp r0,#0
 877 0034 00F0FC80 	 beq .L329
 878 0038 04F00C04 	 and r4,r4,#12
 879 003c 0C2C     	 cmp r4,#12
 880 003e 07D1     	 bne .L183
 881              	.L261:
 882 0040 0023     	 movs r3,#0
 883 0042 1846     	 mov r0,r3
 884 0044 DAF80820 	 ldr r2,[r10,#8]
 885 0048 8AF81230 	 strb r3,[r10,#18]
 886 004c 0821     	 movs r1,#8
 887 004e 9047     	 blx r2
 888              	.L183:
 889 0050 019B     	 ldr r3,[sp,#4]
 890 0052 9F00     	 lsls r7,r3,#2
 891 0054 31D5     	 bpl .L188
 892 0056 DFF8D8A2 	 ldr r10,.L341+4
 893 005a DAF80030 	 ldr r3,[r10]
 894 005e 9AF81260 	 ldrb r6,[r10,#18]
 895 0062 4FF00052 	 mov r2,#536870912
 896 0066 5A61     	 str r2,[r3,#20]
 897 0068 3EBB     	 cbnz r6,.L188
 898 006a B04C     	 ldr r4,.L341
 899 006c DAF80450 	 ldr r5,[r10,#4]
 900 0070 04F5E079 	 add r9,r4,#448
 901 0074 40F2BB78 	 movw r8,#1979
 902 0078 0227     	 movs r7,#2
 903 007a 04E0     	 b .L191
 904              	.L190:
 905 007c 2034     	 adds r4,r4,#32
 906 007e 4C45     	 cmp r4,r9
 907 0080 05F12005 	 add r5,r5,#32
 908 0084 14D0     	 beq .L330
 909              	.L191:
 910 0086 E37E     	 ldrb r3,[r4,#27]
 911 0088 002B     	 cmp r3,#0
 912 008a F7D0     	 beq .L190
 913 008c E676     	 strb r6,[r4,#27]
 914 008e C5F80880 	 str r8,[r5,#8]
 915 0092 EF60     	 str r7,[r5,#12]
 916 0094 2B68     	 ldr r3,[r5]
 917 0096 DAF80C20 	 ldr r2,[r10,#12]
 918 009a 43F04043 	 orr r3,r3,#-1073741824
 919 009e 2B60     	 str r3,[r5]
 920 00a0 2846     	 mov r0,r5
 921 00a2 4021     	 movs r1,#64
 922 00a4 2034     	 adds r4,r4,#32
 923 00a6 9047     	 blx r2
 924 00a8 4C45     	 cmp r4,r9
 925 00aa 05F12005 	 add r5,r5,#32
 926 00ae EAD1     	 bne .L191
 927              	.L330:
 928 00b0 DAF80830 	 ldr r3,[r10,#8]
 929 00b4 0020     	 movs r0,#0
 930 00b6 0221     	 movs r1,#2
 931 00b8 9847     	 blx r3
 932              	.L188:
 933 00ba 019B     	 ldr r3,[sp,#4]
 934 00bc DE06     	 lsls r6,r3,#27
 935 00be 10D5     	 bpl .L192
 936 00c0 9B4B     	 ldr r3,.L341+4
 937 00c2 1A68     	 ldr r2,[r3]
 938 00c4 9369     	 ldr r3,[r2,#24]
 939 00c6 23F01003 	 bic r3,r3,#16
 940 00ca 9361     	 str r3,[r2,#24]
 941 00cc 136A     	 ldr r3,[r2,#32]
 942 00ce C3F34341 	 ubfx r1,r3,#17,#4
 943 00d2 0229     	 cmp r1,#2
 944 00d4 00F03282 	 beq .L331
 945              	.L193:
 946 00d8 9369     	 ldr r3,[r2,#24]
 947 00da 43F01003 	 orr r3,r3,#16
 948 00de 9361     	 str r3,[r2,#24]
 949 00e0 019B     	 ldr r3,[sp,#4]
 950              	.L192:
 951 00e2 1D07     	 lsls r5,r3,#28
 952 00e4 1FD5     	 bpl .L206
 953 00e6 924A     	 ldr r2,.L341+4
 954 00e8 904B     	 ldr r3,.L341
 955 00ea 1268     	 ldr r2,[r2]
 956 00ec 0821     	 movs r1,#8
 957 00ee 5161     	 str r1,[r2,#20]
 958 00f0 03F5E079 	 add r9,r3,#448
 959 00f4 40F20311 	 movw r1,#259
 960 00f8 0124     	 movs r4,#1
 961 00fa 02E0     	 b .L205
 962              	.L203:
 963 00fc 2033     	 adds r3,r3,#32
 964 00fe 4B45     	 cmp r3,r9
 965 0100 10D0     	 beq .L332
 966              	.L205:
 967 0102 5A8B     	 ldrh r2,[r3,#26]
 968 0104 8A42     	 cmp r2,r1
 969 0106 F9D1     	 bne .L203
 970 0108 188B     	 ldrh r0,[r3,#24]
 971 010a 421E     	 subs r2,r0,#1
 972 010c 92B2     	 uxth r2,r2
 973 010e 0028     	 cmp r0,#0
 974 0110 F4D0     	 beq .L203
 975 0112 1A83     	 strh r2,[r3,#24]
 976 0114 002A     	 cmp r2,#0
 977 0116 F1D1     	 bne .L203
 978 0118 DA8A     	 ldrh r2,[r3,#22]
 979 011a 5C77     	 strb r4,[r3,#29]
 980 011c 1A83     	 strh r2,[r3,#24]
 981 011e 2033     	 adds r3,r3,#32
 982 0120 4B45     	 cmp r3,r9
 983 0122 EED1     	 bne .L205
 984              	.L332:
 985 0124 019B     	 ldr r3,[sp,#4]
 986              	.L206:
 987 0126 9C01     	 lsls r4,r3,#6
 988 0128 4CD5     	 bpl .L201
 989 012a DFF804A2 	 ldr r10,.L341+4
 990 012e DFF80C82 	 ldr r8,.L341+16
 991 0132 DAF80030 	 ldr r3,[r10]
 992 0136 7F4C     	 ldr r4,.L341+8
 993 0138 D3F81494 	 ldr r9,[r3,#1044]
 994 013c 0025     	 movs r5,#0
 995 013e AB46     	 mov fp,r5
 996 0140 4FF0010C 	 mov ip,#1
 997              	.L227:
 998 0144 29FA05F3 	 lsr r3,r9,r5
 999 0148 D807     	 lsls r0,r3,#31
 1000 014a 34D5     	 bpl .L209
 1001 014c DAF80420 	 ldr r2,[r10,#4]
 1002 0150 6B01     	 lsls r3,r5,#5
 1003 0152 D018     	 adds r0,r2,r3
 1004 0154 0CFA05F1 	 lsl r1,ip,r5
 1005 0158 8668     	 ldr r6,[r0,#8]
 1006 015a C768     	 ldr r7,[r0,#12]
 1007 015c 3E40     	 ands r6,r6,r7
 1008 015e 29EA0109 	 bic r9,r9,r1
 1009 0162 B107     	 lsls r1,r6,#30
 1010 0164 73D5     	 bpl .L210
 1011 0166 40F2BB71 	 movw r1,#1979
 1012 016a C0F80CB0 	 str fp,[r0,#12]
 1013 016e 8160     	 str r1,[r0,#8]
 1014 0170 84F802B0 	 strb fp,[r4,#2]
 1015 0174 D158     	 ldr r1,[r2,r3]
 1016 0176 0026     	 movs r6,#0
 1017              	.L211:
 1018 0178 3707     	 lsls r7,r6,#28
 1019 017a 40F18B80 	 bpl .L225
 1020 017e 0821     	 movs r1,#8
 1021 0180 8160     	 str r1,[r0,#8]
 1022 0182 54F81A1C 	 ldr r1,[r4,#-26]
 1023 0186 84F801B0 	 strb fp,[r4,#1]
 1024 018a 21F0F001 	 bic r1,r1,#240
 1025 018e 41F01001 	 orr r1,r1,#16
 1026 0192 1027     	 movs r7,#16
 1027 0194 0226     	 movs r6,#2
 1028 0196 44F81A1C 	 str r1,[r4,#-26]
 1029 019a 2771     	 strb r7,[r4,#4]
 1030 019c C660     	 str r6,[r0,#12]
 1031 019e D158     	 ldr r1,[r2,r3]
 1032 01a0 41F04041 	 orr r1,r1,#-1073741824
 1033 01a4 D150     	 str r1,[r2,r3]
 1034              	.L226:
 1035 01a6 A378     	 ldrb r3,[r4,#2]
 1036 01a8 2BB9     	 cbnz r3,.L209
 1037 01aa 6678     	 ldrb r6,[r4,#1]
 1038 01ac 1EB9     	 cbnz r6,.L209
 1039 01ae 2179     	 ldrb r1,[r4,#4]
 1040 01b0 0029     	 cmp r1,#0
 1041 01b2 40F08F81 	 bne .L333
 1042              	.L209:
 1043 01b6 0135     	 adds r5,r5,#1
 1044 01b8 0E2D     	 cmp r5,#14
 1045 01ba 08F10108 	 add r8,r8,#1
 1046 01be 04F12004 	 add r4,r4,#32
 1047 01c2 BFD1     	 bne .L227
 1048              	.L201:
 1049 01c4 019B     	 ldr r3,[sp,#4]
 1050 01c6 002B     	 cmp r3,#0
 1051 01c8 C0F2EC81 	 blt .L334
 1052              	.L208:
 1053 01cc 5A4B     	 ldr r3,.L341+12
 1054 01ce 5B49     	 ldr r1,.L341+16
 1055 01d0 DFF85CB1 	 ldr fp,.L341+4
 1056 01d4 0022     	 movs r2,#0
 1057 01d6 03F5E077 	 add r7,r3,#448
 1058 01da 07E0     	 b .L257
 1059              	.L229:
 1060 01dc 2033     	 adds r3,r3,#32
 1061 01de BB42     	 cmp r3,r7
 1062 01e0 02F12002 	 add r2,r2,#32
 1063 01e4 01F10101 	 add r1,r1,#1
 1064 01e8 00F09480 	 beq .L335
 1065              	.L257:
 1066 01ec 13F8050C 	 ldrb r0,[r3,#-5]
 1067 01f0 0128     	 cmp r0,#1
 1068 01f2 F3D1     	 bne .L229
 1069 01f4 13F8040C 	 ldrb r0,[r3,#-4]
 1070 01f8 0028     	 cmp r0,#0
 1071 01fa EFD1     	 bne .L229
 1072 01fc 13F8064C 	 ldrb r4,[r3,#-6]
 1073 0200 032C     	 cmp r4,#3
 1074 0202 00F0EA80 	 beq .L231
 1075 0206 0D78     	 ldrb r5,[r1]
 1076 0208 002D     	 cmp r5,#0
 1077 020a 40F09980 	 bne .L232
 1078 020e 53F8200C 	 ldr r0,[r3,#-32]
 1079 0212 00F0F005 	 and r5,r0,#240
 1080 0216 102D     	 cmp r5,#16
 1081 0218 00F06D81 	 beq .L234
 1082 021c 202D     	 cmp r5,#32
 1083 021e 40F09080 	 bne .L260
 1084 0222 20F0F000 	 bic r0,r0,#240
 1085 0226 40F01000 	 orr r0,r0,#16
 1086 022a 43F8200C 	 str r0,[r3,#-32]
 1087 022e 88E0     	 b .L260
 1088              	.L329:
 1089 0230 DAF80830 	 ldr r3,[r10,#8]
 1090 0234 0121     	 movs r1,#1
 1091 0236 9847     	 blx r3
 1092              	.L184:
 1093 0238 04F00C04 	 and r4,r4,#12
 1094 023c 0C2C     	 cmp r4,#12
 1095 023e 7FF407AF 	 bne .L183
 1096 0242 9AF81230 	 ldrb r3,[r10,#18]
 1097 0246 002B     	 cmp r3,#0
 1098 0248 3FF402AF 	 beq .L183
 1099 024c F8E6     	 b .L261
 1100              	.L210:
 1101 024e F707     	 lsls r7,r6,#31
 1102 0250 40F1F481 	 bpl .L336
 1103 0254 40F2BB71 	 movw r1,#1979
 1104 0258 8160     	 str r1,[r0,#8]
 1105 025a D158     	 ldr r1,[r2,r3]
 1106 025c 11F40047 	 ands r7,r1,#32768
 1107 0260 29D1     	 bne .L214
 1108 0262 C760     	 str r7,[r0,#12]
 1109 0264 54F8121C 	 ldr r1,[r4,#-18]
 1110 0268 54F80E6C 	 ldr r6,[r4,#-14]
 1111 026c 0291     	 str r1,[sp,#8]
 1112 026e 54F80A1C 	 ldr r1,[r4,#-10]
 1113 0272 A770     	 strb r7,[r4,#2]
 1114 0274 0E44     	 add r6,r6,r1
 1115 0276 3146     	 mov r1,r6
 1116 0278 44F80E6C 	 str r6,[r4,#-14]
 1117 027c 029E     	 ldr r6,[sp,#8]
 1118 027e 44F80A7C 	 str r7,[r4,#-10]
 1119 0282 B142     	 cmp r1,r6
 1120 0284 00F05381 	 beq .L337
 1121              	.L215:
 1122 0288 D658     	 ldr r6,[r2,r3]
 1123 028a 16F40046 	 ands r6,r6,#32768
 1124 028e 40F01F81 	 bne .L264
 1125 0292 D158     	 ldr r1,[r2,r3]
 1126              	.L225:
 1127 0294 16F4F06F 	 tst r6,#1920
 1128 0298 85D0     	 beq .L226
 1129 029a 0221     	 movs r1,#2
 1130 029c 4FF4F067 	 mov r7,#1920
 1131 02a0 4026     	 movs r6,#64
 1132 02a2 8760     	 str r7,[r0,#8]
 1133 02a4 84F801B0 	 strb fp,[r4,#1]
 1134 02a8 2671     	 strb r6,[r4,#4]
 1135 02aa C160     	 str r1,[r0,#12]
 1136 02ac D158     	 ldr r1,[r2,r3]
 1137 02ae 41F04041 	 orr r1,r1,#-1073741824
 1138 02b2 D150     	 str r1,[r2,r3]
 1139 02b4 77E7     	 b .L226
 1140              	.L214:
 1141 02b6 D158     	 ldr r1,[r2,r3]
 1142 02b8 0904     	 lsls r1,r1,#16
 1143 02ba 06F02007 	 and r7,r6,#32
 1144 02be 09D5     	 bpl .L213
 1145              	.L258:
 1146 02c0 0221     	 movs r1,#2
 1147 02c2 84F801B0 	 strb fp,[r4,#1]
 1148 02c6 84F804C0 	 strb ip,[r4,#4]
 1149 02ca C160     	 str r1,[r0,#12]
 1150 02cc D158     	 ldr r1,[r2,r3]
 1151 02ce 41F04041 	 orr r1,r1,#-1073741824
 1152 02d2 D150     	 str r1,[r2,r3]
 1153              	.L213:
 1154 02d4 002F     	 cmp r7,#0
 1155 02d6 00F07381 	 beq .L217
 1156 02da 2021     	 movs r1,#32
 1157 02dc 8160     	 str r1,[r0,#8]
 1158 02de D158     	 ldr r1,[r2,r3]
 1159 02e0 88F800B0 	 strb fp,[r8]
 1160 02e4 0904     	 lsls r1,r1,#16
 1161 02e6 18D5     	 bpl .L218
 1162 02e8 54F80E6C 	 ldr r6,[r4,#-14]
 1163 02ec 54F8121C 	 ldr r1,[r4,#-18]
 1164 02f0 B142     	 cmp r1,r6
 1165 02f2 0DD0     	 beq .L219
 1166 02f4 54F80A1C 	 ldr r1,[r4,#-10]
 1167 02f8 51B1     	 cbz r1,.L219
 1168 02fa 34F8067C 	 ldrh r7,[r4,#-6]
 1169 02fe B6FBF7F1 	 udiv r1,r6,r7
 1170 0302 07FB1166 	 mls r6,r7,r1,r6
 1171 0306 1EB9     	 cbnz r6,.L219
 1172 0308 D158     	 ldr r1,[r2,r3]
 1173 030a 41F00041 	 orr r1,r1,#-2147483648
 1174 030e D150     	 str r1,[r2,r3]
 1175              	.L219:
 1176 0310 D358     	 ldr r3,[r2,r3]
 1177 0312 48E7     	 b .L226
 1178              	.L335:
 1179 0314 05B0     	 add sp,sp,#20
 1180              	 
 1181 0316 BDE8F08F 	 pop {r4,r5,r6,r7,r8,r9,r10,fp,pc}
 1182              	.L218:
 1183 031a 0221     	 movs r1,#2
 1184 031c C160     	 str r1,[r0,#12]
 1185 031e D158     	 ldr r1,[r2,r3]
 1186 0320 41F04041 	 orr r1,r1,#-1073741824
 1187 0324 D150     	 str r1,[r2,r3]
 1188 0326 D358     	 ldr r3,[r2,r3]
 1189 0328 3DE7     	 b .L226
 1190              	.L342:
 1191 032a 00BF     	 .align 2
 1192              	.L341:
 1193 032c 00000000 	 .word pipe
 1194 0330 00000000 	 .word .LANCHOR1
 1195 0334 1A000000 	 .word pipe+26
 1196 0338 20000000 	 .word pipe+32
 1197 033c 00000000 	 .word is_nack
 1198              	.L232:
 1199 0340 0870     	 strb r0,[r1]
 1200              	.L260:
 1201 0342 0020     	 movs r0,#0
 1202 0344 03F8030C 	 strb r0,[r3,#-3]
 1203 0348 DBF80090 	 ldr r9,[fp]
 1204 034c DBF80450 	 ldr r5,[fp,#4]
 1205 0350 0120     	 movs r0,#1
 1206 0352 03F8040C 	 strb r0,[r3,#-4]
 1207 0356 D9F84064 	 ldr r6,[r9,#1088]
 1208 035a 53F81C0C 	 ldr r0,[r3,#-28]
 1209 035e F607     	 lsls r6,r6,#31
 1210 0360 7FF53CAF 	 bpl .L229
 1211 0364 05EB020E 	 add lr,r5,r2
 1212 0368 AE58     	 ldr r6,[r5,r2]
 1213 036a 53F8208C 	 ldr r8,[r3,#-32]
 1214 036e DEF81050 	 ldr r5,[lr,#16]
 1215 0372 26F08046 	 bic r6,r6,#1073741824
 1216 0376 08F00F0A 	 and r10,r8,#15
 1217 037a 26F40046 	 bic r6,r6,#32768
 1218 037e 05F0C045 	 and r5,r5,#1610612736
 1219 0382 BAF1010F 	 cmp r10,#1
 1220 0386 46F0004C 	 orr ip,r6,#-2147483648
 1221 038a 0195     	 str r5,[sp,#4]
 1222 038c 00F0BD80 	 beq .L263
 1223 0390 BAF1030F 	 cmp r10,#3
 1224 0394 12BF     	 itee ne
 1225 0396 9925     	 movne r5,#153
 1226 0398 40F2B955 	 movweq r5,#1465
 1227 039c 46F0802C 	 orreq ip,r6,#-2147450880
 1228 03a0 0295     	 str r5,[sp,#8]
 1229              	.L237:
 1230 03a2 08F0F008 	 and r8,r8,#240
 1231 03a6 B8F1100F 	 cmp r8,#16
 1232 03aa 00F0AB80 	 beq .L240
 1233 03ae B8F1200F 	 cmp r8,#32
 1234 03b2 019D     	 ldr r5,[sp,#4]
 1235 03b4 08BF     	 it eq
 1236 03b6 4FF08045 	 moveq r5,#1073741824
 1237 03ba 0195     	 str r5,[sp,#4]
 1238              	.L239:
 1239 03bc D9F80864 	 ldr r6,[r9,#1032]
 1240 03c0 F507     	 lsls r5,r6,#31
 1241 03c2 4CBF     	 ite mi
 1242 03c4 2CF0005C 	 bicmi ip,ip,#536870912
 1243 03c8 4CF0005C 	 orrpl ip,ip,#536870912
 1244 03cc 032C     	 cmp r4,#3
 1245 03ce 00F2A280 	 bhi .L244
 1246 03d2 DFE804F0 	 tbb [pc,r4]
 1247              	.L246:
 1248 03d6 46       	 .byte (.L245-.L246)/2
 1249 03d7 08       	 .byte (.L247-.L246)/2
 1250 03d8 46       	 .byte (.L245-.L246)/2
 1251 03d9 08       	 .byte (.L247-.L246)/2
 1252              	 .p2align 1
 1253              	.L231:
 1254 03da 13F8030C 	 ldrb r0,[r3,#-3]
 1255 03de 0128     	 cmp r0,#1
 1256 03e0 7FF4FCAE 	 bne .L229
 1257 03e4 ADE7     	 b .L260
 1258              	.L247:
 1259 03e6 1CF4004F 	 tst ip,#32768
 1260 03ea 00F0A480 	 beq .L338
 1261              	.L248:
 1262 03ee 53F8186C 	 ldr r6,[r3,#-24]
 1263 03f2 53F8144C 	 ldr r4,[r3,#-20]
 1264 03f6 C4EB0608 	 rsb r8,r4,r6
 1265              	.L250:
 1266 03fa 0024     	 movs r4,#0
 1267 03fc 43F8104C 	 str r4,[r3,#-16]
 1268 0400 0394     	 str r4,[sp,#12]
 1269 0402 B8F1000F 	 cmp r8,#0
 1270 0406 5FD0     	 beq .L252
 1271              	.L339:
 1272 0408 33F80C9C 	 ldrh r9,[r3,#-12]
 1273 040c 019D     	 ldr r5,[sp,#4]
 1274 040e 09F1FF3A 	 add r10,r9,#-1
 1275 0412 48EA0505 	 orr r5,r8,r5
 1276 0416 D044     	 add r8,r8,r10
 1277 0418 B8FBF9F9 	 udiv r9,r8,r9
 1278 041c 45EAC948 	 orr r8,r5,r9,lsl#19
 1279              	.L253:
 1280 0420 884E     	 ldr r6,.L343
 1281 0422 4FF40065 	 mov r5,#2048
 1282 0426 C6F88C50 	 str r5,[r6,#140]
 1283              	
 1284 042a BFF34F8F 	 dsb 0xF
 1285              	
 1286              	
 1287 042e BFF36F8F 	 isb 0xF
 1288              	
 1289              	 .thumb
 1290 0432 029D     	 ldr r5,[sp,#8]
 1291 0434 CEF80C50 	 str r5,[lr,#12]
 1292 0438 CEF81080 	 str r8,[lr,#16]
 1293 043c CEF800C0 	 str ip,[lr]
 1294 0440 54B1     	 cbz r4,.L256
 1295 0442 651E     	 subs r5,r4,#1
 1296 0444 ADB2     	 uxth r5,r5
 1297 0446 0135     	 adds r5,r5,#1
 1298 0448 039E     	 ldr r6,[sp,#12]
 1299 044a 00EB8505 	 add r5,r0,r5,lsl#2
 1300              	.L255:
 1301 044e 50F8044B 	 ldr r4,[r0],#4
 1302 0452 3460     	 str r4,[r6]
 1303 0454 A842     	 cmp r0,r5
 1304 0456 FAD1     	 bne .L255
 1305              	.L256:
 1306 0458 7A48     	 ldr r0,.L343
 1307 045a 4FF40064 	 mov r4,#2048
 1308 045e C460     	 str r4,[r0,#12]
 1309 0460 BCE6     	 b .L229
 1310              	.L245:
 1311 0462 1CF4004F 	 tst ip,#32768
 1312 0466 C2D1     	 bne .L248
 1313 0468 D9F82C60 	 ldr r6,[r9,#44]
 1314              	.L249:
 1315 046c 53F814AC 	 ldr r10,[r3,#-20]
 1316 0470 53F8184C 	 ldr r4,[r3,#-24]
 1317 0474 1FFA86F9 	 uxth r9,r6
 1318 0478 CAEB0404 	 rsb r4,r10,r4
 1319 047c 4FEA8908 	 lsl r8,r9,#2
 1320 0480 4445     	 cmp r4,r8
 1321 0482 28BF     	 it cs
 1322 0484 4446     	 movcs r4,r8
 1323 0486 C6F30746 	 ubfx r6,r6,#16,#8
 1324              	.L262:
 1325 048a 33F80C9C 	 ldrh r9,[r3,#-12]
 1326 048e 6E4D     	 ldr r5,.L343+4
 1327 0490 09F1FF38 	 add r8,r9,#-1
 1328 0494 A044     	 add r8,r8,r4
 1329 0496 B8FBF9F8 	 udiv r8,r8,r9
 1330 049a B045     	 cmp r8,r6
 1331 049c 28BF     	 it cs
 1332 049e B046     	 movcs r8,r6
 1333 04a0 09FB08F6 	 mul r6,r9,r8
 1334 04a4 A642     	 cmp r6,r4
 1335 04a6 28BF     	 it cs
 1336 04a8 2646     	 movcs r6,r4
 1337 04aa B046     	 mov r8,r6
 1338 04ac 5611     	 asrs r6,r2,#5
 1339 04ae 08F10304 	 add r4,r8,#3
 1340 04b2 55F82650 	 ldr r5,[r5,r6,lsl#2]
 1341 04b6 43F8108C 	 str r8,[r3,#-16]
 1342 04ba 5044     	 add r0,r0,r10
 1343 04bc C4F38F04 	 ubfx r4,r4,#2,#16
 1344 04c0 0395     	 str r5,[sp,#12]
 1345 04c2 B8F1000F 	 cmp r8,#0
 1346 04c6 9FD1     	 bne .L339
 1347              	.L252:
 1348 04c8 019D     	 ldr r5,[sp,#4]
 1349 04ca 45F40028 	 orr r8,r5,#524288
 1350 04ce A7E7     	 b .L253
 1351              	.L264:
 1352 04d0 0026     	 movs r6,#0
 1353 04d2 F5E6     	 b .L258
 1354              	.L333:
 1355 04d4 DAF80C30 	 ldr r3,[r10,#12]
 1356 04d8 CDF808C0 	 str ip,[sp,#8]
 1357 04dc 0135     	 adds r5,r5,#1
 1358 04de 9847     	 blx r3
 1359 04e0 0E2D     	 cmp r5,#14
 1360 04e2 2671     	 strb r6,[r4,#4]
 1361 04e4 DDF808C0 	 ldr ip,[sp,#8]
 1362 04e8 08F10108 	 add r8,r8,#1
 1363 04ec 04F12004 	 add r4,r4,#32
 1364 04f0 7FF428AE 	 bne .L227
 1365 04f4 66E6     	 b .L201
 1366              	.L234:
 1367 04f6 20F0F000 	 bic r0,r0,#240
 1368 04fa 40F02000 	 orr r0,r0,#32
 1369 04fe 43F8200C 	 str r0,[r3,#-32]
 1370 0502 1EE7     	 b .L260
 1371              	.L240:
 1372 0504 0025     	 movs r5,#0
 1373 0506 0195     	 str r5,[sp,#4]
 1374 0508 58E7     	 b .L239
 1375              	.L263:
 1376 050a 9925     	 movs r5,#153
 1377 050c 0295     	 str r5,[sp,#8]
 1378 050e 4FF0C045 	 mov r5,#1610612736
 1379 0512 0195     	 str r5,[sp,#4]
 1380 0514 45E7     	 b .L237
 1381              	.L244:
 1382 0516 53F814AC 	 ldr r10,[r3,#-20]
 1383 051a 53F8184C 	 ldr r4,[r3,#-24]
 1384 051e 1CF40046 	 ands r6,ip,#32768
 1385 0522 CAEB0408 	 rsb r8,r10,r4
 1386 0526 7FF468AF 	 bne .L250
 1387 052a 3446     	 mov r4,r6
 1388 052c ADE7     	 b .L262
 1389              	.L337:
 1390 052e 6770     	 strb r7,[r4,#1]
 1391 0530 84F804C0 	 strb ip,[r4,#4]
 1392 0534 A8E6     	 b .L215
 1393              	.L338:
 1394 0536 D9F81064 	 ldr r6,[r9,#1040]
 1395 053a 97E7     	 b .L249
 1396              	.L331:
 1397 053c 03F00F04 	 and r4,r3,#15
 1398 0540 DFF80CE1 	 ldr lr,.L343+12
 1399 0544 404D     	 ldr r5,.L343+4
 1400 0546 6701     	 lsls r7,r4,#5
 1401 0548 0EEB0701 	 add r1,lr,r7
 1402 054c 47F6F070 	 movw r0,#32752
 1403 0550 4E68     	 ldr r6,[r1,#4]
 1404 0552 C968     	 ldr r1,[r1,#12]
 1405 0554 55F82450 	 ldr r5,[r5,r4,lsl#2]
 1406 0558 1840     	 ands r0,r0,r3
 1407 055a 0409     	 lsrs r4,r0,#4
 1408 055c 3144     	 add r1,r1,r6
 1409 055e 8609     	 lsrs r6,r0,#6
 1410 0560 04F00308 	 and r8,r4,#3
 1411 0564 0AD0     	 beq .L194
 1412 0566 3346     	 mov r3,r6
 1413 0568 0846     	 mov r0,r1
 1414 056a 9446     	 mov ip,r2
 1415              	.L195:
 1416 056c 2A68     	 ldr r2,[r5]
 1417 056e 40F8042B 	 str r2,[r0],#4
 1418 0572 013B     	 subs r3,r3,#1
 1419 0574 FAD1     	 bne .L195
 1420 0576 6246     	 mov r2,ip
 1421 0578 01EB8601 	 add r1,r1,r6,lsl#2
 1422              	.L194:
 1423 057c B8F1000F 	 cmp r8,#0
 1424 0580 08D0     	 beq .L198
 1425 0582 2B68     	 ldr r3,[r5]
 1426 0584 01EB0800 	 add r0,r1,r8
 1427              	.L197:
 1428 0588 01F8013B 	 strb r3,[r1],#1
 1429 058c 8142     	 cmp r1,r0
 1430 058e 4FEA1323 	 lsr r3,r3,#8
 1431 0592 F9D1     	 bne .L197
 1432              	.L198:
 1433 0594 7744     	 add r7,r7,lr
 1434 0596 3B69     	 ldr r3,[r7,#16]
 1435 0598 2344     	 add r3,r3,r4
 1436 059a 3B61     	 str r3,[r7,#16]
 1437 059c FB68     	 ldr r3,[r7,#12]
 1438 059e 2344     	 add r3,r3,r4
 1439 05a0 FB60     	 str r3,[r7,#12]
 1440 05a2 99E5     	 b .L193
 1441              	.L334:
 1442 05a4 294A     	 ldr r2,.L343+8
 1443 05a6 1368     	 ldr r3,[r2]
 1444 05a8 9268     	 ldr r2,[r2,#8]
 1445 05aa 4FF00040 	 mov r0,#-2147483648
 1446 05ae 4FF48071 	 mov r1,#256
 1447 05b2 5861     	 str r0,[r3,#20]
 1448 05b4 C3F8001E 	 str r1,[r3,#3584]
 1449 05b8 0020     	 movs r0,#0
 1450 05ba 4021     	 movs r1,#64
 1451 05bc 9047     	 blx r2
 1452 05be 05E6     	 b .L208
 1453              	.L217:
 1454 05c0 06F01001 	 and r1,r6,#16
 1455 05c4 16F4F36F 	 tst r6,#1944
 1456 05c8 0391     	 str r1,[sp,#12]
 1457 05ca D158     	 ldr r1,[r2,r3]
 1458 05cc 01D0     	 beq .L220
 1459 05ce 0F04     	 lsls r7,r1,#16
 1460 05d0 1DD5     	 bpl .L340
 1461              	.L220:
 1462 05d2 0399     	 ldr r1,[sp,#12]
 1463 05d4 0029     	 cmp r1,#0
 1464 05d6 3FF4CFAD 	 beq .L211
 1465 05da 2179     	 ldrb r1,[r4,#4]
 1466 05dc 88F800C0 	 strb ip,[r8]
 1467 05e0 41F00201 	 orr r1,r1,#2
 1468 05e4 1026     	 movs r6,#16
 1469 05e6 2171     	 strb r1,[r4,#4]
 1470 05e8 8660     	 str r6,[r0,#8]
 1471 05ea D158     	 ldr r1,[r2,r3]
 1472 05ec 0904     	 lsls r1,r1,#16
 1473 05ee 07D5     	 bpl .L222
 1474 05f0 2178     	 ldrb r1,[r4]
 1475 05f2 0329     	 cmp r1,#3
 1476 05f4 04D0     	 beq .L222
 1477 05f6 D158     	 ldr r1,[r2,r3]
 1478 05f8 41F00041 	 orr r1,r1,#-2147483648
 1479 05fc D150     	 str r1,[r2,r3]
 1480 05fe D2E5     	 b .L226
 1481              	.L222:
 1482 0600 0221     	 movs r1,#2
 1483 0602 C160     	 str r1,[r0,#12]
 1484 0604 D158     	 ldr r1,[r2,r3]
 1485 0606 41F04041 	 orr r1,r1,#-1073741824
 1486 060a D150     	 str r1,[r2,r3]
 1487 060c CBE5     	 b .L226
 1488              	.L340:
 1489 060e 0169     	 ldr r1,[r0,#16]
 1490 0610 D758     	 ldr r7,[r2,r3]
 1491 0612 54F80AEC 	 ldr lr,[r4,#-10]
 1492 0616 C7F30A07 	 ubfx r7,r7,#0,#11
 1493 061a 7745     	 cmp r7,lr
 1494 061c 0BD8     	 bhi .L221
 1495 061e C1F3C941 	 ubfx r1,r1,#19,#10
 1496 0622 0291     	 str r1,[sp,#8]
 1497 0624 39B1     	 cbz r1,.L221
 1498 0626 54F80E1C 	 ldr r1,[r4,#-14]
 1499 062a 8E44     	 add lr,lr,r1
 1500 062c 0299     	 ldr r1,[sp,#8]
 1501 062e 07FB11E1 	 mls r1,r7,r1,lr
 1502 0632 44F80E1C 	 str r1,[r4,#-14]
 1503              	.L221:
 1504 0636 44F80ABC 	 str fp,[r4,#-10]
 1505 063a CAE7     	 b .L220
 1506              	.L336:
 1507 063c 06F02007 	 and r7,r6,#32
 1508 0640 48E6     	 b .L213
 1509              	.L344:
 1510 0642 00BF     	 .align 2
 1511              	.L343:
 1512 0644 00E100E0 	 .word -536813312
 1513 0648 00000000 	 .word .LANCHOR4
 1514 064c 00000000 	 .word .LANCHOR1
 1515 0650 00000000 	 .word pipe
 1517              	 .section .text.XMC_USBH_GetInterruptStatus,"ax",%progbits
 1518              	 .align 2
 1519              	 .global XMC_USBH_GetInterruptStatus
 1520              	 .thumb
 1521              	 .thumb_func
 1523              	XMC_USBH_GetInterruptStatus:
 1524              	 
 1525              	 
 1526              	 
 1527 0000 014B     	 ldr r3,.L346
 1528 0002 1B68     	 ldr r3,[r3]
 1529 0004 5869     	 ldr r0,[r3,#20]
 1530 0006 7047     	 bx lr
 1531              	.L347:
 1532              	 .align 2
 1533              	.L346:
 1534 0008 00000000 	 .word .LANCHOR1
 1536              	 .section .text.XMC_USBH_Select_VBUS,"ax",%progbits
 1537              	 .align 2
 1538              	 .global XMC_USBH_Select_VBUS
 1539              	 .thumb
 1540              	 .thumb_func
 1542              	XMC_USBH_Select_VBUS:
 1543              	 
 1544              	 
 1545              	 
 1546 0000 034A     	 ldr r2,.L349
 1547 0002 044B     	 ldr r3,.L349+4
 1548 0004 1160     	 str r1,[r2]
 1549 0006 C9B2     	 uxtb r1,r1
 1550 0008 8822     	 movs r2,#136
 1551 000a 1860     	 str r0,[r3]
 1552 000c FFF7FEBF 	 b XMC_GPIO_SetMode
 1553              	.L350:
 1554              	 .align 2
 1555              	.L349:
 1556 0010 00000000 	 .word .LANCHOR3
 1557 0014 00000000 	 .word .LANCHOR2
 1559              	 .section .text.XMC_USBH_TurnOffResumeBit,"ax",%progbits
 1560              	 .align 2
 1561              	 .global XMC_USBH_TurnOffResumeBit
 1562              	 .thumb
 1563              	 .thumb_func
 1565              	XMC_USBH_TurnOffResumeBit:
 1566              	 
 1567              	 
 1568              	 
 1569 0000 044B     	 ldr r3,.L352
 1570 0002 1A68     	 ldr r2,[r3]
 1571 0004 D2F84034 	 ldr r3,[r2,#1088]
 1572 0008 23F04403 	 bic r3,r3,#68
 1573 000c C2F84034 	 str r3,[r2,#1088]
 1574 0010 7047     	 bx lr
 1575              	.L353:
 1576 0012 00BF     	 .align 2
 1577              	.L352:
 1578 0014 00000000 	 .word .LANCHOR1
 1580              	 .section .text.XMC_USBH_osDelay,"ax",%progbits
 1581              	 .align 2
 1582              	 .weak XMC_USBH_osDelay
 1583              	 .thumb
 1584              	 .thumb_func
 1586              	XMC_USBH_osDelay:
 1587              	 
 1588              	 
 1589              	 
 1590              	.L355:
 1591 0000 FEE7     	 b .L355
 1593 0002 00BF     	 .section .text.XMC_USBH_PipeTransferAbort,"ax",%progbits
 1594              	 .align 2
 1595              	 .thumb
 1596              	 .thumb_func
 1598              	XMC_USBH_PipeTransferAbort:
 1599              	 
 1600              	 
 1601 0000 38B5     	 push {r3,r4,r5,lr}
 1602 0002 1E4B     	 ldr r3,.L373
 1603 0004 5A7C     	 ldrb r2,[r3,#17]
 1604 0006 002A     	 cmp r2,#0
 1605 0008 32D0     	 beq .L359
 1606 000a 0028     	 cmp r0,#0
 1607 000c 33D0     	 beq .L363
 1608 000e 5B68     	 ldr r3,[r3,#4]
 1609 0010 1B4A     	 ldr r2,.L373+4
 1610 0012 C31A     	 subs r3,r0,r3
 1611 0014 23F01F03 	 bic r3,r3,#31
 1612 0018 1344     	 add r3,r3,r2
 1613 001a DA78     	 ldrb r2,[r3,#3]
 1614 001c 42B3     	 cbz r2,.L359
 1615 001e 0022     	 movs r2,#0
 1616 0020 DA70     	 strb r2,[r3,#3]
 1617 0022 8368     	 ldr r3,[r0,#8]
 1618 0024 13F00205 	 ands r5,r3,#2
 1619 0028 22D1     	 bne .L359
 1620 002a 0368     	 ldr r3,[r0]
 1621 002c 9342     	 cmp r3,r2
 1622 002e 1FDA     	 bge .L359
 1623 0030 0446     	 mov r4,r0
 1624 0032 C560     	 str r5,[r0,#12]
 1625 0034 0120     	 movs r0,#1
 1626 0036 FFF7FEFF 	 bl XMC_USBH_osDelay
 1627 003a A368     	 ldr r3,[r4,#8]
 1628 003c D906     	 lsls r1,r3,#27
 1629 003e 12D4     	 bmi .L372
 1630 0040 40F2BB71 	 movw r1,#1979
 1631 0044 A160     	 str r1,[r4,#8]
 1632 0046 2368     	 ldr r3,[r4]
 1633 0048 43F04043 	 orr r3,r3,#-1073741824
 1634 004c 2360     	 str r3,[r4]
 1635 004e 4FF0FF30 	 mov r0,#-1
 1636 0052 41F28833 	 movw r3,#5000
 1637              	.L362:
 1638 0056 A268     	 ldr r2,[r4,#8]
 1639 0058 9207     	 lsls r2,r2,#30
 1640 005a 44BF     	 itt mi
 1641 005c A160     	 strmi r1,[r4,#8]
 1642 005e 0020     	 movmi r0,#0
 1643 0060 013B     	 subs r3,r3,#1
 1644 0062 F8D1     	 bne .L362
 1645 0064 38BD     	 pop {r3,r4,r5,pc}
 1646              	.L372:
 1647 0066 40F2BB73 	 movw r3,#1979
 1648 006a 2846     	 mov r0,r5
 1649 006c A360     	 str r3,[r4,#8]
 1650 006e 38BD     	 pop {r3,r4,r5,pc}
 1651              	.L359:
 1652 0070 4FF0FF30 	 mov r0,#-1
 1653 0074 38BD     	 pop {r3,r4,r5,pc}
 1654              	.L363:
 1655 0076 6FF00400 	 mvn r0,#4
 1656 007a 38BD     	 pop {r3,r4,r5,pc}
 1657              	.L374:
 1658              	 .align 2
 1659              	.L373:
 1660 007c 00000000 	 .word .LANCHOR1
 1661 0080 18000000 	 .word pipe+24
 1663              	 .section .text.XMC_USBH_PortResume,"ax",%progbits
 1664              	 .align 2
 1665              	 .thumb
 1666              	 .thumb_func
 1668              	XMC_USBH_PortResume:
 1669              	 
 1670              	 
 1671 0000 38B5     	 push {r3,r4,r5,lr}
 1672 0002 124D     	 ldr r5,.L380
 1673 0004 6B7C     	 ldrb r3,[r5,#17]
 1674 0006 EBB1     	 cbz r3,.L377
 1675 0008 C8B9     	 cbnz r0,.L378
 1676 000a 2A68     	 ldr r2,[r5]
 1677 000c 4FF48073 	 mov r3,#256
 1678 0010 C2F8003E 	 str r3,[r2,#3584]
 1679 0014 D2F84034 	 ldr r3,[r2,#1088]
 1680 0018 23F00403 	 bic r3,r3,#4
 1681 001c 43F04003 	 orr r3,r3,#64
 1682 0020 0446     	 mov r4,r0
 1683 0022 C2F84034 	 str r3,[r2,#1088]
 1684 0026 1420     	 movs r0,#20
 1685 0028 FFF7FEFF 	 bl XMC_USBH_osDelay
 1686 002c 2A68     	 ldr r2,[r5]
 1687 002e D2F84034 	 ldr r3,[r2,#1088]
 1688 0032 23F04403 	 bic r3,r3,#68
 1689 0036 2046     	 mov r0,r4
 1690 0038 C2F84034 	 str r3,[r2,#1088]
 1691 003c 38BD     	 pop {r3,r4,r5,pc}
 1692              	.L378:
 1693 003e 6FF00400 	 mvn r0,#4
 1694 0042 38BD     	 pop {r3,r4,r5,pc}
 1695              	.L377:
 1696 0044 4FF0FF30 	 mov r0,#-1
 1697 0048 38BD     	 pop {r3,r4,r5,pc}
 1698              	.L381:
 1699 004a 00BF     	 .align 2
 1700              	.L380:
 1701 004c 00000000 	 .word .LANCHOR1
 1703              	 .section .text.XMC_USBH_PortReset,"ax",%progbits
 1704              	 .align 2
 1705              	 .thumb
 1706              	 .thumb_func
 1708              	XMC_USBH_PortReset:
 1709              	 
 1710              	 
 1711 0000 70B5     	 push {r4,r5,r6,lr}
 1712 0002 194C     	 ldr r4,.L395
 1713 0004 637C     	 ldrb r3,[r4,#17]
 1714 0006 33B3     	 cbz r3,.L386
 1715 0008 2268     	 ldr r2,[r4]
 1716 000a D2F84054 	 ldr r5,[r2,#1088]
 1717 000e 25F00403 	 bic r3,r5,#4
 1718 0012 43F48073 	 orr r3,r3,#256
 1719 0016 0028     	 cmp r0,#0
 1720 0018 C2F84034 	 str r3,[r2,#1088]
 1721 001c 4FF03200 	 mov r0,#50
 1722 0020 4FF00103 	 mov r3,#1
 1723 0024 0CBF     	 ite eq
 1724 0026 0026     	 moveq r6,#0
 1725 0028 6FF00406 	 mvnne r6,#4
 1726 002c A374     	 strb r3,[r4,#18]
 1727 002e FFF7FEFF 	 bl XMC_USBH_osDelay
 1728 0032 2368     	 ldr r3,[r4]
 1729 0034 25F48275 	 bic r5,r5,#260
 1730 0038 C3F84054 	 str r5,[r3,#1088]
 1731 003c 3220     	 movs r0,#50
 1732 003e FFF7FEFF 	 bl XMC_USBH_osDelay
 1733 0042 2268     	 ldr r2,[r4]
 1734              	.L385:
 1735 0044 D2F84034 	 ldr r3,[r2,#1088]
 1736 0048 5B07     	 lsls r3,r3,#29
 1737 004a FBD5     	 bpl .L385
 1738 004c A37C     	 ldrb r3,[r4,#18]
 1739 004e 064A     	 ldr r2,.L395
 1740 0050 23B9     	 cbnz r3,.L394
 1741              	.L383:
 1742 0052 3046     	 mov r0,r6
 1743 0054 70BD     	 pop {r4,r5,r6,pc}
 1744              	.L386:
 1745 0056 4FF0FF36 	 mov r6,#-1
 1746 005a FAE7     	 b .L383
 1747              	.L394:
 1748 005c 0023     	 movs r3,#0
 1749 005e 9374     	 strb r3,[r2,#18]
 1750 0060 4FF0FF36 	 mov r6,#-1
 1751 0064 F5E7     	 b .L383
 1752              	.L396:
 1753 0066 00BF     	 .align 2
 1754              	.L395:
 1755 0068 00000000 	 .word .LANCHOR1
 1757              	 .section .text.XMC_USBH_PowerControl,"ax",%progbits
 1758              	 .align 2
 1759              	 .thumb
 1760              	 .thumb_func
 1762              	XMC_USBH_PowerControl:
 1763              	 
 1764              	 
 1765 0000 F8B5     	 push {r3,r4,r5,r6,r7,lr}
 1766 0002 0446     	 mov r4,r0
 1767 0004 0028     	 cmp r0,#0
 1768 0006 76D0     	 beq .L399
 1769 0008 0228     	 cmp r0,#2
 1770 000a 71D1     	 bne .L415
 1771 000c 514D     	 ldr r5,.L416
 1772 000e 2B7C     	 ldrb r3,[r5,#16]
 1773 0010 002B     	 cmp r3,#0
 1774 0012 00F09C80 	 beq .L405
 1775 0016 6B7C     	 ldrb r3,[r5,#17]
 1776 0018 022B     	 cmp r3,#2
 1777 001a 00F09680 	 beq .L406
 1778 001e 4E48     	 ldr r0,.L416+4
 1779 0020 FFF7FEFF 	 bl XMC_SCU_CLOCK_UngatePeripheralClock
 1780 0024 2046     	 mov r0,r4
 1781 0026 FFF7FEFF 	 bl XMC_USBH_osDelay
 1782 002a 4B48     	 ldr r0,.L416+4
 1783 002c FFF7FEFF 	 bl XMC_SCU_RESET_DeassertPeripheralReset
 1784 0030 2046     	 mov r0,r4
 1785 0032 FFF7FEFF 	 bl XMC_USBH_osDelay
 1786 0036 6420     	 movs r0,#100
 1787 0038 FFF7FEFF 	 bl XMC_USBH_osDelay
 1788 003c FFF7FEFF 	 bl XMC_SCU_POWER_EnableUsb
 1789 0040 2B68     	 ldr r3,[r5]
 1790 0042 D3F8002E 	 ldr r2,[r3,#3584]
 1791 0046 22F00102 	 bic r2,r2,#1
 1792 004a C3F8002E 	 str r2,[r3,#3584]
 1793 004e DA68     	 ldr r2,[r3,#12]
 1794 0050 42F04002 	 orr r2,r2,#64
 1795 0054 DA60     	 str r2,[r3,#12]
 1796              	.L401:
 1797 0056 1A69     	 ldr r2,[r3,#16]
 1798 0058 002A     	 cmp r2,#0
 1799 005a FCDA     	 bge .L401
 1800 005c 1A69     	 ldr r2,[r3,#16]
 1801 005e 42F00102 	 orr r2,r2,#1
 1802 0062 1A61     	 str r2,[r3,#16]
 1803              	.L402:
 1804 0064 1969     	 ldr r1,[r3,#16]
 1805 0066 11F00104 	 ands r4,r1,#1
 1806 006a FBD1     	 bne .L402
 1807 006c 6420     	 movs r0,#100
 1808 006e FFF7FEFF 	 bl XMC_USBH_osDelay
 1809 0072 2146     	 mov r1,r4
 1810 0074 4FF4E072 	 mov r2,#448
 1811 0078 3848     	 ldr r0,.L416+8
 1812 007a AC74     	 strb r4,[r5,#18]
 1813 007c FFF7FEFF 	 bl memset
 1814 0080 2B68     	 ldr r3,[r5]
 1815 0082 344C     	 ldr r4,.L416
 1816 0084 DA68     	 ldr r2,[r3,#12]
 1817 0086 02F0C042 	 and r2,r2,#1610612736
 1818 008a B2F1005F 	 cmp r2,#536870912
 1819 008e 0BD0     	 beq .L403
 1820 0090 DA68     	 ldr r2,[r3,#12]
 1821 0092 22F08042 	 bic r2,r2,#1073741824
 1822 0096 DA60     	 str r2,[r3,#12]
 1823 0098 DA68     	 ldr r2,[r3,#12]
 1824 009a 42F00052 	 orr r2,r2,#536870912
 1825 009e DA60     	 str r2,[r3,#12]
 1826 00a0 6420     	 movs r0,#100
 1827 00a2 FFF7FEFF 	 bl XMC_USBH_osDelay
 1828 00a6 2368     	 ldr r3,[r4]
 1829              	.L403:
 1830 00a8 D3F80024 	 ldr r2,[r3,#1024]
 1831 00ac 2C4F     	 ldr r7,.L416+12
 1832 00ae 2D4E     	 ldr r6,.L416+16
 1833 00b0 2D48     	 ldr r0,.L416+20
 1834 00b2 2E49     	 ldr r1,.L416+24
 1835 00b4 42F40172 	 orr r2,r2,#516
 1836 00b8 4FF48D7E 	 mov lr,#282
 1837 00bc 43F6FF74 	 movw r4,#16383
 1838 00c0 C3F80024 	 str r2,[r3,#1024]
 1839 00c4 C3F824E0 	 str lr,[r3,#36]
 1840 00c8 9F62     	 str r7,[r3,#40]
 1841 00ca C3F80061 	 str r6,[r3,#256]
 1842 00ce C3F81844 	 str r4,[r3,#1048]
 1843 00d2 9861     	 str r0,[r3,#24]
 1844 00d4 9A68     	 ldr r2,[r3,#8]
 1845 00d6 0024     	 movs r4,#0
 1846 00d8 42F00102 	 orr r2,r2,#1
 1847 00dc 9A60     	 str r2,[r3,#8]
 1848 00de 4FF40066 	 mov r6,#2048
 1849 00e2 81F86B43 	 strb r4,[r1,#875]
 1850 00e6 0227     	 movs r7,#2
 1851 00e8 6F74     	 strb r7,[r5,#17]
 1852 00ea 2046     	 mov r0,r4
 1853 00ec CE60     	 str r6,[r1,#12]
 1854 00ee F8BD     	 pop {r3,r4,r5,r6,r7,pc}
 1855              	.L415:
 1856 00f0 6FF00300 	 mvn r0,#3
 1857 00f4 F8BD     	 pop {r3,r4,r5,r6,r7,pc}
 1858              	.L399:
 1859 00f6 1D4B     	 ldr r3,.L416+24
 1860 00f8 4FF40062 	 mov r2,#2048
 1861 00fc C3F88C20 	 str r2,[r3,#140]
 1862              	
 1863 0100 BFF34F8F 	 dsb 0xF
 1864              	
 1865              	
 1866 0104 BFF36F8F 	 isb 0xF
 1867              	
 1868              	 .thumb
 1869 0108 124D     	 ldr r5,.L416
 1870 010a C3F88C21 	 str r2,[r3,#396]
 1871 010e 2A68     	 ldr r2,[r5]
 1872 0110 1148     	 ldr r0,.L416+4
 1873 0112 9368     	 ldr r3,[r2,#8]
 1874 0114 6C74     	 strb r4,[r5,#17]
 1875 0116 23F00103 	 bic r3,r3,#1
 1876 011a 9360     	 str r3,[r2,#8]
 1877 011c FFF7FEFF 	 bl XMC_SCU_CLOCK_GatePeripheralClock
 1878 0120 2A68     	 ldr r2,[r5]
 1879 0122 D2F8003E 	 ldr r3,[r2,#3584]
 1880 0126 43F00103 	 orr r3,r3,#1
 1881 012a C2F8003E 	 str r3,[r2,#3584]
 1882 012e FFF7FEFF 	 bl XMC_SCU_POWER_DisableUsb
 1883 0132 0948     	 ldr r0,.L416+4
 1884 0134 FFF7FEFF 	 bl XMC_SCU_RESET_AssertPeripheralReset
 1885 0138 2146     	 mov r1,r4
 1886 013a 4FF4E072 	 mov r2,#448
 1887 013e 0748     	 ldr r0,.L416+8
 1888 0140 AC74     	 strb r4,[r5,#18]
 1889 0142 FFF7FEFF 	 bl memset
 1890 0146 2046     	 mov r0,r4
 1891 0148 F8BD     	 pop {r3,r4,r5,r6,r7,pc}
 1892              	.L406:
 1893 014a 0020     	 movs r0,#0
 1894 014c F8BD     	 pop {r3,r4,r5,r6,r7,pc}
 1895              	.L405:
 1896 014e 4FF0FF30 	 mov r0,#-1
 1897 0152 F8BD     	 pop {r3,r4,r5,r6,r7,pc}
 1898              	.L417:
 1899              	 .align 2
 1900              	.L416:
 1901 0154 00000000 	 .word .LANCHOR1
 1902 0158 80000020 	 .word 536871040
 1903 015c 00000000 	 .word pipe
 1904 0160 1A011000 	 .word 1048858
 1905 0164 2A010001 	 .word 16777514
 1906 0168 180000A3 	 .word -1560281064
 1907 016c 00E100E0 	 .word -536813312
 1909              	 .global Driver_USBH0
 1910              	 .comm pipe,448,4
 1911              	 .comm is_nack,14,4
 1912              	 .global VBUS_pin
 1913              	 .global VBUS_port
 1914              	 .section .data.XMC_USBH0_device,"aw",%progbits
 1915              	 .align 2
 1916              	 .set .LANCHOR1,.+0
 1919              	XMC_USBH0_device:
 1920 0000 00000450 	 .word 1342439424
 1921 0004 00050450 	 .word 1342440704
 1922 0008 00000000 	 .word 0
 1923 000c 00000000 	 .word 0
 1924 0010 00       	 .byte 0
 1925 0011 00       	 .byte 0
 1926 0012 00       	 .byte 0
 1927 0013 00       	 .space 1
 1928              	 .section .bss.XMC_USBH0_dfifo_ptr,"aw",%nobits
 1929              	 .align 2
 1930              	 .set .LANCHOR4,.+0
 1933              	XMC_USBH0_dfifo_ptr:
 1934 0000 00000000 	 .space 56
 1934      00000000 
 1934      00000000 
 1934      00000000 
 1934      00000000 
 1935              	 .section .data.VBUS_pin,"aw",%progbits
 1936              	 .align 2
 1937              	 .set .LANCHOR3,.+0
 1940              	VBUS_pin:
 1941 0000 02000000 	 .word 2
 1942              	 .section .data.VBUS_port,"aw",%progbits
 1943              	 .align 2
 1944              	 .set .LANCHOR2,.+0
 1947              	VBUS_port:
 1948 0000 00830248 	 .word 1208124160
 1949              	 .section .rodata.xmc_usbh_driver_version,"a",%progbits
 1950              	 .align 2
 1951              	 .set .LANCHOR0,.+0
 1954              	xmc_usbh_driver_version:
 1955 0000 0102     	 .short 513
 1956 0002 1001     	 .short 272
 1957              	 .section .rodata.Driver_USBH0,"a",%progbits
 1958              	 .align 2
 1961              	Driver_USBH0:
 1962 0000 00000000 	 .word XMC_USBH_GetVersion
 1963 0004 00000000 	 .word XMC_USBH_GetCapabilities
 1964 0008 00000000 	 .word XMC_USBH_Initialize
 1965 000c 00000000 	 .word XMC_USBH_Uninitialize
 1966 0010 00000000 	 .word XMC_USBH_PowerControl
 1967 0014 00000000 	 .word XMC_USBH_PortVbusOnOff
 1968 0018 00000000 	 .word XMC_USBH_PortReset
 1969 001c 00000000 	 .word XMC_USBH_PortSuspend
 1970 0020 00000000 	 .word XMC_USBH_PortResume
 1971 0024 00000000 	 .word XMC_USBH_PortGetState
 1972 0028 00000000 	 .word XMC_USBH_PipeCreate
 1973 002c 00000000 	 .word XMC_USBH_PipeModify
 1974 0030 00000000 	 .word XMC_USBH_PipeDelete
 1975 0034 00000000 	 .word XMC_USBH_PipeReset
 1976 0038 00000000 	 .word XMC_USBH_PipeTransfer
 1977 003c 00000000 	 .word XMC_USBH_PipeTransferGetResult
 1978 0040 00000000 	 .word XMC_USBH_PipeTransferAbort
 1979 0044 00000000 	 .word XMC_USBH_GetFrameNumber
 1980              	 .ident "GCC: (GNU Tools for ARM Embedded Processors) 4.9.3 20141119 (release) [ARM/embedded-4_9-branch revision 218278]"
DEFINED SYMBOLS
                            *ABS*:00000000 xmc_usbh.c
    {standard input}:17     .text.XMC_USBH_GetVersion:00000000 $t
    {standard input}:21     .text.XMC_USBH_GetVersion:00000000 XMC_USBH_GetVersion
    {standard input}:39     .text.XMC_USBH_GetVersion:00000018 $d
    {standard input}:42     .text.XMC_USBH_GetCapabilities:00000000 $t
    {standard input}:46     .text.XMC_USBH_GetCapabilities:00000000 XMC_USBH_GetCapabilities
    {standard input}:59     .text.XMC_USBH_PortSuspend:00000000 $t
    {standard input}:63     .text.XMC_USBH_PortSuspend:00000000 XMC_USBH_PortSuspend
    {standard input}:89     .text.XMC_USBH_PortSuspend:00000034 $d
    {standard input}:92     .text.XMC_USBH_PortGetState:00000000 $t
    {standard input}:96     .text.XMC_USBH_PortGetState:00000000 XMC_USBH_PortGetState
    {standard input}:125    .text.XMC_USBH_PortGetState:00000038 $d
    {standard input}:128    .text.XMC_USBH_PipeModify:00000000 $t
    {standard input}:132    .text.XMC_USBH_PipeModify:00000000 XMC_USBH_PipeModify
    {standard input}:176    .text.XMC_USBH_PipeModify:00000054 $d
                            *COM*:000001c0 pipe
    {standard input}:181    .text.XMC_USBH_PipeReset:00000000 $t
    {standard input}:185    .text.XMC_USBH_PipeReset:00000000 XMC_USBH_PipeReset
    {standard input}:219    .text.XMC_USBH_PipeReset:0000003c $d
    {standard input}:223    .text.XMC_USBH_PipeDelete:00000000 $t
    {standard input}:227    .text.XMC_USBH_PipeDelete:00000000 XMC_USBH_PipeDelete
    {standard input}:265    .text.XMC_USBH_PipeDelete:00000048 $d
    {standard input}:269    .text.XMC_USBH_PipeCreate:00000000 $t
    {standard input}:273    .text.XMC_USBH_PipeCreate:00000000 XMC_USBH_PipeCreate
    {standard input}:413    .text.XMC_USBH_PipeCreate:00000194 $d
    {standard input}:417    .text.XMC_USBH_PipeTransferGetResult:00000000 $t
    {standard input}:421    .text.XMC_USBH_PipeTransferGetResult:00000000 XMC_USBH_PipeTransferGetResult
    {standard input}:438    .text.XMC_USBH_PipeTransferGetResult:00000014 $d
    {standard input}:442    .text.XMC_USBH_GetFrameNumber:00000000 $t
    {standard input}:446    .text.XMC_USBH_GetFrameNumber:00000000 XMC_USBH_GetFrameNumber
    {standard input}:461    .text.XMC_USBH_GetFrameNumber:00000014 $d
    {standard input}:464    .text.XMC_USBH_PortVbusOnOff:00000000 $t
    {standard input}:468    .text.XMC_USBH_PortVbusOnOff:00000000 XMC_USBH_PortVbusOnOff
    {standard input}:507    .text.XMC_USBH_PortVbusOnOff:00000050 $d
    {standard input}:512    .text.XMC_USBH_Initialize:00000000 $t
    {standard input}:516    .text.XMC_USBH_Initialize:00000000 XMC_USBH_Initialize
    {standard input}:571    .text.XMC_USBH_Initialize:0000008c $d
    {standard input}:587    .text.XMC_USBH_Uninitialize:00000000 $t
    {standard input}:591    .text.XMC_USBH_Uninitialize:00000000 XMC_USBH_Uninitialize
    {standard input}:634    .text.XMC_USBH_Uninitialize:0000005c $d
    {standard input}:640    .text.XMC_USBH_PipeTransfer:00000000 $t
    {standard input}:644    .text.XMC_USBH_PipeTransfer:00000000 XMC_USBH_PipeTransfer
    {standard input}:724    .text.XMC_USBH_PipeTransfer:000000de $d
    {standard input}:728    .text.XMC_USBH_PipeTransfer:000000e2 $t
    {standard input}:847    .text.XMC_USBH_PipeTransfer:000001ec $d
    {standard input}:853    .text.XMC_USBH_HandleIrq:00000000 $t
    {standard input}:858    .text.XMC_USBH_HandleIrq:00000000 XMC_USBH_HandleIrq
    {standard input}:1193   .text.XMC_USBH_HandleIrq:0000032c $d
                            *COM*:0000000e is_nack
    {standard input}:1199   .text.XMC_USBH_HandleIrq:00000340 $t
    {standard input}:1248   .text.XMC_USBH_HandleIrq:000003d6 $d
    {standard input}:1252   .text.XMC_USBH_HandleIrq:000003da $t
    {standard input}:1512   .text.XMC_USBH_HandleIrq:00000644 $d
    {standard input}:1518   .text.XMC_USBH_GetInterruptStatus:00000000 $t
    {standard input}:1523   .text.XMC_USBH_GetInterruptStatus:00000000 XMC_USBH_GetInterruptStatus
    {standard input}:1534   .text.XMC_USBH_GetInterruptStatus:00000008 $d
    {standard input}:1537   .text.XMC_USBH_Select_VBUS:00000000 $t
    {standard input}:1542   .text.XMC_USBH_Select_VBUS:00000000 XMC_USBH_Select_VBUS
    {standard input}:1556   .text.XMC_USBH_Select_VBUS:00000010 $d
    {standard input}:1560   .text.XMC_USBH_TurnOffResumeBit:00000000 $t
    {standard input}:1565   .text.XMC_USBH_TurnOffResumeBit:00000000 XMC_USBH_TurnOffResumeBit
    {standard input}:1578   .text.XMC_USBH_TurnOffResumeBit:00000014 $d
    {standard input}:1581   .text.XMC_USBH_osDelay:00000000 $t
    {standard input}:1586   .text.XMC_USBH_osDelay:00000000 XMC_USBH_osDelay
    {standard input}:1594   .text.XMC_USBH_PipeTransferAbort:00000000 $t
    {standard input}:1598   .text.XMC_USBH_PipeTransferAbort:00000000 XMC_USBH_PipeTransferAbort
    {standard input}:1660   .text.XMC_USBH_PipeTransferAbort:0000007c $d
    {standard input}:1664   .text.XMC_USBH_PortResume:00000000 $t
    {standard input}:1668   .text.XMC_USBH_PortResume:00000000 XMC_USBH_PortResume
    {standard input}:1701   .text.XMC_USBH_PortResume:0000004c $d
    {standard input}:1704   .text.XMC_USBH_PortReset:00000000 $t
    {standard input}:1708   .text.XMC_USBH_PortReset:00000000 XMC_USBH_PortReset
    {standard input}:1755   .text.XMC_USBH_PortReset:00000068 $d
    {standard input}:1758   .text.XMC_USBH_PowerControl:00000000 $t
    {standard input}:1762   .text.XMC_USBH_PowerControl:00000000 XMC_USBH_PowerControl
    {standard input}:1901   .text.XMC_USBH_PowerControl:00000154 $d
    {standard input}:1961   .rodata.Driver_USBH0:00000000 Driver_USBH0
    {standard input}:1940   .data.VBUS_pin:00000000 VBUS_pin
    {standard input}:1947   .data.VBUS_port:00000000 VBUS_port
    {standard input}:1915   .data.XMC_USBH0_device:00000000 $d
    {standard input}:1919   .data.XMC_USBH0_device:00000000 XMC_USBH0_device
    {standard input}:1929   .bss.XMC_USBH0_dfifo_ptr:00000000 $d
    {standard input}:1933   .bss.XMC_USBH0_dfifo_ptr:00000000 XMC_USBH0_dfifo_ptr
    {standard input}:1936   .data.VBUS_pin:00000000 $d
    {standard input}:1943   .data.VBUS_port:00000000 $d
    {standard input}:1950   .rodata.xmc_usbh_driver_version:00000000 $d
    {standard input}:1954   .rodata.xmc_usbh_driver_version:00000000 xmc_usbh_driver_version
    {standard input}:1958   .rodata.Driver_USBH0:00000000 $d

UNDEFINED SYMBOLS
memset
XMC_GPIO_SetMode
XMC_SCU_CLOCK_GatePeripheralClock
XMC_SCU_POWER_DisableUsb
XMC_SCU_RESET_AssertPeripheralReset
XMC_SCU_CLOCK_UngatePeripheralClock
XMC_SCU_RESET_DeassertPeripheralReset
XMC_SCU_POWER_EnableUsb
