   1              	 .syntax unified
   2              	 .cpu cortex-m4
   3              	 .eabi_attribute 27,3
   4              	 .fpu fpv4-sp-d16
   5              	 .eabi_attribute 20,1
   6              	 .eabi_attribute 21,1
   7              	 .eabi_attribute 23,3
   8              	 .eabi_attribute 24,1
   9              	 .eabi_attribute 25,1
  10              	 .eabi_attribute 26,1
  11              	 .eabi_attribute 30,2
  12              	 .eabi_attribute 34,1
  13              	 .eabi_attribute 18,4
  14              	 .thumb
  15              	 .file "xmc_eru.c"
  16              	 .section .text.XMC_ERU_ETL_Init,"ax",%progbits
  17              	 .align 2
  18              	 .global XMC_ERU_ETL_Init
  19              	 .thumb
  20              	 .thumb_func
  22              	XMC_ERU_ETL_Init:
  23              	 
  24              	 
  25 0000 70B5     	 push {r4,r5,r6,lr}
  26 0002 1646     	 mov r6,r2
  27 0004 0546     	 mov r5,r0
  28 0006 0C46     	 mov r4,r1
  29 0008 FFF7FEFF 	 bl XMC_ERU_Enable
  30 000c A200     	 lsls r2,r4,#2
  31 000e 2868     	 ldr r0,[r5]
  32 0010 3368     	 ldr r3,[r6]
  33 0012 0F21     	 movs r1,#15
  34 0014 9140     	 lsls r1,r1,r2
  35 0016 20EA0101 	 bic r1,r0,r1
  36 001a 9340     	 lsls r3,r3,r2
  37 001c 0B43     	 orrs r3,r3,r1
  38 001e 2B60     	 str r3,[r5]
  39 0020 0434     	 adds r4,r4,#4
  40 0022 7368     	 ldr r3,[r6,#4]
  41 0024 45F82430 	 str r3,[r5,r4,lsl#2]
  42 0028 70BD     	 pop {r4,r5,r6,pc}
  44 002a 00BF     	 .section .text.XMC_ERU_OGU_Init,"ax",%progbits
  45              	 .align 2
  46              	 .global XMC_ERU_OGU_Init
  47              	 .thumb
  48              	 .thumb_func
  50              	XMC_ERU_OGU_Init:
  51              	 
  52              	 
  53 0000 70B5     	 push {r4,r5,r6,lr}
  54 0002 0C46     	 mov r4,r1
  55 0004 1646     	 mov r6,r2
  56 0006 0546     	 mov r5,r0
  57 0008 0834     	 adds r4,r4,#8
  58 000a FFF7FEFF 	 bl XMC_ERU_Enable
  59 000e 3368     	 ldr r3,[r6]
  60 0010 45F82430 	 str r3,[r5,r4,lsl#2]
  61 0014 70BD     	 pop {r4,r5,r6,pc}
  63 0016 00BF     	 .section .text.XMC_ERU_ETL_SetInput,"ax",%progbits
  64              	 .align 2
  65              	 .global XMC_ERU_ETL_SetInput
  66              	 .thumb
  67              	 .thumb_func
  69              	XMC_ERU_ETL_SetInput:
  70              	 
  71              	 
  72              	 
  73 0000 30B4     	 push {r4,r5}
  74 0002 8900     	 lsls r1,r1,#2
  75 0004 0468     	 ldr r4,[r0]
  76 0006 0F25     	 movs r5,#15
  77 0008 42EA8303 	 orr r3,r2,r3,lsl#2
  78 000c 8D40     	 lsls r5,r5,r1
  79 000e 03FA01F2 	 lsl r2,r3,r1
  80 0012 24EA0503 	 bic r3,r4,r5
  81 0016 1343     	 orrs r3,r3,r2
  82 0018 0360     	 str r3,[r0]
  83 001a 30BC     	 pop {r4,r5}
  84 001c 7047     	 bx lr
  86 001e 00BF     	 .section .text.XMC_ERU_ETL_SetSource,"ax",%progbits
  87              	 .align 2
  88              	 .global XMC_ERU_ETL_SetSource
  89              	 .thumb
  90              	 .thumb_func
  92              	XMC_ERU_ETL_SetSource:
  93              	 
  94              	 
  95              	 
  96 0000 0431     	 adds r1,r1,#4
  97 0002 02F00F02 	 and r2,r2,#15
  98 0006 50F82130 	 ldr r3,[r0,r1,lsl#2]
  99 000a 23F47063 	 bic r3,r3,#3840
 100 000e 43EA0222 	 orr r2,r3,r2,lsl#8
 101 0012 40F82120 	 str r2,[r0,r1,lsl#2]
 102 0016 7047     	 bx lr
 104              	 .section .text.XMC_ERU_ETL_SetEdgeDetection,"ax",%progbits
 105              	 .align 2
 106              	 .global XMC_ERU_ETL_SetEdgeDetection
 107              	 .thumb
 108              	 .thumb_func
 110              	XMC_ERU_ETL_SetEdgeDetection:
 111              	 
 112              	 
 113              	 
 114 0000 0431     	 adds r1,r1,#4
 115 0002 02F00302 	 and r2,r2,#3
 116 0006 50F82130 	 ldr r3,[r0,r1,lsl#2]
 117 000a 23F00C03 	 bic r3,r3,#12
 118 000e 43EA8202 	 orr r2,r3,r2,lsl#2
 119 0012 40F82120 	 str r2,[r0,r1,lsl#2]
 120 0016 7047     	 bx lr
 122              	 .section .text.XMC_ERU_ETL_GetEdgeDetection,"ax",%progbits
 123              	 .align 2
 124              	 .global XMC_ERU_ETL_GetEdgeDetection
 125              	 .thumb
 126              	 .thumb_func
 128              	XMC_ERU_ETL_GetEdgeDetection:
 129              	 
 130              	 
 131              	 
 132 0000 0431     	 adds r1,r1,#4
 133 0002 50F82100 	 ldr r0,[r0,r1,lsl#2]
 134 0006 C0F38100 	 ubfx r0,r0,#2,#2
 135 000a 7047     	 bx lr
 137              	 .section .text.XMC_ERU_ETL_SetStatusFlagMode,"ax",%progbits
 138              	 .align 2
 139              	 .global XMC_ERU_ETL_SetStatusFlagMode
 140              	 .thumb
 141              	 .thumb_func
 143              	XMC_ERU_ETL_SetStatusFlagMode:
 144              	 
 145              	 
 146              	 
 147 0000 0431     	 adds r1,r1,#4
 148 0002 02F00102 	 and r2,r2,#1
 149 0006 50F82130 	 ldr r3,[r0,r1,lsl#2]
 150 000a 23F00203 	 bic r3,r3,#2
 151 000e 43EA4202 	 orr r2,r3,r2,lsl#1
 152 0012 40F82120 	 str r2,[r0,r1,lsl#2]
 153 0016 7047     	 bx lr
 155              	 .section .text.XMC_ERU_ETL_EnableOutputTrigger,"ax",%progbits
 156              	 .align 2
 157              	 .global XMC_ERU_ETL_EnableOutputTrigger
 158              	 .thumb
 159              	 .thumb_func
 161              	XMC_ERU_ETL_EnableOutputTrigger:
 162              	 
 163              	 
 164              	 
 165 0000 0431     	 adds r1,r1,#4
 166 0002 02F00702 	 and r2,r2,#7
 167 0006 50F82130 	 ldr r3,[r0,r1,lsl#2]
 168 000a 23F07003 	 bic r3,r3,#112
 169 000e 43EA0212 	 orr r2,r3,r2,lsl#4
 170 0012 40F82120 	 str r2,[r0,r1,lsl#2]
 171 0016 50F82130 	 ldr r3,[r0,r1,lsl#2]
 172 001a 43F00103 	 orr r3,r3,#1
 173 001e 40F82130 	 str r3,[r0,r1,lsl#2]
 174 0022 7047     	 bx lr
 176              	 .section .text.XMC_ERU_ETL_DisableOutputTrigger,"ax",%progbits
 177              	 .align 2
 178              	 .global XMC_ERU_ETL_DisableOutputTrigger
 179              	 .thumb
 180              	 .thumb_func
 182              	XMC_ERU_ETL_DisableOutputTrigger:
 183              	 
 184              	 
 185              	 
 186 0000 0431     	 adds r1,r1,#4
 187 0002 50F82130 	 ldr r3,[r0,r1,lsl#2]
 188 0006 23F00103 	 bic r3,r3,#1
 189 000a 40F82130 	 str r3,[r0,r1,lsl#2]
 190 000e 7047     	 bx lr
 192              	 .section .text.XMC_ERU_OGU_EnablePatternDetection,"ax",%progbits
 193              	 .align 2
 194              	 .global XMC_ERU_OGU_EnablePatternDetection
 195              	 .thumb
 196              	 .thumb_func
 198              	XMC_ERU_OGU_EnablePatternDetection:
 199              	 
 200              	 
 201              	 
 202 0000 0831     	 adds r1,r1,#8
 203 0002 02F00F02 	 and r2,r2,#15
 204 0006 50F82130 	 ldr r3,[r0,r1,lsl#2]
 205 000a 23F47043 	 bic r3,r3,#61440
 206 000e 43EA0232 	 orr r2,r3,r2,lsl#12
 207 0012 40F82120 	 str r2,[r0,r1,lsl#2]
 208 0016 50F82130 	 ldr r3,[r0,r1,lsl#2]
 209 001a 43F00403 	 orr r3,r3,#4
 210 001e 40F82130 	 str r3,[r0,r1,lsl#2]
 211 0022 7047     	 bx lr
 213              	 .section .text.XMC_ERU_OGU_DisablePatternDetection,"ax",%progbits
 214              	 .align 2
 215              	 .global XMC_ERU_OGU_DisablePatternDetection
 216              	 .thumb
 217              	 .thumb_func
 219              	XMC_ERU_OGU_DisablePatternDetection:
 220              	 
 221              	 
 222              	 
 223 0000 0831     	 adds r1,r1,#8
 224 0002 50F82130 	 ldr r3,[r0,r1,lsl#2]
 225 0006 23F00403 	 bic r3,r3,#4
 226 000a 40F82130 	 str r3,[r0,r1,lsl#2]
 227 000e 7047     	 bx lr
 229              	 .section .text.XMC_ERU_OGU_EnablePeripheralTrigger,"ax",%progbits
 230              	 .align 2
 231              	 .global XMC_ERU_OGU_EnablePeripheralTrigger
 232              	 .thumb
 233              	 .thumb_func
 235              	XMC_ERU_OGU_EnablePeripheralTrigger:
 236              	 
 237              	 
 238              	 
 239 0000 0831     	 adds r1,r1,#8
 240 0002 02F00302 	 and r2,r2,#3
 241 0006 50F82130 	 ldr r3,[r0,r1,lsl#2]
 242 000a 23F00303 	 bic r3,r3,#3
 243 000e 1A43     	 orrs r2,r2,r3
 244 0010 40F82120 	 str r2,[r0,r1,lsl#2]
 245 0014 7047     	 bx lr
 247 0016 00BF     	 .section .text.XMC_ERU_OGU_DisablePeripheralTrigger,"ax",%progbits
 248              	 .align 2
 249              	 .global XMC_ERU_OGU_DisablePeripheralTrigger
 250              	 .thumb
 251              	 .thumb_func
 253              	XMC_ERU_OGU_DisablePeripheralTrigger:
 254              	 
 255              	 
 256              	 
 257 0000 0831     	 adds r1,r1,#8
 258 0002 50F82130 	 ldr r3,[r0,r1,lsl#2]
 259 0006 23F00303 	 bic r3,r3,#3
 260 000a 40F82130 	 str r3,[r0,r1,lsl#2]
 261 000e 7047     	 bx lr
 263              	 .section .text.XMC_ERU_OGU_SetServiceRequestMode,"ax",%progbits
 264              	 .align 2
 265              	 .global XMC_ERU_OGU_SetServiceRequestMode
 266              	 .thumb
 267              	 .thumb_func
 269              	XMC_ERU_OGU_SetServiceRequestMode:
 270              	 
 271              	 
 272              	 
 273 0000 0831     	 adds r1,r1,#8
 274 0002 02F00302 	 and r2,r2,#3
 275 0006 50F82130 	 ldr r3,[r0,r1,lsl#2]
 276 000a 23F03003 	 bic r3,r3,#48
 277 000e 43EA0212 	 orr r2,r3,r2,lsl#4
 278 0012 40F82120 	 str r2,[r0,r1,lsl#2]
 279 0016 7047     	 bx lr
 281              	 .ident "GCC: (GNU Tools for ARM Embedded Processors) 4.9.3 20141119 (release) [ARM/embedded-4_9-branch revision 218278]"
DEFINED SYMBOLS
                            *ABS*:00000000 xmc_eru.c
    {standard input}:17     .text.XMC_ERU_ETL_Init:00000000 $t
    {standard input}:22     .text.XMC_ERU_ETL_Init:00000000 XMC_ERU_ETL_Init
    {standard input}:45     .text.XMC_ERU_OGU_Init:00000000 $t
    {standard input}:50     .text.XMC_ERU_OGU_Init:00000000 XMC_ERU_OGU_Init
    {standard input}:64     .text.XMC_ERU_ETL_SetInput:00000000 $t
    {standard input}:69     .text.XMC_ERU_ETL_SetInput:00000000 XMC_ERU_ETL_SetInput
    {standard input}:87     .text.XMC_ERU_ETL_SetSource:00000000 $t
    {standard input}:92     .text.XMC_ERU_ETL_SetSource:00000000 XMC_ERU_ETL_SetSource
    {standard input}:105    .text.XMC_ERU_ETL_SetEdgeDetection:00000000 $t
    {standard input}:110    .text.XMC_ERU_ETL_SetEdgeDetection:00000000 XMC_ERU_ETL_SetEdgeDetection
    {standard input}:123    .text.XMC_ERU_ETL_GetEdgeDetection:00000000 $t
    {standard input}:128    .text.XMC_ERU_ETL_GetEdgeDetection:00000000 XMC_ERU_ETL_GetEdgeDetection
    {standard input}:138    .text.XMC_ERU_ETL_SetStatusFlagMode:00000000 $t
    {standard input}:143    .text.XMC_ERU_ETL_SetStatusFlagMode:00000000 XMC_ERU_ETL_SetStatusFlagMode
    {standard input}:156    .text.XMC_ERU_ETL_EnableOutputTrigger:00000000 $t
    {standard input}:161    .text.XMC_ERU_ETL_EnableOutputTrigger:00000000 XMC_ERU_ETL_EnableOutputTrigger
    {standard input}:177    .text.XMC_ERU_ETL_DisableOutputTrigger:00000000 $t
    {standard input}:182    .text.XMC_ERU_ETL_DisableOutputTrigger:00000000 XMC_ERU_ETL_DisableOutputTrigger
    {standard input}:193    .text.XMC_ERU_OGU_EnablePatternDetection:00000000 $t
    {standard input}:198    .text.XMC_ERU_OGU_EnablePatternDetection:00000000 XMC_ERU_OGU_EnablePatternDetection
    {standard input}:214    .text.XMC_ERU_OGU_DisablePatternDetection:00000000 $t
    {standard input}:219    .text.XMC_ERU_OGU_DisablePatternDetection:00000000 XMC_ERU_OGU_DisablePatternDetection
    {standard input}:230    .text.XMC_ERU_OGU_EnablePeripheralTrigger:00000000 $t
    {standard input}:235    .text.XMC_ERU_OGU_EnablePeripheralTrigger:00000000 XMC_ERU_OGU_EnablePeripheralTrigger
    {standard input}:248    .text.XMC_ERU_OGU_DisablePeripheralTrigger:00000000 $t
    {standard input}:253    .text.XMC_ERU_OGU_DisablePeripheralTrigger:00000000 XMC_ERU_OGU_DisablePeripheralTrigger
    {standard input}:264    .text.XMC_ERU_OGU_SetServiceRequestMode:00000000 $t
    {standard input}:269    .text.XMC_ERU_OGU_SetServiceRequestMode:00000000 XMC_ERU_OGU_SetServiceRequestMode

UNDEFINED SYMBOLS
XMC_ERU_Enable
