   1              	 .syntax unified
   2              	 .cpu cortex-m4
   3              	 .eabi_attribute 27,3
   4              	 .fpu fpv4-sp-d16
   5              	 .eabi_attribute 20,1
   6              	 .eabi_attribute 21,1
   7              	 .eabi_attribute 23,3
   8              	 .eabi_attribute 24,1
   9              	 .eabi_attribute 25,1
  10              	 .eabi_attribute 26,1
  11              	 .eabi_attribute 30,2
  12              	 .eabi_attribute 34,1
  13              	 .eabi_attribute 18,4
  14              	 .thumb
  15              	 .file "xmc_common.c"
  16              	 .section .text.XMC_LIST_Init,"ax",%progbits
  17              	 .align 2
  18              	 .global XMC_LIST_Init
  19              	 .thumb
  20              	 .thumb_func
  22              	XMC_LIST_Init:
  23              	 
  24              	 
  25              	 
  26 0000 0023     	 movs r3,#0
  27 0002 0360     	 str r3,[r0]
  28 0004 7047     	 bx lr
  30 0006 00BF     	 .section .text.XMC_LIST_GetHead,"ax",%progbits
  31              	 .align 2
  32              	 .global XMC_LIST_GetHead
  33              	 .thumb
  34              	 .thumb_func
  36              	XMC_LIST_GetHead:
  37              	 
  38              	 
  39              	 
  40 0000 0068     	 ldr r0,[r0]
  41 0002 7047     	 bx lr
  43              	 .section .text.XMC_LIST_GetTail,"ax",%progbits
  44              	 .align 2
  45              	 .global XMC_LIST_GetTail
  46              	 .thumb
  47              	 .thumb_func
  49              	XMC_LIST_GetTail:
  50              	 
  51              	 
  52              	 
  53 0000 0068     	 ldr r0,[r0]
  54 0002 08B9     	 cbnz r0,.L5
  55 0004 04E0     	 b .L11
  56              	.L6:
  57 0006 1846     	 mov r0,r3
  58              	.L5:
  59 0008 0368     	 ldr r3,[r0]
  60 000a 002B     	 cmp r3,#0
  61 000c FBD1     	 bne .L6
  62 000e 7047     	 bx lr
  63              	.L11:
  64 0010 7047     	 bx lr
  66 0012 00BF     	 .section .text.XMC_LIST_Add,"ax",%progbits
  67              	 .align 2
  68              	 .global XMC_LIST_Add
  69              	 .thumb
  70              	 .thumb_func
  72              	XMC_LIST_Add:
  73              	 
  74              	 
  75              	 
  76 0000 0023     	 movs r3,#0
  77 0002 0B60     	 str r3,[r1]
  78 0004 0268     	 ldr r2,[r0]
  79 0006 0AB9     	 cbnz r2,.L14
  80 0008 05E0     	 b .L21
  81              	.L17:
  82 000a 1A46     	 mov r2,r3
  83              	.L14:
  84 000c 1368     	 ldr r3,[r2]
  85 000e 002B     	 cmp r3,#0
  86 0010 FBD1     	 bne .L17
  87 0012 1160     	 str r1,[r2]
  88 0014 7047     	 bx lr
  89              	.L21:
  90 0016 0160     	 str r1,[r0]
  91 0018 7047     	 bx lr
  93 001a 00BF     	 .section .text.XMC_LIST_Remove,"ax",%progbits
  94              	 .align 2
  95              	 .global XMC_LIST_Remove
  96              	 .thumb
  97              	 .thumb_func
  99              	XMC_LIST_Remove:
 100              	 
 101              	 
 102              	 
 103 0000 0268     	 ldr r2,[r0]
 104 0002 42B1     	 cbz r2,.L22
 105 0004 8A42     	 cmp r2,r1
 106 0006 03D1     	 bne .L26
 107 0008 0BE0     	 b .L34
 108              	.L28:
 109 000a 9942     	 cmp r1,r3
 110 000c 04D0     	 beq .L35
 111 000e 1A46     	 mov r2,r3
 112              	.L26:
 113 0010 1368     	 ldr r3,[r2]
 114 0012 002B     	 cmp r3,#0
 115 0014 F9D1     	 bne .L28
 116              	.L22:
 117 0016 7047     	 bx lr
 118              	.L35:
 119 0018 1968     	 ldr r1,[r3]
 120 001a 1160     	 str r1,[r2]
 121              	.L27:
 122 001c 0022     	 movs r2,#0
 123 001e 1A60     	 str r2,[r3]
 124 0020 7047     	 bx lr
 125              	.L34:
 126 0022 1346     	 mov r3,r2
 127 0024 1268     	 ldr r2,[r2]
 128 0026 0260     	 str r2,[r0]
 129 0028 F8E7     	 b .L27
 131 002a 00BF     	 .section .text.XMC_LIST_Insert,"ax",%progbits
 132              	 .align 2
 133              	 .global XMC_LIST_Insert
 134              	 .thumb
 135              	 .thumb_func
 137              	XMC_LIST_Insert:
 138              	 
 139              	 
 140              	 
 141 0000 19B1     	 cbz r1,.L39
 142 0002 0B68     	 ldr r3,[r1]
 143 0004 1360     	 str r3,[r2]
 144 0006 0A60     	 str r2,[r1]
 145 0008 7047     	 bx lr
 146              	.L39:
 147 000a 0368     	 ldr r3,[r0]
 148 000c 1360     	 str r3,[r2]
 149 000e 0260     	 str r2,[r0]
 150 0010 7047     	 bx lr
 152 0012 00BF     	 .section .text.XMC_PRIOARRAY_Init,"ax",%progbits
 153              	 .align 2
 154              	 .global XMC_PRIOARRAY_Init
 155              	 .thumb
 156              	 .thumb_func
 158              	XMC_PRIOARRAY_Init:
 159              	 
 160              	 
 161 0000 90E80600 	 ldmia r0,{r1,r2}
 162 0004 F0B5     	 push {r4,r5,r6,r7,lr}
 163 0006 01EB4103 	 add r3,r1,r1,lsl#1
 164 000a 9B00     	 lsls r3,r3,#2
 165 000c 03F10C00 	 add r0,r3,#12
 166 0010 D618     	 adds r6,r2,r3
 167 0012 1418     	 adds r4,r2,r0
 168 0014 4FF0FF35 	 mov r5,#-1
 169 0018 01F1010C 	 add ip,r1,#1
 170 001c 6FF0004E 	 mvn lr,#-2147483648
 171 0020 4FF00047 	 mov r7,#-2147483648
 172 0024 C6F808C0 	 str ip,[r6,#8]
 173 0028 7560     	 str r5,[r6,#4]
 174 002a 42F803E0 	 str lr,[r2,r3]
 175 002e 6160     	 str r1,[r4,#4]
 176 0030 A560     	 str r5,[r4,#8]
 177 0032 1750     	 str r7,[r2,r0]
 178 0034 F0BD     	 pop {r4,r5,r6,r7,pc}
 180 0036 00BF     	 .section .text.XMC_PRIOARRAY_Add,"ax",%progbits
 181              	 .align 2
 182              	 .global XMC_PRIOARRAY_Add
 183              	 .thumb
 184              	 .thumb_func
 186              	XMC_PRIOARRAY_Add:
 187              	 
 188              	 
 189 0000 F0B5     	 push {r4,r5,r6,r7,lr}
 190 0002 90E81800 	 ldmia r0,{r3,r4}
 191 0006 03EB4303 	 add r3,r3,r3,lsl#1
 192 000a 04EB8303 	 add r3,r4,r3,lsl#2
 193 000e 9B68     	 ldr r3,[r3,#8]
 194 0010 03EB4300 	 add r0,r3,r3,lsl#1
 195 0014 8000     	 lsls r0,r0,#2
 196 0016 2518     	 adds r5,r4,r0
 197 0018 2058     	 ldr r0,[r4,r0]
 198 001a 8242     	 cmp r2,r0
 199 001c 08DA     	 bge .L43
 200              	.L44:
 201 001e AB68     	 ldr r3,[r5,#8]
 202 0020 03EB4300 	 add r0,r3,r3,lsl#1
 203 0024 04EB8005 	 add r5,r4,r0,lsl#2
 204 0028 54F82000 	 ldr r0,[r4,r0,lsl#2]
 205 002c 8242     	 cmp r2,r0
 206 002e F6DB     	 blt .L44
 207              	.L43:
 208 0030 6F68     	 ldr r7,[r5,#4]
 209 0032 01EB4100 	 add r0,r1,r1,lsl#1
 210 0036 8000     	 lsls r0,r0,#2
 211 0038 07EB4706 	 add r6,r7,r7,lsl#1
 212 003c 04EB000E 	 add lr,r4,r0
 213 0040 04EB8606 	 add r6,r4,r6,lsl#2
 214 0044 CEF80830 	 str r3,[lr,#8]
 215 0048 CEF80470 	 str r7,[lr,#4]
 216 004c 2250     	 str r2,[r4,r0]
 217 004e B160     	 str r1,[r6,#8]
 218 0050 6960     	 str r1,[r5,#4]
 219 0052 F0BD     	 pop {r4,r5,r6,r7,pc}
 221              	 .section .text.XMC_PRIOARRAY_Remove,"ax",%progbits
 222              	 .align 2
 223              	 .global XMC_PRIOARRAY_Remove
 224              	 .thumb
 225              	 .thumb_func
 227              	XMC_PRIOARRAY_Remove:
 228              	 
 229              	 
 230              	 
 231 0000 4368     	 ldr r3,[r0,#4]
 232 0002 01EB4101 	 add r1,r1,r1,lsl#1
 233 0006 03EB8101 	 add r1,r3,r1,lsl#2
 234 000a 10B4     	 push {r4}
 235 000c 8868     	 ldr r0,[r1,#8]
 236 000e 4A68     	 ldr r2,[r1,#4]
 237 0010 00EB4004 	 add r4,r0,r0,lsl#1
 238 0014 02EB4201 	 add r1,r2,r2,lsl#1
 239 0018 03EB8101 	 add r1,r3,r1,lsl#2
 240 001c 03EB8403 	 add r3,r3,r4,lsl#2
 241 0020 8860     	 str r0,[r1,#8]
 242 0022 5DF8044B 	 ldr r4,[sp],#4
 243 0026 5A60     	 str r2,[r3,#4]
 244 0028 7047     	 bx lr
 246 002a 00BF     	 .ident "GCC: (GNU Tools for ARM Embedded Processors) 4.9.3 20141119 (release) [ARM/embedded-4_9-branch revision 218278]"
DEFINED SYMBOLS
                            *ABS*:00000000 xmc_common.c
    {standard input}:17     .text.XMC_LIST_Init:00000000 $t
    {standard input}:22     .text.XMC_LIST_Init:00000000 XMC_LIST_Init
    {standard input}:31     .text.XMC_LIST_GetHead:00000000 $t
    {standard input}:36     .text.XMC_LIST_GetHead:00000000 XMC_LIST_GetHead
    {standard input}:44     .text.XMC_LIST_GetTail:00000000 $t
    {standard input}:49     .text.XMC_LIST_GetTail:00000000 XMC_LIST_GetTail
    {standard input}:67     .text.XMC_LIST_Add:00000000 $t
    {standard input}:72     .text.XMC_LIST_Add:00000000 XMC_LIST_Add
    {standard input}:94     .text.XMC_LIST_Remove:00000000 $t
    {standard input}:99     .text.XMC_LIST_Remove:00000000 XMC_LIST_Remove
    {standard input}:132    .text.XMC_LIST_Insert:00000000 $t
    {standard input}:137    .text.XMC_LIST_Insert:00000000 XMC_LIST_Insert
    {standard input}:153    .text.XMC_PRIOARRAY_Init:00000000 $t
    {standard input}:158    .text.XMC_PRIOARRAY_Init:00000000 XMC_PRIOARRAY_Init
    {standard input}:181    .text.XMC_PRIOARRAY_Add:00000000 $t
    {standard input}:186    .text.XMC_PRIOARRAY_Add:00000000 XMC_PRIOARRAY_Add
    {standard input}:222    .text.XMC_PRIOARRAY_Remove:00000000 $t
    {standard input}:227    .text.XMC_PRIOARRAY_Remove:00000000 XMC_PRIOARRAY_Remove

NO UNDEFINED SYMBOLS
