   1              	 .syntax unified
   2              	 .cpu cortex-m4
   3              	 .eabi_attribute 27,3
   4              	 .fpu fpv4-sp-d16
   5              	 .eabi_attribute 20,1
   6              	 .eabi_attribute 21,1
   7              	 .eabi_attribute 23,3
   8              	 .eabi_attribute 24,1
   9              	 .eabi_attribute 25,1
  10              	 .eabi_attribute 26,1
  11              	 .eabi_attribute 30,2
  12              	 .eabi_attribute 34,1
  13              	 .eabi_attribute 18,4
  14              	 .thumb
  15              	 .file "xmc_usbd.c"
  16              	 .section .text.XMC_USBD_GetCapabilities,"ax",%progbits
  17              	 .align 2
  18              	 .global XMC_USBD_GetCapabilities
  19              	 .thumb
  20              	 .thumb_func
  22              	XMC_USBD_GetCapabilities:
  23              	 
  24              	 
  25              	 
  26 0000 0020     	 movs r0,#0
  27 0002 6FF30000 	 bfc r0,#0,#1
  28 0006 6FF34100 	 bfc r0,#1,#1
  29 000a 40F01C00 	 orr r0,r0,#28
  30 000e 6FF34510 	 bfc r0,#5,#1
  31 0012 40F4E070 	 orr r0,r0,#448
  32 0016 C0F30800 	 ubfx r0,r0,#0,#9
  33 001a 7047     	 bx lr
  35              	 .section .text.XMC_USBD_DeviceConnect,"ax",%progbits
  36              	 .align 2
  37              	 .global XMC_USBD_DeviceConnect
  38              	 .thumb
  39              	 .thumb_func
  41              	XMC_USBD_DeviceConnect:
  42              	 
  43              	 
  44              	 
  45 0000 044B     	 ldr r3,.L3
  46 0002 D3F8A421 	 ldr r2,[r3,#420]
  47 0006 5368     	 ldr r3,[r2,#4]
  48 0008 6FF34103 	 bfc r3,#1,#1
  49 000c 5360     	 str r3,[r2,#4]
  50 000e 0020     	 movs r0,#0
  51 0010 7047     	 bx lr
  52              	.L4:
  53 0012 00BF     	 .align 2
  54              	.L3:
  55 0014 00000000 	 .word xmc_device
  57              	 .section .text.XMC_USBD_DeviceDisconnect,"ax",%progbits
  58              	 .align 2
  59              	 .global XMC_USBD_DeviceDisconnect
  60              	 .thumb
  61              	 .thumb_func
  63              	XMC_USBD_DeviceDisconnect:
  64              	 
  65              	 
  66              	 
  67 0000 044B     	 ldr r3,.L6
  68 0002 D3F8A421 	 ldr r2,[r3,#420]
  69 0006 5368     	 ldr r3,[r2,#4]
  70 0008 43F00203 	 orr r3,r3,#2
  71 000c 5360     	 str r3,[r2,#4]
  72 000e 0020     	 movs r0,#0
  73 0010 7047     	 bx lr
  74              	.L7:
  75 0012 00BF     	 .align 2
  76              	.L6:
  77 0014 00000000 	 .word xmc_device
  79              	 .section .text.XMC_USBD_DeviceGetState,"ax",%progbits
  80              	 .align 2
  81              	 .global XMC_USBD_DeviceGetState
  82              	 .thumb
  83              	 .thumb_func
  85              	XMC_USBD_DeviceGetState:
  86              	 
  87              	 
  88              	 
  89 0000 444A     	 ldr r2,.L55
  90 0002 017B     	 ldrb r1,[r0,#12]
  91 0004 70B4     	 push {r4,r5,r6}
  92 0006 92F8FE41 	 ldrb r4,[r2,#510]
  93 000a 0020     	 movs r0,#0
  94 000c 04F00104 	 and r4,r4,#1
  95 0010 0029     	 cmp r1,#0
  96 0012 7CD0     	 beq .L19
  97 0014 5368     	 ldr r3,[r2,#4]
  98 0016 1E07     	 lsls r6,r3,#28
  99 0018 56BF     	 itet pl
 100 001a 5368     	 ldrpl r3,[r2,#4]
 101 001c 0123     	 movmi r3,#1
 102 001e C3F30013 	 ubfxpl r3,r3,#4,#1
 103 0022 0129     	 cmp r1,#1
 104 0024 54D9     	 bls .L11
 105 0026 956B     	 ldr r5,[r2,#56]
 106 0028 3A4E     	 ldr r6,.L55
 107 002a 2D07     	 lsls r5,r5,#28
 108 002c 61D4     	 bmi .L21
 109 002e B56B     	 ldr r5,[r6,#56]
 110 0030 15F0100F 	 tst r5,#16
 111 0034 18BF     	 it ne
 112 0036 0123     	 movne r3,#1
 113              	.L12:
 114 0038 0229     	 cmp r1,#2
 115 003a 49D0     	 beq .L11
 116 003c D56E     	 ldr r5,[r2,#108]
 117 003e 354E     	 ldr r6,.L55
 118 0040 2D07     	 lsls r5,r5,#28
 119 0042 62D4     	 bmi .L23
 120 0044 F56E     	 ldr r5,[r6,#108]
 121 0046 15F0100F 	 tst r5,#16
 122 004a 18BF     	 it ne
 123 004c 0123     	 movne r3,#1
 124              	.L13:
 125 004e 0329     	 cmp r1,#3
 126 0050 3ED0     	 beq .L11
 127 0052 D2F8A050 	 ldr r5,[r2,#160]
 128 0056 2F4E     	 ldr r6,.L55
 129 0058 2D07     	 lsls r5,r5,#28
 130 005a 54D4     	 bmi .L25
 131 005c D6F8A050 	 ldr r5,[r6,#160]
 132 0060 15F0100F 	 tst r5,#16
 133 0064 18BF     	 it ne
 134 0066 0123     	 movne r3,#1
 135              	.L14:
 136 0068 0429     	 cmp r1,#4
 137 006a 31D0     	 beq .L11
 138 006c D2F8D450 	 ldr r5,[r2,#212]
 139 0070 284E     	 ldr r6,.L55
 140 0072 2D07     	 lsls r5,r5,#28
 141 0074 45D4     	 bmi .L27
 142 0076 D6F8D450 	 ldr r5,[r6,#212]
 143 007a 15F0100F 	 tst r5,#16
 144 007e 18BF     	 it ne
 145 0080 0123     	 movne r3,#1
 146              	.L15:
 147 0082 0529     	 cmp r1,#5
 148 0084 24D0     	 beq .L11
 149 0086 D2F80851 	 ldr r5,[r2,#264]
 150 008a 224E     	 ldr r6,.L55
 151 008c 2D07     	 lsls r5,r5,#28
 152 008e 36D4     	 bmi .L29
 153 0090 D6F80851 	 ldr r5,[r6,#264]
 154 0094 15F0100F 	 tst r5,#16
 155 0098 18BF     	 it ne
 156 009a 0123     	 movne r3,#1
 157              	.L16:
 158 009c 0629     	 cmp r1,#6
 159 009e 17D0     	 beq .L11
 160 00a0 D2F83C51 	 ldr r5,[r2,#316]
 161 00a4 1B4E     	 ldr r6,.L55
 162 00a6 2D07     	 lsls r5,r5,#28
 163 00a8 27D4     	 bmi .L31
 164 00aa D6F83C51 	 ldr r5,[r6,#316]
 165 00ae 15F0100F 	 tst r5,#16
 166 00b2 18BF     	 it ne
 167 00b4 0123     	 movne r3,#1
 168              	.L17:
 169 00b6 0729     	 cmp r1,#7
 170 00b8 0AD0     	 beq .L11
 171 00ba D2F87011 	 ldr r1,[r2,#368]
 172 00be 154D     	 ldr r5,.L55
 173 00c0 0907     	 lsls r1,r1,#28
 174 00c2 18D4     	 bmi .L33
 175 00c4 D5F87011 	 ldr r1,[r5,#368]
 176 00c8 11F0100F 	 tst r1,#16
 177 00cc 18BF     	 it ne
 178 00ce 0123     	 movne r3,#1
 179              	.L11:
 180 00d0 03F00103 	 and r3,r3,#1
 181              	.L9:
 182 00d4 92F8FE21 	 ldrb r2,[r2,#510]
 183 00d8 C2F38002 	 ubfx r2,r2,#2,#1
 184 00dc 62F30000 	 bfi r0,r2,#0,#1
 185 00e0 64F34100 	 bfi r0,r4,#1,#1
 186 00e4 63F38200 	 bfi r0,r3,#2,#1
 187 00e8 0123     	 movs r3,#1
 188 00ea 63F3C400 	 bfi r0,r3,#3,#2
 189 00ee 70BC     	 pop {r4,r5,r6}
 190 00f0 7047     	 bx lr
 191              	.L21:
 192 00f2 0123     	 movs r3,#1
 193 00f4 A0E7     	 b .L12
 194              	.L33:
 195 00f6 0123     	 movs r3,#1
 196 00f8 EAE7     	 b .L11
 197              	.L31:
 198 00fa 0123     	 movs r3,#1
 199 00fc DBE7     	 b .L17
 200              	.L29:
 201 00fe 0123     	 movs r3,#1
 202 0100 CCE7     	 b .L16
 203              	.L27:
 204 0102 0123     	 movs r3,#1
 205 0104 BDE7     	 b .L15
 206              	.L25:
 207 0106 0123     	 movs r3,#1
 208 0108 AEE7     	 b .L14
 209              	.L23:
 210 010a 0123     	 movs r3,#1
 211 010c 9FE7     	 b .L13
 212              	.L19:
 213 010e 0346     	 mov r3,r0
 214 0110 E0E7     	 b .L9
 215              	.L56:
 216 0112 00BF     	 .align 2
 217              	.L55:
 218 0114 00000000 	 .word xmc_device
 220              	 .section .text.XMC_USBD_DeviceSetAddress,"ax",%progbits
 221              	 .align 2
 222              	 .global XMC_USBD_DeviceSetAddress
 223              	 .thumb
 224              	 .thumb_func
 226              	XMC_USBD_DeviceSetAddress:
 227              	 
 228              	 
 229              	 
 230 0000 044B     	 ldr r3,.L59
 231 0002 D3F8A431 	 ldr r3,[r3,#420]
 232 0006 1A68     	 ldr r2,[r3]
 233 0008 11B9     	 cbnz r1,.L58
 234 000a 60F30A12 	 bfi r2,r0,#4,#7
 235 000e 1A60     	 str r2,[r3]
 236              	.L58:
 237 0010 0020     	 movs r0,#0
 238 0012 7047     	 bx lr
 239              	.L60:
 240              	 .align 2
 241              	.L59:
 242 0014 00000000 	 .word xmc_device
 244              	 .section .text.XMC_USBD_EndpointStall,"ax",%progbits
 245              	 .align 2
 246              	 .global XMC_USBD_EndpointStall
 247              	 .thumb
 248              	 .thumb_func
 250              	XMC_USBD_EndpointStall:
 251              	 
 252              	 
 253              	 
 254 0000 00F00F02 	 and r2,r0,#15
 255 0004 E9B1     	 cbz r1,.L62
 256 0006 3423     	 movs r3,#52
 257 0008 10F0800F 	 tst r0,#128
 258 000c 03FB02F3 	 mul r3,r3,r2
 259 0010 1D48     	 ldr r0,.L69
 260 0012 C35C     	 ldrb r3,[r0,r3]
 261 0014 03F00F03 	 and r3,r3,#15
 262 0018 0BBF     	 itete eq
 263 001a 00EB8303 	 addeq r3,r0,r3,lsl#2
 264 001e 6A33     	 addne r3,r3,#106
 265 0020 D3F8C411 	 ldreq r1,[r3,#452]
 266 0024 50F82310 	 ldrne r1,[r0,r3,lsl#2]
 267 0028 0B68     	 ldr r3,[r1]
 268 002a 43F40013 	 orr r3,r3,#2097152
 269 002e 0B60     	 str r3,[r1]
 270 0030 3423     	 movs r3,#52
 271 0032 03FB0202 	 mla r2,r3,r2,r0
 272 0036 0020     	 movs r0,#0
 273 0038 1379     	 ldrb r3,[r2,#4]
 274 003a 43F02003 	 orr r3,r3,#32
 275 003e 1371     	 strb r3,[r2,#4]
 276 0040 7047     	 bx lr
 277              	.L62:
 278 0042 10B4     	 push {r4}
 279 0044 3423     	 movs r3,#52
 280 0046 10F0800F 	 tst r0,#128
 281 004a 03FB02F3 	 mul r3,r3,r2
 282 004e 0E48     	 ldr r0,.L69
 283 0050 C35C     	 ldrb r3,[r0,r3]
 284 0052 03F00F03 	 and r3,r3,#15
 285 0056 0BBF     	 itete eq
 286 0058 00EB8303 	 addeq r3,r0,r3,lsl#2
 287 005c 6A33     	 addne r3,r3,#106
 288 005e D3F8C441 	 ldreq r4,[r3,#452]
 289 0062 50F82340 	 ldrne r4,[r0,r3,lsl#2]
 290 0066 2368     	 ldr r3,[r4]
 291 0068 61F35553 	 bfi r3,r1,#21,#1
 292 006c 43F08053 	 orr r3,r3,#268435456
 293 0070 2360     	 str r3,[r4]
 294 0072 3423     	 movs r3,#52
 295 0074 03FB0202 	 mla r2,r3,r2,r0
 296 0078 5DF8044B 	 ldr r4,[sp],#4
 297 007c 1379     	 ldrb r3,[r2,#4]
 298 007e 6FF34513 	 bfc r3,#5,#1
 299 0082 0020     	 movs r0,#0
 300 0084 1371     	 strb r3,[r2,#4]
 301 0086 7047     	 bx lr
 302              	.L70:
 303              	 .align 2
 304              	.L69:
 305 0088 00000000 	 .word xmc_device
 307              	 .section .text.XMC_USBD_EndpointAbort,"ax",%progbits
 308              	 .align 2
 309              	 .global XMC_USBD_EndpointAbort
 310              	 .thumb
 311              	 .thumb_func
 313              	XMC_USBD_EndpointAbort:
 314              	 
 315              	 
 316              	 
 317 0000 00F00F00 	 and r0,r0,#15
 318 0004 3422     	 movs r2,#52
 319 0006 02FB00F2 	 mul r2,r2,r0
 320 000a 0D4B     	 ldr r3,.L75
 321 000c 995C     	 ldrb r1,[r3,r2]
 322 000e 1A44     	 add r2,r2,r3
 323 0010 11F0800F 	 tst r1,#128
 324 0014 5168     	 ldr r1,[r2,#4]
 325 0016 0CBF     	 ite eq
 326 0018 21F01001 	 biceq r1,r1,#16
 327 001c 21F00801 	 bicne r1,r1,#8
 328 0020 5160     	 str r1,[r2,#4]
 329 0022 3422     	 movs r2,#52
 330 0024 02FB0033 	 mla r3,r2,r0,r3
 331 0028 0020     	 movs r0,#0
 332 002a 1A79     	 ldrb r2,[r3,#4]
 333 002c D862     	 str r0,[r3,#44]
 334 002e 6FF34512 	 bfc r2,#5,#1
 335 0032 1A71     	 strb r2,[r3,#4]
 336 0034 1861     	 str r0,[r3,#16]
 337 0036 9861     	 str r0,[r3,#24]
 338 0038 9862     	 str r0,[r3,#40]
 339 003a 1863     	 str r0,[r3,#48]
 340 003c 7047     	 bx lr
 341              	.L76:
 342 003e 00BF     	 .align 2
 343              	.L75:
 344 0040 00000000 	 .word xmc_device
 346              	 .section .text.XMC_USBD_EndpointUnconfigure,"ax",%progbits
 347              	 .align 2
 348              	 .global XMC_USBD_EndpointUnconfigure
 349              	 .thumb
 350              	 .thumb_func
 352              	XMC_USBD_EndpointUnconfigure:
 353              	 
 354              	 
 355 0000 F0B5     	 push {r4,r5,r6,r7,lr}
 356 0002 3D4B     	 ldr r3,.L94
 357 0004 00F00F00 	 and r0,r0,#15
 358 0008 3421     	 movs r1,#52
 359 000a 01FB00F1 	 mul r1,r1,r0
 360 000e 5A18     	 adds r2,r3,r1
 361 0010 13F801E0 	 ldrb lr,[r3,r1]
 362 0014 1479     	 ldrb r4,[r2,#4]
 363 0016 D3F8A471 	 ldr r7,[r3,#420]
 364 001a 14F0040F 	 tst r4,#4
 365 001e 0EF00F06 	 and r6,lr,#15
 366 0022 FD69     	 ldr r5,[r7,#28]
 367 0024 4FF00001 	 mov r1,#0
 368 0028 5AD0     	 beq .L85
 369 002a 04F0FB04 	 and r4,r4,#251
 370 002e 6FF34514 	 bfc r4,#5,#1
 371 0032 1471     	 strb r4,[r2,#4]
 372 0034 5468     	 ldr r4,[r2,#4]
 373 0036 24F01004 	 bic r4,r4,#16
 374 003a 5460     	 str r4,[r2,#4]
 375 003c 5468     	 ldr r4,[r2,#4]
 376 003e 61F3CF31 	 bfi r1,r1,#15,#1
 377 0042 41F09041 	 orr r1,r1,#1207959552
 378 0046 24F00804 	 bic r4,r4,#8
 379 004a 4FF0010C 	 mov ip,#1
 380 004e 1EF0800F 	 tst lr,#128
 381 0052 6FF35551 	 bfc r1,#21,#1
 382 0056 5460     	 str r4,[r2,#4]
 383 0058 0CFA06FC 	 lsl ip,ip,r6
 384 005c 2FD0     	 beq .L91
 385 005e 06F16A0E 	 add lr,r6,#106
 386 0062 6FEA0C04 	 mvn r4,ip
 387 0066 53F82EE0 	 ldr lr,[r3,lr,lsl#2]
 388 006a CEF80010 	 str r1,[lr]
 389 006e 1279     	 ldrb r2,[r2,#4]
 390 0070 1FFA84FE 	 uxth lr,r4
 391 0074 0EEA050C 	 and ip,lr,r5
 392 0078 9207     	 lsls r2,r2,#30
 393 007a 6CF30F05 	 bfi r5,ip,#0,#16
 394 007e 0DD1     	 bne .L82
 395              	.L83:
 396 0080 1E4A     	 ldr r2,.L94+4
 397 0082 1268     	 ldr r2,[r2]
 398 0084 03EB8606 	 add r6,r3,r6,lsl#2
 399 0088 527B     	 ldrb r2,[r2,#13]
 400 008a D6F8C461 	 ldr r6,[r6,#452]
 401 008e 0EEA154E 	 and lr,lr,r5,lsr#16
 402 0092 012A     	 cmp r2,#1
 403 0094 3160     	 str r1,[r6]
 404 0096 6EF31F45 	 bfi r5,lr,#16,#16
 405 009a 28D0     	 beq .L92
 406              	.L82:
 407 009c 3422     	 movs r2,#52
 408 009e 02FB0030 	 mla r0,r2,r0,r3
 409 00a2 FD61     	 str r5,[r7,#28]
 410 00a4 8088     	 ldrh r0,[r0,#4]
 411 00a6 B3F8FC11 	 ldrh r1,[r3,#508]
 412 00aa C0F38310 	 ubfx r0,r0,#6,#4
 413 00ae 0122     	 movs r2,#1
 414 00b0 8240     	 lsls r2,r2,r0
 415 00b2 21EA0202 	 bic r2,r1,r2
 416 00b6 A3F8FC21 	 strh r2,[r3,#508]
 417 00ba 0020     	 movs r0,#0
 418 00bc F0BD     	 pop {r4,r5,r6,r7,pc}
 419              	.L91:
 420 00be 1279     	 ldrb r2,[r2,#4]
 421 00c0 9407     	 lsls r4,r2,#30
 422 00c2 0FD1     	 bne .L93
 423 00c4 06F16A02 	 add r2,r6,#106
 424 00c8 6FEA0C04 	 mvn r4,ip
 425 00cc 1FFA84FE 	 uxth lr,r4
 426 00d0 53F82220 	 ldr r2,[r3,r2,lsl#2]
 427 00d4 0EEA050C 	 and ip,lr,r5
 428 00d8 6CF30F05 	 bfi r5,ip,#0,#16
 429 00dc 1160     	 str r1,[r2]
 430 00de CFE7     	 b .L83
 431              	.L85:
 432 00e0 0120     	 movs r0,#1
 433 00e2 F0BD     	 pop {r4,r5,r6,r7,pc}
 434              	.L93:
 435 00e4 6FEA0C04 	 mvn r4,ip
 436 00e8 1FFA84FE 	 uxth lr,r4
 437 00ec C8E7     	 b .L83
 438              	.L92:
 439 00ee 7A6B     	 ldr r2,[r7,#52]
 440 00f0 1440     	 ands r4,r4,r2
 441 00f2 7C63     	 str r4,[r7,#52]
 442 00f4 D2E7     	 b .L82
 443              	.L95:
 444 00f6 00BF     	 .align 2
 445              	.L94:
 446 00f8 00000000 	 .word xmc_device
 447 00fc 00000000 	 .word usbd_init
 449              	 .section .text.XMC_USBD_GetFrameNumber,"ax",%progbits
 450              	 .align 2
 451              	 .global XMC_USBD_GetFrameNumber
 452              	 .thumb
 453              	 .thumb_func
 455              	XMC_USBD_GetFrameNumber:
 456              	 
 457              	 
 458              	 
 459 0000 034B     	 ldr r3,.L97
 460 0002 D3F8A431 	 ldr r3,[r3,#420]
 461 0006 9868     	 ldr r0,[r3,#8]
 462 0008 C0F30D20 	 ubfx r0,r0,#8,#14
 463 000c 7047     	 bx lr
 464              	.L98:
 465 000e 00BF     	 .align 2
 466              	.L97:
 467 0010 00000000 	 .word xmc_device
 469              	 .section .text.XMC_USBD_IsEnumDone,"ax",%progbits
 470              	 .align 2
 471              	 .global XMC_USBD_IsEnumDone
 472              	 .thumb
 473              	 .thumb_func
 475              	XMC_USBD_IsEnumDone:
 476              	 
 477              	 
 478              	 
 479 0000 054B     	 ldr r3,.L100
 480 0002 93F8FE01 	 ldrb r0,[r3,#510]
 481 0006 00F00500 	 and r0,r0,#5
 482 000a A0F10500 	 sub r0,#5
 483 000e B0FA80F0 	 clz r0,r0
 484 0012 4009     	 lsrs r0,r0,#5
 485 0014 7047     	 bx lr
 486              	.L101:
 487 0016 00BF     	 .align 2
 488              	.L100:
 489 0018 00000000 	 .word xmc_device
 491              	 .section .text.XMC_USBD_Uninitialize,"ax",%progbits
 492              	 .align 2
 493              	 .global XMC_USBD_Uninitialize
 494              	 .thumb
 495              	 .thumb_func
 497              	XMC_USBD_Uninitialize:
 498              	 
 499              	 
 500 0000 0748     	 ldr r0,.L104
 501 0002 D0F8A421 	 ldr r2,[r0,#420]
 502 0006 08B5     	 push {r3,lr}
 503 0008 5368     	 ldr r3,[r2,#4]
 504 000a 43F00203 	 orr r3,r3,#2
 505 000e 5360     	 str r3,[r2,#4]
 506 0010 0021     	 movs r1,#0
 507 0012 4FF40272 	 mov r2,#520
 508 0016 FFF7FEFF 	 bl memset
 509 001a 0020     	 movs r0,#0
 510 001c 08BD     	 pop {r3,pc}
 511              	.L105:
 512 001e 00BF     	 .align 2
 513              	.L104:
 514 0020 00000000 	 .word xmc_device
 516              	 .section .text.XMC_USBD_EndpointConfigure,"ax",%progbits
 517              	 .align 2
 518              	 .global XMC_USBD_EndpointConfigure
 519              	 .thumb
 520              	 .thumb_func
 522              	XMC_USBD_EndpointConfigure:
 523              	 
 524              	 
 525 0000 2DE9F04F 	 push {r4,r5,r6,r7,r8,r9,r10,fp,lr}
 526 0004 9A4D     	 ldr r5,.L148
 527 0006 DFF86C82 	 ldr r8,.L148+4
 528 000a D5F8A431 	 ldr r3,[r5,#420]
 529 000e DFF868A2 	 ldr r10,.L148+8
 530 0012 D3F81CE0 	 ldr lr,[r3,#28]
 531 0016 DFF86492 	 ldr r9,.L148+12
 532 001a 00F00F0C 	 and ip,r0,#15
 533 001e 3427     	 movs r7,#52
 534 0020 07FB0CF7 	 mul r7,r7,ip
 535 0024 EE19     	 adds r6,r5,r7
 536 0026 06F10803 	 add r3,r6,#8
 537 002a 0024     	 movs r4,#0
 538 002c EC51     	 str r4,[r5,r7]
 539 002e 7460     	 str r4,[r6,#4]
 540 0030 43F8044B 	 str r4,[r3],#4
 541 0034 43F8044B 	 str r4,[r3],#4
 542 0038 43F8044B 	 str r4,[r3],#4
 543 003c 43F8044B 	 str r4,[r3],#4
 544 0040 43F8044B 	 str r4,[r3],#4
 545 0044 43F8044B 	 str r4,[r3],#4
 546 0048 43F8044B 	 str r4,[r3],#4
 547 004c 43F8044B 	 str r4,[r3],#4
 548 0050 43F8044B 	 str r4,[r3],#4
 549 0054 43F8044B 	 str r4,[r3],#4
 550 0058 1C60     	 str r4,[r3]
 551 005a 3379     	 ldrb r3,[r6,#4]
 552 005c E855     	 strb r0,[r5,r7]
 553 005e 43F00403 	 orr r3,r3,#4
 554 0062 3371     	 strb r3,[r6,#4]
 555 0064 7468     	 ldr r4,[r6,#4]
 556 0066 3346     	 mov r3,r6
 557 0068 62F3D124 	 bfi r4,r2,#11,#7
 558 006c 43F8044F 	 str r4,[r3,#4]!
 559 0070 0028     	 cmp r0,#0
 560 0072 5C68     	 ldr r4,[r3,#4]
 561 0074 4FF6C070 	 movw r0,#65472
 562 0078 08BF     	 it eq
 563 007a 4020     	 moveq r0,#64
 564 007c 60F31204 	 bfi r4,r0,#0,#19
 565 0080 5C60     	 str r4,[r3,#4]
 566 0082 EB5D     	 ldrb r3,[r5,r7]
 567 0084 03F00F03 	 and r3,r3,#15
 568 0088 1802     	 lsls r0,r3,#8
 569 008a 08F5E06B 	 add fp,r8,#1792
 570 008e 08EB0004 	 add r4,r8,r0
 571 0092 00EB0B08 	 add r8,r0,fp
 572 0096 5AF82300 	 ldr r0,[r10,r3,lsl#2]
 573 009a 3062     	 str r0,[r6,#32]
 574 009c 59F82300 	 ldr r0,[r9,r3,lsl#2]
 575 00a0 7061     	 str r0,[r6,#20]
 576 00a2 F461     	 str r4,[r6,#28]
 577 00a4 C6F80C80 	 str r8,[r6,#12]
 578 00a8 E85D     	 ldrb r0,[r5,r7]
 579 00aa 0006     	 lsls r0,r0,#24
 580 00ac 1FD4     	 bmi .L108
 581 00ae 0029     	 cmp r1,#0
 582 00b0 7FD0     	 beq .L109
 583 00b2 05EB8304 	 add r4,r5,r3,lsl#2
 584 00b6 0120     	 movs r0,#1
 585 00b8 D4F8C461 	 ldr r6,[r4,#452]
 586 00bc 3468     	 ldr r4,[r6]
 587 00be 9840     	 lsls r0,r0,r3
 588 00c0 44F40044 	 orr r4,r4,#32768
 589 00c4 61F39344 	 bfi r4,r1,#18,#2
 590 00c8 80B2     	 uxth r0,r0
 591              	.L123:
 592 00ca 62F30A04 	 bfi r4,r2,#0,#11
 593              	.L124:
 594 00ce 44F08054 	 orr r4,r4,#268435456
 595 00d2 6FF35554 	 bfc r4,#21,#1
 596 00d6 40EA1E40 	 orr r0,r0,lr,lsr#16
 597 00da 3460     	 str r4,[r6]
 598 00dc 60F31F4E 	 bfi lr,r0,#16,#16
 599              	.L122:
 600 00e0 D5F8A431 	 ldr r3,[r5,#420]
 601 00e4 0020     	 movs r0,#0
 602 00e6 C3F81CE0 	 str lr,[r3,#28]
 603 00ea BDE8F08F 	 pop {r4,r5,r6,r7,r8,r9,r10,fp,pc}
 604              	.L108:
 605 00ee 03F16A00 	 add r0,r3,#106
 606 00f2 55F82060 	 ldr r6,[r5,r0,lsl#2]
 607 00f6 3468     	 ldr r4,[r6]
 608 00f8 44F40044 	 orr r4,r4,#32768
 609 00fc 61F39344 	 bfi r4,r1,#18,#2
 610 0100 0029     	 cmp r1,#0
 611 0102 5FD0     	 beq .L130
 612 0104 62F30A04 	 bfi r4,r2,#0,#11
 613              	.L112:
 614 0108 B5F8FC01 	 ldrh r0,[r5,#508]
 615 010c 44F08054 	 orr r4,r4,#268435456
 616 0110 10F00107 	 ands r7,r0,#1
 617 0114 6FF35554 	 bfc r4,#21,#1
 618 0118 00F08E80 	 beq .L134
 619 011c 8707     	 lsls r7,r0,#30
 620 011e 40F18E80 	 bpl .L135
 621 0122 4707     	 lsls r7,r0,#29
 622 0124 40F18F80 	 bpl .L136
 623 0128 0707     	 lsls r7,r0,#28
 624 012a 40F19080 	 bpl .L137
 625 012e C706     	 lsls r7,r0,#27
 626 0130 40F19180 	 bpl .L138
 627 0134 8706     	 lsls r7,r0,#26
 628 0136 40F19280 	 bpl .L139
 629 013a 4706     	 lsls r7,r0,#25
 630 013c 40F19380 	 bpl .L140
 631 0140 0706     	 lsls r7,r0,#24
 632 0142 49D4     	 bmi .L141
 633 0144 0727     	 movs r7,#7
 634 0146 4FF08008 	 mov r8,#128
 635              	.L132:
 636 014a 48EA0000 	 orr r0,r8,r0
 637 014e A5F8FC01 	 strh r0,[r5,#508]
 638              	.L119:
 639 0152 3420     	 movs r0,#52
 640 0154 00FB0CFC 	 mul ip,r0,ip
 641 0158 05EB0C09 	 add r9,r5,ip
 642 015c 67F39954 	 bfi r4,r7,#22,#4
 643 0160 B9F804A0 	 ldrh r10,[r9,#4]
 644 0164 DFF80881 	 ldr r8,.L148
 645 0168 67F3891A 	 bfi r10,r7,#6,#4
 646 016c A9F804A0 	 strh r10,[r9,#4]
 647 0170 0120     	 movs r0,#1
 648 0172 3460     	 str r4,[r6]
 649 0174 9840     	 lsls r0,r0,r3
 650 0176 15F80C40 	 ldrb r4,[r5,ip]
 651 017a 80B2     	 uxth r0,r0
 652 017c 40EA0E06 	 orr r6,r0,lr
 653 0180 2406     	 lsls r4,r4,#24
 654 0182 66F30F0E 	 bfi lr,r6,#0,#16
 655 0186 29D5     	 bpl .L120
 656 0188 0029     	 cmp r1,#0
 657 018a A9D1     	 bne .L122
 658 018c 08EB8303 	 add r3,r8,r3,lsl#2
 659 0190 D3F8C461 	 ldr r6,[r3,#452]
 660 0194 3468     	 ldr r4,[r6]
 661 0196 44F40044 	 orr r4,r4,#32768
 662 019a 61F39344 	 bfi r4,r1,#18,#2
 663              	.L131:
 664 019e 102A     	 cmp r2,#16
 665 01a0 3CD0     	 beq .L125
 666 01a2 34D9     	 bls .L146
 667 01a4 202A     	 cmp r2,#32
 668 01a6 2ED0     	 beq .L128
 669 01a8 402A     	 cmp r2,#64
 670 01aa 90D1     	 bne .L124
 671 01ac 6FF30A04 	 bfc r4,#0,#11
 672 01b0 8DE7     	 b .L124
 673              	.L109:
 674 01b2 03F16A00 	 add r0,r3,#106
 675 01b6 55F82060 	 ldr r6,[r5,r0,lsl#2]
 676 01ba 3468     	 ldr r4,[r6]
 677 01bc 44F40044 	 orr r4,r4,#32768
 678 01c0 61F39344 	 bfi r4,r1,#18,#2
 679              	.L130:
 680 01c4 102A     	 cmp r2,#16
 681 01c6 31D0     	 beq .L113
 682 01c8 15D9     	 bls .L147
 683 01ca 202A     	 cmp r2,#32
 684 01cc 2AD0     	 beq .L116
 685 01ce 402A     	 cmp r2,#64
 686 01d0 9AD1     	 bne .L112
 687 01d2 6FF30A04 	 bfc r4,#0,#11
 688 01d6 97E7     	 b .L112
 689              	.L141:
 690 01d8 0027     	 movs r7,#0
 691 01da BAE7     	 b .L119
 692              	.L120:
 693 01dc 08EB8303 	 add r3,r8,r3,lsl#2
 694 01e0 D3F8C461 	 ldr r6,[r3,#452]
 695 01e4 3468     	 ldr r4,[r6]
 696 01e6 44F40044 	 orr r4,r4,#32768
 697 01ea 61F39344 	 bfi r4,r1,#18,#2
 698 01ee 0029     	 cmp r1,#0
 699 01f0 7FF46BAF 	 bne .L123
 700 01f4 D3E7     	 b .L131
 701              	.L147:
 702 01f6 082A     	 cmp r2,#8
 703 01f8 86D1     	 bne .L112
 704 01fa 0327     	 movs r7,#3
 705 01fc 55F82060 	 ldr r6,[r5,r0,lsl#2]
 706 0200 67F30A04 	 bfi r4,r7,#0,#11
 707 0204 80E7     	 b .L112
 708              	.L128:
 709 0206 0123     	 movs r3,#1
 710 0208 63F30A04 	 bfi r4,r3,#0,#11
 711 020c 5FE7     	 b .L124
 712              	.L146:
 713 020e 082A     	 cmp r2,#8
 714 0210 7FF45DAF 	 bne .L124
 715 0214 0323     	 movs r3,#3
 716 0216 63F30A04 	 bfi r4,r3,#0,#11
 717 021a 58E7     	 b .L124
 718              	.L125:
 719 021c 0223     	 movs r3,#2
 720 021e 63F30A04 	 bfi r4,r3,#0,#11
 721 0222 54E7     	 b .L124
 722              	.L116:
 723 0224 0120     	 movs r0,#1
 724 0226 60F30A04 	 bfi r4,r0,#0,#11
 725 022a 6DE7     	 b .L112
 726              	.L113:
 727 022c 0227     	 movs r7,#2
 728 022e 55F82060 	 ldr r6,[r5,r0,lsl#2]
 729 0232 67F30A04 	 bfi r4,r7,#0,#11
 730 0236 67E7     	 b .L112
 731              	.L134:
 732 0238 4FF00108 	 mov r8,#1
 733 023c 85E7     	 b .L132
 734              	.L135:
 735 023e 0127     	 movs r7,#1
 736 0240 4FF00208 	 mov r8,#2
 737 0244 81E7     	 b .L132
 738              	.L136:
 739 0246 0227     	 movs r7,#2
 740 0248 4FF00408 	 mov r8,#4
 741 024c 7DE7     	 b .L132
 742              	.L137:
 743 024e 0327     	 movs r7,#3
 744 0250 4FF00808 	 mov r8,#8
 745 0254 79E7     	 b .L132
 746              	.L138:
 747 0256 0427     	 movs r7,#4
 748 0258 4FF01008 	 mov r8,#16
 749 025c 75E7     	 b .L132
 750              	.L139:
 751 025e 0527     	 movs r7,#5
 752 0260 4FF02008 	 mov r8,#32
 753 0264 71E7     	 b .L132
 754              	.L140:
 755 0266 0627     	 movs r7,#6
 756 0268 4FF04008 	 mov r8,#64
 757 026c 6DE7     	 b .L132
 758              	.L149:
 759 026e 00BF     	 .align 2
 760              	.L148:
 761 0270 00000000 	 .word xmc_device
 762 0274 00000000 	 .word .LANCHOR0
 763 0278 00000000 	 .word .LANCHOR1
 764 027c 00000000 	 .word .LANCHOR2
 766              	 .section .text.XMC_USBD_EndpointRead,"ax",%progbits
 767              	 .align 2
 768              	 .global XMC_USBD_EndpointRead
 769              	 .thumb
 770              	 .thumb_func
 772              	XMC_USBD_EndpointRead:
 773              	 
 774              	 
 775 0000 F8B5     	 push {r3,r4,r5,r6,r7,lr}
 776 0002 0E4F     	 ldr r7,.L156
 777 0004 3424     	 movs r4,#52
 778 0006 04FB0074 	 mla r4,r4,r0,r7
 779 000a 0646     	 mov r6,r0
 780 000c 2569     	 ldr r5,[r4,#16]
 781 000e A369     	 ldr r3,[r4,#24]
 782 0010 9542     	 cmp r5,r2
 783 0012 0846     	 mov r0,r1
 784 0014 E168     	 ldr r1,[r4,#12]
 785 0016 28BF     	 it cs
 786 0018 1546     	 movcs r5,r2
 787 001a 1944     	 add r1,r1,r3
 788 001c 2A46     	 mov r2,r5
 789 001e FFF7FEFF 	 bl memcpy
 790 0022 2369     	 ldr r3,[r4,#16]
 791 0024 5B1B     	 subs r3,r3,r5
 792 0026 2361     	 str r3,[r4,#16]
 793 0028 0BB1     	 cbz r3,.L151
 794 002a A369     	 ldr r3,[r4,#24]
 795 002c 2B44     	 add r3,r3,r5
 796              	.L151:
 797 002e 3422     	 movs r2,#52
 798 0030 02FB0676 	 mla r6,r2,r6,r7
 799 0034 2846     	 mov r0,r5
 800 0036 B361     	 str r3,[r6,#24]
 801 0038 F8BD     	 pop {r3,r4,r5,r6,r7,pc}
 802              	.L157:
 803 003a 00BF     	 .align 2
 804              	.L156:
 805 003c 00000000 	 .word xmc_device
 807              	 .section .text.XMC_USBD_Init,"ax",%progbits
 808              	 .align 2
 809              	 .global XMC_USBD_Init
 810              	 .thumb
 811              	 .thumb_func
 813              	XMC_USBD_Init:
 814              	 
 815              	 
 816 0000 2DE9F04F 	 push {r4,r5,r6,r7,r8,r9,r10,fp,lr}
 817 0004 0746     	 mov r7,r0
 818 0006 83B0     	 sub sp,sp,#12
 819 0008 6948     	 ldr r0,.L165
 820 000a 6A4C     	 ldr r4,.L165+4
 821 000c 6A4E     	 ldr r6,.L165+8
 822 000e 6B4D     	 ldr r5,.L165+12
 823 0010 FFF7FEFF 	 bl XMC_SCU_CLOCK_UngatePeripheralClock
 824 0014 6648     	 ldr r0,.L165
 825 0016 FFF7FEFF 	 bl XMC_SCU_RESET_DeassertPeripheralReset
 826 001a FFF7FEFF 	 bl XMC_SCU_POWER_EnableUsb
 827 001e 684B     	 ldr r3,.L165+16
 828 0020 0021     	 movs r1,#0
 829 0022 1F60     	 str r7,[r3]
 830 0024 4FF40272 	 mov r2,#520
 831 0028 4023     	 movs r3,#64
 832 002a 2046     	 mov r0,r4
 833 002c 3360     	 str r3,[r6]
 834 002e 7360     	 str r3,[r6,#4]
 835 0030 B360     	 str r3,[r6,#8]
 836 0032 F360     	 str r3,[r6,#12]
 837 0034 3361     	 str r3,[r6,#16]
 838 0036 7361     	 str r3,[r6,#20]
 839 0038 B361     	 str r3,[r6,#24]
 840 003a 2B60     	 str r3,[r5]
 841 003c 6B60     	 str r3,[r5,#4]
 842 003e AB60     	 str r3,[r5,#8]
 843 0040 EB60     	 str r3,[r5,#12]
 844 0042 2B61     	 str r3,[r5,#16]
 845 0044 6B61     	 str r3,[r5,#20]
 846 0046 AB61     	 str r3,[r5,#24]
 847 0048 FFF7FEFF 	 bl memset
 848 004c 3B68     	 ldr r3,[r7]
 849 004e 7D7B     	 ldrb r5,[r7,#13]
 850 0050 9A68     	 ldr r2,[r3,#8]
 851 0052 7868     	 ldr r0,[r7,#4]
 852 0054 BE68     	 ldr r6,[r7,#8]
 853 0056 B5FA85F1 	 clz r1,r5
 854 005a 03F5006A 	 add r10,r3,#2048
 855 005e 4909     	 lsrs r1,r1,#5
 856 0060 03F51069 	 add r9,r3,#2304
 857 0064 42F08102 	 orr r2,r2,#129
 858 0068 C4F80002 	 str r0,[r4,#512]
 859 006c C4F80462 	 str r6,[r4,#516]
 860 0070 C4F8A4A1 	 str r10,[r4,#420]
 861 0074 C4F8A891 	 str r9,[r4,#424]
 862 0078 61F34512 	 bfi r2,r1,#5,#1
 863 007c 03F51268 	 add r8,r3,#2336
 864 0080 03F5146C 	 add ip,r3,#2368
 865 0084 03F5166E 	 add lr,r3,#2400
 866 0088 03F51867 	 add r7,r3,#2432
 867 008c 03F51A60 	 add r0,r3,#2464
 868 0090 03F51C6B 	 add fp,r3,#2496
 869 0094 03F53061 	 add r1,r3,#2816
 870 0098 03F53266 	 add r6,r3,#2848
 871 009c 03F5346A 	 add r10,r3,#2880
 872 00a0 03F53669 	 add r9,r3,#2912
 873 00a4 C4F8AC81 	 str r8,[r4,#428]
 874 00a8 C4F8B0C1 	 str ip,[r4,#432]
 875 00ac C4F8B4E1 	 str lr,[r4,#436]
 876 00b0 C4F8B871 	 str r7,[r4,#440]
 877 00b4 C4F8BC01 	 str r0,[r4,#444]
 878 00b8 C4F8C0B1 	 str fp,[r4,#448]
 879 00bc C4F8C411 	 str r1,[r4,#452]
 880 00c0 C4F8C861 	 str r6,[r4,#456]
 881 00c4 C4F8CCA1 	 str r10,[r4,#460]
 882 00c8 C4F8D091 	 str r9,[r4,#464]
 883 00cc 03F58041 	 add r1,r3,#16384
 884 00d0 03F53868 	 add r8,r3,#2944
 885 00d4 03F53A6C 	 add ip,r3,#2976
 886 00d8 03F53C6E 	 add lr,r3,#3008
 887 00dc 03F58057 	 add r7,r3,#4096
 888 00e0 03F50050 	 add r0,r3,#8192
 889 00e4 03F5405B 	 add fp,r3,#12288
 890 00e8 03F5A046 	 add r6,r3,#20480
 891 00ec 03F5C04A 	 add r10,r3,#24576
 892 00f0 03F5E049 	 add r9,r3,#28672
 893 00f4 C4F8EC11 	 str r1,[r4,#492]
 894 00f8 C4F8A031 	 str r3,[r4,#416]
 895 00fc C4F8D481 	 str r8,[r4,#468]
 896 0100 C4F8D8C1 	 str ip,[r4,#472]
 897 0104 C4F8DCE1 	 str lr,[r4,#476]
 898 0108 C4F8E071 	 str r7,[r4,#480]
 899 010c C4F8E401 	 str r0,[r4,#484]
 900 0110 C4F8E8B1 	 str fp,[r4,#488]
 901 0114 C4F8F061 	 str r6,[r4,#496]
 902 0118 C4F8F4A1 	 str r10,[r4,#500]
 903 011c C4F8F891 	 str r9,[r4,#504]
 904 0120 9A60     	 str r2,[r3,#8]
 905 0122 D968     	 ldr r1,[r3,#12]
 906 0124 41F08041 	 orr r1,r1,#1073741824
 907 0128 41F48071 	 orr r1,r1,#256
 908 012c D960     	 str r1,[r3,#12]
 909 012e D3F80028 	 ldr r2,[r3,#2048]
 910 0132 42F00302 	 orr r2,r2,#3
 911 0136 6FF3D752 	 bfc r2,#23,#1
 912 013a C3F80028 	 str r2,[r3,#2048]
 913 013e D3F80428 	 ldr r2,[r3,#2052]
 914 0142 0021     	 movs r1,#0
 915 0144 42F00202 	 orr r2,r2,#2
 916 0148 C3F80428 	 str r2,[r3,#2052]
 917 014c 0091     	 str r1,[sp]
 918 014e 009A     	 ldr r2,[sp]
 919 0150 42F02002 	 orr r2,r2,#32
 920 0154 0092     	 str r2,[sp]
 921 0156 0099     	 ldr r1,[sp]
 922 0158 21F4F861 	 bic r1,r1,#1984
 923 015c 41F48061 	 orr r1,r1,#1024
 924 0160 0091     	 str r1,[sp]
 925 0162 009A     	 ldr r2,[sp]
 926 0164 1A61     	 str r2,[r3,#16]
 927              	.L159:
 928 0166 1A69     	 ldr r2,[r3,#16]
 929 0168 0092     	 str r2,[sp]
 930 016a 009A     	 ldr r2,[sp]
 931 016c C2F34012 	 ubfx r2,r2,#5,#1
 932 0170 002A     	 cmp r2,#0
 933 0172 F8D1     	 bne .L159
 934 0174 0192     	 str r2,[sp,#4]
 935 0176 019A     	 ldr r2,[sp,#4]
 936 0178 42F01002 	 orr r2,r2,#16
 937 017c 0192     	 str r2,[sp,#4]
 938 017e 019A     	 ldr r2,[sp,#4]
 939 0180 1A61     	 str r2,[r3,#16]
 940              	.L160:
 941 0182 1A69     	 ldr r2,[r3,#16]
 942 0184 0192     	 str r2,[sp,#4]
 943 0186 0198     	 ldr r0,[sp,#4]
 944 0188 C0F30010 	 ubfx r0,r0,#4,#1
 945 018c 0028     	 cmp r0,#0
 946 018e F8D1     	 bne .L160
 947 0190 0C49     	 ldr r1,.L165+20
 948 0192 0D4A     	 ldr r2,.L165+24
 949 0194 9861     	 str r0,[r3,#24]
 950 0196 012D     	 cmp r5,#1
 951 0198 18BF     	 it ne
 952 019a 0A46     	 movne r2,r1
 953 019c 42F44022 	 orr r2,r2,#786432
 954 01a0 4FF0FF31 	 mov r1,#-1
 955 01a4 5961     	 str r1,[r3,#20]
 956 01a6 9A61     	 str r2,[r3,#24]
 957 01a8 03B0     	 add sp,sp,#12
 958              	 
 959 01aa BDE8F08F 	 pop {r4,r5,r6,r7,r8,r9,r10,fp,pc}
 960              	.L166:
 961 01ae 00BF     	 .align 2
 962              	.L165:
 963 01b0 80000020 	 .word 536871040
 964 01b4 00000000 	 .word xmc_device
 965 01b8 00000000 	 .word .LANCHOR2
 966 01bc 00000000 	 .word .LANCHOR1
 967 01c0 00000000 	 .word usbd_init
 968 01c4 0E3C00C0 	 .word -1073726450
 969 01c8 1E3C00C0 	 .word -1073726434
 971              	 .section .text.XMC_USBD_EndpointReadStart,"ax",%progbits
 972              	 .align 2
 973              	 .global XMC_USBD_EndpointReadStart
 974              	 .thumb
 975              	 .thumb_func
 977              	XMC_USBD_EndpointReadStart:
 978              	 
 979              	 
 980              	 
 981 0000 F0B4     	 push {r4,r5,r6,r7}
 982 0002 00F00F00 	 and r0,r0,#15
 983 0006 3424     	 movs r4,#52
 984 0008 334E     	 ldr r6,.L179
 985 000a 04FB00F4 	 mul r4,r4,r0
 986 000e 3219     	 adds r2,r6,r4
 987 0010 82B0     	 sub sp,sp,#8
 988 0012 5368     	 ldr r3,[r2,#4]
 989 0014 C3F30013 	 ubfx r3,r3,#4,#1
 990 0018 002B     	 cmp r3,#0
 991 001a 36D1     	 bne .L175
 992 001c 1579     	 ldrb r5,[r2,#4]
 993 001e 6D07     	 lsls r5,r5,#29
 994 0020 33D5     	 bpl .L175
 995 0022 9568     	 ldr r5,[r2,#8]
 996 0024 0195     	 str r5,[sp,#4]
 997 0026 5569     	 ldr r5,[r2,#20]
 998 0028 D768     	 ldr r7,[r2,#12]
 999 002a D362     	 str r3,[r2,#44]
 1000 002c A942     	 cmp r1,r5
 1001 002e 28BF     	 it cs
 1002 0030 2946     	 movcs r1,r5
 1003 0032 019D     	 ldr r5,[sp,#4]
 1004 0034 1361     	 str r3,[r2,#16]
 1005 0036 C5F31205 	 ubfx r5,r5,#0,#19
 1006 003a 8D42     	 cmp r5,r1
 1007 003c 28BF     	 it cs
 1008 003e 0D46     	 movcs r5,r1
 1009 0040 1163     	 str r1,[r2,#48]
 1010 0042 9562     	 str r5,[r2,#40]
 1011 0044 5762     	 str r7,[r2,#36]
 1012 0046 345D     	 ldrb r4,[r6,r4]
 1013 0048 2407     	 lsls r4,r4,#28
 1014 004a 22D0     	 beq .L177
 1015 004c 002D     	 cmp r5,#0
 1016 004e 37D1     	 bne .L171
 1017 0050 0122     	 movs r2,#1
 1018 0052 62F3DC43 	 bfi r3,r2,#19,#10
 1019              	.L170:
 1020 0056 214A     	 ldr r2,.L179+4
 1021 0058 1268     	 ldr r2,[r2]
 1022 005a 527B     	 ldrb r2,[r2,#13]
 1023 005c 2ABB     	 cbnz r2,.L178
 1024              	.L172:
 1025 005e 3422     	 movs r2,#52
 1026 0060 02FB00F0 	 mul r0,r2,r0
 1027 0064 3118     	 adds r1,r6,r0
 1028 0066 325C     	 ldrb r2,[r6,r0]
 1029 0068 496A     	 ldr r1,[r1,#36]
 1030 006a 02F00F02 	 and r2,r2,#15
 1031 006e 06EB8202 	 add r2,r6,r2,lsl#2
 1032 0072 D2F8C421 	 ldr r2,[r2,#452]
 1033 0076 5161     	 str r1,[r2,#20]
 1034              	.L173:
 1035 0078 1361     	 str r3,[r2,#16]
 1036 007a 1368     	 ldr r3,[r2]
 1037 007c 0020     	 movs r0,#0
 1038 007e 43F00443 	 orr r3,r3,#-2080374784
 1039 0082 1360     	 str r3,[r2]
 1040 0084 02B0     	 add sp,sp,#8
 1041              	 
 1042 0086 F0BC     	 pop {r4,r5,r6,r7}
 1043 0088 7047     	 bx lr
 1044              	.L175:
 1045 008a 0120     	 movs r0,#1
 1046 008c 02B0     	 add sp,sp,#8
 1047              	 
 1048 008e F0BC     	 pop {r4,r5,r6,r7}
 1049 0090 7047     	 bx lr
 1050              	.L177:
 1051 0092 0122     	 movs r2,#1
 1052 0094 62F3D443 	 bfi r3,r2,#19,#2
 1053 0098 104A     	 ldr r2,.L179+4
 1054 009a 1268     	 ldr r2,[r2]
 1055 009c 527B     	 ldrb r2,[r2,#13]
 1056 009e 43F0C043 	 orr r3,r3,#1610612736
 1057 00a2 61F30603 	 bfi r3,r1,#0,#7
 1058 00a6 002A     	 cmp r2,#0
 1059 00a8 D9D0     	 beq .L172
 1060              	.L178:
 1061 00aa 3422     	 movs r2,#52
 1062 00ac 02FB00F0 	 mul r0,r2,r0
 1063 00b0 325C     	 ldrb r2,[r6,r0]
 1064 00b2 02F00F02 	 and r2,r2,#15
 1065 00b6 06EB8202 	 add r2,r6,r2,lsl#2
 1066 00ba D2F8C421 	 ldr r2,[r2,#452]
 1067 00be DBE7     	 b .L173
 1068              	.L171:
 1069 00c0 5268     	 ldr r2,[r2,#4]
 1070 00c2 C2F3C621 	 ubfx r1,r2,#11,#7
 1071 00c6 4A1E     	 subs r2,r1,#1
 1072 00c8 2A44     	 add r2,r2,r5
 1073 00ca B2FBF1F2 	 udiv r2,r2,r1
 1074 00ce 62F3DC43 	 bfi r3,r2,#19,#10
 1075 00d2 65F31203 	 bfi r3,r5,#0,#19
 1076 00d6 BEE7     	 b .L170
 1077              	.L180:
 1078              	 .align 2
 1079              	.L179:
 1080 00d8 00000000 	 .word xmc_device
 1081 00dc 00000000 	 .word usbd_init
 1083              	 .section .text.XMC_USBD_EndpointWrite,"ax",%progbits
 1084              	 .align 2
 1085              	 .global XMC_USBD_EndpointWrite
 1086              	 .thumb
 1087              	 .thumb_func
 1089              	XMC_USBD_EndpointWrite:
 1090              	 
 1091              	 
 1092 0000 2DE9F843 	 push {r3,r4,r5,r6,r7,r8,r9,lr}
 1093 0004 00F00F07 	 and r7,r0,#15
 1094 0008 3426     	 movs r6,#52
 1095 000a 394D     	 ldr r5,.L193
 1096 000c 06FB07F6 	 mul r6,r6,r7
 1097 0010 AC19     	 adds r4,r5,r6
 1098 0012 2379     	 ldrb r3,[r4,#4]
 1099 0014 5B07     	 lsls r3,r3,#29
 1100 0016 53D5     	 bpl .L188
 1101 0018 6368     	 ldr r3,[r4,#4]
 1102 001a 1807     	 lsls r0,r3,#28
 1103 001c 57D4     	 bmi .L189
 1104 001e 236A     	 ldr r3,[r4,#32]
 1105 0020 E069     	 ldr r0,[r4,#28]
 1106 0022 9A42     	 cmp r2,r3
 1107 0024 28BF     	 it cs
 1108 0026 1A46     	 movcs r2,r3
 1109 0028 9146     	 mov r9,r2
 1110 002a FFF7FEFF 	 bl memcpy
 1111 002e 6368     	 ldr r3,[r4,#4]
 1112 0030 D4F81CC0 	 ldr ip,[r4,#28]
 1113 0034 C4F824C0 	 str ip,[r4,#36]
 1114 0038 43F00803 	 orr r3,r3,#8
 1115 003c 0021     	 movs r1,#0
 1116 003e 6360     	 str r3,[r4,#4]
 1117 0040 E162     	 str r1,[r4,#44]
 1118 0042 C4F83090 	 str r9,[r4,#48]
 1119 0046 A85D     	 ldrb r0,[r5,r6]
 1120 0048 A368     	 ldr r3,[r4,#8]
 1121 004a 00F00F00 	 and r0,r0,#15
 1122 004e 00F16A0E 	 add lr,r0,#106
 1123 0052 C3F31202 	 ubfx r2,r3,#0,#19
 1124 0056 55F82E80 	 ldr r8,[r5,lr,lsl#2]
 1125 005a 4A45     	 cmp r2,r9
 1126 005c 28BF     	 it cs
 1127 005e 4A46     	 movcs r2,r9
 1128 0060 D8F800E0 	 ldr lr,[r8]
 1129 0064 A262     	 str r2,[r4,#40]
 1130 0066 AAB3     	 cbz r2,.L191
 1131 0068 AB5D     	 ldrb r3,[r5,r6]
 1132 006a 1B07     	 lsls r3,r3,#28
 1133 006c 2BD0     	 beq .L192
 1134 006e 6368     	 ldr r3,[r4,#4]
 1135 0070 C3F3C624 	 ubfx r4,r3,#11,#7
 1136 0074 631E     	 subs r3,r4,#1
 1137 0076 9BB2     	 uxth r3,r3
 1138 0078 13FA82F3 	 uxtah r3,r3,r2
 1139 007c C2F31202 	 ubfx r2,r2,#0,#19
 1140 0080 93FBF4F3 	 sdiv r3,r3,r4
 1141 0084 C3F30903 	 ubfx r3,r3,#0,#10
 1142              	.L186:
 1143 0088 1A4C     	 ldr r4,.L193+4
 1144 008a 2468     	 ldr r4,[r4]
 1145 008c 647B     	 ldrb r4,[r4,#13]
 1146 008e 62F31201 	 bfi r1,r2,#0,#19
 1147 0092 63F3DC41 	 bfi r1,r3,#19,#10
 1148 0096 0CBB     	 cbnz r4,.L187
 1149 0098 C8F814C0 	 str ip,[r8,#20]
 1150              	.L184:
 1151 009c 3423     	 movs r3,#52
 1152 009e 03FB07F7 	 mul r7,r3,r7
 1153 00a2 EA19     	 adds r2,r5,r7
 1154 00a4 EB5D     	 ldrb r3,[r5,r7]
 1155 00a6 106B     	 ldr r0,[r2,#48]
 1156 00a8 03F00F03 	 and r3,r3,#15
 1157 00ac 6A33     	 adds r3,r3,#106
 1158 00ae 4EF0044E 	 orr lr,lr,#-2080374784
 1159 00b2 55F82330 	 ldr r3,[r5,r3,lsl#2]
 1160 00b6 1961     	 str r1,[r3,#16]
 1161 00b8 C3F800E0 	 str lr,[r3]
 1162 00bc BDE8F883 	 pop {r3,r4,r5,r6,r7,r8,r9,pc}
 1163              	.L188:
 1164 00c0 0120     	 movs r0,#1
 1165 00c2 BDE8F883 	 pop {r3,r4,r5,r6,r7,r8,r9,pc}
 1166              	.L192:
 1167 00c6 C2F31202 	 ubfx r2,r2,#0,#19
 1168 00ca 0123     	 movs r3,#1
 1169 00cc DCE7     	 b .L186
 1170              	.L189:
 1171 00ce 0020     	 movs r0,#0
 1172 00d0 BDE8F883 	 pop {r3,r4,r5,r6,r7,r8,r9,pc}
 1173              	.L191:
 1174 00d4 0123     	 movs r3,#1
 1175 00d6 63F3DC41 	 bfi r1,r3,#19,#10
 1176 00da DFE7     	 b .L184
 1177              	.L187:
 1178 00dc 012C     	 cmp r4,#1
 1179 00de DDD1     	 bne .L184
 1180 00e0 D5F8A421 	 ldr r2,[r5,#420]
 1181 00e4 536B     	 ldr r3,[r2,#52]
 1182 00e6 8440     	 lsls r4,r4,r0
 1183 00e8 1C43     	 orrs r4,r4,r3
 1184 00ea 5463     	 str r4,[r2,#52]
 1185 00ec D6E7     	 b .L184
 1186              	.L194:
 1187 00ee 00BF     	 .align 2
 1188              	.L193:
 1189 00f0 00000000 	 .word xmc_device
 1190 00f4 00000000 	 .word usbd_init
 1192              	 .section .text.XMC_USBD_lDeviceActive,"ax",%progbits
 1193              	 .align 2
 1194              	 .global XMC_USBD_lDeviceActive
 1195              	 .thumb
 1196              	 .thumb_func
 1198              	XMC_USBD_lDeviceActive:
 1199              	 
 1200              	 
 1201              	 
 1202 0000 027B     	 ldrb r2,[r0,#12]
 1203 0002 002A     	 cmp r2,#0
 1204 0004 70D0     	 beq .L206
 1205 0006 394B     	 ldr r3,.L243
 1206 0008 5968     	 ldr r1,[r3,#4]
 1207 000a 0807     	 lsls r0,r1,#28
 1208 000c 56BF     	 itet pl
 1209 000e 5868     	 ldrpl r0,[r3,#4]
 1210 0010 0120     	 movmi r0,#1
 1211 0012 C0F30010 	 ubfxpl r0,r0,#4,#1
 1212 0016 012A     	 cmp r2,#1
 1213 0018 57D9     	 bls .L242
 1214 001a 10B4     	 push {r4}
 1215 001c 996B     	 ldr r1,[r3,#56]
 1216 001e 334C     	 ldr r4,.L243
 1217 0020 0907     	 lsls r1,r1,#28
 1218 0022 53D4     	 bmi .L208
 1219 0024 A16B     	 ldr r1,[r4,#56]
 1220 0026 11F0100F 	 tst r1,#16
 1221 002a 18BF     	 it ne
 1222 002c 0120     	 movne r0,#1
 1223              	.L199:
 1224 002e 022A     	 cmp r2,#2
 1225 0030 49D0     	 beq .L196
 1226 0032 D96E     	 ldr r1,[r3,#108]
 1227 0034 2D4C     	 ldr r4,.L243
 1228 0036 0907     	 lsls r1,r1,#28
 1229 0038 54D4     	 bmi .L210
 1230 003a E16E     	 ldr r1,[r4,#108]
 1231 003c 11F0100F 	 tst r1,#16
 1232 0040 18BF     	 it ne
 1233 0042 0120     	 movne r0,#1
 1234              	.L200:
 1235 0044 032A     	 cmp r2,#3
 1236 0046 3ED0     	 beq .L196
 1237 0048 D3F8A010 	 ldr r1,[r3,#160]
 1238 004c 274C     	 ldr r4,.L243
 1239 004e 0907     	 lsls r1,r1,#28
 1240 0050 46D4     	 bmi .L212
 1241 0052 D4F8A010 	 ldr r1,[r4,#160]
 1242 0056 11F0100F 	 tst r1,#16
 1243 005a 18BF     	 it ne
 1244 005c 0120     	 movne r0,#1
 1245              	.L201:
 1246 005e 042A     	 cmp r2,#4
 1247 0060 31D0     	 beq .L196
 1248 0062 D3F8D410 	 ldr r1,[r3,#212]
 1249 0066 214C     	 ldr r4,.L243
 1250 0068 0907     	 lsls r1,r1,#28
 1251 006a 37D4     	 bmi .L214
 1252 006c D4F8D410 	 ldr r1,[r4,#212]
 1253 0070 11F0100F 	 tst r1,#16
 1254 0074 18BF     	 it ne
 1255 0076 0120     	 movne r0,#1
 1256              	.L202:
 1257 0078 052A     	 cmp r2,#5
 1258 007a 24D0     	 beq .L196
 1259 007c D3F80811 	 ldr r1,[r3,#264]
 1260 0080 1A4C     	 ldr r4,.L243
 1261 0082 0907     	 lsls r1,r1,#28
 1262 0084 28D4     	 bmi .L216
 1263 0086 D4F80811 	 ldr r1,[r4,#264]
 1264 008a 11F0100F 	 tst r1,#16
 1265 008e 18BF     	 it ne
 1266 0090 0120     	 movne r0,#1
 1267              	.L203:
 1268 0092 062A     	 cmp r2,#6
 1269 0094 17D0     	 beq .L196
 1270 0096 D3F83C11 	 ldr r1,[r3,#316]
 1271 009a 144C     	 ldr r4,.L243
 1272 009c 0907     	 lsls r1,r1,#28
 1273 009e 19D4     	 bmi .L218
 1274 00a0 D4F83C11 	 ldr r1,[r4,#316]
 1275 00a4 11F0100F 	 tst r1,#16
 1276 00a8 18BF     	 it ne
 1277 00aa 0120     	 movne r0,#1
 1278              	.L204:
 1279 00ac 072A     	 cmp r2,#7
 1280 00ae 0AD0     	 beq .L196
 1281 00b0 D3F87031 	 ldr r3,[r3,#368]
 1282 00b4 0D4A     	 ldr r2,.L243
 1283 00b6 1B07     	 lsls r3,r3,#28
 1284 00b8 0AD4     	 bmi .L220
 1285 00ba D2F87031 	 ldr r3,[r2,#368]
 1286 00be 13F0100F 	 tst r3,#16
 1287 00c2 18BF     	 it ne
 1288 00c4 0120     	 movne r0,#1
 1289              	.L196:
 1290 00c6 5DF8044B 	 ldr r4,[sp],#4
 1291              	.L242:
 1292 00ca 7047     	 bx lr
 1293              	.L208:
 1294 00cc 0120     	 movs r0,#1
 1295 00ce AEE7     	 b .L199
 1296              	.L220:
 1297 00d0 0120     	 movs r0,#1
 1298 00d2 F8E7     	 b .L196
 1299              	.L218:
 1300 00d4 0120     	 movs r0,#1
 1301 00d6 E9E7     	 b .L204
 1302              	.L216:
 1303 00d8 0120     	 movs r0,#1
 1304 00da DAE7     	 b .L203
 1305              	.L214:
 1306 00dc 0120     	 movs r0,#1
 1307 00de CBE7     	 b .L202
 1308              	.L212:
 1309 00e0 0120     	 movs r0,#1
 1310 00e2 BCE7     	 b .L201
 1311              	.L210:
 1312 00e4 0120     	 movs r0,#1
 1313 00e6 ADE7     	 b .L200
 1314              	.L206:
 1315 00e8 1046     	 mov r0,r2
 1316 00ea 7047     	 bx lr
 1317              	.L244:
 1318              	 .align 2
 1319              	.L243:
 1320 00ec 00000000 	 .word xmc_device
 1322              	 .section .text.XMC_USBD_IRQHandler,"ax",%progbits
 1323              	 .align 2
 1324              	 .global XMC_USBD_IRQHandler
 1325              	 .thumb
 1326              	 .thumb_func
 1328              	XMC_USBD_IRQHandler:
 1329              	 
 1330              	 
 1331 0000 2DE9F04F 	 push {r4,r5,r6,r7,r8,r9,r10,fp,lr}
 1332 0004 B94C     	 ldr r4,.L423
 1333 0006 D4F8A031 	 ldr r3,[r4,#416]
 1334 000a 9D69     	 ldr r5,[r3,#24]
 1335 000c 5A69     	 ldr r2,[r3,#20]
 1336 000e 8FB0     	 sub sp,sp,#60
 1337 0010 02EA050A 	 and r10,r2,r5
 1338 0014 5FFA8AF6 	 uxtb r6,r10
 1339 0018 0190     	 str r0,[sp,#4]
 1340 001a 3007     	 lsls r0,r6,#28
 1341 001c 00F1EB82 	 bmi .L400
 1342 0020 019A     	 ldr r2,[sp,#4]
 1343 0022 527B     	 ldrb r2,[r2,#13]
 1344 0024 012A     	 cmp r2,#1
 1345 0026 00F0F382 	 beq .L401
 1346              	.L247:
 1347 002a CAF30725 	 ubfx r5,r10,#8,#8
 1348 002e 6907     	 lsls r1,r5,#29
 1349 0030 44BF     	 itt mi
 1350 0032 4FF48062 	 movmi r2,#1024
 1351 0036 5A61     	 strmi r2,[r3,#20]
 1352 0038 2A07     	 lsls r2,r5,#28
 1353 003a 00F1D282 	 bmi .L402
 1354              	.L264:
 1355 003e 4FEA1A66 	 lsr r6,r10,#24
 1356 0042 3706     	 lsls r7,r6,#24
 1357 0044 00F1C382 	 bmi .L403
 1358              	.L265:
 1359 0048 7006     	 lsls r0,r6,#25
 1360 004a 00F1B082 	 bmi .L404
 1361              	.L266:
 1362 004e E906     	 lsls r1,r5,#27
 1363 0050 00F1F181 	 bmi .L405
 1364              	.L267:
 1365 0054 AA06     	 lsls r2,r5,#26
 1366 0056 00F1D381 	 bmi .L406
 1367              	.L272:
 1368 005a 1AF4802F 	 tst r10,#262144
 1369 005e 40F00581 	 bne .L407
 1370              	.L273:
 1371 0062 1AF4002F 	 tst r10,#524288
 1372 0066 18D1     	 bne .L408
 1373              	.L298:
 1374 0068 1AF0040F 	 tst r10,#4
 1375 006c 02D1     	 bne .L409
 1376 006e 0FB0     	 add sp,sp,#60
 1377              	 
 1378 0070 BDE8F08F 	 pop {r4,r5,r6,r7,r8,r9,r10,fp,pc}
 1379              	.L409:
 1380 0074 5D68     	 ldr r5,[r3,#4]
 1381 0076 6807     	 lsls r0,r5,#29
 1382 0078 0BD5     	 bpl .L317
 1383 007a 94F8FE31 	 ldrb r3,[r4,#510]
 1384 007e D4F80022 	 ldr r2,[r4,#512]
 1385 0082 6FF38203 	 bfc r3,#2,#1
 1386 0086 84F8FE31 	 strb r3,[r4,#510]
 1387 008a 0120     	 movs r0,#1
 1388 008c 9047     	 blx r2
 1389 008e D4F8A031 	 ldr r3,[r4,#416]
 1390              	.L317:
 1391 0092 5D60     	 str r5,[r3,#4]
 1392 0094 0FB0     	 add sp,sp,#60
 1393              	 
 1394 0096 BDE8F08F 	 pop {r4,r5,r6,r7,r8,r9,r10,fp,pc}
 1395              	.L408:
 1396 009a D4F8A421 	 ldr r2,[r4,#420]
 1397 009e 9369     	 ldr r3,[r2,#24]
 1398 00a0 D769     	 ldr r7,[r2,#28]
 1399 00a2 5269     	 ldr r2,[r2,#20]
 1400 00a4 0292     	 str r2,[sp,#8]
 1401 00a6 C3F30F43 	 ubfx r3,r3,#16,#16
 1402 00aa 0022     	 movs r2,#0
 1403 00ac 13EA1747 	 ands r7,r3,r7,lsr#16
 1404 00b0 0392     	 str r2,[sp,#12]
 1405 00b2 00F09780 	 beq .L315
 1406 00b6 DDF804B0 	 ldr fp,[sp,#4]
 1407 00ba CDF810A0 	 str r10,[sp,#16]
 1408 00be 1646     	 mov r6,r2
 1409 00c0 3B46     	 mov r3,r7
 1410 00c2 1546     	 mov r5,r2
 1411 00c4 4FF0340C 	 mov ip,#52
 1412 00c8 B846     	 mov r8,r7
 1413              	.L314:
 1414 00ca DF07     	 lsls r7,r3,#31
 1415 00cc 40F18180 	 bpl .L300
 1416 00d0 06F17009 	 add r9,r6,#112
 1417 00d4 04EB8902 	 add r2,r4,r9,lsl#2
 1418 00d8 0299     	 ldr r1,[sp,#8]
 1419 00da 5268     	 ldr r2,[r2,#4]
 1420 00dc 9BF80D30 	 ldrb r3,[fp,#13]
 1421 00e0 9768     	 ldr r7,[r2,#8]
 1422 00e2 0F40     	 ands r7,r7,r1
 1423 00e4 5FFA87FA 	 uxtb r10,r7
 1424 00e8 002B     	 cmp r3,#0
 1425 00ea 40F08180 	 bne .L301
 1426 00ee 1169     	 ldr r1,[r2,#16]
 1427 00f0 0391     	 str r1,[sp,#12]
 1428 00f2 1AF0080F 	 tst r10,#8
 1429 00f6 21D0     	 beq .L303
 1430 00f8 7C4A     	 ldr r2,.L423
 1431 00fa 0CFB0620 	 mla r0,ip,r6,r2
 1432 00fe 039A     	 ldr r2,[sp,#12]
 1433 0100 0179     	 ldrb r1,[r0,#4]
 1434 0102 C2F34172 	 ubfx r2,r2,#29,#2
 1435 0106 D200     	 lsls r2,r2,#3
 1436 0108 63F34511 	 bfi r1,r3,#5,#1
 1437 010c C2F11802 	 rsb r2,r2,#24
 1438 0110 0171     	 strb r1,[r0,#4]
 1439 0112 0261     	 str r2,[r0,#16]
 1440              	.L320:
 1441 0114 0CFB0643 	 mla r3,ip,r6,r4
 1442 0118 CDF804C0 	 str ip,[sp,#4]
 1443 011c 5A68     	 ldr r2,[r3,#4]
 1444 011e 22F01002 	 bic r2,r2,#16
 1445 0122 5A60     	 str r2,[r3,#4]
 1446 0124 0020     	 movs r0,#0
 1447 0126 D4F80432 	 ldr r3,[r4,#516]
 1448 012a 0146     	 mov r1,r0
 1449 012c 9847     	 blx r3
 1450 012e 04EB8903 	 add r3,r4,r9,lsl#2
 1451 0132 0821     	 movs r1,#8
 1452 0134 5A68     	 ldr r2,[r3,#4]
 1453 0136 DDF804C0 	 ldr ip,[sp,#4]
 1454 013a 9160     	 str r1,[r2,#8]
 1455              	.L303:
 1456 013c 1AF0010F 	 tst r10,#1
 1457 0140 46D0     	 beq .L304
 1458 0142 9BF80D30 	 ldrb r3,[fp,#13]
 1459 0146 002B     	 cmp r3,#0
 1460 0148 63D0     	 beq .L305
 1461 014a 0CFB0643 	 mla r3,ip,r6,r4
 1462 014e 996A     	 ldr r1,[r3,#40]
 1463 0150 0CFB0643 	 mla r3,ip,r6,r4
 1464 0154 1A6B     	 ldr r2,[r3,#48]
 1465 0156 8A42     	 cmp r2,r1
 1466 0158 72D0     	 beq .L410
 1467              	.L307:
 1468 015a 9868     	 ldr r0,[r3,#8]
 1469 015c C1EB020E 	 rsb lr,r1,r2
 1470 0160 C0F31200 	 ubfx r0,r0,#0,#19
 1471 0164 8645     	 cmp lr,r0
 1472 0166 0CFB06FE 	 mul lr,ip,r6
 1473 016a 88BF     	 it hi
 1474 016c 0918     	 addhi r1,r1,r0
 1475 016e 04EB0E00 	 add r0,r4,lr
 1476 0172 98BF     	 it ls
 1477 0174 1146     	 movls r1,r2
 1478 0176 8162     	 str r1,[r0,#40]
 1479 0178 14F80EE0 	 ldrb lr,[r4,lr]
 1480 017c 1EF00F0F 	 tst lr,#15
 1481 0180 4FF00003 	 mov r3,#0
 1482 0184 00F1280A 	 add r10,r0,#40
 1483 0188 40F0AE82 	 bne .L309
 1484 018c 0121     	 movs r1,#1
 1485 018e 61F3D443 	 bfi r3,r1,#19,#2
 1486 0192 43F0C043 	 orr r3,r3,#1610612736
 1487 0196 62F30603 	 bfi r3,r2,#0,#7
 1488              	.L310:
 1489 019a 554A     	 ldr r2,.L423+4
 1490 019c 1268     	 ldr r2,[r2]
 1491 019e 527B     	 ldrb r2,[r2,#13]
 1492 01a0 0CFB06F6 	 mul r6,ip,r6
 1493 01a4 002A     	 cmp r2,#0
 1494 01a6 40F0A682 	 bne .L411
 1495 01aa A25D     	 ldrb r2,[r4,r6]
 1496 01ac 02F00F02 	 and r2,r2,#15
 1497 01b0 A119     	 adds r1,r4,r6
 1498 01b2 04EB8202 	 add r2,r4,r2,lsl#2
 1499 01b6 486A     	 ldr r0,[r1,#36]
 1500 01b8 D2F8C411 	 ldr r1,[r2,#452]
 1501 01bc 4861     	 str r0,[r1,#20]
 1502              	.L313:
 1503 01be 0B61     	 str r3,[r1,#16]
 1504 01c0 0B68     	 ldr r3,[r1]
 1505 01c2 04EB8909 	 add r9,r4,r9,lsl#2
 1506 01c6 43F00443 	 orr r3,r3,#-2080374784
 1507 01ca D9F80420 	 ldr r2,[r9,#4]
 1508 01ce 0B60     	 str r3,[r1]
 1509              	.L304:
 1510 01d0 9760     	 str r7,[r2,#8]
 1511              	.L300:
 1512 01d2 0135     	 adds r5,r5,#1
 1513 01d4 EDB2     	 uxtb r5,r5
 1514 01d6 58FA05F3 	 asrs r3,r8,r5
 1515 01da 2E46     	 mov r6,r5
 1516 01dc 7FF475AF 	 bne .L314
 1517 01e0 DDF810A0 	 ldr r10,[sp,#16]
 1518              	.L315:
 1519 01e4 D4F8A031 	 ldr r3,[r4,#416]
 1520 01e8 4FF40022 	 mov r2,#524288
 1521 01ec 5A61     	 str r2,[r3,#20]
 1522 01ee 3BE7     	 b .L298
 1523              	.L301:
 1524 01f0 1AF0080F 	 tst r10,#8
 1525 01f4 A2D0     	 beq .L303
 1526 01f6 3D4A     	 ldr r2,.L423
 1527 01f8 0CFB0621 	 mla r1,ip,r6,r2
 1528 01fc 012B     	 cmp r3,#1
 1529 01fe 0A79     	 ldrb r2,[r1,#4]
 1530 0200 6FF34512 	 bfc r2,#5,#1
 1531 0204 0A71     	 strb r2,[r1,#4]
 1532 0206 85D1     	 bne .L320
 1533 0208 0B69     	 ldr r3,[r1,#16]
 1534 020a CA6A     	 ldr r2,[r1,#44]
 1535 020c 1344     	 add r3,r3,r2
 1536 020e 0B61     	 str r3,[r1,#16]
 1537 0210 80E7     	 b .L320
 1538              	.L305:
 1539 0212 0CFB0640 	 mla r0,ip,r6,r4
 1540 0216 039B     	 ldr r3,[sp,#12]
 1541 0218 C26A     	 ldr r2,[r0,#44]
 1542 021a 816A     	 ldr r1,[r0,#40]
 1543 021c C3F31203 	 ubfx r3,r3,#0,#19
 1544 0220 C2EB010E 	 rsb lr,r2,r1
 1545 0224 C3EB0E03 	 rsb r3,r3,lr
 1546 0228 02EB030E 	 add lr,r2,r3
 1547 022c 426A     	 ldr r2,[r0,#36]
 1548 022e C0F82CE0 	 str lr,[r0,#44]
 1549 0232 1344     	 add r3,r3,r2
 1550 0234 4362     	 str r3,[r0,#36]
 1551 0236 0CFB0643 	 mla r3,ip,r6,r4
 1552 023a 1A6B     	 ldr r2,[r3,#48]
 1553 023c 8A42     	 cmp r2,r1
 1554 023e 8CD1     	 bne .L307
 1555              	.L410:
 1556 0240 CDF804C0 	 str ip,[sp,#4]
 1557 0244 5A68     	 ldr r2,[r3,#4]
 1558 0246 D96A     	 ldr r1,[r3,#44]
 1559 0248 1961     	 str r1,[r3,#16]
 1560 024a 22F01002 	 bic r2,r2,#16
 1561 024e 5A60     	 str r2,[r3,#4]
 1562 0250 264B     	 ldr r3,.L423
 1563 0252 2846     	 mov r0,r5
 1564 0254 D3F80432 	 ldr r3,[r3,#516]
 1565 0258 0121     	 movs r1,#1
 1566 025a 9847     	 blx r3
 1567 025c 234B     	 ldr r3,.L423
 1568 025e DDF804C0 	 ldr ip,[sp,#4]
 1569 0262 03EB8909 	 add r9,r3,r9,lsl#2
 1570 0266 D9F80420 	 ldr r2,[r9,#4]
 1571 026a B1E7     	 b .L304
 1572              	.L407:
 1573 026c D4F8A431 	 ldr r3,[r4,#420]
 1574 0270 9A69     	 ldr r2,[r3,#24]
 1575 0272 1B69     	 ldr r3,[r3,#16]
 1576 0274 0393     	 str r3,[sp,#12]
 1577 0276 97B2     	 uxth r7,r2
 1578 0278 002F     	 cmp r7,#0
 1579 027a 61D0     	 beq .L297
 1580 027c 0026     	 movs r6,#0
 1581 027e B646     	 mov lr,r6
 1582 0280 3B46     	 mov r3,r7
 1583 0282 4FF0340B 	 mov fp,#52
 1584 0286 CDF810A0 	 str r10,[sp,#16]
 1585 028a B946     	 mov r9,r7
 1586              	.L296:
 1587 028c DB07     	 lsls r3,r3,#31
 1588 028e 4FD5     	 bpl .L275
 1589 0290 0EF16A03 	 add r3,lr,#106
 1590 0294 0BFB0EF0 	 mul r0,fp,lr
 1591 0298 0293     	 str r3,[sp,#8]
 1592 029a D4F8A4A1 	 ldr r10,[r4,#420]
 1593 029e 54F82330 	 ldr r3,[r4,r3,lsl#2]
 1594 02a2 14F80080 	 ldrb r8,[r4,r0]
 1595 02a6 9D68     	 ldr r5,[r3,#8]
 1596 02a8 DAF83410 	 ldr r1,[r10,#52]
 1597 02ac 019A     	 ldr r2,[sp,#4]
 1598 02ae 039F     	 ldr r7,[sp,#12]
 1599 02b0 527B     	 ldrb r2,[r2,#13]
 1600 02b2 08F00F0C 	 and ip,r8,#15
 1601 02b6 21FA0CF1 	 lsr r1,r1,ip
 1602 02ba C901     	 lsls r1,r1,#7
 1603 02bc C9B2     	 uxtb r1,r1
 1604 02be 3943     	 orrs r1,r1,r7
 1605 02c0 2044     	 add r0,r0,r4
 1606 02c2 0D40     	 ands r5,r5,r1
 1607 02c4 B2B9     	 cbnz r2,.L276
 1608 02c6 EF07     	 lsls r7,r5,#31
 1609 02c8 1A69     	 ldr r2,[r3,#16]
 1610 02ca 30D5     	 bpl .L278
 1611 02cc 22F06042 	 bic r2,r2,#-536870912
 1612 02d0 002A     	 cmp r2,#0
 1613 02d2 00F01882 	 beq .L412
 1614 02d6 816A     	 ldr r1,[r0,#40]
 1615              	.L287:
 1616 02d8 0BFB0E42 	 mla r2,fp,lr,r4
 1617 02dc 136B     	 ldr r3,[r2,#48]
 1618 02de 8B42     	 cmp r3,r1
 1619 02e0 33D1     	 bne .L288
 1620 02e2 5368     	 ldr r3,[r2,#4]
 1621 02e4 23F00803 	 bic r3,r3,#8
 1622 02e8 5360     	 str r3,[r2,#4]
 1623 02ea 17E0     	 b .L289
 1624              	.L424:
 1625              	 .align 2
 1626              	.L423:
 1627 02ec 00000000 	 .word xmc_device
 1628 02f0 00000000 	 .word usbd_init
 1629              	.L276:
 1630 02f4 012A     	 cmp r2,#1
 1631 02f6 02D1     	 bne .L285
 1632 02f8 2906     	 lsls r1,r5,#24
 1633 02fa 00F12A82 	 bmi .L413
 1634              	.L285:
 1635 02fe E907     	 lsls r1,r5,#31
 1636 0300 15D5     	 bpl .L278
 1637 0302 0BFB0E40 	 mla r0,fp,lr,r4
 1638 0306 036B     	 ldr r3,[r0,#48]
 1639 0308 816A     	 ldr r1,[r0,#40]
 1640 030a 8B42     	 cmp r3,r1
 1641 030c 1DD1     	 bne .L288
 1642 030e 4368     	 ldr r3,[r0,#4]
 1643 0310 012A     	 cmp r2,#1
 1644 0312 23F00803 	 bic r3,r3,#8
 1645 0316 4360     	 str r3,[r0,#4]
 1646 0318 00F07382 	 beq .L414
 1647              	.L289:
 1648 031c D4F80432 	 ldr r3,[r4,#516]
 1649 0320 46F08000 	 orr r0,r6,#128
 1650 0324 0221     	 movs r1,#2
 1651 0326 9847     	 blx r3
 1652 0328 029B     	 ldr r3,[sp,#8]
 1653 032a 54F82330 	 ldr r3,[r4,r3,lsl#2]
 1654              	.L278:
 1655 032e 9D60     	 str r5,[r3,#8]
 1656              	.L275:
 1657 0330 0136     	 adds r6,r6,#1
 1658 0332 F6B2     	 uxtb r6,r6
 1659 0334 59FA06F3 	 asrs r3,r9,r6
 1660 0338 B646     	 mov lr,r6
 1661 033a A7D1     	 bne .L296
 1662 033c DDF810A0 	 ldr r10,[sp,#16]
 1663              	.L297:
 1664 0340 D4F8A031 	 ldr r3,[r4,#416]
 1665 0344 0022     	 movs r2,#0
 1666 0346 5A61     	 str r2,[r3,#20]
 1667 0348 8BE6     	 b .L273
 1668              	.L288:
 1669 034a 0BFB0EF2 	 mul r2,fp,lr
 1670 034e A018     	 adds r0,r4,r2
 1671 0350 A25C     	 ldrb r2,[r4,r2]
 1672 0352 8068     	 ldr r0,[r0,#8]
 1673 0354 C1EB0308 	 rsb r8,r1,r3
 1674 0358 C0F3120C 	 ubfx ip,r0,#0,#19
 1675 035c 02F00F02 	 and r2,r2,#15
 1676 0360 E045     	 cmp r8,ip
 1677 0362 0692     	 str r2,[sp,#24]
 1678 0364 02F16A02 	 add r2,r2,#106
 1679 0368 28BF     	 it cs
 1680 036a 01EB0C03 	 addcs r3,r1,ip
 1681 036e 0BFB0EFC 	 mul ip,fp,lr
 1682 0372 54F82220 	 ldr r2,[r4,r2,lsl#2]
 1683 0376 0592     	 str r2,[sp,#20]
 1684 0378 04EB0C01 	 add r1,r4,ip
 1685 037c 1268     	 ldr r2,[r2]
 1686 037e 8B62     	 str r3,[r1,#40]
 1687 0380 0020     	 movs r0,#0
 1688 0382 01F12808 	 add r8,r1,#40
 1689 0386 002B     	 cmp r3,#0
 1690 0388 00F0DD81 	 beq .L415
 1691 038c 14F80CC0 	 ldrb ip,[r4,ip]
 1692 0390 1CF00F0F 	 tst ip,#15
 1693 0394 00F0CF81 	 beq .L416
 1694 0398 4968     	 ldr r1,[r1,#4]
 1695 039a D8F80470 	 ldr r7,[r8,#4]
 1696 039e C1F3C62C 	 ubfx ip,r1,#11,#7
 1697 03a2 0CF1FF38 	 add r8,ip,#-1
 1698 03a6 D91B     	 subs r1,r3,r7
 1699 03a8 0B46     	 mov r3,r1
 1700 03aa 1FFA88F8 	 uxth r8,r8
 1701 03ae 18FA81F1 	 uxtah r1,r8,r1
 1702 03b2 C3F31203 	 ubfx r3,r3,#0,#19
 1703 03b6 91FBFCFC 	 sdiv ip,r1,ip
 1704 03ba CCF3090C 	 ubfx ip,ip,#0,#10
 1705              	.L294:
 1706 03be C249     	 ldr r1,.L425
 1707 03c0 0968     	 ldr r1,[r1]
 1708 03c2 497B     	 ldrb r1,[r1,#13]
 1709 03c4 63F31200 	 bfi r0,r3,#0,#19
 1710 03c8 6CF3DC40 	 bfi r0,ip,#19,#10
 1711 03cc 0029     	 cmp r1,#0
 1712 03ce 40F00D82 	 bne .L295
 1713 03d2 0BFB0E43 	 mla r3,fp,lr,r4
 1714 03d6 0599     	 ldr r1,[sp,#20]
 1715 03d8 5B6A     	 ldr r3,[r3,#36]
 1716 03da 4B61     	 str r3,[r1,#20]
 1717              	.L292:
 1718 03dc 0BFB0EFE 	 mul lr,fp,lr
 1719 03e0 029B     	 ldr r3,[sp,#8]
 1720 03e2 14F80E10 	 ldrb r1,[r4,lr]
 1721 03e6 54F82330 	 ldr r3,[r4,r3,lsl#2]
 1722 03ea 01F00F01 	 and r1,r1,#15
 1723 03ee 6A31     	 adds r1,r1,#106
 1724 03f0 42F00442 	 orr r2,r2,#-2080374784
 1725 03f4 54F82110 	 ldr r1,[r4,r1,lsl#2]
 1726 03f8 0861     	 str r0,[r1,#16]
 1727 03fa 0A60     	 str r2,[r1]
 1728 03fc 9D60     	 str r5,[r3,#8]
 1729 03fe 97E7     	 b .L275
 1730              	.L406:
 1731 0400 D4F8A811 	 ldr r1,[r4,#424]
 1732 0404 94F8FE21 	 ldrb r2,[r4,#510]
 1733 0408 0B68     	 ldr r3,[r1]
 1734 040a D4F80052 	 ldr r5,[r4,#512]
 1735 040e 6FF30A03 	 bfc r3,#0,#11
 1736 0412 42F00502 	 orr r2,r2,#5
 1737 0416 0B60     	 str r3,[r1]
 1738 0418 0220     	 movs r0,#2
 1739 041a 84F8FE21 	 strb r2,[r4,#510]
 1740 041e A847     	 blx r5
 1741 0420 D4F8A031 	 ldr r3,[r4,#416]
 1742 0424 DA68     	 ldr r2,[r3,#12]
 1743 0426 0921     	 movs r1,#9
 1744 0428 61F38D22 	 bfi r2,r1,#10,#4
 1745 042c 4FF40051 	 mov r1,#8192
 1746 0430 DA60     	 str r2,[r3,#12]
 1747 0432 5961     	 str r1,[r3,#20]
 1748 0434 11E6     	 b .L272
 1749              	.L405:
 1750 0436 D4F8A411 	 ldr r1,[r4,#420]
 1751 043a D4F8C491 	 ldr r9,[r4,#452]
 1752 043e 4A68     	 ldr r2,[r1,#4]
 1753 0440 D4F8D471 	 ldr r7,[r4,#468]
 1754 0444 D4F8D861 	 ldr r6,[r4,#472]
 1755 0448 D4F8DC01 	 ldr r0,[r4,#476]
 1756 044c 42F00102 	 orr r2,r2,#1
 1757 0450 04F5E478 	 add r8,r4,#456
 1758 0454 98E80051 	 ldmia r8,{r8,ip,lr}
 1759 0458 4A60     	 str r2,[r1,#4]
 1760 045a D9F80020 	 ldr r2,[r9]
 1761 045e 42F00062 	 orr r2,r2,#134217728
 1762 0462 6FF35552 	 bfc r2,#21,#1
 1763 0466 C9F80020 	 str r2,[r9]
 1764 046a D8F80020 	 ldr r2,[r8]
 1765 046e DFF86892 	 ldr r9,.L425+16
 1766 0472 42F00062 	 orr r2,r2,#134217728
 1767 0476 6FF35552 	 bfc r2,#21,#1
 1768 047a C8F80020 	 str r2,[r8]
 1769 047e DCF80020 	 ldr r2,[ip]
 1770 0482 DFF85882 	 ldr r8,.L425+20
 1771 0486 42F00062 	 orr r2,r2,#134217728
 1772 048a 6FF35552 	 bfc r2,#21,#1
 1773 048e CCF80020 	 str r2,[ip]
 1774 0492 DEF80020 	 ldr r2,[lr]
 1775 0496 DFF848C2 	 ldr ip,.L425+24
 1776 049a 42F00062 	 orr r2,r2,#134217728
 1777 049e 6FF35552 	 bfc r2,#21,#1
 1778 04a2 CEF80020 	 str r2,[lr]
 1779 04a6 3A68     	 ldr r2,[r7]
 1780 04a8 DFF838E2 	 ldr lr,.L425+28
 1781 04ac 42F00062 	 orr r2,r2,#134217728
 1782 04b0 6FF35552 	 bfc r2,#21,#1
 1783 04b4 3A60     	 str r2,[r7]
 1784 04b6 3268     	 ldr r2,[r6]
 1785 04b8 844F     	 ldr r7,.L425+4
 1786 04ba 42F00062 	 orr r2,r2,#134217728
 1787 04be 6FF35552 	 bfc r2,#21,#1
 1788 04c2 3260     	 str r2,[r6]
 1789 04c4 0268     	 ldr r2,[r0]
 1790 04c6 824E     	 ldr r6,.L425+8
 1791 04c8 42F00062 	 orr r2,r2,#134217728
 1792 04cc 6FF35552 	 bfc r2,#21,#1
 1793 04d0 0260     	 str r2,[r0]
 1794 04d2 4020     	 movs r0,#64
 1795 04d4 4FF48012 	 mov r2,#1048576
 1796 04d8 5862     	 str r0,[r3,#36]
 1797 04da 60F30F02 	 bfi r2,r0,#0,#16
 1798 04de 0020     	 movs r0,#0
 1799 04e0 9A62     	 str r2,[r3,#40]
 1800 04e2 C3F80491 	 str r9,[r3,#260]
 1801 04e6 C3F80881 	 str r8,[r3,#264]
 1802 04ea C3F80CC1 	 str ip,[r3,#268]
 1803 04ee C3F810E1 	 str lr,[r3,#272]
 1804 04f2 C3F81471 	 str r7,[r3,#276]
 1805 04f6 C3F81861 	 str r6,[r3,#280]
 1806 04fa 0D90     	 str r0,[sp,#52]
 1807 04fc 0D9A     	 ldr r2,[sp,#52]
 1808 04fe 42F02002 	 orr r2,r2,#32
 1809 0502 0D92     	 str r2,[sp,#52]
 1810 0504 0D9A     	 ldr r2,[sp,#52]
 1811 0506 22F4F862 	 bic r2,r2,#1984
 1812 050a 42F48062 	 orr r2,r2,#1024
 1813 050e 0D92     	 str r2,[sp,#52]
 1814 0510 0D9A     	 ldr r2,[sp,#52]
 1815 0512 1A61     	 str r2,[r3,#16]
 1816              	.L268:
 1817 0514 1A69     	 ldr r2,[r3,#16]
 1818 0516 0D92     	 str r2,[sp,#52]
 1819 0518 0D9A     	 ldr r2,[sp,#52]
 1820 051a C2F34012 	 ubfx r2,r2,#5,#1
 1821 051e 002A     	 cmp r2,#0
 1822 0520 F8D1     	 bne .L268
 1823 0522 0C92     	 str r2,[sp,#48]
 1824 0524 0C9A     	 ldr r2,[sp,#48]
 1825 0526 42F02002 	 orr r2,r2,#32
 1826 052a 0C92     	 str r2,[sp,#48]
 1827 052c 0C9A     	 ldr r2,[sp,#48]
 1828 052e 22F4F862 	 bic r2,r2,#1984
 1829 0532 0C92     	 str r2,[sp,#48]
 1830 0534 0C9A     	 ldr r2,[sp,#48]
 1831 0536 1A61     	 str r2,[r3,#16]
 1832              	.L269:
 1833 0538 1A69     	 ldr r2,[r3,#16]
 1834 053a 0C92     	 str r2,[sp,#48]
 1835 053c 0C9A     	 ldr r2,[sp,#48]
 1836 053e C2F34012 	 ubfx r2,r2,#5,#1
 1837 0542 002A     	 cmp r2,#0
 1838 0544 F8D1     	 bne .L269
 1839 0546 0B92     	 str r2,[sp,#44]
 1840 0548 0B9A     	 ldr r2,[sp,#44]
 1841 054a 42F01002 	 orr r2,r2,#16
 1842 054e 0B92     	 str r2,[sp,#44]
 1843 0550 0B9A     	 ldr r2,[sp,#44]
 1844 0552 1A61     	 str r2,[r3,#16]
 1845              	.L270:
 1846 0554 1A69     	 ldr r2,[r3,#16]
 1847 0556 0B92     	 str r2,[sp,#44]
 1848 0558 0B9A     	 ldr r2,[sp,#44]
 1849 055a C2F30012 	 ubfx r2,r2,#4,#1
 1850 055e 002A     	 cmp r2,#0
 1851 0560 F8D1     	 bne .L270
 1852 0562 4FF00113 	 mov r3,#65537
 1853 0566 CB61     	 str r3,[r1,#28]
 1854 0568 4B69     	 ldr r3,[r1,#20]
 1855 056a 0198     	 ldr r0,[sp,#4]
 1856 056c 43F00F03 	 orr r3,r3,#15
 1857 0570 407B     	 ldrb r0,[r0,#13]
 1858 0572 4B61     	 str r3,[r1,#20]
 1859 0574 0B69     	 ldr r3,[r1,#16]
 1860 0576 43F00F03 	 orr r3,r3,#15
 1861 057a 0B61     	 str r3,[r1,#16]
 1862 057c 0B68     	 ldr r3,[r1]
 1863 057e 0128     	 cmp r0,#1
 1864 0580 62F30A13 	 bfi r3,r2,#4,#7
 1865 0584 0B60     	 str r3,[r1]
 1866 0586 08BF     	 it eq
 1867 0588 4A63     	 streq r2,[r1,#52]
 1868 058a 6368     	 ldr r3,[r4,#4]
 1869 058c D4F80022 	 ldr r2,[r4,#512]
 1870 0590 23F01003 	 bic r3,r3,#16
 1871 0594 6360     	 str r3,[r4,#4]
 1872 0596 6368     	 ldr r3,[r4,#4]
 1873 0598 23F00803 	 bic r3,r3,#8
 1874 059c 6360     	 str r3,[r4,#4]
 1875 059e 0420     	 movs r0,#4
 1876 05a0 9047     	 blx r2
 1877 05a2 D4F8A031 	 ldr r3,[r4,#416]
 1878 05a6 4FF48052 	 mov r2,#4096
 1879 05aa 5A61     	 str r2,[r3,#20]
 1880 05ac 52E5     	 b .L267
 1881              	.L404:
 1882 05ae 94F8FE31 	 ldrb r3,[r4,#510]
 1883 05b2 D4F80022 	 ldr r2,[r4,#512]
 1884 05b6 43F00403 	 orr r3,r3,#4
 1885 05ba 84F8FE31 	 strb r3,[r4,#510]
 1886 05be 0020     	 movs r0,#0
 1887 05c0 9047     	 blx r2
 1888 05c2 D4F8A031 	 ldr r3,[r4,#416]
 1889 05c6 4FF08042 	 mov r2,#1073741824
 1890 05ca 5A61     	 str r2,[r3,#20]
 1891 05cc 3FE5     	 b .L266
 1892              	.L403:
 1893 05ce D4F80032 	 ldr r3,[r4,#512]
 1894 05d2 0820     	 movs r0,#8
 1895 05d4 9847     	 blx r3
 1896 05d6 D4F8A031 	 ldr r3,[r4,#416]
 1897 05da 4FF00042 	 mov r2,#-2147483648
 1898 05de 5A61     	 str r2,[r3,#20]
 1899 05e0 32E5     	 b .L265
 1900              	.L402:
 1901 05e2 D4F80032 	 ldr r3,[r4,#512]
 1902 05e6 0620     	 movs r0,#6
 1903 05e8 9847     	 blx r3
 1904 05ea D4F8A031 	 ldr r3,[r4,#416]
 1905 05ee 4FF40062 	 mov r2,#2048
 1906 05f2 5A61     	 str r2,[r3,#20]
 1907 05f4 23E5     	 b .L264
 1908              	.L400:
 1909 05f6 D4F80032 	 ldr r3,[r4,#512]
 1910 05fa 0920     	 movs r0,#9
 1911 05fc 9847     	 blx r3
 1912 05fe D4F8A031 	 ldr r3,[r4,#416]
 1913 0602 0822     	 movs r2,#8
 1914 0604 5A61     	 str r2,[r3,#20]
 1915 0606 019A     	 ldr r2,[sp,#4]
 1916 0608 527B     	 ldrb r2,[r2,#13]
 1917 060a 012A     	 cmp r2,#1
 1918 060c 7FF40DAD 	 bne .L247
 1919              	.L401:
 1920 0610 F106     	 lsls r1,r6,#27
 1921 0612 7FF50AAD 	 bpl .L247
 1922 0616 6FF30415 	 bfc r5,#4,#1
 1923 061a 9D61     	 str r5,[r3,#24]
 1924 061c 1A6A     	 ldr r2,[r3,#32]
 1925 061e C2F34341 	 ubfx r1,r2,#17,#4
 1926 0622 0229     	 cmp r1,#2
 1927 0624 00F0FF80 	 beq .L249
 1928 0628 0629     	 cmp r1,#6
 1929 062a 49D1     	 bne .L248
 1930 062c 02F00F07 	 and r7,r2,#15
 1931 0630 04EB8701 	 add r1,r4,r7,lsl#2
 1932 0634 C2F30A12 	 ubfx r2,r2,#4,#11
 1933 0638 D1F8C411 	 ldr r1,[r1,#452]
 1934 063c 2548     	 ldr r0,.L425+12
 1935 063e 0968     	 ldr r1,[r1]
 1936 0640 D4F8E081 	 ldr r8,[r4,#480]
 1937 0644 0E04     	 lsls r6,r1,#16
 1938 0646 3BD5     	 bpl .L248
 1939 0648 3421     	 movs r1,#52
 1940 064a 01FB070E 	 mla lr,r1,r7,r0
 1941 064e DEF82400 	 ldr r0,[lr,#36]
 1942 0652 A8B3     	 cbz r0,.L248
 1943 0654 5FEA920C 	 lsrs ip,r2,#2
 1944 0658 0BD0     	 beq .L260
 1945 065a 4FEA8C0C 	 lsl ip,ip,#2
 1946 065e 0021     	 movs r1,#0
 1947 0660 01E0     	 b .L261
 1948              	.L417:
 1949 0662 DEF82400 	 ldr r0,[lr,#36]
 1950              	.L261:
 1951 0666 D8F80060 	 ldr r6,[r8]
 1952 066a 4650     	 str r6,[r0,r1]
 1953 066c 0431     	 adds r1,r1,#4
 1954 066e 6145     	 cmp r1,ip
 1955 0670 F7D1     	 bne .L417
 1956              	.L260:
 1957 0672 6245     	 cmp r2,ip
 1958 0674 1BD0     	 beq .L259
 1959 0676 D8F80080 	 ldr r8,[r8]
 1960 067a 18D9     	 bls .L259
 1961 067c 4FF0340E 	 mov lr,#52
 1962 0680 6346     	 mov r3,ip
 1963 0682 0EFB074E 	 mla lr,lr,r7,r4
 1964 0686 0026     	 movs r6,#0
 1965 0688 4FF0FF09 	 mov r9,#255
 1966              	.L262:
 1967 068c 09FA06F1 	 lsl r1,r9,r6
 1968 0690 01EA0801 	 and r1,r1,r8
 1969 0694 DEF82400 	 ldr r0,[lr,#36]
 1970 0698 DFF838C0 	 ldr ip,.L425+12
 1971 069c F140     	 lsrs r1,r1,r6
 1972 069e C154     	 strb r1,[r0,r3]
 1973 06a0 0133     	 adds r3,r3,#1
 1974 06a2 9A42     	 cmp r2,r3
 1975 06a4 06F10806 	 add r6,r6,#8
 1976 06a8 F0D1     	 bne .L262
 1977 06aa DCF8A031 	 ldr r3,[ip,#416]
 1978              	.L259:
 1979 06ae 3426     	 movs r6,#52
 1980 06b0 06FB0746 	 mla r6,r6,r7,r4
 1981 06b4 F16A     	 ldr r1,[r6,#44]
 1982 06b6 706A     	 ldr r0,[r6,#36]
 1983 06b8 1144     	 add r1,r1,r2
 1984 06ba 0244     	 add r2,r2,r0
 1985 06bc F162     	 str r1,[r6,#44]
 1986 06be 7262     	 str r2,[r6,#36]
 1987              	.L248:
 1988 06c0 45F01005 	 orr r5,r5,#16
 1989 06c4 9D61     	 str r5,[r3,#24]
 1990 06c6 B0E4     	 b .L247
 1991              	.L426:
 1992              	 .align 2
 1993              	.L425:
 1994 06c8 00000000 	 .word usbd_init
 1995 06cc 90001000 	 .word 1048720
 1996 06d0 A0001000 	 .word 1048736
 1997 06d4 00000000 	 .word xmc_device
 1998 06d8 50001000 	 .word 1048656
 1999 06dc 60001000 	 .word 1048672
 2000 06e0 70001000 	 .word 1048688
 2001 06e4 80001000 	 .word 1048704
 2002              	.L309:
 2003 06e8 A9B9     	 cbnz r1,.L311
 2004 06ea 61F31203 	 bfi r3,r1,#0,#19
 2005 06ee 0122     	 movs r2,#1
 2006 06f0 62F3DC43 	 bfi r3,r2,#19,#10
 2007 06f4 51E5     	 b .L310
 2008              	.L411:
 2009 06f6 A25D     	 ldrb r2,[r4,r6]
 2010 06f8 02F00F02 	 and r2,r2,#15
 2011 06fc 04EB8202 	 add r2,r4,r2,lsl#2
 2012 0700 D2F8C411 	 ldr r1,[r2,#452]
 2013 0704 5BE5     	 b .L313
 2014              	.L412:
 2015 0706 C26A     	 ldr r2,[r0,#44]
 2016 0708 816A     	 ldr r1,[r0,#40]
 2017 070a 436A     	 ldr r3,[r0,#36]
 2018 070c C162     	 str r1,[r0,#44]
 2019 070e 8A1A     	 subs r2,r1,r2
 2020 0710 1A44     	 add r2,r2,r3
 2021 0712 4262     	 str r2,[r0,#36]
 2022 0714 E0E5     	 b .L287
 2023              	.L311:
 2024 0716 4268     	 ldr r2,[r0,#4]
 2025 0718 DAF80400 	 ldr r0,[r10,#4]
 2026 071c C2F3C622 	 ubfx r2,r2,#11,#7
 2027 0720 091A     	 subs r1,r1,r0
 2028 0722 02F1FF3E 	 add lr,r2,#-1
 2029 0726 8E44     	 add lr,lr,r1
 2030 0728 BEFBF2F2 	 udiv r2,lr,r2
 2031 072c 62F3DC43 	 bfi r3,r2,#19,#10
 2032 0730 61F31203 	 bfi r3,r1,#0,#19
 2033 0734 31E5     	 b .L310
 2034              	.L416:
 2035 0736 D8F80410 	 ldr r1,[r8,#4]
 2036 073a 5B1A     	 subs r3,r3,r1
 2037 073c C3F31203 	 ubfx r3,r3,#0,#19
 2038 0740 4FF0010C 	 mov ip,#1
 2039 0744 3BE6     	 b .L294
 2040              	.L415:
 2041 0746 63F31200 	 bfi r0,r3,#0,#19
 2042 074a 0123     	 movs r3,#1
 2043 074c 63F3DC40 	 bfi r0,r3,#19,#10
 2044 0750 44E6     	 b .L292
 2045              	.L413:
 2046 0752 08F00F08 	 and r8,r8,#15
 2047 0756 08F16A01 	 add r1,r8,#106
 2048 075a 5E4F     	 ldr r7,.L427
 2049 075c 57F82110 	 ldr r1,[r7,r1,lsl#2]
 2050 0760 C76A     	 ldr r7,[r0,#44]
 2051 0762 D1F818C0 	 ldr ip,[r1,#24]
 2052 0766 5B49     	 ldr r1,.L427
 2053 0768 0697     	 str r7,[sp,#24]
 2054 076a 08F17808 	 add r8,r8,#120
 2055 076e 51F82810 	 ldr r1,[r1,r8,lsl#2]
 2056 0772 0791     	 str r1,[sp,#28]
 2057 0774 816A     	 ldr r1,[r0,#40]
 2058 0776 C91B     	 subs r1,r1,r7
 2059 0778 0591     	 str r1,[sp,#20]
 2060 077a 51D0     	 beq .L418
 2061 077c 01F10308 	 add r8,r1,#3
 2062 0780 1FFA8CFC 	 uxth ip,ip
 2063 0784 4FEA9808 	 lsr r8,r8,#2
 2064 0788 E045     	 cmp r8,ip
 2065 078a 44D8     	 bhi .L419
 2066              	.L282:
 2067 078c 0BFB0E41 	 mla r1,fp,lr,r4
 2068 0790 B8F1000F 	 cmp r8,#0
 2069 0794 00F09B80 	 beq .L420
 2070 0798 0691     	 str r1,[sp,#24]
 2071 079a CDF82490 	 str r9,[sp,#36]
 2072 079e 496A     	 ldr r1,[r1,#36]
 2073 07a0 DDF81CC0 	 ldr ip,[sp,#28]
 2074 07a4 029F     	 ldr r7,[sp,#8]
 2075 07a6 DDF81890 	 ldr r9,[sp,#24]
 2076 07aa CDF820E0 	 str lr,[sp,#32]
 2077 07ae 0020     	 movs r0,#0
 2078              	.L284:
 2079 07b0 0968     	 ldr r1,[r1]
 2080 07b2 CCF80010 	 str r1,[ip]
 2081 07b6 D9F82410 	 ldr r1,[r9,#36]
 2082 07ba 0130     	 adds r0,r0,#1
 2083 07bc 0431     	 adds r1,r1,#4
 2084 07be 4045     	 cmp r0,r8
 2085 07c0 C9F82410 	 str r1,[r9,#36]
 2086 07c4 F4D1     	 bne .L284
 2087 07c6 0698     	 ldr r0,[sp,#24]
 2088 07c8 DDF820E0 	 ldr lr,[sp,#32]
 2089 07cc C06A     	 ldr r0,[r0,#44]
 2090 07ce DDF82490 	 ldr r9,[sp,#36]
 2091 07d2 0297     	 str r7,[sp,#8]
 2092 07d4 0690     	 str r0,[sp,#24]
 2093 07d6 0746     	 mov r7,r0
 2094              	.L281:
 2095 07d8 BC46     	 mov ip,r7
 2096 07da 059F     	 ldr r7,[sp,#20]
 2097 07dc 0BFB0E40 	 mla r0,fp,lr,r4
 2098 07e0 BC44     	 add ip,ip,r7
 2099 07e2 3944     	 add r1,r1,r7
 2100 07e4 C0F82CC0 	 str ip,[r0,#44]
 2101 07e8 4162     	 str r1,[r0,#36]
 2102 07ea 88E5     	 b .L285
 2103              	.L295:
 2104 07ec 0129     	 cmp r1,#1
 2105 07ee 7FF4F5AD 	 bne .L292
 2106 07f2 069F     	 ldr r7,[sp,#24]
 2107 07f4 DAF83430 	 ldr r3,[r10,#52]
 2108 07f8 B940     	 lsls r1,r1,r7
 2109 07fa 1943     	 orrs r1,r1,r3
 2110 07fc CAF83410 	 str r1,[r10,#52]
 2111 0800 ECE5     	 b .L292
 2112              	.L414:
 2113 0802 344B     	 ldr r3,.L427
 2114 0804 D3F8A411 	 ldr r1,[r3,#420]
 2115 0808 4B6B     	 ldr r3,[r1,#52]
 2116 080a 02FA0EF2 	 lsl r2,r2,lr
 2117 080e 23EA0202 	 bic r2,r3,r2
 2118 0812 4A63     	 str r2,[r1,#52]
 2119 0814 82E5     	 b .L289
 2120              	.L419:
 2121 0816 4FEA8C01 	 lsl r1,ip,#2
 2122 081a 0591     	 str r1,[sp,#20]
 2123 081c E046     	 mov r8,ip
 2124 081e B5E7     	 b .L282
 2125              	.L418:
 2126 0820 416A     	 ldr r1,[r0,#36]
 2127 0822 069F     	 ldr r7,[sp,#24]
 2128 0824 D8E7     	 b .L281
 2129              	.L249:
 2130 0826 02F00F07 	 and r7,r2,#15
 2131 082a 04EB8701 	 add r1,r4,r7,lsl#2
 2132 082e C2F30A10 	 ubfx r0,r2,#4,#11
 2133 0832 D1F8C421 	 ldr r2,[r1,#452]
 2134 0836 D4F8E0C1 	 ldr ip,[r4,#480]
 2135 083a 1268     	 ldr r2,[r2]
 2136 083c 2549     	 ldr r1,.L427
 2137 083e 1204     	 lsls r2,r2,#16
 2138 0840 7FF53EAF 	 bpl .L248
 2139 0844 3422     	 movs r2,#52
 2140 0846 02FB071E 	 mla lr,r2,r7,r1
 2141 084a DEF82410 	 ldr r1,[lr,#36]
 2142 084e 0029     	 cmp r1,#0
 2143 0850 3FF436AF 	 beq .L248
 2144 0854 5FEA9008 	 lsrs r8,r0,#2
 2145 0858 0FD0     	 beq .L251
 2146 085a 4FEA8808 	 lsl r8,r8,#2
 2147 085e 0022     	 movs r2,#0
 2148 0860 01E0     	 b .L253
 2149              	.L421:
 2150 0862 DEF82410 	 ldr r1,[lr,#36]
 2151              	.L253:
 2152 0866 DCF80060 	 ldr r6,[ip]
 2153 086a 8E50     	 str r6,[r1,r2]
 2154 086c 0432     	 adds r2,r2,#4
 2155 086e 4245     	 cmp r2,r8
 2156 0870 F7D1     	 bne .L421
 2157 0872 3422     	 movs r2,#52
 2158 0874 02FB0742 	 mla r2,r2,r7,r4
 2159 0878 516A     	 ldr r1,[r2,#36]
 2160              	.L251:
 2161 087a 4045     	 cmp r0,r8
 2162 087c 1ED0     	 beq .L254
 2163 087e DCF800C0 	 ldr ip,[ip]
 2164 0882 1BD9     	 bls .L254
 2165 0884 4FF0340E 	 mov lr,#52
 2166 0888 4346     	 mov r3,r8
 2167 088a 0EFB074E 	 mla lr,lr,r7,r4
 2168 088e 0026     	 movs r6,#0
 2169 0890 4FF0FF08 	 mov r8,#255
 2170 0894 01E0     	 b .L256
 2171              	.L422:
 2172 0896 DEF82410 	 ldr r1,[lr,#36]
 2173              	.L256:
 2174 089a 08FA06F2 	 lsl r2,r8,r6
 2175 089e 02EA0C02 	 and r2,r2,ip
 2176 08a2 F240     	 lsrs r2,r2,r6
 2177 08a4 CA54     	 strb r2,[r1,r3]
 2178 08a6 0133     	 adds r3,r3,#1
 2179 08a8 9842     	 cmp r0,r3
 2180 08aa 06F10806 	 add r6,r6,#8
 2181 08ae F2D1     	 bne .L422
 2182 08b0 3422     	 movs r2,#52
 2183 08b2 02FB0742 	 mla r2,r2,r7,r4
 2184 08b6 D4F8A031 	 ldr r3,[r4,#416]
 2185 08ba 516A     	 ldr r1,[r2,#36]
 2186              	.L254:
 2187 08bc 3422     	 movs r2,#52
 2188 08be 02FB0747 	 mla r7,r2,r7,r4
 2189 08c2 0144     	 add r1,r1,r0
 2190 08c4 FA6A     	 ldr r2,[r7,#44]
 2191 08c6 7962     	 str r1,[r7,#36]
 2192 08c8 0244     	 add r2,r2,r0
 2193 08ca FA62     	 str r2,[r7,#44]
 2194 08cc F8E6     	 b .L248
 2195              	.L420:
 2196 08ce 496A     	 ldr r1,[r1,#36]
 2197 08d0 069F     	 ldr r7,[sp,#24]
 2198 08d2 81E7     	 b .L281
 2199              	.L428:
 2200              	 .align 2
 2201              	.L427:
 2202 08d4 00000000 	 .word xmc_device
 2204              	 .section .text.XMC_USBD_Enable,"ax",%progbits
 2205              	 .align 2
 2206              	 .global XMC_USBD_Enable
 2207              	 .thumb
 2208              	 .thumb_func
 2210              	XMC_USBD_Enable:
 2211              	 
 2212              	 
 2213 0000 10B5     	 push {r4,lr}
 2214 0002 054C     	 ldr r4,.L431
 2215 0004 2046     	 mov r0,r4
 2216 0006 FFF7FEFF 	 bl XMC_SCU_CLOCK_UngatePeripheralClock
 2217 000a 2046     	 mov r0,r4
 2218 000c FFF7FEFF 	 bl XMC_SCU_RESET_DeassertPeripheralReset
 2219 0010 BDE81040 	 pop {r4,lr}
 2220 0014 FFF7FEBF 	 b XMC_SCU_POWER_EnableUsb
 2221              	.L432:
 2222              	 .align 2
 2223              	.L431:
 2224 0018 80000020 	 .word 536871040
 2226              	 .section .text.XMC_USBD_Disable,"ax",%progbits
 2227              	 .align 2
 2228              	 .global XMC_USBD_Disable
 2229              	 .thumb
 2230              	 .thumb_func
 2232              	XMC_USBD_Disable:
 2233              	 
 2234              	 
 2235 0000 10B5     	 push {r4,lr}
 2236 0002 054C     	 ldr r4,.L435
 2237 0004 2046     	 mov r0,r4
 2238 0006 FFF7FEFF 	 bl XMC_SCU_RESET_AssertPeripheralReset
 2239 000a 2046     	 mov r0,r4
 2240 000c FFF7FEFF 	 bl XMC_SCU_CLOCK_GatePeripheralClock
 2241 0010 BDE81040 	 pop {r4,lr}
 2242 0014 FFF7FEBF 	 b XMC_SCU_POWER_DisableUsb
 2243              	.L436:
 2244              	 .align 2
 2245              	.L435:
 2246 0018 80000020 	 .word 536871040
 2248              	 .section .text.XMC_USBD_ClearEvent,"ax",%progbits
 2249              	 .align 2
 2250              	 .global XMC_USBD_ClearEvent
 2251              	 .thumb
 2252              	 .thumb_func
 2254              	XMC_USBD_ClearEvent:
 2255              	 
 2256              	 
 2257              	 
 2258 0000 0D28     	 cmp r0,#13
 2259 0002 3FD8     	 bhi .L449
 2260 0004 DFE800F0 	 tbb [pc,r0]
 2261              	.L440:
 2262 0008 29       	 .byte (.L439-.L440)/2
 2263 0009 3E       	 .byte (.L449-.L440)/2
 2264 000a 3E       	 .byte (.L449-.L440)/2
 2265 000b 3E       	 .byte (.L449-.L440)/2
 2266 000c 30       	 .byte (.L441-.L440)/2
 2267 000d 3E       	 .byte (.L449-.L440)/2
 2268 000e 37       	 .byte (.L442-.L440)/2
 2269 000f 07       	 .byte (.L444-.L440)/2
 2270 0010 07       	 .byte (.L444-.L440)/2
 2271 0011 15       	 .byte (.L445-.L440)/2
 2272 0012 1B       	 .byte (.L446-.L440)/2
 2273 0013 22       	 .byte (.L447-.L440)/2
 2274 0014 3E       	 .byte (.L449-.L440)/2
 2275 0015 0E       	 .byte (.L448-.L440)/2
 2276              	 .p2align 1
 2277              	.L444:
 2278 0016 4FF00042 	 mov r2,#-2147483648
 2279              	.L438:
 2280 001a 1B4B     	 ldr r3,.L450
 2281 001c D3F8A031 	 ldr r3,[r3,#416]
 2282 0020 5A61     	 str r2,[r3,#20]
 2283 0022 7047     	 bx lr
 2284              	.L448:
 2285 0024 184B     	 ldr r3,.L450
 2286 0026 D3F8A031 	 ldr r3,[r3,#416]
 2287 002a 4FF40022 	 mov r2,#524288
 2288 002e 5A61     	 str r2,[r3,#20]
 2289 0030 7047     	 bx lr
 2290              	.L445:
 2291 0032 154B     	 ldr r3,.L450
 2292 0034 D3F8A031 	 ldr r3,[r3,#416]
 2293 0038 0822     	 movs r2,#8
 2294 003a 5A61     	 str r2,[r3,#20]
 2295 003c 7047     	 bx lr
 2296              	.L446:
 2297 003e 124B     	 ldr r3,.L450
 2298 0040 D3F8A031 	 ldr r3,[r3,#416]
 2299 0044 4FF48062 	 mov r2,#1024
 2300 0048 5A61     	 str r2,[r3,#20]
 2301 004a 7047     	 bx lr
 2302              	.L447:
 2303 004c 0E4B     	 ldr r3,.L450
 2304 004e D3F8A031 	 ldr r3,[r3,#416]
 2305 0052 4FF40052 	 mov r2,#8192
 2306 0056 5A61     	 str r2,[r3,#20]
 2307 0058 7047     	 bx lr
 2308              	.L439:
 2309 005a 0B4B     	 ldr r3,.L450
 2310 005c D3F8A031 	 ldr r3,[r3,#416]
 2311 0060 4FF08042 	 mov r2,#1073741824
 2312 0064 5A61     	 str r2,[r3,#20]
 2313 0066 7047     	 bx lr
 2314              	.L441:
 2315 0068 074B     	 ldr r3,.L450
 2316 006a D3F8A031 	 ldr r3,[r3,#416]
 2317 006e 4FF48052 	 mov r2,#4096
 2318 0072 5A61     	 str r2,[r3,#20]
 2319 0074 7047     	 bx lr
 2320              	.L442:
 2321 0076 044B     	 ldr r3,.L450
 2322 0078 D3F8A031 	 ldr r3,[r3,#416]
 2323 007c 4FF40062 	 mov r2,#2048
 2324 0080 5A61     	 str r2,[r3,#20]
 2325 0082 7047     	 bx lr
 2326              	.L449:
 2327 0084 0022     	 movs r2,#0
 2328 0086 C8E7     	 b .L438
 2329              	.L451:
 2330              	 .align 2
 2331              	.L450:
 2332 0088 00000000 	 .word xmc_device
 2334              	 .section .text.XMC_USBD_ClearEventINEP,"ax",%progbits
 2335              	 .align 2
 2336              	 .global XMC_USBD_ClearEventINEP
 2337              	 .thumb
 2338              	 .thumb_func
 2340              	XMC_USBD_ClearEventINEP:
 2341              	 
 2342              	 
 2343              	 
 2344 0000 6A31     	 adds r1,r1,#106
 2345 0002 024B     	 ldr r3,.L453
 2346 0004 53F82130 	 ldr r3,[r3,r1,lsl#2]
 2347 0008 9860     	 str r0,[r3,#8]
 2348 000a 7047     	 bx lr
 2349              	.L454:
 2350              	 .align 2
 2351              	.L453:
 2352 000c 00000000 	 .word xmc_device
 2354              	 .section .text.XMC_USBD_ClearEventOUTEP,"ax",%progbits
 2355              	 .align 2
 2356              	 .global XMC_USBD_ClearEventOUTEP
 2357              	 .thumb
 2358              	 .thumb_func
 2360              	XMC_USBD_ClearEventOUTEP:
 2361              	 
 2362              	 
 2363              	 
 2364 0000 034B     	 ldr r3,.L456
 2365 0002 03EB8101 	 add r1,r3,r1,lsl#2
 2366 0006 D1F8C431 	 ldr r3,[r1,#452]
 2367 000a 9860     	 str r0,[r3,#8]
 2368 000c 7047     	 bx lr
 2369              	.L457:
 2370 000e 00BF     	 .align 2
 2371              	.L456:
 2372 0010 00000000 	 .word xmc_device
 2374              	 .section .text.XMC_USBD_EnableEventOUTEP,"ax",%progbits
 2375              	 .align 2
 2376              	 .global XMC_USBD_EnableEventOUTEP
 2377              	 .thumb
 2378              	 .thumb_func
 2380              	XMC_USBD_EnableEventOUTEP:
 2381              	 
 2382              	 
 2383              	 
 2384 0000 034B     	 ldr r3,.L459
 2385 0002 D3F8A421 	 ldr r2,[r3,#420]
 2386 0006 5369     	 ldr r3,[r2,#20]
 2387 0008 1843     	 orrs r0,r0,r3
 2388 000a 5061     	 str r0,[r2,#20]
 2389 000c 7047     	 bx lr
 2390              	.L460:
 2391 000e 00BF     	 .align 2
 2392              	.L459:
 2393 0010 00000000 	 .word xmc_device
 2395              	 .section .text.XMC_USBD_EnableEventINEP,"ax",%progbits
 2396              	 .align 2
 2397              	 .global XMC_USBD_EnableEventINEP
 2398              	 .thumb
 2399              	 .thumb_func
 2401              	XMC_USBD_EnableEventINEP:
 2402              	 
 2403              	 
 2404              	 
 2405 0000 034B     	 ldr r3,.L462
 2406 0002 D3F8A421 	 ldr r2,[r3,#420]
 2407 0006 1369     	 ldr r3,[r2,#16]
 2408 0008 1843     	 orrs r0,r0,r3
 2409 000a 1061     	 str r0,[r2,#16]
 2410 000c 7047     	 bx lr
 2411              	.L463:
 2412 000e 00BF     	 .align 2
 2413              	.L462:
 2414 0010 00000000 	 .word xmc_device
 2416              	 .global Driver_USBD0
 2417              	 .comm usbd_init,4,4
 2418              	 .comm xmc_device,520,4
 2419              	 .global XMC_USBD_EP_IN_BUFFERSIZE
 2420              	 .global XMC_USBD_EP_OUT_BUFFERSIZE
 2421              	 .section .rodata.Driver_USBD0,"a",%progbits
 2422              	 .align 2
 2425              	Driver_USBD0:
 2426 0000 00000000 	 .word XMC_USBD_GetCapabilities
 2427 0004 00000000 	 .word XMC_USBD_Init
 2428 0008 00000000 	 .word XMC_USBD_Uninitialize
 2429 000c 00000000 	 .word XMC_USBD_DeviceConnect
 2430 0010 00000000 	 .word XMC_USBD_DeviceDisconnect
 2431 0014 00000000 	 .word XMC_USBD_DeviceGetState
 2432 0018 00000000 	 .word XMC_USBD_DeviceSetAddress
 2433 001c 00000000 	 .word XMC_USBD_EndpointConfigure
 2434 0020 00000000 	 .word XMC_USBD_EndpointUnconfigure
 2435 0024 00000000 	 .word XMC_USBD_EndpointStall
 2436 0028 00000000 	 .word XMC_USBD_EndpointReadStart
 2437 002c 00000000 	 .word XMC_USBD_EndpointRead
 2438 0030 00000000 	 .word XMC_USBD_EndpointWrite
 2439 0034 00000000 	 .word XMC_USBD_EndpointAbort
 2440 0038 00000000 	 .word XMC_USBD_GetFrameNumber
 2441 003c 00000000 	 .word XMC_USBD_IsEnumDone
 2442              	 .section USB_RAM,"aw",%progbits
 2443              	 .align 2
 2444              	 .set .LANCHOR0,.+0
 2447              	XMC_USBD_EP_IN_BUFFER:
 2448 0000 00000000 	 .space 1792
 2448      00000000 
 2448      00000000 
 2448      00000000 
 2448      00000000 
 2451              	XMC_USBD_EP_OUT_BUFFER:
 2452 0700 00000000 	 .space 1792
 2452      00000000 
 2452      00000000 
 2452      00000000 
 2452      00000000 
 2453              	 .section .bss.XMC_USBD_EP_OUT_BUFFERSIZE,"aw",%nobits
 2454              	 .align 2
 2455              	 .set .LANCHOR2,.+0
 2458              	XMC_USBD_EP_OUT_BUFFERSIZE:
 2459 0000 00000000 	 .space 28
 2459      00000000 
 2459      00000000 
 2459      00000000 
 2459      00000000 
 2460              	 .section .bss.XMC_USBD_EP_IN_BUFFERSIZE,"aw",%nobits
 2461              	 .align 2
 2462              	 .set .LANCHOR1,.+0
 2465              	XMC_USBD_EP_IN_BUFFERSIZE:
 2466 0000 00000000 	 .space 28
 2466      00000000 
 2466      00000000 
 2466      00000000 
 2466      00000000 
 2467              	 .ident "GCC: (GNU Tools for ARM Embedded Processors) 4.9.3 20141119 (release) [ARM/embedded-4_9-branch revision 218278]"
DEFINED SYMBOLS
                            *ABS*:00000000 xmc_usbd.c
    {standard input}:17     .text.XMC_USBD_GetCapabilities:00000000 $t
    {standard input}:22     .text.XMC_USBD_GetCapabilities:00000000 XMC_USBD_GetCapabilities
    {standard input}:36     .text.XMC_USBD_DeviceConnect:00000000 $t
    {standard input}:41     .text.XMC_USBD_DeviceConnect:00000000 XMC_USBD_DeviceConnect
    {standard input}:55     .text.XMC_USBD_DeviceConnect:00000014 $d
                            *COM*:00000208 xmc_device
    {standard input}:58     .text.XMC_USBD_DeviceDisconnect:00000000 $t
    {standard input}:63     .text.XMC_USBD_DeviceDisconnect:00000000 XMC_USBD_DeviceDisconnect
    {standard input}:77     .text.XMC_USBD_DeviceDisconnect:00000014 $d
    {standard input}:80     .text.XMC_USBD_DeviceGetState:00000000 $t
    {standard input}:85     .text.XMC_USBD_DeviceGetState:00000000 XMC_USBD_DeviceGetState
    {standard input}:218    .text.XMC_USBD_DeviceGetState:00000114 $d
    {standard input}:221    .text.XMC_USBD_DeviceSetAddress:00000000 $t
    {standard input}:226    .text.XMC_USBD_DeviceSetAddress:00000000 XMC_USBD_DeviceSetAddress
    {standard input}:242    .text.XMC_USBD_DeviceSetAddress:00000014 $d
    {standard input}:245    .text.XMC_USBD_EndpointStall:00000000 $t
    {standard input}:250    .text.XMC_USBD_EndpointStall:00000000 XMC_USBD_EndpointStall
    {standard input}:305    .text.XMC_USBD_EndpointStall:00000088 $d
    {standard input}:308    .text.XMC_USBD_EndpointAbort:00000000 $t
    {standard input}:313    .text.XMC_USBD_EndpointAbort:00000000 XMC_USBD_EndpointAbort
    {standard input}:344    .text.XMC_USBD_EndpointAbort:00000040 $d
    {standard input}:347    .text.XMC_USBD_EndpointUnconfigure:00000000 $t
    {standard input}:352    .text.XMC_USBD_EndpointUnconfigure:00000000 XMC_USBD_EndpointUnconfigure
    {standard input}:446    .text.XMC_USBD_EndpointUnconfigure:000000f8 $d
                            *COM*:00000004 usbd_init
    {standard input}:450    .text.XMC_USBD_GetFrameNumber:00000000 $t
    {standard input}:455    .text.XMC_USBD_GetFrameNumber:00000000 XMC_USBD_GetFrameNumber
    {standard input}:467    .text.XMC_USBD_GetFrameNumber:00000010 $d
    {standard input}:470    .text.XMC_USBD_IsEnumDone:00000000 $t
    {standard input}:475    .text.XMC_USBD_IsEnumDone:00000000 XMC_USBD_IsEnumDone
    {standard input}:489    .text.XMC_USBD_IsEnumDone:00000018 $d
    {standard input}:492    .text.XMC_USBD_Uninitialize:00000000 $t
    {standard input}:497    .text.XMC_USBD_Uninitialize:00000000 XMC_USBD_Uninitialize
    {standard input}:514    .text.XMC_USBD_Uninitialize:00000020 $d
    {standard input}:517    .text.XMC_USBD_EndpointConfigure:00000000 $t
    {standard input}:522    .text.XMC_USBD_EndpointConfigure:00000000 XMC_USBD_EndpointConfigure
    {standard input}:761    .text.XMC_USBD_EndpointConfigure:00000270 $d
    {standard input}:767    .text.XMC_USBD_EndpointRead:00000000 $t
    {standard input}:772    .text.XMC_USBD_EndpointRead:00000000 XMC_USBD_EndpointRead
    {standard input}:805    .text.XMC_USBD_EndpointRead:0000003c $d
    {standard input}:808    .text.XMC_USBD_Init:00000000 $t
    {standard input}:813    .text.XMC_USBD_Init:00000000 XMC_USBD_Init
    {standard input}:963    .text.XMC_USBD_Init:000001b0 $d
    {standard input}:972    .text.XMC_USBD_EndpointReadStart:00000000 $t
    {standard input}:977    .text.XMC_USBD_EndpointReadStart:00000000 XMC_USBD_EndpointReadStart
    {standard input}:1080   .text.XMC_USBD_EndpointReadStart:000000d8 $d
    {standard input}:1084   .text.XMC_USBD_EndpointWrite:00000000 $t
    {standard input}:1089   .text.XMC_USBD_EndpointWrite:00000000 XMC_USBD_EndpointWrite
    {standard input}:1189   .text.XMC_USBD_EndpointWrite:000000f0 $d
    {standard input}:1193   .text.XMC_USBD_lDeviceActive:00000000 $t
    {standard input}:1198   .text.XMC_USBD_lDeviceActive:00000000 XMC_USBD_lDeviceActive
    {standard input}:1320   .text.XMC_USBD_lDeviceActive:000000ec $d
    {standard input}:1323   .text.XMC_USBD_IRQHandler:00000000 $t
    {standard input}:1328   .text.XMC_USBD_IRQHandler:00000000 XMC_USBD_IRQHandler
    {standard input}:1627   .text.XMC_USBD_IRQHandler:000002ec $d
    {standard input}:1630   .text.XMC_USBD_IRQHandler:000002f4 $t
    {standard input}:1994   .text.XMC_USBD_IRQHandler:000006c8 $d
    {standard input}:2003   .text.XMC_USBD_IRQHandler:000006e8 $t
    {standard input}:2202   .text.XMC_USBD_IRQHandler:000008d4 $d
    {standard input}:2205   .text.XMC_USBD_Enable:00000000 $t
    {standard input}:2210   .text.XMC_USBD_Enable:00000000 XMC_USBD_Enable
    {standard input}:2224   .text.XMC_USBD_Enable:00000018 $d
    {standard input}:2227   .text.XMC_USBD_Disable:00000000 $t
    {standard input}:2232   .text.XMC_USBD_Disable:00000000 XMC_USBD_Disable
    {standard input}:2246   .text.XMC_USBD_Disable:00000018 $d
    {standard input}:2249   .text.XMC_USBD_ClearEvent:00000000 $t
    {standard input}:2254   .text.XMC_USBD_ClearEvent:00000000 XMC_USBD_ClearEvent
    {standard input}:2262   .text.XMC_USBD_ClearEvent:00000008 $d
    {standard input}:2276   .text.XMC_USBD_ClearEvent:00000016 $t
    {standard input}:2332   .text.XMC_USBD_ClearEvent:00000088 $d
    {standard input}:2335   .text.XMC_USBD_ClearEventINEP:00000000 $t
    {standard input}:2340   .text.XMC_USBD_ClearEventINEP:00000000 XMC_USBD_ClearEventINEP
    {standard input}:2352   .text.XMC_USBD_ClearEventINEP:0000000c $d
    {standard input}:2355   .text.XMC_USBD_ClearEventOUTEP:00000000 $t
    {standard input}:2360   .text.XMC_USBD_ClearEventOUTEP:00000000 XMC_USBD_ClearEventOUTEP
    {standard input}:2372   .text.XMC_USBD_ClearEventOUTEP:00000010 $d
    {standard input}:2375   .text.XMC_USBD_EnableEventOUTEP:00000000 $t
    {standard input}:2380   .text.XMC_USBD_EnableEventOUTEP:00000000 XMC_USBD_EnableEventOUTEP
    {standard input}:2393   .text.XMC_USBD_EnableEventOUTEP:00000010 $d
    {standard input}:2396   .text.XMC_USBD_EnableEventINEP:00000000 $t
    {standard input}:2401   .text.XMC_USBD_EnableEventINEP:00000000 XMC_USBD_EnableEventINEP
    {standard input}:2414   .text.XMC_USBD_EnableEventINEP:00000010 $d
    {standard input}:2425   .rodata.Driver_USBD0:00000000 Driver_USBD0
    {standard input}:2465   .bss.XMC_USBD_EP_IN_BUFFERSIZE:00000000 XMC_USBD_EP_IN_BUFFERSIZE
    {standard input}:2458   .bss.XMC_USBD_EP_OUT_BUFFERSIZE:00000000 XMC_USBD_EP_OUT_BUFFERSIZE
    {standard input}:2422   .rodata.Driver_USBD0:00000000 $d
    {standard input}:2443   USB_RAM:00000000 $d
    {standard input}:2447   USB_RAM:00000000 XMC_USBD_EP_IN_BUFFER
    {standard input}:2451   USB_RAM:00000700 XMC_USBD_EP_OUT_BUFFER
    {standard input}:2454   .bss.XMC_USBD_EP_OUT_BUFFERSIZE:00000000 $d
    {standard input}:2461   .bss.XMC_USBD_EP_IN_BUFFERSIZE:00000000 $d

UNDEFINED SYMBOLS
memset
memcpy
XMC_SCU_CLOCK_UngatePeripheralClock
XMC_SCU_RESET_DeassertPeripheralReset
XMC_SCU_POWER_EnableUsb
XMC_SCU_RESET_AssertPeripheralReset
XMC_SCU_CLOCK_GatePeripheralClock
XMC_SCU_POWER_DisableUsb
