   1              	 .syntax unified
   2              	 .cpu cortex-m4
   3              	 .eabi_attribute 27,3
   4              	 .fpu fpv4-sp-d16
   5              	 .eabi_attribute 20,1
   6              	 .eabi_attribute 21,1
   7              	 .eabi_attribute 23,3
   8              	 .eabi_attribute 24,1
   9              	 .eabi_attribute 25,1
  10              	 .eabi_attribute 26,1
  11              	 .eabi_attribute 30,2
  12              	 .eabi_attribute 34,1
  13              	 .eabi_attribute 18,4
  14              	 .thumb
  15              	 .file "queue.c"
  16              	 .section .text.unlikely.prvCopyDataToQueue,"ax",%progbits
  17              	 .align 2
  18              	 .thumb
  19              	 .thumb_func
  21              	prvCopyDataToQueue:
  22              	 
  23              	 
  24 0000 70B5     	 push {r4,r5,r6,lr}
  25 0002 1646     	 mov r6,r2
  26 0004 026C     	 ldr r2,[r0,#64]
  27 0006 856B     	 ldr r5,[r0,#56]
  28 0008 0446     	 mov r4,r0
  29 000a 32B9     	 cbnz r2,.L2
  30 000c 0668     	 ldr r6,[r0]
  31 000e 3EBB     	 cbnz r6,.L6
  32 0010 4068     	 ldr r0,[r0,#4]
  33 0012 FFF7FEFF 	 bl xTaskPriorityDisinherit
  34 0016 6660     	 str r6,[r4,#4]
  35 0018 29E0     	 b .L3
  36              	.L2:
  37 001a 6EB9     	 cbnz r6,.L4
  38 001c 8068     	 ldr r0,[r0,#8]
  39 001e FFF7FEFF 	 bl memcpy
  40 0022 A168     	 ldr r1,[r4,#8]
  41 0024 236C     	 ldr r3,[r4,#64]
  42 0026 6268     	 ldr r2,[r4,#4]
  43 0028 0B44     	 add r3,r3,r1
  44 002a 9342     	 cmp r3,r2
  45 002c A360     	 str r3,[r4,#8]
  46 002e 19D3     	 bcc .L7
  47 0030 2368     	 ldr r3,[r4]
  48 0032 A360     	 str r3,[r4,#8]
  49 0034 3046     	 mov r0,r6
  50 0036 1AE0     	 b .L3
  51              	.L4:
  52 0038 C068     	 ldr r0,[r0,#12]
  53 003a FFF7FEFF 	 bl memcpy
  54 003e 236C     	 ldr r3,[r4,#64]
  55 0040 E268     	 ldr r2,[r4,#12]
  56 0042 2168     	 ldr r1,[r4]
  57 0044 5B42     	 negs r3,r3
  58 0046 1A44     	 add r2,r2,r3
  59 0048 8A42     	 cmp r2,r1
  60 004a E260     	 str r2,[r4,#12]
  61 004c 02D2     	 bcs .L5
  62 004e 6268     	 ldr r2,[r4,#4]
  63 0050 1344     	 add r3,r3,r2
  64 0052 E360     	 str r3,[r4,#12]
  65              	.L5:
  66 0054 022E     	 cmp r6,#2
  67 0056 07D1     	 bne .L8
  68 0058 45B1     	 cbz r5,.L9
  69 005a 013D     	 subs r5,r5,#1
  70 005c 0020     	 movs r0,#0
  71 005e 06E0     	 b .L3
  72              	.L6:
  73 0060 1046     	 mov r0,r2
  74 0062 04E0     	 b .L3
  75              	.L7:
  76 0064 3046     	 mov r0,r6
  77 0066 02E0     	 b .L3
  78              	.L8:
  79 0068 0020     	 movs r0,#0
  80 006a 00E0     	 b .L3
  81              	.L9:
  82 006c 2846     	 mov r0,r5
  83              	.L3:
  84 006e 0135     	 adds r5,r5,#1
  85 0070 A563     	 str r5,[r4,#56]
  86 0072 70BD     	 pop {r4,r5,r6,pc}
  88              	 .section .text.unlikely.prvCopyDataFromQueue,"ax",%progbits
  89              	 .align 2
  90              	 .thumb
  91              	 .thumb_func
  93              	prvCopyDataFromQueue:
  94              	 
  95              	 
  96              	 
  97 0000 026C     	 ldr r2,[r0,#64]
  98 0002 0346     	 mov r3,r0
  99 0004 7AB1     	 cbz r2,.L16
 100 0006 10B4     	 push {r4}
 101 0008 C468     	 ldr r4,[r0,#12]
 102 000a 4068     	 ldr r0,[r0,#4]
 103 000c 1444     	 add r4,r4,r2
 104 000e 8442     	 cmp r4,r0
 105 0010 28BF     	 it cs
 106 0012 1868     	 ldrcs r0,[r3]
 107 0014 DC60     	 str r4,[r3,#12]
 108 0016 28BF     	 it cs
 109 0018 D860     	 strcs r0,[r3,#12]
 110 001a 5DF8044B 	 ldr r4,[sp],#4
 111 001e 0846     	 mov r0,r1
 112 0020 D968     	 ldr r1,[r3,#12]
 113 0022 FFF7FEBF 	 b memcpy
 114              	.L16:
 115 0026 7047     	 bx lr
 117              	 .section .text.unlikely.prvNotifyQueueSetContainer.part.0,"ax",%progbits
 118              	 .align 2
 119              	 .thumb
 120              	 .thumb_func
 122              	prvNotifyQueueSetContainer.part.0:
 123              	 
 124              	 
 125              	 
 126              	 
 127              	
 128 0000 4FF0FC03 	 mov r3,#252
 129 0004 83F31188 	 msr basepri,r3
 130 0008 BFF36F8F 	 isb 
 131 000c BFF34F8F 	 dsb 
 132              	
 133              	
 134              	 .thumb
 135              	.L18:
 136 0010 FEE7     	 b .L18
 138 0012 00BF     	 .section .text.prvNotifyQueueSetContainer,"ax",%progbits
 139              	 .align 2
 140              	 .thumb
 141              	 .thumb_func
 143              	prvNotifyQueueSetContainer:
 144              	 
 145              	 
 146 0000 70B5     	 push {r4,r5,r6,lr}
 147 0002 846C     	 ldr r4,[r0,#72]
 148 0004 82B0     	 sub sp,sp,#8
 149 0006 0190     	 str r0,[sp,#4]
 150 0008 A4B1     	 cbz r4,.L32
 151 000a 0A46     	 mov r2,r1
 152 000c E36B     	 ldr r3,[r4,#60]
 153 000e A16B     	 ldr r1,[r4,#56]
 154 0010 9942     	 cmp r1,r3
 155 0012 08D3     	 bcc .L21
 156              	
 157 0014 4FF0FC03 	 mov r3,#252
 158 0018 83F31188 	 msr basepri,r3
 159 001c BFF36F8F 	 isb 
 160 0020 BFF34F8F 	 dsb 
 161              	
 162              	
 163              	 .thumb
 164              	.L22:
 165 0024 FEE7     	 b .L22
 166              	.L21:
 167 0026 A16B     	 ldr r1,[r4,#56]
 168 0028 8B42     	 cmp r3,r1
 169 002a 05D8     	 bhi .L33
 170 002c 0026     	 movs r6,#0
 171              	.L23:
 172 002e 3046     	 mov r0,r6
 173 0030 02B0     	 add sp,sp,#8
 174              	 
 175 0032 70BD     	 pop {r4,r5,r6,pc}
 176              	.L32:
 177 0034 FFF7FEFF 	 bl prvNotifyQueueSetContainer.part.0
 178              	.L33:
 179 0038 94F84550 	 ldrb r5,[r4,#69]
 180 003c 2046     	 mov r0,r4
 181 003e 01A9     	 add r1,sp,#4
 182 0040 FFF7FEFF 	 bl prvCopyDataToQueue
 183 0044 EDB2     	 uxtb r5,r5
 184 0046 FF2D     	 cmp r5,#255
 185 0048 0646     	 mov r6,r0
 186 004a 06D0     	 beq .L34
 187 004c 6B1C     	 adds r3,r5,#1
 188 004e DBB2     	 uxtb r3,r3
 189 0050 3046     	 mov r0,r6
 190 0052 84F84530 	 strb r3,[r4,#69]
 191 0056 02B0     	 add sp,sp,#8
 192              	 
 193 0058 70BD     	 pop {r4,r5,r6,pc}
 194              	.L34:
 195 005a 636A     	 ldr r3,[r4,#36]
 196 005c 002B     	 cmp r3,#0
 197 005e E6D0     	 beq .L23
 198 0060 04F12400 	 add r0,r4,#36
 199 0064 FFF7FEFF 	 bl xTaskRemoveFromEventList
 200 0068 0028     	 cmp r0,#0
 201 006a 18BF     	 it ne
 202 006c 0126     	 movne r6,#1
 203 006e 3046     	 mov r0,r6
 204 0070 02B0     	 add sp,sp,#8
 205              	 
 206 0072 70BD     	 pop {r4,r5,r6,pc}
 208              	 .section .text.unlikely.xQueueReceiveFromISR.part.2,"ax",%progbits
 209              	 .align 2
 210              	 .thumb
 211              	 .thumb_func
 213              	xQueueReceiveFromISR.part.2:
 214              	 
 215              	 
 216 0000 2DE9F843 	 push {r3,r4,r5,r6,r7,r8,r9,lr}
 217 0004 0546     	 mov r5,r0
 218 0006 8946     	 mov r9,r1
 219 0008 9046     	 mov r8,r2
 220 000a FFF7FEFF 	 bl vPortValidateInterruptPriority
 221              	
 222 000e EFF31187 	 mrs r7,basepri
 223 0012 4FF0FC03 	 mov r3,#252
 224 0016 83F31188 	 msr basepri,r3
 225 001a BFF36F8F 	 isb 
 226 001e BFF34F8F 	 dsb 
 227              	
 228              	
 229              	 .thumb
 230 0022 AC6B     	 ldr r4,[r5,#56]
 231 0024 F4B1     	 cbz r4,.L40
 232 0026 95F84460 	 ldrb r6,[r5,#68]
 233 002a 4946     	 mov r1,r9
 234 002c 2846     	 mov r0,r5
 235 002e F6B2     	 uxtb r6,r6
 236 0030 FFF7FEFF 	 bl prvCopyDataFromQueue
 237 0034 013C     	 subs r4,r4,#1
 238 0036 FF2E     	 cmp r6,#255
 239 0038 AC63     	 str r4,[r5,#56]
 240 003a 0DD1     	 bne .L37
 241 003c 2B69     	 ldr r3,[r5,#16]
 242 003e 7BB1     	 cbz r3,.L48
 243 0040 05F11000 	 add r0,r5,#16
 244 0044 FFF7FEFF 	 bl xTaskRemoveFromEventList
 245 0048 50B1     	 cbz r0,.L48
 246 004a B8F1000F 	 cmp r8,#0
 247 004e 07D0     	 beq .L48
 248 0050 0120     	 movs r0,#1
 249 0052 C8F80000 	 str r0,[r8]
 250 0056 06E0     	 b .L36
 251              	.L37:
 252 0058 0136     	 adds r6,r6,#1
 253 005a F6B2     	 uxtb r6,r6
 254 005c 85F84460 	 strb r6,[r5,#68]
 255              	.L48:
 256 0060 0120     	 movs r0,#1
 257 0062 00E0     	 b .L36
 258              	.L40:
 259 0064 2046     	 mov r0,r4
 260              	.L36:
 261              	
 262 0066 87F31188 	 msr basepri,r7
 263              	
 264              	 .thumb
 265 006a BDE8F883 	 pop {r3,r4,r5,r6,r7,r8,r9,pc}
 267 006e 00BF     	 .section .text.prvUnlockQueue,"ax",%progbits
 268              	 .align 2
 269              	 .thumb
 270              	 .thumb_func
 272              	prvUnlockQueue:
 273              	 
 274              	 
 275 0000 2DE9F043 	 push {r4,r5,r6,r7,r8,r9,lr}
 276 0004 0446     	 mov r4,r0
 277 0006 83B0     	 sub sp,sp,#12
 278 0008 FFF7FEFF 	 bl vPortEnterCritical
 279 000c 94F84570 	 ldrb r7,[r4,#69]
 280 0010 FFB2     	 uxtb r7,r7
 281 0012 7BB2     	 sxtb r3,r7
 282 0014 002B     	 cmp r3,#0
 283 0016 C8BF     	 it gt
 284 0018 04F12408 	 addgt r8,r4,#36
 285 001c 18DD     	 ble .L65
 286              	.L66:
 287 001e A56C     	 ldr r5,[r4,#72]
 288 0020 002D     	 cmp r5,#0
 289 0022 3CD0     	 beq .L53
 290 0024 AA6B     	 ldr r2,[r5,#56]
 291 0026 EB6B     	 ldr r3,[r5,#60]
 292 0028 0194     	 str r4,[sp,#4]
 293 002a 9A42     	 cmp r2,r3
 294 002c 08D3     	 bcc .L54
 295              	
 296 002e 4FF0FC03 	 mov r3,#252
 297 0032 83F31188 	 msr basepri,r3
 298 0036 BFF36F8F 	 isb 
 299 003a BFF34F8F 	 dsb 
 300              	
 301              	
 302              	 .thumb
 303              	.L55:
 304 003e FEE7     	 b .L55
 305              	.L54:
 306 0040 AA6B     	 ldr r2,[r5,#56]
 307 0042 9342     	 cmp r3,r2
 308 0044 36D8     	 bhi .L88
 309              	.L57:
 310 0046 7B1E     	 subs r3,r7,#1
 311 0048 DBB2     	 uxtb r3,r3
 312 004a DFB2     	 uxtb r7,r3
 313 004c 002B     	 cmp r3,#0
 314 004e E6D1     	 bne .L66
 315              	.L65:
 316 0050 FF23     	 movs r3,#255
 317 0052 84F84530 	 strb r3,[r4,#69]
 318 0056 FFF7FEFF 	 bl vPortExitCritical
 319 005a FFF7FEFF 	 bl vPortEnterCritical
 320 005e 94F84450 	 ldrb r5,[r4,#68]
 321 0062 EDB2     	 uxtb r5,r5
 322 0064 6BB2     	 sxtb r3,r5
 323 0066 002B     	 cmp r3,#0
 324 0068 11DD     	 ble .L52
 325 006a 2369     	 ldr r3,[r4,#16]
 326 006c 7BB1     	 cbz r3,.L52
 327 006e 04F11006 	 add r6,r4,#16
 328 0072 01E0     	 b .L67
 329              	.L69:
 330 0074 2369     	 ldr r3,[r4,#16]
 331 0076 53B1     	 cbz r3,.L52
 332              	.L67:
 333 0078 3046     	 mov r0,r6
 334 007a FFF7FEFF 	 bl xTaskRemoveFromEventList
 335 007e 08B1     	 cbz r0,.L68
 336 0080 FFF7FEFF 	 bl vTaskMissedYield
 337              	.L68:
 338 0084 013D     	 subs r5,r5,#1
 339 0086 EBB2     	 uxtb r3,r5
 340 0088 DDB2     	 uxtb r5,r3
 341 008a 002B     	 cmp r3,#0
 342 008c F2D1     	 bne .L69
 343              	.L52:
 344 008e FF23     	 movs r3,#255
 345 0090 84F84430 	 strb r3,[r4,#68]
 346 0094 FFF7FEFF 	 bl vPortExitCritical
 347 0098 03B0     	 add sp,sp,#12
 348              	 
 349 009a BDE8F083 	 pop {r4,r5,r6,r7,r8,r9,pc}
 350              	.L53:
 351 009e 636A     	 ldr r3,[r4,#36]
 352 00a0 002B     	 cmp r3,#0
 353 00a2 D5D0     	 beq .L65
 354 00a4 4046     	 mov r0,r8
 355 00a6 FFF7FEFF 	 bl xTaskRemoveFromEventList
 356 00aa 0028     	 cmp r0,#0
 357 00ac CBD0     	 beq .L57
 358              	.L62:
 359 00ae FFF7FEFF 	 bl vTaskMissedYield
 360 00b2 C8E7     	 b .L57
 361              	.L88:
 362 00b4 95F84560 	 ldrb r6,[r5,#69]
 363 00b8 2846     	 mov r0,r5
 364 00ba 01A9     	 add r1,sp,#4
 365 00bc 0022     	 movs r2,#0
 366 00be FFF7FEFF 	 bl prvCopyDataToQueue
 367 00c2 F6B2     	 uxtb r6,r6
 368 00c4 FF2E     	 cmp r6,#255
 369 00c6 8146     	 mov r9,r0
 370 00c8 07D0     	 beq .L89
 371 00ca 731C     	 adds r3,r6,#1
 372 00cc DBB2     	 uxtb r3,r3
 373 00ce 85F84530 	 strb r3,[r5,#69]
 374              	.L60:
 375 00d2 B9F1000F 	 cmp r9,#0
 376 00d6 EAD1     	 bne .L62
 377 00d8 B5E7     	 b .L57
 378              	.L89:
 379 00da 6B6A     	 ldr r3,[r5,#36]
 380 00dc 002B     	 cmp r3,#0
 381 00de F8D0     	 beq .L60
 382 00e0 05F12400 	 add r0,r5,#36
 383 00e4 FFF7FEFF 	 bl xTaskRemoveFromEventList
 384 00e8 0028     	 cmp r0,#0
 385 00ea F2D0     	 beq .L60
 386 00ec DFE7     	 b .L62
 388 00ee 00BF     	 .section .text.xQueueGenericReset,"ax",%progbits
 389              	 .align 2
 390              	 .global xQueueGenericReset
 391              	 .thumb
 392              	 .thumb_func
 394              	xQueueGenericReset:
 395              	 
 396              	 
 397 0000 38B5     	 push {r3,r4,r5,lr}
 398 0002 E0B1     	 cbz r0,.L101
 399 0004 0446     	 mov r4,r0
 400 0006 0D46     	 mov r5,r1
 401 0008 FFF7FEFF 	 bl vPortEnterCritical
 402 000c 226C     	 ldr r2,[r4,#64]
 403 000e E36B     	 ldr r3,[r4,#60]
 404 0010 2168     	 ldr r1,[r4]
 405 0012 A160     	 str r1,[r4,#8]
 406 0014 03FB02F3 	 mul r3,r3,r2
 407 0018 9A1A     	 subs r2,r3,r2
 408 001a 0A44     	 add r2,r2,r1
 409 001c 0B44     	 add r3,r3,r1
 410 001e 0020     	 movs r0,#0
 411 0020 FF21     	 movs r1,#255
 412 0022 A063     	 str r0,[r4,#56]
 413 0024 E260     	 str r2,[r4,#12]
 414 0026 84F84410 	 strb r1,[r4,#68]
 415 002a 6360     	 str r3,[r4,#4]
 416 002c 84F84510 	 strb r1,[r4,#69]
 417 0030 05BB     	 cbnz r5,.L93
 418 0032 2369     	 ldr r3,[r4,#16]
 419 0034 63B9     	 cbnz r3,.L102
 420              	.L95:
 421 0036 FFF7FEFF 	 bl vPortExitCritical
 422 003a 0120     	 movs r0,#1
 423 003c 38BD     	 pop {r3,r4,r5,pc}
 424              	.L101:
 425              	
 426 003e 4FF0FC03 	 mov r3,#252
 427 0042 83F31188 	 msr basepri,r3
 428 0046 BFF36F8F 	 isb 
 429 004a BFF34F8F 	 dsb 
 430              	
 431              	
 432              	 .thumb
 433              	.L92:
 434 004e FEE7     	 b .L92
 435              	.L102:
 436 0050 04F11000 	 add r0,r4,#16
 437 0054 FFF7FEFF 	 bl xTaskRemoveFromEventList
 438 0058 0028     	 cmp r0,#0
 439 005a ECD0     	 beq .L95
 440 005c 0B4B     	 ldr r3,.L103
 441 005e 4FF08052 	 mov r2,#268435456
 442 0062 1A60     	 str r2,[r3]
 443              	
 444 0064 BFF34F8F 	 dsb
 445              	
 446              	
 447 0068 BFF36F8F 	 isb
 448              	
 449              	 .thumb
 450 006c FFF7FEFF 	 bl vPortExitCritical
 451 0070 0120     	 movs r0,#1
 452 0072 38BD     	 pop {r3,r4,r5,pc}
 453              	.L93:
 454 0074 04F11000 	 add r0,r4,#16
 455 0078 FFF7FEFF 	 bl vListInitialise
 456 007c 04F12400 	 add r0,r4,#36
 457 0080 FFF7FEFF 	 bl vListInitialise
 458 0084 FFF7FEFF 	 bl vPortExitCritical
 459 0088 0120     	 movs r0,#1
 460 008a 38BD     	 pop {r3,r4,r5,pc}
 461              	.L104:
 462              	 .align 2
 463              	.L103:
 464 008c 04ED00E0 	 .word -536810236
 466              	 .section .text.xQueueGenericCreate,"ax",%progbits
 467              	 .align 2
 468              	 .global xQueueGenericCreate
 469              	 .thumb
 470              	 .thumb_func
 472              	xQueueGenericCreate:
 473              	 
 474              	 
 475 0000 F8B5     	 push {r3,r4,r5,r6,r7,lr}
 476 0002 0646     	 mov r6,r0
 477 0004 40B9     	 cbnz r0,.L106
 478              	
 479 0006 4FF0FC03 	 mov r3,#252
 480 000a 83F31188 	 msr basepri,r3
 481 000e BFF36F8F 	 isb 
 482 0012 BFF34F8F 	 dsb 
 483              	
 484              	
 485              	 .thumb
 486              	.L107:
 487 0016 FEE7     	 b .L107
 488              	.L106:
 489 0018 0F46     	 mov r7,r1
 490 001a 1546     	 mov r5,r2
 491 001c 51B1     	 cbz r1,.L108
 492 001e 01FB00F0 	 mul r0,r1,r0
 493 0022 5430     	 adds r0,r0,#84
 494 0024 FFF7FEFF 	 bl pvPortMalloc
 495 0028 0446     	 mov r4,r0
 496 002a 00F15403 	 add r3,r0,#84
 497 002e 38B9     	 cbnz r0,.L111
 498 0030 2046     	 mov r0,r4
 499 0032 F8BD     	 pop {r3,r4,r5,r6,r7,pc}
 500              	.L108:
 501 0034 5420     	 movs r0,#84
 502 0036 FFF7FEFF 	 bl pvPortMalloc
 503 003a 0446     	 mov r4,r0
 504 003c 0346     	 mov r3,r0
 505 003e 18B3     	 cbz r0,.L113
 506              	.L111:
 507 0040 2360     	 str r3,[r4]
 508 0042 E663     	 str r6,[r4,#60]
 509 0044 2764     	 str r7,[r4,#64]
 510 0046 FFF7FEFF 	 bl vPortEnterCritical
 511 004a 226C     	 ldr r2,[r4,#64]
 512 004c E36B     	 ldr r3,[r4,#60]
 513 004e 2168     	 ldr r1,[r4]
 514 0050 A160     	 str r1,[r4,#8]
 515 0052 03FB02F3 	 mul r3,r3,r2
 516 0056 9A1A     	 subs r2,r3,r2
 517 0058 0A44     	 add r2,r2,r1
 518 005a 0B44     	 add r3,r3,r1
 519 005c 0026     	 movs r6,#0
 520 005e FF21     	 movs r1,#255
 521 0060 E260     	 str r2,[r4,#12]
 522 0062 6360     	 str r3,[r4,#4]
 523 0064 A663     	 str r6,[r4,#56]
 524 0066 04F11000 	 add r0,r4,#16
 525 006a 84F84410 	 strb r1,[r4,#68]
 526 006e 84F84510 	 strb r1,[r4,#69]
 527 0072 FFF7FEFF 	 bl vListInitialise
 528 0076 04F12400 	 add r0,r4,#36
 529 007a FFF7FEFF 	 bl vListInitialise
 530 007e FFF7FEFF 	 bl vPortExitCritical
 531 0082 A664     	 str r6,[r4,#72]
 532 0084 84F85050 	 strb r5,[r4,#80]
 533              	.L113:
 534 0088 2046     	 mov r0,r4
 535 008a F8BD     	 pop {r3,r4,r5,r6,r7,pc}
 537              	 .section .text.xQueueCreateMutex,"ax",%progbits
 538              	 .align 2
 539              	 .global xQueueCreateMutex
 540              	 .thumb
 541              	 .thumb_func
 543              	xQueueCreateMutex:
 544              	 
 545              	 
 546 0000 2DE9F043 	 push {r4,r5,r6,r7,r8,r9,lr}
 547 0004 0746     	 mov r7,r0
 548 0006 85B0     	 sub sp,sp,#20
 549 0008 5420     	 movs r0,#84
 550 000a FFF7FEFF 	 bl pvPortMalloc
 551 000e 0446     	 mov r4,r0
 552 0010 0028     	 cmp r0,#0
 553 0012 00F09780 	 beq .L146
 554 0016 0026     	 movs r6,#0
 555 0018 0123     	 movs r3,#1
 556 001a 2060     	 str r0,[r4]
 557 001c C363     	 str r3,[r0,#60]
 558 001e 0664     	 str r6,[r0,#64]
 559 0020 FFF7FEFF 	 bl vPortEnterCritical
 560 0024 226C     	 ldr r2,[r4,#64]
 561 0026 E36B     	 ldr r3,[r4,#60]
 562 0028 2168     	 ldr r1,[r4]
 563 002a A663     	 str r6,[r4,#56]
 564 002c 03FB02F3 	 mul r3,r3,r2
 565 0030 9A1A     	 subs r2,r3,r2
 566 0032 0A44     	 add r2,r2,r1
 567 0034 0B44     	 add r3,r3,r1
 568 0036 FF25     	 movs r5,#255
 569 0038 04F11008 	 add r8,r4,#16
 570 003c E260     	 str r2,[r4,#12]
 571 003e 6360     	 str r3,[r4,#4]
 572 0040 A160     	 str r1,[r4,#8]
 573 0042 84F84450 	 strb r5,[r4,#68]
 574 0046 4046     	 mov r0,r8
 575 0048 84F84550 	 strb r5,[r4,#69]
 576 004c 04F12409 	 add r9,r4,#36
 577 0050 FFF7FEFF 	 bl vListInitialise
 578 0054 4846     	 mov r0,r9
 579 0056 FFF7FEFF 	 bl vListInitialise
 580 005a FFF7FEFF 	 bl vPortExitCritical
 581 005e 256C     	 ldr r5,[r4,#64]
 582 0060 2660     	 str r6,[r4]
 583 0062 A664     	 str r6,[r4,#72]
 584 0064 6660     	 str r6,[r4,#4]
 585 0066 E660     	 str r6,[r4,#12]
 586 0068 0196     	 str r6,[sp,#4]
 587 006a 84F85070 	 strb r7,[r4,#80]
 588 006e 002D     	 cmp r5,#0
 589 0070 6CD1     	 bne .L167
 590 0072 FFF7FEFF 	 bl xTaskGetSchedulerState
 591 0076 10B9     	 cbnz r0,.L121
 592 0078 019D     	 ldr r5,[sp,#4]
 593 007a 002D     	 cmp r5,#0
 594 007c 78D1     	 bne .L168
 595              	.L121:
 596 007e 464F     	 ldr r7,.L171
 597 0080 0026     	 movs r6,#0
 598 0082 07E0     	 b .L158
 599              	.L159:
 600 0084 FFF7FEFF 	 bl vPortExitCritical
 601 0088 2046     	 mov r0,r4
 602 008a FFF7FEFF 	 bl prvUnlockQueue
 603 008e FFF7FEFF 	 bl xTaskResumeAll
 604              	.L137:
 605 0092 0125     	 movs r5,#1
 606              	.L158:
 607 0094 FFF7FEFF 	 bl vPortEnterCritical
 608 0098 A26B     	 ldr r2,[r4,#56]
 609 009a E36B     	 ldr r3,[r4,#60]
 610 009c 9A42     	 cmp r2,r3
 611 009e 3BD3     	 bcc .L169
 612 00a0 019B     	 ldr r3,[sp,#4]
 613 00a2 002B     	 cmp r3,#0
 614 00a4 4CD0     	 beq .L127
 615 00a6 15B9     	 cbnz r5,.L131
 616 00a8 02A8     	 add r0,sp,#8
 617 00aa FFF7FEFF 	 bl vTaskSetTimeOutState
 618              	.L131:
 619 00ae FFF7FEFF 	 bl vPortExitCritical
 620 00b2 FFF7FEFF 	 bl vTaskSuspendAll
 621 00b6 FFF7FEFF 	 bl vPortEnterCritical
 622 00ba 94F84430 	 ldrb r3,[r4,#68]
 623 00be FF2B     	 cmp r3,#255
 624 00c0 08BF     	 it eq
 625 00c2 84F84460 	 strbeq r6,[r4,#68]
 626 00c6 94F84530 	 ldrb r3,[r4,#69]
 627 00ca FF2B     	 cmp r3,#255
 628 00cc 08BF     	 it eq
 629 00ce 84F84560 	 strbeq r6,[r4,#69]
 630 00d2 FFF7FEFF 	 bl vPortExitCritical
 631 00d6 02A8     	 add r0,sp,#8
 632 00d8 01A9     	 add r1,sp,#4
 633 00da FFF7FEFF 	 bl xTaskCheckForTimeOut
 634 00de 0028     	 cmp r0,#0
 635 00e0 3DD1     	 bne .L134
 636 00e2 FFF7FEFF 	 bl vPortEnterCritical
 637 00e6 A26B     	 ldr r2,[r4,#56]
 638 00e8 E36B     	 ldr r3,[r4,#60]
 639 00ea 9A42     	 cmp r2,r3
 640 00ec CAD1     	 bne .L159
 641 00ee FFF7FEFF 	 bl vPortExitCritical
 642 00f2 4046     	 mov r0,r8
 643 00f4 0199     	 ldr r1,[sp,#4]
 644 00f6 FFF7FEFF 	 bl vTaskPlaceOnEventList
 645 00fa 2046     	 mov r0,r4
 646 00fc FFF7FEFF 	 bl prvUnlockQueue
 647 0100 FFF7FEFF 	 bl xTaskResumeAll
 648 0104 0028     	 cmp r0,#0
 649 0106 C4D1     	 bne .L137
 650 0108 4FF08053 	 mov r3,#268435456
 651 010c 3B60     	 str r3,[r7]
 652              	
 653 010e BFF34F8F 	 dsb
 654              	
 655              	
 656 0112 BFF36F8F 	 isb
 657              	
 658              	 .thumb
 659 0116 BCE7     	 b .L137
 660              	.L169:
 661 0118 0021     	 movs r1,#0
 662 011a 0A46     	 mov r2,r1
 663 011c 2046     	 mov r0,r4
 664 011e FFF7FEFF 	 bl prvCopyDataToQueue
 665 0122 A36C     	 ldr r3,[r4,#72]
 666 0124 6BB3     	 cbz r3,.L125
 667 0126 2046     	 mov r0,r4
 668 0128 0021     	 movs r1,#0
 669 012a FFF7FEFF 	 bl prvNotifyQueueSetContainer
 670 012e 38B1     	 cbz r0,.L127
 671              	.L162:
 672 0130 194B     	 ldr r3,.L171
 673 0132 4FF08052 	 mov r2,#268435456
 674 0136 1A60     	 str r2,[r3]
 675              	
 676 0138 BFF34F8F 	 dsb
 677              	
 678              	
 679 013c BFF36F8F 	 isb
 680              	
 681              	 .thumb
 682              	.L127:
 683 0140 FFF7FEFF 	 bl vPortExitCritical
 684              	.L146:
 685 0144 2046     	 mov r0,r4
 686 0146 05B0     	 add sp,sp,#20
 687              	 
 688 0148 BDE8F083 	 pop {r4,r5,r6,r7,r8,r9,pc}
 689              	.L167:
 690              	
 691 014c 4FF0FC03 	 mov r3,#252
 692 0150 83F31188 	 msr basepri,r3
 693 0154 BFF36F8F 	 isb 
 694 0158 BFF34F8F 	 dsb 
 695              	
 696              	
 697              	 .thumb
 698              	.L120:
 699 015c FEE7     	 b .L120
 700              	.L134:
 701 015e 2046     	 mov r0,r4
 702 0160 FFF7FEFF 	 bl prvUnlockQueue
 703 0164 FFF7FEFF 	 bl xTaskResumeAll
 704 0168 2046     	 mov r0,r4
 705 016a 05B0     	 add sp,sp,#20
 706              	 
 707 016c BDE8F083 	 pop {r4,r5,r6,r7,r8,r9,pc}
 708              	.L168:
 709              	
 710 0170 4FF0FC03 	 mov r3,#252
 711 0174 83F31188 	 msr basepri,r3
 712 0178 BFF36F8F 	 isb 
 713 017c BFF34F8F 	 dsb 
 714              	
 715              	
 716              	 .thumb
 717              	.L123:
 718 0180 FEE7     	 b .L123
 719              	.L125:
 720 0182 636A     	 ldr r3,[r4,#36]
 721 0184 13B9     	 cbnz r3,.L170
 722 0186 0028     	 cmp r0,#0
 723 0188 D2D1     	 bne .L162
 724 018a D9E7     	 b .L127
 725              	.L170:
 726 018c 4846     	 mov r0,r9
 727 018e FFF7FEFF 	 bl xTaskRemoveFromEventList
 728 0192 0028     	 cmp r0,#0
 729 0194 CCD1     	 bne .L162
 730 0196 D3E7     	 b .L127
 731              	.L172:
 732              	 .align 2
 733              	.L171:
 734 0198 04ED00E0 	 .word -536810236
 736              	 .section .text.xQueueGetMutexHolder,"ax",%progbits
 737              	 .align 2
 738              	 .global xQueueGetMutexHolder
 739              	 .thumb
 740              	 .thumb_func
 742              	xQueueGetMutexHolder:
 743              	 
 744              	 
 745 0000 10B5     	 push {r4,lr}
 746 0002 0446     	 mov r4,r0
 747 0004 FFF7FEFF 	 bl vPortEnterCritical
 748 0008 2368     	 ldr r3,[r4]
 749 000a 23B9     	 cbnz r3,.L175
 750 000c 6468     	 ldr r4,[r4,#4]
 751 000e FFF7FEFF 	 bl vPortExitCritical
 752 0012 2046     	 mov r0,r4
 753 0014 10BD     	 pop {r4,pc}
 754              	.L175:
 755 0016 0024     	 movs r4,#0
 756 0018 FFF7FEFF 	 bl vPortExitCritical
 757 001c 2046     	 mov r0,r4
 758 001e 10BD     	 pop {r4,pc}
 760              	 .section .text.xQueueCreateCountingSemaphore,"ax",%progbits
 761              	 .align 2
 762              	 .global xQueueCreateCountingSemaphore
 763              	 .thumb
 764              	 .thumb_func
 766              	xQueueCreateCountingSemaphore:
 767              	 
 768              	 
 769 0000 40B9     	 cbnz r0,.L178
 770              	
 771 0002 4FF0FC03 	 mov r3,#252
 772 0006 83F31188 	 msr basepri,r3
 773 000a BFF36F8F 	 isb 
 774 000e BFF34F8F 	 dsb 
 775              	
 776              	
 777              	 .thumb
 778              	.L179:
 779 0012 FEE7     	 b .L179
 780              	.L178:
 781 0014 8842     	 cmp r0,r1
 782 0016 08D2     	 bcs .L180
 783              	
 784 0018 4FF0FC03 	 mov r3,#252
 785 001c 83F31188 	 msr basepri,r3
 786 0020 BFF36F8F 	 isb 
 787 0024 BFF34F8F 	 dsb 
 788              	
 789              	
 790              	 .thumb
 791              	.L181:
 792 0028 FEE7     	 b .L181
 793              	.L180:
 794 002a 10B5     	 push {r4,lr}
 795 002c 0222     	 movs r2,#2
 796 002e 0C46     	 mov r4,r1
 797 0030 0021     	 movs r1,#0
 798 0032 FFF7FEFF 	 bl xQueueGenericCreate
 799 0036 00B1     	 cbz r0,.L182
 800 0038 8463     	 str r4,[r0,#56]
 801              	.L182:
 802 003a 10BD     	 pop {r4,pc}
 804              	 .section .text.xQueueGenericSend,"ax",%progbits
 805              	 .align 2
 806              	 .global xQueueGenericSend
 807              	 .thumb
 808              	 .thumb_func
 810              	xQueueGenericSend:
 811              	 
 812              	 
 813 0000 2DE9F047 	 push {r4,r5,r6,r7,r8,r9,r10,lr}
 814 0004 84B0     	 sub sp,sp,#16
 815 0006 0192     	 str r2,[sp,#4]
 816 0008 0028     	 cmp r0,#0
 817 000a 00F0BE80 	 beq .L248
 818 000e 0029     	 cmp r1,#0
 819 0010 00F0AE80 	 beq .L249
 820              	.L190:
 821 0014 022B     	 cmp r3,#2
 822 0016 00F09E80 	 beq .L250
 823              	.L193:
 824 001a 0446     	 mov r4,r0
 825 001c 1E46     	 mov r6,r3
 826 001e 8846     	 mov r8,r1
 827 0020 FFF7FEFF 	 bl xTaskGetSchedulerState
 828 0024 50B9     	 cbnz r0,.L219
 829 0026 019F     	 ldr r7,[sp,#4]
 830 0028 4FB1     	 cbz r7,.L196
 831              	
 832 002a 4FF0FC03 	 mov r3,#252
 833 002e 83F31188 	 msr basepri,r3
 834 0032 BFF36F8F 	 isb 
 835 0036 BFF34F8F 	 dsb 
 836              	
 837              	
 838              	 .thumb
 839              	.L198:
 840 003a FEE7     	 b .L198
 841              	.L219:
 842 003c 0027     	 movs r7,#0
 843              	.L196:
 844 003e FFF7FEFF 	 bl vPortEnterCritical
 845 0042 A26B     	 ldr r2,[r4,#56]
 846 0044 E36B     	 ldr r3,[r4,#60]
 847 0046 DFF854A1 	 ldr r10,.L256
 848 004a 9A42     	 cmp r2,r3
 849 004c 4FF00009 	 mov r9,#0
 850 0050 4AD2     	 bcs .L251
 851              	.L199:
 852 0052 4146     	 mov r1,r8
 853 0054 2046     	 mov r0,r4
 854 0056 3246     	 mov r2,r6
 855 0058 FFF7FEFF 	 bl prvCopyDataToQueue
 856 005c A36C     	 ldr r3,[r4,#72]
 857 005e 002B     	 cmp r3,#0
 858 0060 66D0     	 beq .L201
 859 0062 2046     	 mov r0,r4
 860 0064 3146     	 mov r1,r6
 861 0066 FFF7FEFF 	 bl prvNotifyQueueSetContainer
 862 006a 38B1     	 cbz r0,.L203
 863              	.L242:
 864 006c 4B4B     	 ldr r3,.L256
 865 006e 4FF08052 	 mov r2,#268435456
 866 0072 1A60     	 str r2,[r3]
 867              	
 868 0074 BFF34F8F 	 dsb
 869              	
 870              	
 871 0078 BFF36F8F 	 isb
 872              	
 873              	 .thumb
 874              	.L203:
 875 007c FFF7FEFF 	 bl vPortExitCritical
 876 0080 0120     	 movs r0,#1
 877 0082 52E0     	 b .L237
 878              	.L254:
 879 0084 02A8     	 add r0,sp,#8
 880 0086 FFF7FEFF 	 bl vTaskSetTimeOutState
 881              	.L208:
 882 008a FFF7FEFF 	 bl vPortExitCritical
 883 008e FFF7FEFF 	 bl vTaskSuspendAll
 884 0092 FFF7FEFF 	 bl vPortEnterCritical
 885 0096 94F84430 	 ldrb r3,[r4,#68]
 886 009a FF2B     	 cmp r3,#255
 887 009c 08BF     	 it eq
 888 009e 84F84490 	 strbeq r9,[r4,#68]
 889 00a2 94F84530 	 ldrb r3,[r4,#69]
 890 00a6 FF2B     	 cmp r3,#255
 891 00a8 08BF     	 it eq
 892 00aa 84F84590 	 strbeq r9,[r4,#69]
 893 00ae FFF7FEFF 	 bl vPortExitCritical
 894 00b2 02A8     	 add r0,sp,#8
 895 00b4 01A9     	 add r1,sp,#4
 896 00b6 FFF7FEFF 	 bl xTaskCheckForTimeOut
 897 00ba 0028     	 cmp r0,#0
 898 00bc 3DD1     	 bne .L211
 899 00be FFF7FEFF 	 bl vPortEnterCritical
 900 00c2 A26B     	 ldr r2,[r4,#56]
 901 00c4 E36B     	 ldr r3,[r4,#60]
 902 00c6 9A42     	 cmp r2,r3
 903 00c8 15D0     	 beq .L252
 904 00ca FFF7FEFF 	 bl vPortExitCritical
 905 00ce 2046     	 mov r0,r4
 906 00d0 FFF7FEFF 	 bl prvUnlockQueue
 907 00d4 FFF7FEFF 	 bl xTaskResumeAll
 908              	.L214:
 909 00d8 FFF7FEFF 	 bl vPortEnterCritical
 910 00dc A26B     	 ldr r2,[r4,#56]
 911 00de E36B     	 ldr r3,[r4,#60]
 912 00e0 9A42     	 cmp r2,r3
 913 00e2 4FF00107 	 mov r7,#1
 914 00e6 B4D3     	 bcc .L199
 915              	.L251:
 916 00e8 022E     	 cmp r6,#2
 917 00ea B2D0     	 beq .L199
 918 00ec 019D     	 ldr r5,[sp,#4]
 919 00ee CDB1     	 cbz r5,.L253
 920 00f0 002F     	 cmp r7,#0
 921 00f2 CAD1     	 bne .L208
 922 00f4 C6E7     	 b .L254
 923              	.L252:
 924 00f6 FFF7FEFF 	 bl vPortExitCritical
 925 00fa 04F11000 	 add r0,r4,#16
 926 00fe 0199     	 ldr r1,[sp,#4]
 927 0100 FFF7FEFF 	 bl vTaskPlaceOnEventList
 928 0104 2046     	 mov r0,r4
 929 0106 FFF7FEFF 	 bl prvUnlockQueue
 930 010a FFF7FEFF 	 bl xTaskResumeAll
 931 010e 0028     	 cmp r0,#0
 932 0110 E2D1     	 bne .L214
 933 0112 4FF08053 	 mov r3,#268435456
 934 0116 CAF80030 	 str r3,[r10]
 935              	
 936 011a BFF34F8F 	 dsb
 937              	
 938              	
 939 011e BFF36F8F 	 isb
 940              	
 941              	 .thumb
 942 0122 D9E7     	 b .L214
 943              	.L253:
 944 0124 FFF7FEFF 	 bl vPortExitCritical
 945 0128 2846     	 mov r0,r5
 946              	.L237:
 947 012a 04B0     	 add sp,sp,#16
 948              	 
 949 012c BDE8F087 	 pop {r4,r5,r6,r7,r8,r9,r10,pc}
 950              	.L201:
 951 0130 636A     	 ldr r3,[r4,#36]
 952 0132 4BB9     	 cbnz r3,.L255
 953 0134 0028     	 cmp r0,#0
 954 0136 99D1     	 bne .L242
 955 0138 A0E7     	 b .L203
 956              	.L211:
 957 013a 2046     	 mov r0,r4
 958 013c FFF7FEFF 	 bl prvUnlockQueue
 959 0140 FFF7FEFF 	 bl xTaskResumeAll
 960 0144 0020     	 movs r0,#0
 961 0146 F0E7     	 b .L237
 962              	.L255:
 963 0148 04F12400 	 add r0,r4,#36
 964 014c FFF7FEFF 	 bl xTaskRemoveFromEventList
 965 0150 0028     	 cmp r0,#0
 966 0152 8BD1     	 bne .L242
 967 0154 92E7     	 b .L203
 968              	.L250:
 969 0156 C26B     	 ldr r2,[r0,#60]
 970 0158 012A     	 cmp r2,#1
 971 015a 3FF45EAF 	 beq .L193
 972              	
 973 015e 4FF0FC03 	 mov r3,#252
 974 0162 83F31188 	 msr basepri,r3
 975 0166 BFF36F8F 	 isb 
 976 016a BFF34F8F 	 dsb 
 977              	
 978              	
 979              	 .thumb
 980              	.L195:
 981 016e FEE7     	 b .L195
 982              	.L249:
 983 0170 026C     	 ldr r2,[r0,#64]
 984 0172 002A     	 cmp r2,#0
 985 0174 3FF44EAF 	 beq .L190
 986              	
 987 0178 4FF0FC03 	 mov r3,#252
 988 017c 83F31188 	 msr basepri,r3
 989 0180 BFF36F8F 	 isb 
 990 0184 BFF34F8F 	 dsb 
 991              	
 992              	
 993              	 .thumb
 994              	.L192:
 995 0188 FEE7     	 b .L192
 996              	.L248:
 997              	
 998 018a 4FF0FC03 	 mov r3,#252
 999 018e 83F31188 	 msr basepri,r3
 1000 0192 BFF36F8F 	 isb 
 1001 0196 BFF34F8F 	 dsb 
 1002              	
 1003              	
 1004              	 .thumb
 1005              	.L189:
 1006 019a FEE7     	 b .L189
 1007              	.L257:
 1008              	 .align 2
 1009              	.L256:
 1010 019c 04ED00E0 	 .word -536810236
 1012              	 .section .text.xQueueGiveMutexRecursive,"ax",%progbits
 1013              	 .align 2
 1014              	 .global xQueueGiveMutexRecursive
 1015              	 .thumb
 1016              	 .thumb_func
 1018              	xQueueGiveMutexRecursive:
 1019              	 
 1020              	 
 1021 0000 38B5     	 push {r3,r4,r5,lr}
 1022 0002 38B1     	 cbz r0,.L265
 1023 0004 4568     	 ldr r5,[r0,#4]
 1024 0006 0446     	 mov r4,r0
 1025 0008 FFF7FEFF 	 bl xTaskGetCurrentTaskHandle
 1026 000c 8542     	 cmp r5,r0
 1027 000e 0AD0     	 beq .L266
 1028 0010 0020     	 movs r0,#0
 1029 0012 38BD     	 pop {r3,r4,r5,pc}
 1030              	.L265:
 1031              	
 1032 0014 4FF0FC03 	 mov r3,#252
 1033 0018 83F31188 	 msr basepri,r3
 1034 001c BFF36F8F 	 isb 
 1035 0020 BFF34F8F 	 dsb 
 1036              	
 1037              	
 1038              	 .thumb
 1039              	.L260:
 1040 0024 FEE7     	 b .L260
 1041              	.L266:
 1042 0026 E168     	 ldr r1,[r4,#12]
 1043 0028 0139     	 subs r1,r1,#1
 1044 002a E160     	 str r1,[r4,#12]
 1045 002c 09B1     	 cbz r1,.L267
 1046 002e 0120     	 movs r0,#1
 1047 0030 38BD     	 pop {r3,r4,r5,pc}
 1048              	.L267:
 1049 0032 2046     	 mov r0,r4
 1050 0034 0A46     	 mov r2,r1
 1051 0036 0B46     	 mov r3,r1
 1052 0038 FFF7FEFF 	 bl xQueueGenericSend
 1053 003c 0120     	 movs r0,#1
 1054 003e 38BD     	 pop {r3,r4,r5,pc}
 1056              	 .section .text.xQueueGenericSendFromISR,"ax",%progbits
 1057              	 .align 2
 1058              	 .global xQueueGenericSendFromISR
 1059              	 .thumb
 1060              	 .thumb_func
 1062              	xQueueGenericSendFromISR:
 1063              	 
 1064              	 
 1065 0000 2DE9F843 	 push {r3,r4,r5,r6,r7,r8,r9,lr}
 1066 0004 F0B1     	 cbz r0,.L307
 1067 0006 0029     	 cmp r1,#0
 1068 0008 41D0     	 beq .L308
 1069              	.L271:
 1070 000a 022B     	 cmp r3,#2
 1071 000c 33D0     	 beq .L309
 1072              	.L274:
 1073 000e 0446     	 mov r4,r0
 1074 0010 1F46     	 mov r7,r3
 1075 0012 9046     	 mov r8,r2
 1076 0014 8946     	 mov r9,r1
 1077 0016 FFF7FEFF 	 bl vPortValidateInterruptPriority
 1078              	
 1079 001a EFF31186 	 mrs r6,basepri
 1080 001e 4FF0FC03 	 mov r3,#252
 1081 0022 83F31188 	 msr basepri,r3
 1082 0026 BFF36F8F 	 isb 
 1083 002a BFF34F8F 	 dsb 
 1084              	
 1085              	
 1086              	 .thumb
 1087 002e A26B     	 ldr r2,[r4,#56]
 1088 0030 E36B     	 ldr r3,[r4,#60]
 1089 0032 9A42     	 cmp r2,r3
 1090 0034 0FD3     	 bcc .L283
 1091 0036 022F     	 cmp r7,#2
 1092 0038 0DD0     	 beq .L283
 1093 003a 0020     	 movs r0,#0
 1094              	.L277:
 1095              	
 1096 003c 86F31188 	 msr basepri,r6
 1097              	
 1098              	 .thumb
 1099 0040 BDE8F883 	 pop {r3,r4,r5,r6,r7,r8,r9,pc}
 1100              	.L307:
 1101              	
 1102 0044 4FF0FC03 	 mov r3,#252
 1103 0048 83F31188 	 msr basepri,r3
 1104 004c BFF36F8F 	 isb 
 1105 0050 BFF34F8F 	 dsb 
 1106              	
 1107              	
 1108              	 .thumb
 1109              	.L270:
 1110 0054 FEE7     	 b .L270
 1111              	.L283:
 1112 0056 94F84550 	 ldrb r5,[r4,#69]
 1113 005a 4946     	 mov r1,r9
 1114 005c EDB2     	 uxtb r5,r5
 1115 005e 2046     	 mov r0,r4
 1116 0060 3A46     	 mov r2,r7
 1117 0062 FFF7FEFF 	 bl prvCopyDataToQueue
 1118 0066 FF2D     	 cmp r5,#255
 1119 0068 1DD0     	 beq .L310
 1120 006a 6B1C     	 adds r3,r5,#1
 1121 006c DBB2     	 uxtb r3,r3
 1122 006e 84F84530 	 strb r3,[r4,#69]
 1123              	.L304:
 1124 0072 0120     	 movs r0,#1
 1125 0074 E2E7     	 b .L277
 1126              	.L309:
 1127 0076 C46B     	 ldr r4,[r0,#60]
 1128 0078 012C     	 cmp r4,#1
 1129 007a C8D0     	 beq .L274
 1130              	
 1131 007c 4FF0FC03 	 mov r3,#252
 1132 0080 83F31188 	 msr basepri,r3
 1133 0084 BFF36F8F 	 isb 
 1134 0088 BFF34F8F 	 dsb 
 1135              	
 1136              	
 1137              	 .thumb
 1138              	.L276:
 1139 008c FEE7     	 b .L276
 1140              	.L308:
 1141 008e 046C     	 ldr r4,[r0,#64]
 1142 0090 002C     	 cmp r4,#0
 1143 0092 BAD0     	 beq .L271
 1144              	
 1145 0094 4FF0FC03 	 mov r3,#252
 1146 0098 83F31188 	 msr basepri,r3
 1147 009c BFF36F8F 	 isb 
 1148 00a0 BFF34F8F 	 dsb 
 1149              	
 1150              	
 1151              	 .thumb
 1152              	.L273:
 1153 00a4 FEE7     	 b .L273
 1154              	.L310:
 1155 00a6 A36C     	 ldr r3,[r4,#72]
 1156 00a8 63B1     	 cbz r3,.L279
 1157 00aa 2046     	 mov r0,r4
 1158 00ac 3946     	 mov r1,r7
 1159 00ae FFF7FEFF 	 bl prvNotifyQueueSetContainer
 1160 00b2 0028     	 cmp r0,#0
 1161 00b4 DDD0     	 beq .L304
 1162              	.L280:
 1163 00b6 B8F1000F 	 cmp r8,#0
 1164 00ba DAD0     	 beq .L304
 1165 00bc 0120     	 movs r0,#1
 1166 00be C8F80000 	 str r0,[r8]
 1167 00c2 BBE7     	 b .L277
 1168              	.L279:
 1169 00c4 636A     	 ldr r3,[r4,#36]
 1170 00c6 002B     	 cmp r3,#0
 1171 00c8 D3D0     	 beq .L304
 1172 00ca 04F12400 	 add r0,r4,#36
 1173 00ce FFF7FEFF 	 bl xTaskRemoveFromEventList
 1174 00d2 0028     	 cmp r0,#0
 1175 00d4 EFD1     	 bne .L280
 1176 00d6 CCE7     	 b .L304
 1178              	 .section .text.xQueueGiveFromISR,"ax",%progbits
 1179              	 .align 2
 1180              	 .global xQueueGiveFromISR
 1181              	 .thumb
 1182              	 .thumb_func
 1184              	xQueueGiveFromISR:
 1185              	 
 1186              	 
 1187 0000 70B5     	 push {r4,r5,r6,lr}
 1188 0002 70B3     	 cbz r0,.L338
 1189 0004 036C     	 ldr r3,[r0,#64]
 1190 0006 43B1     	 cbz r3,.L314
 1191              	
 1192 0008 4FF0FC03 	 mov r3,#252
 1193 000c 83F31188 	 msr basepri,r3
 1194 0010 BFF36F8F 	 isb 
 1195 0014 BFF34F8F 	 dsb 
 1196              	
 1197              	
 1198              	 .thumb
 1199              	.L315:
 1200 0018 FEE7     	 b .L315
 1201              	.L314:
 1202 001a 0368     	 ldr r3,[r0]
 1203 001c 002B     	 cmp r3,#0
 1204 001e 38D0     	 beq .L339
 1205              	.L316:
 1206 0020 0446     	 mov r4,r0
 1207 0022 0E46     	 mov r6,r1
 1208 0024 FFF7FEFF 	 bl vPortValidateInterruptPriority
 1209              	
 1210 0028 EFF31185 	 mrs r5,basepri
 1211 002c 4FF0FC03 	 mov r3,#252
 1212 0030 83F31188 	 msr basepri,r3
 1213 0034 BFF36F8F 	 isb 
 1214 0038 BFF34F8F 	 dsb 
 1215              	
 1216              	
 1217              	 .thumb
 1218 003c A26B     	 ldr r2,[r4,#56]
 1219 003e E36B     	 ldr r3,[r4,#60]
 1220 0040 9A42     	 cmp r2,r3
 1221 0042 24D2     	 bcs .L340
 1222 0044 94F84530 	 ldrb r3,[r4,#69]
 1223 0048 DBB2     	 uxtb r3,r3
 1224 004a 0132     	 adds r2,r2,#1
 1225 004c FF2B     	 cmp r3,#255
 1226 004e A263     	 str r2,[r4,#56]
 1227 0050 10D0     	 beq .L341
 1228 0052 0133     	 adds r3,r3,#1
 1229 0054 DBB2     	 uxtb r3,r3
 1230 0056 84F84530 	 strb r3,[r4,#69]
 1231              	.L337:
 1232 005a 0120     	 movs r0,#1
 1233              	.L322:
 1234              	
 1235 005c 85F31188 	 msr basepri,r5
 1236              	
 1237              	 .thumb
 1238 0060 70BD     	 pop {r4,r5,r6,pc}
 1239              	.L338:
 1240              	
 1241 0062 4FF0FC03 	 mov r3,#252
 1242 0066 83F31188 	 msr basepri,r3
 1243 006a BFF36F8F 	 isb 
 1244 006e BFF34F8F 	 dsb 
 1245              	
 1246              	
 1247              	 .thumb
 1248              	.L313:
 1249 0072 FEE7     	 b .L313
 1250              	.L341:
 1251 0074 A36C     	 ldr r3,[r4,#72]
 1252 0076 C3B1     	 cbz r3,.L320
 1253 0078 2046     	 mov r0,r4
 1254 007a 0021     	 movs r1,#0
 1255 007c FFF7FEFF 	 bl prvNotifyQueueSetContainer
 1256 0080 0028     	 cmp r0,#0
 1257 0082 EAD0     	 beq .L337
 1258              	.L321:
 1259 0084 002E     	 cmp r6,#0
 1260 0086 E8D0     	 beq .L337
 1261 0088 0120     	 movs r0,#1
 1262 008a 3060     	 str r0,[r6]
 1263 008c E6E7     	 b .L322
 1264              	.L340:
 1265 008e 0020     	 movs r0,#0
 1266 0090 E4E7     	 b .L322
 1267              	.L339:
 1268 0092 4368     	 ldr r3,[r0,#4]
 1269 0094 002B     	 cmp r3,#0
 1270 0096 C3D0     	 beq .L316
 1271              	
 1272 0098 4FF0FC03 	 mov r3,#252
 1273 009c 83F31188 	 msr basepri,r3
 1274 00a0 BFF36F8F 	 isb 
 1275 00a4 BFF34F8F 	 dsb 
 1276              	
 1277              	
 1278              	 .thumb
 1279              	.L318:
 1280 00a8 FEE7     	 b .L318
 1281              	.L320:
 1282 00aa 636A     	 ldr r3,[r4,#36]
 1283 00ac 002B     	 cmp r3,#0
 1284 00ae D4D0     	 beq .L337
 1285 00b0 04F12400 	 add r0,r4,#36
 1286 00b4 FFF7FEFF 	 bl xTaskRemoveFromEventList
 1287 00b8 0028     	 cmp r0,#0
 1288 00ba E3D1     	 bne .L321
 1289 00bc CDE7     	 b .L337
 1291 00be 00BF     	 .section .text.xQueueGenericReceive,"ax",%progbits
 1292              	 .align 2
 1293              	 .global xQueueGenericReceive
 1294              	 .thumb
 1295              	 .thumb_func
 1297              	xQueueGenericReceive:
 1298              	 
 1299              	 
 1300 0000 2DE9F047 	 push {r4,r5,r6,r7,r8,r9,r10,lr}
 1301 0004 84B0     	 sub sp,sp,#16
 1302 0006 0192     	 str r2,[sp,#4]
 1303 0008 0028     	 cmp r0,#0
 1304 000a 00F0C480 	 beq .L403
 1305 000e 0029     	 cmp r1,#0
 1306 0010 00F08C80 	 beq .L404
 1307              	.L345:
 1308 0014 0446     	 mov r4,r0
 1309 0016 9846     	 mov r8,r3
 1310 0018 0F46     	 mov r7,r1
 1311 001a FFF7FEFF 	 bl xTaskGetSchedulerState
 1312 001e 50B9     	 cbnz r0,.L372
 1313 0020 019D     	 ldr r5,[sp,#4]
 1314 0022 4DB1     	 cbz r5,.L348
 1315              	
 1316 0024 4FF0FC03 	 mov r3,#252
 1317 0028 83F31188 	 msr basepri,r3
 1318 002c BFF36F8F 	 isb 
 1319 0030 BFF34F8F 	 dsb 
 1320              	
 1321              	
 1322              	 .thumb
 1323              	.L350:
 1324 0034 FEE7     	 b .L350
 1325              	.L372:
 1326 0036 0025     	 movs r5,#0
 1327              	.L348:
 1328 0038 FFF7FEFF 	 bl vPortEnterCritical
 1329 003c A66B     	 ldr r6,[r4,#56]
 1330 003e DFF868A1 	 ldr r10,.L410
 1331 0042 4FF00009 	 mov r9,#0
 1332 0046 002E     	 cmp r6,#0
 1333 0048 44D1     	 bne .L405
 1334              	.L351:
 1335 004a 019B     	 ldr r3,[sp,#4]
 1336 004c 002B     	 cmp r3,#0
 1337 004e 00F08280 	 beq .L366
 1338 0052 15B9     	 cbnz r5,.L359
 1339 0054 02A8     	 add r0,sp,#8
 1340 0056 FFF7FEFF 	 bl vTaskSetTimeOutState
 1341              	.L359:
 1342 005a FFF7FEFF 	 bl vPortExitCritical
 1343 005e FFF7FEFF 	 bl vTaskSuspendAll
 1344 0062 FFF7FEFF 	 bl vPortEnterCritical
 1345 0066 94F84430 	 ldrb r3,[r4,#68]
 1346 006a FF2B     	 cmp r3,#255
 1347 006c 08BF     	 it eq
 1348 006e 84F84490 	 strbeq r9,[r4,#68]
 1349 0072 94F84530 	 ldrb r3,[r4,#69]
 1350 0076 FF2B     	 cmp r3,#255
 1351 0078 08BF     	 it eq
 1352 007a 84F84590 	 strbeq r9,[r4,#69]
 1353 007e FFF7FEFF 	 bl vPortExitCritical
 1354 0082 02A8     	 add r0,sp,#8
 1355 0084 01A9     	 add r1,sp,#4
 1356 0086 FFF7FEFF 	 bl xTaskCheckForTimeOut
 1357 008a 0028     	 cmp r0,#0
 1358 008c 41D1     	 bne .L362
 1359 008e FFF7FEFF 	 bl vPortEnterCritical
 1360 0092 A36B     	 ldr r3,[r4,#56]
 1361 0094 002B     	 cmp r3,#0
 1362 0096 33D1     	 bne .L406
 1363 0098 FFF7FEFF 	 bl vPortExitCritical
 1364 009c 2368     	 ldr r3,[r4]
 1365 009e 002B     	 cmp r3,#0
 1366 00a0 51D0     	 beq .L407
 1367              	.L370:
 1368 00a2 04F12400 	 add r0,r4,#36
 1369 00a6 0199     	 ldr r1,[sp,#4]
 1370 00a8 FFF7FEFF 	 bl vTaskPlaceOnEventList
 1371 00ac 2046     	 mov r0,r4
 1372 00ae FFF7FEFF 	 bl prvUnlockQueue
 1373 00b2 FFF7FEFF 	 bl xTaskResumeAll
 1374 00b6 38B9     	 cbnz r0,.L365
 1375 00b8 4FF08053 	 mov r3,#268435456
 1376 00bc CAF80030 	 str r3,[r10]
 1377              	
 1378 00c0 BFF34F8F 	 dsb
 1379              	
 1380              	
 1381 00c4 BFF36F8F 	 isb
 1382              	
 1383              	 .thumb
 1384              	.L365:
 1385 00c8 0125     	 movs r5,#1
 1386              	.L409:
 1387 00ca FFF7FEFF 	 bl vPortEnterCritical
 1388 00ce A66B     	 ldr r6,[r4,#56]
 1389 00d0 002E     	 cmp r6,#0
 1390 00d2 BAD0     	 beq .L351
 1391              	.L405:
 1392 00d4 3946     	 mov r1,r7
 1393 00d6 2046     	 mov r0,r4
 1394 00d8 E568     	 ldr r5,[r4,#12]
 1395 00da FFF7FEFF 	 bl prvCopyDataFromQueue
 1396 00de B8F1000F 	 cmp r8,#0
 1397 00e2 3ED1     	 bne .L352
 1398 00e4 2368     	 ldr r3,[r4]
 1399 00e6 013E     	 subs r6,r6,#1
 1400 00e8 A663     	 str r6,[r4,#56]
 1401 00ea 13B9     	 cbnz r3,.L353
 1402 00ec FFF7FEFF 	 bl pvTaskIncrementMutexHeldCount
 1403 00f0 6060     	 str r0,[r4,#4]
 1404              	.L353:
 1405 00f2 2369     	 ldr r3,[r4,#16]
 1406 00f4 002B     	 cmp r3,#0
 1407 00f6 47D1     	 bne .L408
 1408              	.L355:
 1409 00f8 FFF7FEFF 	 bl vPortExitCritical
 1410 00fc 0120     	 movs r0,#1
 1411 00fe 2DE0     	 b .L392
 1412              	.L406:
 1413 0100 FFF7FEFF 	 bl vPortExitCritical
 1414 0104 2046     	 mov r0,r4
 1415 0106 FFF7FEFF 	 bl prvUnlockQueue
 1416 010a 0125     	 movs r5,#1
 1417 010c FFF7FEFF 	 bl xTaskResumeAll
 1418 0110 DBE7     	 b .L409
 1419              	.L362:
 1420 0112 2046     	 mov r0,r4
 1421 0114 FFF7FEFF 	 bl prvUnlockQueue
 1422 0118 FFF7FEFF 	 bl xTaskResumeAll
 1423 011c FFF7FEFF 	 bl vPortEnterCritical
 1424 0120 A36B     	 ldr r3,[r4,#56]
 1425 0122 C3B1     	 cbz r3,.L366
 1426 0124 FFF7FEFF 	 bl vPortExitCritical
 1427 0128 0125     	 movs r5,#1
 1428 012a CEE7     	 b .L409
 1429              	.L404:
 1430 012c 026C     	 ldr r2,[r0,#64]
 1431 012e 002A     	 cmp r2,#0
 1432 0130 3FF470AF 	 beq .L345
 1433              	
 1434 0134 4FF0FC03 	 mov r3,#252
 1435 0138 83F31188 	 msr basepri,r3
 1436 013c BFF36F8F 	 isb 
 1437 0140 BFF34F8F 	 dsb 
 1438              	
 1439              	
 1440              	 .thumb
 1441              	.L347:
 1442 0144 FEE7     	 b .L347
 1443              	.L407:
 1444 0146 FFF7FEFF 	 bl vPortEnterCritical
 1445 014a 6068     	 ldr r0,[r4,#4]
 1446 014c FFF7FEFF 	 bl vTaskPriorityInherit
 1447 0150 FFF7FEFF 	 bl vPortExitCritical
 1448 0154 A5E7     	 b .L370
 1449              	.L366:
 1450 0156 FFF7FEFF 	 bl vPortExitCritical
 1451 015a 0020     	 movs r0,#0
 1452              	.L392:
 1453 015c 04B0     	 add sp,sp,#16
 1454              	 
 1455 015e BDE8F087 	 pop {r4,r5,r6,r7,r8,r9,r10,pc}
 1456              	.L352:
 1457 0162 636A     	 ldr r3,[r4,#36]
 1458 0164 E560     	 str r5,[r4,#12]
 1459 0166 002B     	 cmp r3,#0
 1460 0168 C6D0     	 beq .L355
 1461 016a 04F12400 	 add r0,r4,#36
 1462 016e FFF7FEFF 	 bl xTaskRemoveFromEventList
 1463 0172 0028     	 cmp r0,#0
 1464 0174 C0D0     	 beq .L355
 1465              	.L397:
 1466 0176 0C4B     	 ldr r3,.L410
 1467 0178 4FF08052 	 mov r2,#268435456
 1468 017c 1A60     	 str r2,[r3]
 1469              	
 1470 017e BFF34F8F 	 dsb
 1471              	
 1472              	
 1473 0182 BFF36F8F 	 isb
 1474              	
 1475              	 .thumb
 1476 0186 B7E7     	 b .L355
 1477              	.L408:
 1478 0188 04F11000 	 add r0,r4,#16
 1479 018c FFF7FEFF 	 bl xTaskRemoveFromEventList
 1480 0190 0028     	 cmp r0,#0
 1481 0192 F0D1     	 bne .L397
 1482 0194 B0E7     	 b .L355
 1483              	.L403:
 1484              	
 1485 0196 4FF0FC03 	 mov r3,#252
 1486 019a 83F31188 	 msr basepri,r3
 1487 019e BFF36F8F 	 isb 
 1488 01a2 BFF34F8F 	 dsb 
 1489              	
 1490              	
 1491              	 .thumb
 1492              	.L344:
 1493 01a6 FEE7     	 b .L344
 1494              	.L411:
 1495              	 .align 2
 1496              	.L410:
 1497 01a8 04ED00E0 	 .word -536810236
 1499              	 .section .text.xQueueTakeMutexRecursive,"ax",%progbits
 1500              	 .align 2
 1501              	 .global xQueueTakeMutexRecursive
 1502              	 .thumb
 1503              	 .thumb_func
 1505              	xQueueTakeMutexRecursive:
 1506              	 
 1507              	 
 1508 0000 B8B1     	 cbz r0,.L421
 1509 0002 70B5     	 push {r4,r5,r6,lr}
 1510 0004 4668     	 ldr r6,[r0,#4]
 1511 0006 0446     	 mov r4,r0
 1512 0008 0D46     	 mov r5,r1
 1513 000a FFF7FEFF 	 bl xTaskGetCurrentTaskHandle
 1514 000e 8642     	 cmp r6,r0
 1515 0010 0AD0     	 beq .L422
 1516 0012 0021     	 movs r1,#0
 1517 0014 2A46     	 mov r2,r5
 1518 0016 0B46     	 mov r3,r1
 1519 0018 2046     	 mov r0,r4
 1520 001a FFF7FEFF 	 bl xQueueGenericReceive
 1521 001e 10B1     	 cbz r0,.L416
 1522 0020 E368     	 ldr r3,[r4,#12]
 1523 0022 0133     	 adds r3,r3,#1
 1524 0024 E360     	 str r3,[r4,#12]
 1525              	.L416:
 1526 0026 70BD     	 pop {r4,r5,r6,pc}
 1527              	.L422:
 1528 0028 E368     	 ldr r3,[r4,#12]
 1529 002a 0133     	 adds r3,r3,#1
 1530 002c E360     	 str r3,[r4,#12]
 1531 002e 0120     	 movs r0,#1
 1532 0030 70BD     	 pop {r4,r5,r6,pc}
 1533              	.L421:
 1534              	
 1535 0032 4FF0FC03 	 mov r3,#252
 1536 0036 83F31188 	 msr basepri,r3
 1537 003a BFF36F8F 	 isb 
 1538 003e BFF34F8F 	 dsb 
 1539              	
 1540              	
 1541              	 .thumb
 1542              	.L414:
 1543 0042 FEE7     	 b .L414
 1545              	 .section .text.xQueueReceiveFromISR,"ax",%progbits
 1546              	 .align 2
 1547              	 .global xQueueReceiveFromISR
 1548              	 .thumb
 1549              	 .thumb_func
 1551              	xQueueReceiveFromISR:
 1552              	 
 1553              	 
 1554              	 
 1555 0000 10B1     	 cbz r0,.L434
 1556 0002 51B1     	 cbz r1,.L435
 1557              	.L426:
 1558 0004 FFF7FEBF 	 b xQueueReceiveFromISR.part.2
 1559              	.L434:
 1560              	
 1561 0008 4FF0FC03 	 mov r3,#252
 1562 000c 83F31188 	 msr basepri,r3
 1563 0010 BFF36F8F 	 isb 
 1564 0014 BFF34F8F 	 dsb 
 1565              	
 1566              	
 1567              	 .thumb
 1568              	.L425:
 1569 0018 FEE7     	 b .L425
 1570              	.L435:
 1571 001a 036C     	 ldr r3,[r0,#64]
 1572 001c 002B     	 cmp r3,#0
 1573 001e F1D0     	 beq .L426
 1574              	
 1575 0020 4FF0FC03 	 mov r3,#252
 1576 0024 83F31188 	 msr basepri,r3
 1577 0028 BFF36F8F 	 isb 
 1578 002c BFF34F8F 	 dsb 
 1579              	
 1580              	
 1581              	 .thumb
 1582              	.L428:
 1583 0030 FEE7     	 b .L428
 1585 0032 00BF     	 .section .text.xQueuePeekFromISR,"ax",%progbits
 1586              	 .align 2
 1587              	 .global xQueuePeekFromISR
 1588              	 .thumb
 1589              	 .thumb_func
 1591              	xQueuePeekFromISR:
 1592              	 
 1593              	 
 1594 0000 F8B1     	 cbz r0,.L459
 1595 0002 036C     	 ldr r3,[r0,#64]
 1596 0004 71B3     	 cbz r1,.L460
 1597 0006 43B9     	 cbnz r3,.L461
 1598              	.L440:
 1599              	
 1600 0008 4FF0FC03 	 mov r3,#252
 1601 000c 83F31188 	 msr basepri,r3
 1602 0010 BFF36F8F 	 isb 
 1603 0014 BFF34F8F 	 dsb 
 1604              	
 1605              	
 1606              	 .thumb
 1607              	.L443:
 1608 0018 FEE7     	 b .L443
 1609              	.L461:
 1610 001a 70B5     	 push {r4,r5,r6,lr}
 1611 001c 0446     	 mov r4,r0
 1612 001e 0D46     	 mov r5,r1
 1613 0020 FFF7FEFF 	 bl vPortValidateInterruptPriority
 1614              	
 1615 0024 EFF31186 	 mrs r6,basepri
 1616 0028 4FF0FC03 	 mov r3,#252
 1617 002c 83F31188 	 msr basepri,r3
 1618 0030 BFF36F8F 	 isb 
 1619 0034 BFF34F8F 	 dsb 
 1620              	
 1621              	
 1622              	 .thumb
 1623 0038 A06B     	 ldr r0,[r4,#56]
 1624 003a 58B9     	 cbnz r0,.L458
 1625              	.L444:
 1626              	
 1627 003c 86F31188 	 msr basepri,r6
 1628              	
 1629              	 .thumb
 1630 0040 70BD     	 pop {r4,r5,r6,pc}
 1631              	.L459:
 1632              	
 1633 0042 4FF0FC03 	 mov r3,#252
 1634 0046 83F31188 	 msr basepri,r3
 1635 004a BFF36F8F 	 isb 
 1636 004e BFF34F8F 	 dsb 
 1637              	
 1638              	
 1639              	 .thumb
 1640              	.L438:
 1641 0052 FEE7     	 b .L438
 1642              	.L458:
 1643 0054 2946     	 mov r1,r5
 1644 0056 2046     	 mov r0,r4
 1645 0058 E568     	 ldr r5,[r4,#12]
 1646 005a FFF7FEFF 	 bl prvCopyDataFromQueue
 1647 005e E560     	 str r5,[r4,#12]
 1648 0060 0120     	 movs r0,#1
 1649 0062 EBE7     	 b .L444
 1650              	.L460:
 1651 0064 002B     	 cmp r3,#0
 1652 0066 CFD0     	 beq .L440
 1653              	
 1654 0068 4FF0FC03 	 mov r3,#252
 1655 006c 83F31188 	 msr basepri,r3
 1656 0070 BFF36F8F 	 isb 
 1657 0074 BFF34F8F 	 dsb 
 1658              	
 1659              	
 1660              	 .thumb
 1661              	.L442:
 1662 0078 FEE7     	 b .L442
 1664 007a 00BF     	 .section .text.uxQueueMessagesWaiting,"ax",%progbits
 1665              	 .align 2
 1666              	 .global uxQueueMessagesWaiting
 1667              	 .thumb
 1668              	 .thumb_func
 1670              	uxQueueMessagesWaiting:
 1671              	 
 1672              	 
 1673 0000 40B1     	 cbz r0,.L466
 1674 0002 10B5     	 push {r4,lr}
 1675 0004 0446     	 mov r4,r0
 1676 0006 FFF7FEFF 	 bl vPortEnterCritical
 1677 000a A46B     	 ldr r4,[r4,#56]
 1678 000c FFF7FEFF 	 bl vPortExitCritical
 1679 0010 2046     	 mov r0,r4
 1680 0012 10BD     	 pop {r4,pc}
 1681              	.L466:
 1682              	
 1683 0014 4FF0FC03 	 mov r3,#252
 1684 0018 83F31188 	 msr basepri,r3
 1685 001c BFF36F8F 	 isb 
 1686 0020 BFF34F8F 	 dsb 
 1687              	
 1688              	
 1689              	 .thumb
 1690              	.L464:
 1691 0024 FEE7     	 b .L464
 1693 0026 00BF     	 .section .text.uxQueueSpacesAvailable,"ax",%progbits
 1694              	 .align 2
 1695              	 .global uxQueueSpacesAvailable
 1696              	 .thumb
 1697              	 .thumb_func
 1699              	uxQueueSpacesAvailable:
 1700              	 
 1701              	 
 1702 0000 50B1     	 cbz r0,.L471
 1703 0002 10B5     	 push {r4,lr}
 1704 0004 0446     	 mov r4,r0
 1705 0006 FFF7FEFF 	 bl vPortEnterCritical
 1706 000a A26B     	 ldr r2,[r4,#56]
 1707 000c E36B     	 ldr r3,[r4,#60]
 1708 000e 9C1A     	 subs r4,r3,r2
 1709 0010 FFF7FEFF 	 bl vPortExitCritical
 1710 0014 2046     	 mov r0,r4
 1711 0016 10BD     	 pop {r4,pc}
 1712              	.L471:
 1713              	
 1714 0018 4FF0FC03 	 mov r3,#252
 1715 001c 83F31188 	 msr basepri,r3
 1716 0020 BFF36F8F 	 isb 
 1717 0024 BFF34F8F 	 dsb 
 1718              	
 1719              	
 1720              	 .thumb
 1721              	.L469:
 1722 0028 FEE7     	 b .L469
 1724 002a 00BF     	 .section .text.uxQueueMessagesWaitingFromISR,"ax",%progbits
 1725              	 .align 2
 1726              	 .global uxQueueMessagesWaitingFromISR
 1727              	 .thumb
 1728              	 .thumb_func
 1730              	uxQueueMessagesWaitingFromISR:
 1731              	 
 1732              	 
 1733              	 
 1734 0000 08B1     	 cbz r0,.L475
 1735 0002 806B     	 ldr r0,[r0,#56]
 1736 0004 7047     	 bx lr
 1737              	.L475:
 1738              	
 1739 0006 4FF0FC03 	 mov r3,#252
 1740 000a 83F31188 	 msr basepri,r3
 1741 000e BFF36F8F 	 isb 
 1742 0012 BFF34F8F 	 dsb 
 1743              	
 1744              	
 1745              	 .thumb
 1746              	.L474:
 1747 0016 FEE7     	 b .L474
 1749              	 .section .text.vQueueDelete,"ax",%progbits
 1750              	 .align 2
 1751              	 .global vQueueDelete
 1752              	 .thumb
 1753              	 .thumb_func
 1755              	vQueueDelete:
 1756              	 
 1757              	 
 1758              	 
 1759 0000 10B4     	 push {r4}
 1760 0002 F0B1     	 cbz r0,.L489
 1761 0004 314B     	 ldr r3,.L491
 1762 0006 5A68     	 ldr r2,[r3,#4]
 1763 0008 9042     	 cmp r0,r2
 1764 000a 2ED0     	 beq .L481
 1765 000c DA68     	 ldr r2,[r3,#12]
 1766 000e 9042     	 cmp r0,r2
 1767 0010 33D0     	 beq .L482
 1768 0012 5A69     	 ldr r2,[r3,#20]
 1769 0014 9042     	 cmp r0,r2
 1770 0016 38D0     	 beq .L483
 1771 0018 DA69     	 ldr r2,[r3,#28]
 1772 001a 9042     	 cmp r0,r2
 1773 001c 3DD0     	 beq .L484
 1774 001e 5A6A     	 ldr r2,[r3,#36]
 1775 0020 9042     	 cmp r0,r2
 1776 0022 42D0     	 beq .L485
 1777 0024 DA6A     	 ldr r2,[r3,#44]
 1778 0026 9042     	 cmp r0,r2
 1779 0028 47D0     	 beq .L486
 1780 002a 5A6B     	 ldr r2,[r3,#52]
 1781 002c 9042     	 cmp r0,r2
 1782 002e 11D0     	 beq .L487
 1783 0030 DA6B     	 ldr r2,[r3,#60]
 1784 0032 9042     	 cmp r0,r2
 1785 0034 08BF     	 it eq
 1786 0036 0722     	 moveq r2,#7
 1787 0038 0DD0     	 beq .L479
 1788 003a 5DF8044B 	 ldr r4,[sp],#4
 1789 003e FFF7FEBF 	 b vPortFree
 1790              	.L489:
 1791              	
 1792 0042 4FF0FC03 	 mov r3,#252
 1793 0046 83F31188 	 msr basepri,r3
 1794 004a BFF36F8F 	 isb 
 1795 004e BFF34F8F 	 dsb 
 1796              	
 1797              	
 1798              	 .thumb
 1799              	.L478:
 1800 0052 FEE7     	 b .L478
 1801              	.L487:
 1802 0054 0622     	 movs r2,#6
 1803              	.L479:
 1804 0056 0021     	 movs r1,#0
 1805 0058 03EBC204 	 add r4,r3,r2,lsl#3
 1806 005c 43F83210 	 str r1,[r3,r2,lsl#3]
 1807 0060 6160     	 str r1,[r4,#4]
 1808              	.L490:
 1809 0062 5DF8044B 	 ldr r4,[sp],#4
 1810 0066 FFF7FEBF 	 b vPortFree
 1811              	.L481:
 1812 006a 0022     	 movs r2,#0
 1813 006c 03EBC204 	 add r4,r3,r2,lsl#3
 1814 0070 0021     	 movs r1,#0
 1815 0072 43F83210 	 str r1,[r3,r2,lsl#3]
 1816 0076 6160     	 str r1,[r4,#4]
 1817 0078 F3E7     	 b .L490
 1818              	.L482:
 1819 007a 0122     	 movs r2,#1
 1820 007c 03EBC204 	 add r4,r3,r2,lsl#3
 1821 0080 0021     	 movs r1,#0
 1822 0082 43F83210 	 str r1,[r3,r2,lsl#3]
 1823 0086 6160     	 str r1,[r4,#4]
 1824 0088 EBE7     	 b .L490
 1825              	.L483:
 1826 008a 0222     	 movs r2,#2
 1827 008c 03EBC204 	 add r4,r3,r2,lsl#3
 1828 0090 0021     	 movs r1,#0
 1829 0092 43F83210 	 str r1,[r3,r2,lsl#3]
 1830 0096 6160     	 str r1,[r4,#4]
 1831 0098 E3E7     	 b .L490
 1832              	.L484:
 1833 009a 0322     	 movs r2,#3
 1834 009c 03EBC204 	 add r4,r3,r2,lsl#3
 1835 00a0 0021     	 movs r1,#0
 1836 00a2 43F83210 	 str r1,[r3,r2,lsl#3]
 1837 00a6 6160     	 str r1,[r4,#4]
 1838 00a8 DBE7     	 b .L490
 1839              	.L485:
 1840 00aa 0422     	 movs r2,#4
 1841 00ac 03EBC204 	 add r4,r3,r2,lsl#3
 1842 00b0 0021     	 movs r1,#0
 1843 00b2 43F83210 	 str r1,[r3,r2,lsl#3]
 1844 00b6 6160     	 str r1,[r4,#4]
 1845 00b8 D3E7     	 b .L490
 1846              	.L486:
 1847 00ba 0522     	 movs r2,#5
 1848 00bc 03EBC204 	 add r4,r3,r2,lsl#3
 1849 00c0 0021     	 movs r1,#0
 1850 00c2 43F83210 	 str r1,[r3,r2,lsl#3]
 1851 00c6 6160     	 str r1,[r4,#4]
 1852 00c8 CBE7     	 b .L490
 1853              	.L492:
 1854 00ca 00BF     	 .align 2
 1855              	.L491:
 1856 00cc 00000000 	 .word xQueueRegistry
 1858              	 .section .text.uxQueueGetQueueNumber,"ax",%progbits
 1859              	 .align 2
 1860              	 .global uxQueueGetQueueNumber
 1861              	 .thumb
 1862              	 .thumb_func
 1864              	uxQueueGetQueueNumber:
 1865              	 
 1866              	 
 1867              	 
 1868 0000 C06C     	 ldr r0,[r0,#76]
 1869 0002 7047     	 bx lr
 1871              	 .section .text.vQueueSetQueueNumber,"ax",%progbits
 1872              	 .align 2
 1873              	 .global vQueueSetQueueNumber
 1874              	 .thumb
 1875              	 .thumb_func
 1877              	vQueueSetQueueNumber:
 1878              	 
 1879              	 
 1880              	 
 1881 0000 C164     	 str r1,[r0,#76]
 1882 0002 7047     	 bx lr
 1884              	 .section .text.ucQueueGetQueueType,"ax",%progbits
 1885              	 .align 2
 1886              	 .global ucQueueGetQueueType
 1887              	 .thumb
 1888              	 .thumb_func
 1890              	ucQueueGetQueueType:
 1891              	 
 1892              	 
 1893              	 
 1894 0000 90F85000 	 ldrb r0,[r0,#80]
 1895 0004 7047     	 bx lr
 1897 0006 00BF     	 .section .text.xQueueIsQueueEmptyFromISR,"ax",%progbits
 1898              	 .align 2
 1899              	 .global xQueueIsQueueEmptyFromISR
 1900              	 .thumb
 1901              	 .thumb_func
 1903              	xQueueIsQueueEmptyFromISR:
 1904              	 
 1905              	 
 1906              	 
 1907 0000 20B1     	 cbz r0,.L499
 1908 0002 806B     	 ldr r0,[r0,#56]
 1909 0004 B0FA80F0 	 clz r0,r0
 1910 0008 4009     	 lsrs r0,r0,#5
 1911 000a 7047     	 bx lr
 1912              	.L499:
 1913              	
 1914 000c 4FF0FC03 	 mov r3,#252
 1915 0010 83F31188 	 msr basepri,r3
 1916 0014 BFF36F8F 	 isb 
 1917 0018 BFF34F8F 	 dsb 
 1918              	
 1919              	
 1920              	 .thumb
 1921              	.L498:
 1922 001c FEE7     	 b .L498
 1924              	 .section .text.xQueueIsQueueFullFromISR,"ax",%progbits
 1925              	 .align 2
 1926              	 .global xQueueIsQueueFullFromISR
 1927              	 .thumb
 1928              	 .thumb_func
 1930              	xQueueIsQueueFullFromISR:
 1931              	 
 1932              	 
 1933              	 
 1934 0000 30B1     	 cbz r0,.L503
 1935 0002 826B     	 ldr r2,[r0,#56]
 1936 0004 C06B     	 ldr r0,[r0,#60]
 1937 0006 101A     	 subs r0,r2,r0
 1938 0008 B0FA80F0 	 clz r0,r0
 1939 000c 4009     	 lsrs r0,r0,#5
 1940 000e 7047     	 bx lr
 1941              	.L503:
 1942              	
 1943 0010 4FF0FC03 	 mov r3,#252
 1944 0014 83F31188 	 msr basepri,r3
 1945 0018 BFF36F8F 	 isb 
 1946 001c BFF34F8F 	 dsb 
 1947              	
 1948              	
 1949              	 .thumb
 1950              	.L502:
 1951 0020 FEE7     	 b .L502
 1953 0022 00BF     	 .section .text.vQueueAddToRegistry,"ax",%progbits
 1954              	 .align 2
 1955              	 .global vQueueAddToRegistry
 1956              	 .thumb
 1957              	 .thumb_func
 1959              	vQueueAddToRegistry:
 1960              	 
 1961              	 
 1962              	 
 1963 0000 144B     	 ldr r3,.L516
 1964 0002 1A68     	 ldr r2,[r3]
 1965 0004 10B4     	 push {r4}
 1966 0006 8AB1     	 cbz r2,.L505
 1967 0008 9A68     	 ldr r2,[r3,#8]
 1968 000a BAB1     	 cbz r2,.L508
 1969 000c 1A69     	 ldr r2,[r3,#16]
 1970 000e BAB1     	 cbz r2,.L509
 1971 0010 9A69     	 ldr r2,[r3,#24]
 1972 0012 BAB1     	 cbz r2,.L510
 1973 0014 1A6A     	 ldr r2,[r3,#32]
 1974 0016 BAB1     	 cbz r2,.L511
 1975 0018 9A6A     	 ldr r2,[r3,#40]
 1976 001a BAB1     	 cbz r2,.L512
 1977 001c 1A6B     	 ldr r2,[r3,#48]
 1978 001e 22B1     	 cbz r2,.L513
 1979 0020 9A6B     	 ldr r2,[r3,#56]
 1980 0022 AAB1     	 cbz r2,.L515
 1981 0024 5DF8044B 	 ldr r4,[sp],#4
 1982 0028 7047     	 bx lr
 1983              	.L513:
 1984 002a 0622     	 movs r2,#6
 1985              	.L505:
 1986 002c 03EBC204 	 add r4,r3,r2,lsl#3
 1987 0030 43F83210 	 str r1,[r3,r2,lsl#3]
 1988 0034 6060     	 str r0,[r4,#4]
 1989 0036 5DF8044B 	 ldr r4,[sp],#4
 1990 003a 7047     	 bx lr
 1991              	.L508:
 1992 003c 0122     	 movs r2,#1
 1993 003e F5E7     	 b .L505
 1994              	.L509:
 1995 0040 0222     	 movs r2,#2
 1996 0042 F3E7     	 b .L505
 1997              	.L510:
 1998 0044 0322     	 movs r2,#3
 1999 0046 F1E7     	 b .L505
 2000              	.L511:
 2001 0048 0422     	 movs r2,#4
 2002 004a EFE7     	 b .L505
 2003              	.L512:
 2004 004c 0522     	 movs r2,#5
 2005 004e EDE7     	 b .L505
 2006              	.L515:
 2007 0050 0722     	 movs r2,#7
 2008 0052 EBE7     	 b .L505
 2009              	.L517:
 2010              	 .align 2
 2011              	.L516:
 2012 0054 00000000 	 .word xQueueRegistry
 2014              	 .section .text.pcQueueGetName,"ax",%progbits
 2015              	 .align 2
 2016              	 .global pcQueueGetName
 2017              	 .thumb
 2018              	 .thumb_func
 2020              	pcQueueGetName:
 2021              	 
 2022              	 
 2023              	 
 2024 0000 164B     	 ldr r3,.L530
 2025 0002 5A68     	 ldr r2,[r3,#4]
 2026 0004 8242     	 cmp r2,r0
 2027 0006 1CD0     	 beq .L521
 2028 0008 DA68     	 ldr r2,[r3,#12]
 2029 000a 8242     	 cmp r2,r0
 2030 000c 1BD0     	 beq .L522
 2031 000e 5A69     	 ldr r2,[r3,#20]
 2032 0010 8242     	 cmp r2,r0
 2033 0012 1AD0     	 beq .L523
 2034 0014 DA69     	 ldr r2,[r3,#28]
 2035 0016 8242     	 cmp r2,r0
 2036 0018 19D0     	 beq .L524
 2037 001a 5A6A     	 ldr r2,[r3,#36]
 2038 001c 8242     	 cmp r2,r0
 2039 001e 18D0     	 beq .L525
 2040 0020 DA6A     	 ldr r2,[r3,#44]
 2041 0022 8242     	 cmp r2,r0
 2042 0024 17D0     	 beq .L526
 2043 0026 5A6B     	 ldr r2,[r3,#52]
 2044 0028 8242     	 cmp r2,r0
 2045 002a 06D0     	 beq .L527
 2046 002c DA6B     	 ldr r2,[r3,#60]
 2047 002e 8242     	 cmp r2,r0
 2048 0030 08BF     	 it eq
 2049 0032 0722     	 moveq r2,#7
 2050 0034 02D0     	 beq .L519
 2051 0036 0020     	 movs r0,#0
 2052 0038 7047     	 bx lr
 2053              	.L527:
 2054 003a 0622     	 movs r2,#6
 2055              	.L519:
 2056 003c 53F83200 	 ldr r0,[r3,r2,lsl#3]
 2057 0040 7047     	 bx lr
 2058              	.L521:
 2059 0042 0022     	 movs r2,#0
 2060 0044 FAE7     	 b .L519
 2061              	.L522:
 2062 0046 0122     	 movs r2,#1
 2063 0048 F8E7     	 b .L519
 2064              	.L523:
 2065 004a 0222     	 movs r2,#2
 2066 004c F6E7     	 b .L519
 2067              	.L524:
 2068 004e 0322     	 movs r2,#3
 2069 0050 F4E7     	 b .L519
 2070              	.L525:
 2071 0052 0422     	 movs r2,#4
 2072 0054 F2E7     	 b .L519
 2073              	.L526:
 2074 0056 0522     	 movs r2,#5
 2075 0058 F0E7     	 b .L519
 2076              	.L531:
 2077 005a 00BF     	 .align 2
 2078              	.L530:
 2079 005c 00000000 	 .word xQueueRegistry
 2081              	 .section .text.vQueueUnregisterQueue,"ax",%progbits
 2082              	 .align 2
 2083              	 .global vQueueUnregisterQueue
 2084              	 .thumb
 2085              	 .thumb_func
 2087              	vQueueUnregisterQueue:
 2088              	 
 2089              	 
 2090              	 
 2091 0000 174B     	 ldr r3,.L542
 2092 0002 5A68     	 ldr r2,[r3,#4]
 2093 0004 8242     	 cmp r2,r0
 2094 0006 1FD0     	 beq .L535
 2095 0008 DA68     	 ldr r2,[r3,#12]
 2096 000a 8242     	 cmp r2,r0
 2097 000c 1ED0     	 beq .L536
 2098 000e 5A69     	 ldr r2,[r3,#20]
 2099 0010 8242     	 cmp r2,r0
 2100 0012 1DD0     	 beq .L537
 2101 0014 DA69     	 ldr r2,[r3,#28]
 2102 0016 8242     	 cmp r2,r0
 2103 0018 1CD0     	 beq .L538
 2104 001a 5A6A     	 ldr r2,[r3,#36]
 2105 001c 8242     	 cmp r2,r0
 2106 001e 1BD0     	 beq .L539
 2107 0020 DA6A     	 ldr r2,[r3,#44]
 2108 0022 8242     	 cmp r2,r0
 2109 0024 1AD0     	 beq .L540
 2110 0026 5A6B     	 ldr r2,[r3,#52]
 2111 0028 8242     	 cmp r2,r0
 2112 002a 05D0     	 beq .L541
 2113 002c DA6B     	 ldr r2,[r3,#60]
 2114 002e 8242     	 cmp r2,r0
 2115 0030 08BF     	 it eq
 2116 0032 0722     	 moveq r2,#7
 2117 0034 01D0     	 beq .L533
 2118 0036 7047     	 bx lr
 2119              	.L541:
 2120 0038 0622     	 movs r2,#6
 2121              	.L533:
 2122 003a 03EBC200 	 add r0,r3,r2,lsl#3
 2123 003e 0021     	 movs r1,#0
 2124 0040 43F83210 	 str r1,[r3,r2,lsl#3]
 2125 0044 4160     	 str r1,[r0,#4]
 2126 0046 7047     	 bx lr
 2127              	.L535:
 2128 0048 0022     	 movs r2,#0
 2129 004a F6E7     	 b .L533
 2130              	.L536:
 2131 004c 0122     	 movs r2,#1
 2132 004e F4E7     	 b .L533
 2133              	.L537:
 2134 0050 0222     	 movs r2,#2
 2135 0052 F2E7     	 b .L533
 2136              	.L538:
 2137 0054 0322     	 movs r2,#3
 2138 0056 F0E7     	 b .L533
 2139              	.L539:
 2140 0058 0422     	 movs r2,#4
 2141 005a EEE7     	 b .L533
 2142              	.L540:
 2143 005c 0522     	 movs r2,#5
 2144 005e ECE7     	 b .L533
 2145              	.L543:
 2146              	 .align 2
 2147              	.L542:
 2148 0060 00000000 	 .word xQueueRegistry
 2150              	 .section .text.vQueueWaitForMessageRestricted,"ax",%progbits
 2151              	 .align 2
 2152              	 .global vQueueWaitForMessageRestricted
 2153              	 .thumb
 2154              	 .thumb_func
 2156              	vQueueWaitForMessageRestricted:
 2157              	 
 2158              	 
 2159 0000 70B5     	 push {r4,r5,r6,lr}
 2160 0002 0446     	 mov r4,r0
 2161 0004 0E46     	 mov r6,r1
 2162 0006 1546     	 mov r5,r2
 2163 0008 FFF7FEFF 	 bl vPortEnterCritical
 2164 000c 94F84430 	 ldrb r3,[r4,#68]
 2165 0010 FF2B     	 cmp r3,#255
 2166 0012 04BF     	 itt eq
 2167 0014 0023     	 moveq r3,#0
 2168 0016 84F84430 	 strbeq r3,[r4,#68]
 2169 001a 94F84530 	 ldrb r3,[r4,#69]
 2170 001e FF2B     	 cmp r3,#255
 2171 0020 04BF     	 itt eq
 2172 0022 0023     	 moveq r3,#0
 2173 0024 84F84530 	 strbeq r3,[r4,#69]
 2174 0028 FFF7FEFF 	 bl vPortExitCritical
 2175 002c A36B     	 ldr r3,[r4,#56]
 2176 002e 2BB9     	 cbnz r3,.L547
 2177 0030 3146     	 mov r1,r6
 2178 0032 2A46     	 mov r2,r5
 2179 0034 04F12400 	 add r0,r4,#36
 2180 0038 FFF7FEFF 	 bl vTaskPlaceOnEventListRestricted
 2181              	.L547:
 2182 003c 2046     	 mov r0,r4
 2183 003e BDE87040 	 pop {r4,r5,r6,lr}
 2184 0042 FFF7FEBF 	 b prvUnlockQueue
 2186 0046 00BF     	 .section .text.xQueueCreateSet,"ax",%progbits
 2187              	 .align 2
 2188              	 .global xQueueCreateSet
 2189              	 .thumb
 2190              	 .thumb_func
 2192              	xQueueCreateSet:
 2193              	 
 2194              	 
 2195 0000 38B5     	 push {r3,r4,r5,lr}
 2196 0002 40B9     	 cbnz r0,.L550
 2197              	
 2198 0004 4FF0FC03 	 mov r3,#252
 2199 0008 83F31188 	 msr basepri,r3
 2200 000c BFF36F8F 	 isb 
 2201 0010 BFF34F8F 	 dsb 
 2202              	
 2203              	
 2204              	 .thumb
 2205              	.L551:
 2206 0014 FEE7     	 b .L551
 2207              	.L550:
 2208 0016 0546     	 mov r5,r0
 2209 0018 8000     	 lsls r0,r0,#2
 2210 001a 5430     	 adds r0,r0,#84
 2211 001c FFF7FEFF 	 bl pvPortMalloc
 2212 0020 0446     	 mov r4,r0
 2213 0022 30B3     	 cbz r0,.L552
 2214 0024 00F15402 	 add r2,r0,#84
 2215 0028 0423     	 movs r3,#4
 2216 002a C563     	 str r5,[r0,#60]
 2217 002c 0260     	 str r2,[r0]
 2218 002e 0364     	 str r3,[r0,#64]
 2219 0030 FFF7FEFF 	 bl vPortEnterCritical
 2220 0034 226C     	 ldr r2,[r4,#64]
 2221 0036 E36B     	 ldr r3,[r4,#60]
 2222 0038 2168     	 ldr r1,[r4]
 2223 003a A160     	 str r1,[r4,#8]
 2224 003c 03FB02F3 	 mul r3,r3,r2
 2225 0040 9A1A     	 subs r2,r3,r2
 2226 0042 0A44     	 add r2,r2,r1
 2227 0044 0B44     	 add r3,r3,r1
 2228 0046 0025     	 movs r5,#0
 2229 0048 FF21     	 movs r1,#255
 2230 004a E260     	 str r2,[r4,#12]
 2231 004c 6360     	 str r3,[r4,#4]
 2232 004e A563     	 str r5,[r4,#56]
 2233 0050 04F11000 	 add r0,r4,#16
 2234 0054 84F84410 	 strb r1,[r4,#68]
 2235 0058 84F84510 	 strb r1,[r4,#69]
 2236 005c FFF7FEFF 	 bl vListInitialise
 2237 0060 04F12400 	 add r0,r4,#36
 2238 0064 FFF7FEFF 	 bl vListInitialise
 2239 0068 FFF7FEFF 	 bl vPortExitCritical
 2240 006c 84F85050 	 strb r5,[r4,#80]
 2241 0070 A564     	 str r5,[r4,#72]
 2242              	.L552:
 2243 0072 2046     	 mov r0,r4
 2244 0074 38BD     	 pop {r3,r4,r5,pc}
 2246 0076 00BF     	 .section .text.xQueueAddToSet,"ax",%progbits
 2247              	 .align 2
 2248              	 .global xQueueAddToSet
 2249              	 .thumb
 2250              	 .thumb_func
 2252              	xQueueAddToSet:
 2253              	 
 2254              	 
 2255 0000 38B5     	 push {r3,r4,r5,lr}
 2256 0002 0446     	 mov r4,r0
 2257 0004 0D46     	 mov r5,r1
 2258 0006 FFF7FEFF 	 bl vPortEnterCritical
 2259 000a A36C     	 ldr r3,[r4,#72]
 2260 000c 23B1     	 cbz r3,.L562
 2261 000e 0024     	 movs r4,#0
 2262              	.L558:
 2263 0010 FFF7FEFF 	 bl vPortExitCritical
 2264 0014 2046     	 mov r0,r4
 2265 0016 38BD     	 pop {r3,r4,r5,pc}
 2266              	.L562:
 2267 0018 A26B     	 ldr r2,[r4,#56]
 2268 001a 2AB9     	 cbnz r2,.L560
 2269 001c A564     	 str r5,[r4,#72]
 2270 001e 0124     	 movs r4,#1
 2271 0020 FFF7FEFF 	 bl vPortExitCritical
 2272 0024 2046     	 mov r0,r4
 2273 0026 38BD     	 pop {r3,r4,r5,pc}
 2274              	.L560:
 2275 0028 1C46     	 mov r4,r3
 2276 002a F1E7     	 b .L558
 2278              	 .section .text.xQueueRemoveFromSet,"ax",%progbits
 2279              	 .align 2
 2280              	 .global xQueueRemoveFromSet
 2281              	 .thumb
 2282              	 .thumb_func
 2284              	xQueueRemoveFromSet:
 2285              	 
 2286              	 
 2287 0000 38B5     	 push {r3,r4,r5,lr}
 2288 0002 836C     	 ldr r3,[r0,#72]
 2289 0004 8B42     	 cmp r3,r1
 2290 0006 01D0     	 beq .L568
 2291              	.L566:
 2292 0008 0020     	 movs r0,#0
 2293 000a 38BD     	 pop {r3,r4,r5,pc}
 2294              	.L568:
 2295 000c 856B     	 ldr r5,[r0,#56]
 2296 000e 002D     	 cmp r5,#0
 2297 0010 FAD1     	 bne .L566
 2298 0012 0446     	 mov r4,r0
 2299 0014 FFF7FEFF 	 bl vPortEnterCritical
 2300 0018 A564     	 str r5,[r4,#72]
 2301 001a FFF7FEFF 	 bl vPortExitCritical
 2302 001e 0120     	 movs r0,#1
 2303 0020 38BD     	 pop {r3,r4,r5,pc}
 2305 0022 00BF     	 .section .text.xQueueSelectFromSet,"ax",%progbits
 2306              	 .align 2
 2307              	 .global xQueueSelectFromSet
 2308              	 .thumb
 2309              	 .thumb_func
 2311              	xQueueSelectFromSet:
 2312              	 
 2313              	 
 2314 0000 10B5     	 push {r4,lr}
 2315 0002 82B0     	 sub sp,sp,#8
 2316 0004 02AC     	 add r4,sp,#8
 2317 0006 0023     	 movs r3,#0
 2318 0008 44F8043D 	 str r3,[r4,#-4]!
 2319 000c 0A46     	 mov r2,r1
 2320 000e 2146     	 mov r1,r4
 2321 0010 FFF7FEFF 	 bl xQueueGenericReceive
 2322 0014 0198     	 ldr r0,[sp,#4]
 2323 0016 02B0     	 add sp,sp,#8
 2324              	 
 2325 0018 10BD     	 pop {r4,pc}
 2327 001a 00BF     	 .section .text.xQueueSelectFromSetFromISR,"ax",%progbits
 2328              	 .align 2
 2329              	 .global xQueueSelectFromSetFromISR
 2330              	 .thumb
 2331              	 .thumb_func
 2333              	xQueueSelectFromSetFromISR:
 2334              	 
 2335              	 
 2336 0000 00B5     	 push {lr}
 2337 0002 83B0     	 sub sp,sp,#12
 2338 0004 0022     	 movs r2,#0
 2339 0006 0192     	 str r2,[sp,#4]
 2340 0008 30B1     	 cbz r0,.L575
 2341 000a 01A9     	 add r1,sp,#4
 2342 000c FFF7FEFF 	 bl xQueueReceiveFromISR.part.2
 2343 0010 0198     	 ldr r0,[sp,#4]
 2344 0012 03B0     	 add sp,sp,#12
 2345              	 
 2346 0014 5DF804FB 	 ldr pc,[sp],#4
 2347              	.L575:
 2348              	
 2349 0018 4FF0FC03 	 mov r3,#252
 2350 001c 83F31188 	 msr basepri,r3
 2351 0020 BFF36F8F 	 isb 
 2352 0024 BFF34F8F 	 dsb 
 2353              	
 2354              	
 2355              	 .thumb
 2356              	.L573:
 2357 0028 FEE7     	 b .L573
 2359              	 .comm xQueueRegistry,64,4
 2360 002a 00BF     	 .ident "GCC: (GNU Tools for ARM Embedded Processors) 4.9.3 20141119 (release) [ARM/embedded-4_9-branch revision 218278]"
DEFINED SYMBOLS
                            *ABS*:00000000 queue.c
    {standard input}:17     .text.unlikely.prvCopyDataToQueue:00000000 $t
    {standard input}:21     .text.unlikely.prvCopyDataToQueue:00000000 prvCopyDataToQueue
    {standard input}:89     .text.unlikely.prvCopyDataFromQueue:00000000 $t
    {standard input}:93     .text.unlikely.prvCopyDataFromQueue:00000000 prvCopyDataFromQueue
    {standard input}:118    .text.unlikely.prvNotifyQueueSetContainer.part.0:00000000 $t
    {standard input}:122    .text.unlikely.prvNotifyQueueSetContainer.part.0:00000000 prvNotifyQueueSetContainer.part.0
    {standard input}:139    .text.prvNotifyQueueSetContainer:00000000 $t
    {standard input}:143    .text.prvNotifyQueueSetContainer:00000000 prvNotifyQueueSetContainer
    {standard input}:209    .text.unlikely.xQueueReceiveFromISR.part.2:00000000 $t
    {standard input}:213    .text.unlikely.xQueueReceiveFromISR.part.2:00000000 xQueueReceiveFromISR.part.2
    {standard input}:268    .text.prvUnlockQueue:00000000 $t
    {standard input}:272    .text.prvUnlockQueue:00000000 prvUnlockQueue
    {standard input}:389    .text.xQueueGenericReset:00000000 $t
    {standard input}:394    .text.xQueueGenericReset:00000000 xQueueGenericReset
    {standard input}:464    .text.xQueueGenericReset:0000008c $d
    {standard input}:467    .text.xQueueGenericCreate:00000000 $t
    {standard input}:472    .text.xQueueGenericCreate:00000000 xQueueGenericCreate
    {standard input}:538    .text.xQueueCreateMutex:00000000 $t
    {standard input}:543    .text.xQueueCreateMutex:00000000 xQueueCreateMutex
    {standard input}:734    .text.xQueueCreateMutex:00000198 $d
    {standard input}:737    .text.xQueueGetMutexHolder:00000000 $t
    {standard input}:742    .text.xQueueGetMutexHolder:00000000 xQueueGetMutexHolder
    {standard input}:761    .text.xQueueCreateCountingSemaphore:00000000 $t
    {standard input}:766    .text.xQueueCreateCountingSemaphore:00000000 xQueueCreateCountingSemaphore
    {standard input}:805    .text.xQueueGenericSend:00000000 $t
    {standard input}:810    .text.xQueueGenericSend:00000000 xQueueGenericSend
    {standard input}:1010   .text.xQueueGenericSend:0000019c $d
    {standard input}:1013   .text.xQueueGiveMutexRecursive:00000000 $t
    {standard input}:1018   .text.xQueueGiveMutexRecursive:00000000 xQueueGiveMutexRecursive
    {standard input}:1057   .text.xQueueGenericSendFromISR:00000000 $t
    {standard input}:1062   .text.xQueueGenericSendFromISR:00000000 xQueueGenericSendFromISR
    {standard input}:1179   .text.xQueueGiveFromISR:00000000 $t
    {standard input}:1184   .text.xQueueGiveFromISR:00000000 xQueueGiveFromISR
    {standard input}:1292   .text.xQueueGenericReceive:00000000 $t
    {standard input}:1297   .text.xQueueGenericReceive:00000000 xQueueGenericReceive
    {standard input}:1497   .text.xQueueGenericReceive:000001a8 $d
    {standard input}:1500   .text.xQueueTakeMutexRecursive:00000000 $t
    {standard input}:1505   .text.xQueueTakeMutexRecursive:00000000 xQueueTakeMutexRecursive
    {standard input}:1546   .text.xQueueReceiveFromISR:00000000 $t
    {standard input}:1551   .text.xQueueReceiveFromISR:00000000 xQueueReceiveFromISR
    {standard input}:1586   .text.xQueuePeekFromISR:00000000 $t
    {standard input}:1591   .text.xQueuePeekFromISR:00000000 xQueuePeekFromISR
    {standard input}:1665   .text.uxQueueMessagesWaiting:00000000 $t
    {standard input}:1670   .text.uxQueueMessagesWaiting:00000000 uxQueueMessagesWaiting
    {standard input}:1694   .text.uxQueueSpacesAvailable:00000000 $t
    {standard input}:1699   .text.uxQueueSpacesAvailable:00000000 uxQueueSpacesAvailable
    {standard input}:1725   .text.uxQueueMessagesWaitingFromISR:00000000 $t
    {standard input}:1730   .text.uxQueueMessagesWaitingFromISR:00000000 uxQueueMessagesWaitingFromISR
    {standard input}:1750   .text.vQueueDelete:00000000 $t
    {standard input}:1755   .text.vQueueDelete:00000000 vQueueDelete
    {standard input}:1856   .text.vQueueDelete:000000cc $d
                            *COM*:00000040 xQueueRegistry
    {standard input}:1859   .text.uxQueueGetQueueNumber:00000000 $t
    {standard input}:1864   .text.uxQueueGetQueueNumber:00000000 uxQueueGetQueueNumber
    {standard input}:1872   .text.vQueueSetQueueNumber:00000000 $t
    {standard input}:1877   .text.vQueueSetQueueNumber:00000000 vQueueSetQueueNumber
    {standard input}:1885   .text.ucQueueGetQueueType:00000000 $t
    {standard input}:1890   .text.ucQueueGetQueueType:00000000 ucQueueGetQueueType
    {standard input}:1898   .text.xQueueIsQueueEmptyFromISR:00000000 $t
    {standard input}:1903   .text.xQueueIsQueueEmptyFromISR:00000000 xQueueIsQueueEmptyFromISR
    {standard input}:1925   .text.xQueueIsQueueFullFromISR:00000000 $t
    {standard input}:1930   .text.xQueueIsQueueFullFromISR:00000000 xQueueIsQueueFullFromISR
    {standard input}:1954   .text.vQueueAddToRegistry:00000000 $t
    {standard input}:1959   .text.vQueueAddToRegistry:00000000 vQueueAddToRegistry
    {standard input}:2012   .text.vQueueAddToRegistry:00000054 $d
    {standard input}:2015   .text.pcQueueGetName:00000000 $t
    {standard input}:2020   .text.pcQueueGetName:00000000 pcQueueGetName
    {standard input}:2079   .text.pcQueueGetName:0000005c $d
    {standard input}:2082   .text.vQueueUnregisterQueue:00000000 $t
    {standard input}:2087   .text.vQueueUnregisterQueue:00000000 vQueueUnregisterQueue
    {standard input}:2148   .text.vQueueUnregisterQueue:00000060 $d
    {standard input}:2151   .text.vQueueWaitForMessageRestricted:00000000 $t
    {standard input}:2156   .text.vQueueWaitForMessageRestricted:00000000 vQueueWaitForMessageRestricted
    {standard input}:2187   .text.xQueueCreateSet:00000000 $t
    {standard input}:2192   .text.xQueueCreateSet:00000000 xQueueCreateSet
    {standard input}:2247   .text.xQueueAddToSet:00000000 $t
    {standard input}:2252   .text.xQueueAddToSet:00000000 xQueueAddToSet
    {standard input}:2279   .text.xQueueRemoveFromSet:00000000 $t
    {standard input}:2284   .text.xQueueRemoveFromSet:00000000 xQueueRemoveFromSet
    {standard input}:2306   .text.xQueueSelectFromSet:00000000 $t
    {standard input}:2311   .text.xQueueSelectFromSet:00000000 xQueueSelectFromSet
    {standard input}:2328   .text.xQueueSelectFromSetFromISR:00000000 $t
    {standard input}:2333   .text.xQueueSelectFromSetFromISR:00000000 xQueueSelectFromSetFromISR

UNDEFINED SYMBOLS
xTaskPriorityDisinherit
memcpy
xTaskRemoveFromEventList
vPortValidateInterruptPriority
vPortEnterCritical
vPortExitCritical
vTaskMissedYield
vListInitialise
pvPortMalloc
xTaskGetSchedulerState
xTaskResumeAll
vTaskSetTimeOutState
vTaskSuspendAll
xTaskCheckForTimeOut
vTaskPlaceOnEventList
xTaskGetCurrentTaskHandle
pvTaskIncrementMutexHeldCount
vTaskPriorityInherit
vPortFree
vTaskPlaceOnEventListRestricted
