   1              	 .syntax unified
   2              	 .cpu cortex-m4
   3              	 .eabi_attribute 27,3
   4              	 .fpu fpv4-sp-d16
   5              	 .eabi_attribute 20,1
   6              	 .eabi_attribute 21,1
   7              	 .eabi_attribute 23,3
   8              	 .eabi_attribute 24,1
   9              	 .eabi_attribute 25,1
  10              	 .eabi_attribute 26,1
  11              	 .eabi_attribute 30,2
  12              	 .eabi_attribute 34,1
  13              	 .eabi_attribute 18,4
  14              	 .thumb
  15              	 .file "tasks.c"
  16              	 .section .text.unlikely.prvSearchForNameWithinSingleList,"ax",%progbits
  17              	 .align 2
  18              	 .thumb
  19              	 .thumb_func
  21              	prvSearchForNameWithinSingleList:
  22              	 
  23              	 
  24 0000 0368     	 ldr r3,[r0]
  25 0002 F0B5     	 push {r4,r5,r6,r7,lr}
  26 0004 0746     	 mov r7,r0
  27 0006 0BB9     	 cbnz r3,.L2
  28              	.L9:
  29 0008 0020     	 movs r0,#0
  30 000a F0BD     	 pop {r4,r5,r6,r7,pc}
  31              	.L2:
  32 000c 4368     	 ldr r3,[r0,#4]
  33 000e 5B68     	 ldr r3,[r3,#4]
  34 0010 4360     	 str r3,[r0,#4]
  35 0012 00F1080E 	 add lr,r0,#8
  36 0016 7345     	 cmp r3,lr
  37 0018 04BF     	 itt eq
  38 001a DEF80430 	 ldreq r3,[lr,#4]
  39 001e 4360     	 streq r3,[r0,#4]
  40 0020 4368     	 ldr r3,[r0,#4]
  41 0022 D3F80CC0 	 ldr ip,[r3,#12]
  42              	.L8:
  43 0026 7B68     	 ldr r3,[r7,#4]
  44 0028 5B68     	 ldr r3,[r3,#4]
  45 002a 7B60     	 str r3,[r7,#4]
  46 002c 9E45     	 cmp lr,r3
  47 002e 04BF     	 itt eq
  48 0030 FB68     	 ldreq r3,[r7,#12]
  49 0032 7B60     	 streq r3,[r7,#4]
  50 0034 7B68     	 ldr r3,[r7,#4]
  51 0036 D868     	 ldr r0,[r3,#12]
  52 0038 4C1E     	 subs r4,r1,#1
  53 003a 00F13303 	 add r3,r0,#51
  54 003e 00F14306 	 add r6,r0,#67
  55              	.L7:
  56 0042 14F8015F 	 ldrb r5,[r4,#1]!
  57 0046 13F8012F 	 ldrb r2,[r3,#1]!
  58 004a AA42     	 cmp r2,r5
  59 004c 02D1     	 bne .L6
  60 004e 22B1     	 cbz r2,.L3
  61 0050 B342     	 cmp r3,r6
  62 0052 F6D1     	 bne .L7
  63              	.L6:
  64 0054 6045     	 cmp r0,ip
  65 0056 E6D1     	 bne .L8
  66 0058 D6E7     	 b .L9
  67              	.L3:
  68 005a F0BD     	 pop {r4,r5,r6,r7,pc}
  70              	 .section .text.unlikely.prvAddCurrentTaskToDelayedList,"ax",%progbits
  71              	 .align 2
  72              	 .thumb
  73              	 .thumb_func
  75              	prvAddCurrentTaskToDelayedList:
  76              	 
  77              	 
  78 0000 F8B5     	 push {r3,r4,r5,r6,r7,lr}
  79 0002 1D4B     	 ldr r3,.L26
  80 0004 1D4D     	 ldr r5,.L26+4
  81 0006 1E68     	 ldr r6,[r3]
  82 0008 2A68     	 ldr r2,[r5]
  83 000a 2B68     	 ldr r3,[r5]
  84 000c 0027     	 movs r7,#0
  85 000e 0446     	 mov r4,r0
  86 0010 82F86D70 	 strb r7,[r2,#109]
  87 0014 181D     	 adds r0,r3,#4
  88 0016 0F46     	 mov r7,r1
  89 0018 FFF7FEFF 	 bl uxListRemove
  90 001c 40B9     	 cbnz r0,.L18
  91 001e 2B68     	 ldr r3,[r5]
  92 0020 1749     	 ldr r1,.L26+8
  93 0022 D86A     	 ldr r0,[r3,#44]
  94 0024 0A68     	 ldr r2,[r1]
  95 0026 0123     	 movs r3,#1
  96 0028 8340     	 lsls r3,r3,r0
  97 002a 22EA0303 	 bic r3,r2,r3
  98 002e 0B60     	 str r3,[r1]
  99              	.L18:
 100 0030 631C     	 adds r3,r4,#1
 101 0032 07D1     	 bne .L19
 102 0034 37B1     	 cbz r7,.L19
 103 0036 2968     	 ldr r1,[r5]
 104 0038 1248     	 ldr r0,.L26+12
 105 003a 0431     	 adds r1,r1,#4
 106 003c BDE8F840 	 pop {r3,r4,r5,r6,r7,lr}
 107 0040 FFF7FEBF 	 b vListInsertEnd
 108              	.L19:
 109 0044 3444     	 add r4,r4,r6
 110 0046 2B68     	 ldr r3,[r5]
 111 0048 0C4A     	 ldr r2,.L26+4
 112 004a 5C60     	 str r4,[r3,#4]
 113 004c B442     	 cmp r4,r6
 114 004e 07D2     	 bcs .L20
 115 0050 0D4B     	 ldr r3,.L26+16
 116 0052 1868     	 ldr r0,[r3]
 117 0054 1168     	 ldr r1,[r2]
 118 0056 BDE8F840 	 pop {r3,r4,r5,r6,r7,lr}
 119 005a 0431     	 adds r1,r1,#4
 120 005c FFF7FEBF 	 b vListInsert
 121              	.L20:
 122 0060 0A4B     	 ldr r3,.L26+20
 123 0062 1868     	 ldr r0,[r3]
 124 0064 1168     	 ldr r1,[r2]
 125 0066 0431     	 adds r1,r1,#4
 126 0068 FFF7FEFF 	 bl vListInsert
 127 006c 084B     	 ldr r3,.L26+24
 128 006e 1A68     	 ldr r2,[r3]
 129 0070 9442     	 cmp r4,r2
 130 0072 38BF     	 it cc
 131 0074 1C60     	 strcc r4,[r3]
 132 0076 F8BD     	 pop {r3,r4,r5,r6,r7,pc}
 133              	.L27:
 134              	 .align 2
 135              	.L26:
 136 0078 00000000 	 .word .LANCHOR0
 137 007c 00000000 	 .word .LANCHOR1
 138 0080 00000000 	 .word .LANCHOR2
 139 0084 00000000 	 .word .LANCHOR3
 140 0088 00000000 	 .word .LANCHOR4
 141 008c 00000000 	 .word .LANCHOR5
 142 0090 00000000 	 .word .LANCHOR6
 144              	 .section .text.unlikely.prvResetNextTaskUnblockTime,"ax",%progbits
 145              	 .align 2
 146              	 .thumb
 147              	 .thumb_func
 149              	prvResetNextTaskUnblockTime:
 150              	 
 151              	 
 152              	 
 153 0000 074B     	 ldr r3,.L33
 154 0002 084A     	 ldr r2,.L33+4
 155 0004 1968     	 ldr r1,[r3]
 156 0006 0968     	 ldr r1,[r1]
 157 0008 19B9     	 cbnz r1,.L32
 158 000a 4FF0FF33 	 mov r3,#-1
 159 000e 1360     	 str r3,[r2]
 160 0010 7047     	 bx lr
 161              	.L32:
 162 0012 1B68     	 ldr r3,[r3]
 163 0014 DB68     	 ldr r3,[r3,#12]
 164 0016 DB68     	 ldr r3,[r3,#12]
 165 0018 5B68     	 ldr r3,[r3,#4]
 166 001a 1360     	 str r3,[r2]
 167 001c 7047     	 bx lr
 168              	.L34:
 169 001e 00BF     	 .align 2
 170              	.L33:
 171 0020 00000000 	 .word .LANCHOR5
 172 0024 00000000 	 .word .LANCHOR6
 174              	 .section .text.xTaskCreate,"ax",%progbits
 175              	 .align 2
 176              	 .global xTaskCreate
 177              	 .thumb
 178              	 .thumb_func
 180              	xTaskCreate:
 181              	 
 182              	 
 183 0000 2DE9F84F 	 push {r3,r4,r5,r6,r7,r8,r9,r10,fp,lr}
 184 0004 9600     	 lsls r6,r2,#2
 185 0006 8246     	 mov r10,r0
 186 0008 3046     	 mov r0,r6
 187 000a 0D46     	 mov r5,r1
 188 000c 9946     	 mov r9,r3
 189 000e DDF82C80 	 ldr r8,[sp,#44]
 190 0012 FFF7FEFF 	 bl pvPortMalloc
 191 0016 0746     	 mov r7,r0
 192 0018 0028     	 cmp r0,#0
 193 001a 00F0DD80 	 beq .L36
 194 001e 7020     	 movs r0,#112
 195 0020 FFF7FEFF 	 bl pvPortMalloc
 196 0024 0446     	 mov r4,r0
 197 0026 0028     	 cmp r0,#0
 198 0028 00F0D380 	 beq .L37
 199 002c 0763     	 str r7,[r0,#48]
 200 002e 3246     	 mov r2,r6
 201 0030 3846     	 mov r0,r7
 202 0032 A521     	 movs r1,#165
 203 0034 FFF7FEFF 	 bl memset
 204 0038 2B78     	 ldrb r3,[r5]
 205 003a 276B     	 ldr r7,[r4,#48]
 206 003c 84F83430 	 strb r3,[r4,#52]
 207 0040 043E     	 subs r6,r6,#4
 208 0042 2B78     	 ldrb r3,[r5]
 209 0044 3744     	 add r7,r7,r6
 210 0046 27F00707 	 bic r7,r7,#7
 211 004a 002B     	 cmp r3,#0
 212 004c 47D0     	 beq .L38
 213 004e 6B78     	 ldrb r3,[r5,#1]
 214 0050 84F83530 	 strb r3,[r4,#53]
 215 0054 6B78     	 ldrb r3,[r5,#1]
 216 0056 002B     	 cmp r3,#0
 217 0058 41D0     	 beq .L38
 218 005a AB78     	 ldrb r3,[r5,#2]
 219 005c 84F83630 	 strb r3,[r4,#54]
 220 0060 AB78     	 ldrb r3,[r5,#2]
 221 0062 002B     	 cmp r3,#0
 222 0064 3BD0     	 beq .L38
 223 0066 EB78     	 ldrb r3,[r5,#3]
 224 0068 84F83730 	 strb r3,[r4,#55]
 225 006c EB78     	 ldrb r3,[r5,#3]
 226 006e 002B     	 cmp r3,#0
 227 0070 35D0     	 beq .L38
 228 0072 2B79     	 ldrb r3,[r5,#4]
 229 0074 84F83830 	 strb r3,[r4,#56]
 230 0078 2B79     	 ldrb r3,[r5,#4]
 231 007a 002B     	 cmp r3,#0
 232 007c 2FD0     	 beq .L38
 233 007e 6B79     	 ldrb r3,[r5,#5]
 234 0080 84F83930 	 strb r3,[r4,#57]
 235 0084 6B79     	 ldrb r3,[r5,#5]
 236 0086 53B3     	 cbz r3,.L38
 237 0088 AB79     	 ldrb r3,[r5,#6]
 238 008a 84F83A30 	 strb r3,[r4,#58]
 239 008e AB79     	 ldrb r3,[r5,#6]
 240 0090 2BB3     	 cbz r3,.L38
 241 0092 EB79     	 ldrb r3,[r5,#7]
 242 0094 84F83B30 	 strb r3,[r4,#59]
 243 0098 EB79     	 ldrb r3,[r5,#7]
 244 009a 03B3     	 cbz r3,.L38
 245 009c 2B7A     	 ldrb r3,[r5,#8]
 246 009e 84F83C30 	 strb r3,[r4,#60]
 247 00a2 2B7A     	 ldrb r3,[r5,#8]
 248 00a4 DBB1     	 cbz r3,.L38
 249 00a6 6B7A     	 ldrb r3,[r5,#9]
 250 00a8 84F83D30 	 strb r3,[r4,#61]
 251 00ac 6B7A     	 ldrb r3,[r5,#9]
 252 00ae B3B1     	 cbz r3,.L38
 253 00b0 AB7A     	 ldrb r3,[r5,#10]
 254 00b2 84F83E30 	 strb r3,[r4,#62]
 255 00b6 AB7A     	 ldrb r3,[r5,#10]
 256 00b8 8BB1     	 cbz r3,.L38
 257 00ba EB7A     	 ldrb r3,[r5,#11]
 258 00bc 84F83F30 	 strb r3,[r4,#63]
 259 00c0 EB7A     	 ldrb r3,[r5,#11]
 260 00c2 63B1     	 cbz r3,.L38
 261 00c4 2B7B     	 ldrb r3,[r5,#12]
 262 00c6 84F84030 	 strb r3,[r4,#64]
 263 00ca 2B7B     	 ldrb r3,[r5,#12]
 264 00cc 3BB1     	 cbz r3,.L38
 265 00ce 6B7B     	 ldrb r3,[r5,#13]
 266 00d0 84F84130 	 strb r3,[r4,#65]
 267 00d4 6B7B     	 ldrb r3,[r5,#13]
 268 00d6 13B1     	 cbz r3,.L38
 269 00d8 AB7B     	 ldrb r3,[r5,#14]
 270 00da 84F84230 	 strb r3,[r4,#66]
 271              	.L38:
 272 00de 0A9E     	 ldr r6,[sp,#40]
 273 00e0 042E     	 cmp r6,#4
 274 00e2 4FF00005 	 mov r5,#0
 275 00e6 28BF     	 it cs
 276 00e8 0426     	 movcs r6,#4
 277 00ea 04F1040B 	 add fp,r4,#4
 278 00ee E662     	 str r6,[r4,#44]
 279 00f0 E664     	 str r6,[r4,#76]
 280 00f2 5846     	 mov r0,fp
 281 00f4 84F84350 	 strb r5,[r4,#67]
 282 00f8 2565     	 str r5,[r4,#80]
 283 00fa FFF7FEFF 	 bl vListInitialiseItem
 284 00fe C6F10506 	 rsb r6,r6,#5
 285 0102 04F11800 	 add r0,r4,#24
 286 0106 FFF7FEFF 	 bl vListInitialiseItem
 287 010a A566     	 str r5,[r4,#104]
 288 010c A661     	 str r6,[r4,#24]
 289 010e 6565     	 str r5,[r4,#84]
 290 0110 A565     	 str r5,[r4,#88]
 291 0112 E565     	 str r5,[r4,#92]
 292 0114 2566     	 str r5,[r4,#96]
 293 0116 6566     	 str r5,[r4,#100]
 294 0118 84F86C50 	 strb r5,[r4,#108]
 295 011c 84F86D50 	 strb r5,[r4,#109]
 296 0120 2461     	 str r4,[r4,#16]
 297 0122 6462     	 str r4,[r4,#36]
 298 0124 3846     	 mov r0,r7
 299 0126 5146     	 mov r1,r10
 300 0128 4A46     	 mov r2,r9
 301 012a FFF7FEFF 	 bl pxPortInitialiseStack
 302 012e 2060     	 str r0,[r4]
 303 0130 B8F1000F 	 cmp r8,#0
 304 0134 01D0     	 beq .L39
 305 0136 C8F80040 	 str r4,[r8]
 306              	.L39:
 307 013a FFF7FEFF 	 bl vPortEnterCritical
 308 013e 3F4A     	 ldr r2,.L102
 309 0140 3F4F     	 ldr r7,.L102+4
 310 0142 1368     	 ldr r3,[r2]
 311 0144 0133     	 adds r3,r3,#1
 312 0146 1360     	 str r3,[r2]
 313 0148 3B68     	 ldr r3,[r7]
 314 014a 002B     	 cmp r3,#0
 315 014c 48D0     	 beq .L101
 316 014e DFF81481 	 ldr r8,.L102+40
 317 0152 D8F80030 	 ldr r3,[r8]
 318 0156 83B3     	 cbz r3,.L44
 319 0158 E36A     	 ldr r3,[r4,#44]
 320 015a DFF80C91 	 ldr r9,.L102+44
 321              	.L42:
 322 015e DFF80CC1 	 ldr ip,.L102+48
 323 0162 DFF80CE1 	 ldr lr,.L102+52
 324 0166 DCF80020 	 ldr r2,[ip]
 325 016a DEF80000 	 ldr r0,[lr]
 326 016e 0125     	 movs r5,#1
 327 0170 2A44     	 add r2,r2,r5
 328 0172 05FA03F6 	 lsl r6,r5,r3
 329 0176 03EB8303 	 add r3,r3,r3,lsl#2
 330 017a 5946     	 mov r1,fp
 331 017c 6264     	 str r2,[r4,#68]
 332 017e 0643     	 orrs r6,r6,r0
 333 0180 09EB8300 	 add r0,r9,r3,lsl#2
 334 0184 CCF80020 	 str r2,[ip]
 335 0188 CEF80060 	 str r6,[lr]
 336 018c FFF7FEFF 	 bl vListInsertEnd
 337 0190 FFF7FEFF 	 bl vPortExitCritical
 338 0194 D8F80030 	 ldr r3,[r8]
 339 0198 C3B1     	 cbz r3,.L47
 340 019a 3A68     	 ldr r2,[r7]
 341 019c E36A     	 ldr r3,[r4,#44]
 342 019e D26A     	 ldr r2,[r2,#44]
 343 01a0 9A42     	 cmp r2,r3
 344 01a2 13D2     	 bcs .L47
 345 01a4 274B     	 ldr r3,.L102+8
 346 01a6 4FF08052 	 mov r2,#268435456
 347 01aa 1A60     	 str r2,[r3]
 348              	
 349 01ac BFF34F8F 	 dsb
 350              	
 351              	
 352 01b0 BFF36F8F 	 isb
 353              	
 354              	 .thumb
 355 01b4 2846     	 mov r0,r5
 356 01b6 BDE8F88F 	 pop {r3,r4,r5,r6,r7,r8,r9,r10,fp,pc}
 357              	.L44:
 358 01ba 3A68     	 ldr r2,[r7]
 359 01bc E36A     	 ldr r3,[r4,#44]
 360 01be D26A     	 ldr r2,[r2,#44]
 361 01c0 DFF8A490 	 ldr r9,.L102+44
 362 01c4 9A42     	 cmp r2,r3
 363 01c6 98BF     	 it ls
 364 01c8 3C60     	 strls r4,[r7]
 365 01ca C8E7     	 b .L42
 366              	.L47:
 367 01cc 2846     	 mov r0,r5
 368 01ce BDE8F88F 	 pop {r3,r4,r5,r6,r7,r8,r9,r10,fp,pc}
 369              	.L37:
 370 01d2 3846     	 mov r0,r7
 371 01d4 FFF7FEFF 	 bl vPortFree
 372              	.L36:
 373 01d8 4FF0FF30 	 mov r0,#-1
 374 01dc BDE8F88F 	 pop {r3,r4,r5,r6,r7,r8,r9,r10,fp,pc}
 375              	.L101:
 376 01e0 3C60     	 str r4,[r7]
 377 01e2 1368     	 ldr r3,[r2]
 378 01e4 012B     	 cmp r3,#1
 379 01e6 05D0     	 beq .L41
 380 01e8 E36A     	 ldr r3,[r4,#44]
 381 01ea DFF87C90 	 ldr r9,.L102+44
 382 01ee DFF87480 	 ldr r8,.L102+40
 383 01f2 B4E7     	 b .L42
 384              	.L41:
 385 01f4 DFF87090 	 ldr r9,.L102+44
 386 01f8 4D46     	 mov r5,r9
 387 01fa 09F16406 	 add r6,r9,#100
 388              	.L43:
 389 01fe 2846     	 mov r0,r5
 390 0200 1435     	 adds r5,r5,#20
 391 0202 FFF7FEFF 	 bl vListInitialise
 392 0206 B542     	 cmp r5,r6
 393 0208 F9D1     	 bne .L43
 394 020a 0F4E     	 ldr r6,.L102+12
 395 020c 0F4D     	 ldr r5,.L102+16
 396 020e DFF85480 	 ldr r8,.L102+40
 397 0212 3046     	 mov r0,r6
 398 0214 FFF7FEFF 	 bl vListInitialise
 399 0218 2846     	 mov r0,r5
 400 021a FFF7FEFF 	 bl vListInitialise
 401 021e 0C48     	 ldr r0,.L102+20
 402 0220 FFF7FEFF 	 bl vListInitialise
 403 0224 0B48     	 ldr r0,.L102+24
 404 0226 FFF7FEFF 	 bl vListInitialise
 405 022a 0B48     	 ldr r0,.L102+28
 406 022c FFF7FEFF 	 bl vListInitialise
 407 0230 0A4B     	 ldr r3,.L102+32
 408 0232 0B4A     	 ldr r2,.L102+36
 409 0234 1E60     	 str r6,[r3]
 410 0236 E36A     	 ldr r3,[r4,#44]
 411 0238 1560     	 str r5,[r2]
 412 023a 90E7     	 b .L42
 413              	.L103:
 414              	 .align 2
 415              	.L102:
 416 023c 00000000 	 .word .LANCHOR7
 417 0240 00000000 	 .word .LANCHOR1
 418 0244 04ED00E0 	 .word -536810236
 419 0248 00000000 	 .word .LANCHOR9
 420 024c 00000000 	 .word .LANCHOR10
 421 0250 00000000 	 .word .LANCHOR11
 422 0254 00000000 	 .word .LANCHOR12
 423 0258 00000000 	 .word .LANCHOR3
 424 025c 00000000 	 .word .LANCHOR5
 425 0260 00000000 	 .word .LANCHOR4
 426 0264 00000000 	 .word .LANCHOR13
 427 0268 00000000 	 .word .LANCHOR8
 428 026c 00000000 	 .word .LANCHOR14
 429 0270 00000000 	 .word .LANCHOR2
 431              	 .section .text.vTaskDelete,"ax",%progbits
 432              	 .align 2
 433              	 .global vTaskDelete
 434              	 .thumb
 435              	 .thumb_func
 437              	vTaskDelete:
 438              	 
 439              	 
 440 0000 70B5     	 push {r4,r5,r6,lr}
 441 0002 0446     	 mov r4,r0
 442 0004 344D     	 ldr r5,.L130
 443 0006 FFF7FEFF 	 bl vPortEnterCritical
 444 000a 002C     	 cmp r4,#0
 445 000c 44D0     	 beq .L126
 446              	.L105:
 447 000e 261D     	 adds r6,r4,#4
 448 0010 3046     	 mov r0,r6
 449 0012 FFF7FEFF 	 bl uxListRemove
 450 0016 38B9     	 cbnz r0,.L106
 451 0018 E16A     	 ldr r1,[r4,#44]
 452 001a 304B     	 ldr r3,.L130+4
 453 001c 01EB8102 	 add r2,r1,r1,lsl#2
 454 0020 53F82230 	 ldr r3,[r3,r2,lsl#2]
 455 0024 002B     	 cmp r3,#0
 456 0026 2FD0     	 beq .L127
 457              	.L106:
 458 0028 A36A     	 ldr r3,[r4,#40]
 459 002a 1BB1     	 cbz r3,.L107
 460 002c 04F11800 	 add r0,r4,#24
 461 0030 FFF7FEFF 	 bl uxListRemove
 462              	.L107:
 463 0034 2A4A     	 ldr r2,.L130+8
 464 0036 2968     	 ldr r1,[r5]
 465 0038 1368     	 ldr r3,[r2]
 466 003a 8C42     	 cmp r4,r1
 467 003c 03F10103 	 add r3,r3,#1
 468 0040 1360     	 str r3,[r2]
 469 0042 2BD0     	 beq .L128
 470 0044 274A     	 ldr r2,.L130+12
 471 0046 206B     	 ldr r0,[r4,#48]
 472 0048 1368     	 ldr r3,[r2]
 473 004a 013B     	 subs r3,r3,#1
 474 004c 1360     	 str r3,[r2]
 475 004e FFF7FEFF 	 bl vPortFree
 476 0052 2046     	 mov r0,r4
 477 0054 FFF7FEFF 	 bl vPortFree
 478 0058 234B     	 ldr r3,.L130+16
 479 005a 1A68     	 ldr r2,[r3]
 480 005c 1268     	 ldr r2,[r2]
 481 005e 72B1     	 cbz r2,.L110
 482 0060 1A68     	 ldr r2,[r3]
 483 0062 224B     	 ldr r3,.L130+20
 484 0064 D268     	 ldr r2,[r2,#12]
 485 0066 D268     	 ldr r2,[r2,#12]
 486 0068 5268     	 ldr r2,[r2,#4]
 487 006a 1A60     	 str r2,[r3]
 488              	.L109:
 489 006c FFF7FEFF 	 bl vPortExitCritical
 490 0070 1F4B     	 ldr r3,.L130+24
 491 0072 1B68     	 ldr r3,[r3]
 492 0074 13B1     	 cbz r3,.L104
 493 0076 2B68     	 ldr r3,[r5]
 494 0078 9C42     	 cmp r4,r3
 495 007a 18D0     	 beq .L129
 496              	.L104:
 497 007c 70BD     	 pop {r4,r5,r6,pc}
 498              	.L110:
 499 007e 1B4B     	 ldr r3,.L130+20
 500 0080 4FF0FF32 	 mov r2,#-1
 501 0084 1A60     	 str r2,[r3]
 502 0086 F1E7     	 b .L109
 503              	.L127:
 504 0088 1A48     	 ldr r0,.L130+28
 505 008a 0122     	 movs r2,#1
 506 008c 0368     	 ldr r3,[r0]
 507 008e 8A40     	 lsls r2,r2,r1
 508 0090 23EA0203 	 bic r3,r3,r2
 509 0094 0360     	 str r3,[r0]
 510 0096 C7E7     	 b .L106
 511              	.L126:
 512 0098 2C68     	 ldr r4,[r5]
 513 009a B8E7     	 b .L105
 514              	.L128:
 515 009c 3146     	 mov r1,r6
 516 009e 1648     	 ldr r0,.L130+32
 517 00a0 FFF7FEFF 	 bl vListInsertEnd
 518 00a4 154A     	 ldr r2,.L130+36
 519 00a6 1368     	 ldr r3,[r2]
 520 00a8 0133     	 adds r3,r3,#1
 521 00aa 1360     	 str r3,[r2]
 522 00ac DEE7     	 b .L109
 523              	.L129:
 524 00ae 144B     	 ldr r3,.L130+40
 525 00b0 1B68     	 ldr r3,[r3]
 526 00b2 43B1     	 cbz r3,.L113
 527              	
 528 00b4 4FF0FC03 	 mov r3,#252
 529 00b8 83F31188 	 msr basepri,r3
 530 00bc BFF36F8F 	 isb 
 531 00c0 BFF34F8F 	 dsb 
 532              	
 533              	
 534              	 .thumb
 535              	.L114:
 536 00c4 FEE7     	 b .L114
 537              	.L113:
 538 00c6 0F4B     	 ldr r3,.L130+44
 539 00c8 4FF08052 	 mov r2,#268435456
 540 00cc 1A60     	 str r2,[r3]
 541              	
 542 00ce BFF34F8F 	 dsb
 543              	
 544              	
 545 00d2 BFF36F8F 	 isb
 546              	
 547              	 .thumb
 548 00d6 70BD     	 pop {r4,r5,r6,pc}
 549              	.L131:
 550              	 .align 2
 551              	.L130:
 552 00d8 00000000 	 .word .LANCHOR1
 553 00dc 00000000 	 .word .LANCHOR8
 554 00e0 00000000 	 .word .LANCHOR14
 555 00e4 00000000 	 .word .LANCHOR7
 556 00e8 00000000 	 .word .LANCHOR5
 557 00ec 00000000 	 .word .LANCHOR6
 558 00f0 00000000 	 .word .LANCHOR13
 559 00f4 00000000 	 .word .LANCHOR2
 560 00f8 00000000 	 .word .LANCHOR12
 561 00fc 00000000 	 .word .LANCHOR15
 562 0100 00000000 	 .word .LANCHOR16
 563 0104 04ED00E0 	 .word -536810236
 565              	 .section .text.eTaskGetState,"ax",%progbits
 566              	 .align 2
 567              	 .global eTaskGetState
 568              	 .thumb
 569              	 .thumb_func
 571              	eTaskGetState:
 572              	 
 573              	 
 574 0000 38B5     	 push {r3,r4,r5,lr}
 575 0002 10B3     	 cbz r0,.L144
 576 0004 184B     	 ldr r3,.L146
 577 0006 1B68     	 ldr r3,[r3]
 578 0008 9842     	 cmp r0,r3
 579 000a 1CD0     	 beq .L137
 580 000c 0446     	 mov r4,r0
 581 000e FFF7FEFF 	 bl vPortEnterCritical
 582 0012 6569     	 ldr r5,[r4,#20]
 583 0014 FFF7FEFF 	 bl vPortExitCritical
 584 0018 144B     	 ldr r3,.L146+4
 585 001a 1B68     	 ldr r3,[r3]
 586 001c 9D42     	 cmp r5,r3
 587 001e 0ED0     	 beq .L139
 588 0020 134B     	 ldr r3,.L146+8
 589 0022 1B68     	 ldr r3,[r3]
 590 0024 9D42     	 cmp r5,r3
 591 0026 0AD0     	 beq .L139
 592 0028 124B     	 ldr r3,.L146+12
 593 002a 9D42     	 cmp r5,r3
 594 002c 16D0     	 beq .L145
 595 002e 124B     	 ldr r3,.L146+16
 596 0030 9D42     	 cmp r5,r3
 597 0032 06D0     	 beq .L141
 598 0034 002D     	 cmp r5,#0
 599 0036 0CBF     	 ite eq
 600 0038 0420     	 moveq r0,#4
 601 003a 0120     	 movne r0,#1
 602 003c 38BD     	 pop {r3,r4,r5,pc}
 603              	.L139:
 604 003e 0220     	 movs r0,#2
 605 0040 38BD     	 pop {r3,r4,r5,pc}
 606              	.L141:
 607 0042 0420     	 movs r0,#4
 608 0044 38BD     	 pop {r3,r4,r5,pc}
 609              	.L137:
 610 0046 0020     	 movs r0,#0
 611 0048 38BD     	 pop {r3,r4,r5,pc}
 612              	.L144:
 613              	
 614 004a 4FF0FC03 	 mov r3,#252
 615 004e 83F31188 	 msr basepri,r3
 616 0052 BFF36F8F 	 isb 
 617 0056 BFF34F8F 	 dsb 
 618              	
 619              	
 620              	 .thumb
 621              	.L134:
 622 005a FEE7     	 b .L134
 623              	.L145:
 624 005c A36A     	 ldr r3,[r4,#40]
 625 005e 002B     	 cmp r3,#0
 626 0060 0CBF     	 ite eq
 627 0062 0320     	 moveq r0,#3
 628 0064 0220     	 movne r0,#2
 629 0066 38BD     	 pop {r3,r4,r5,pc}
 630              	.L147:
 631              	 .align 2
 632              	.L146:
 633 0068 00000000 	 .word .LANCHOR1
 634 006c 00000000 	 .word .LANCHOR5
 635 0070 00000000 	 .word .LANCHOR4
 636 0074 00000000 	 .word .LANCHOR3
 637 0078 00000000 	 .word .LANCHOR12
 639              	 .section .text.uxTaskPriorityGet,"ax",%progbits
 640              	 .align 2
 641              	 .global uxTaskPriorityGet
 642              	 .thumb
 643              	 .thumb_func
 645              	uxTaskPriorityGet:
 646              	 
 647              	 
 648 0000 10B5     	 push {r4,lr}
 649 0002 0446     	 mov r4,r0
 650 0004 FFF7FEFF 	 bl vPortEnterCritical
 651 0008 24B1     	 cbz r4,.L151
 652 000a E46A     	 ldr r4,[r4,#44]
 653 000c FFF7FEFF 	 bl vPortExitCritical
 654 0010 2046     	 mov r0,r4
 655 0012 10BD     	 pop {r4,pc}
 656              	.L151:
 657 0014 034B     	 ldr r3,.L152
 658 0016 1C68     	 ldr r4,[r3]
 659 0018 E46A     	 ldr r4,[r4,#44]
 660 001a FFF7FEFF 	 bl vPortExitCritical
 661 001e 2046     	 mov r0,r4
 662 0020 10BD     	 pop {r4,pc}
 663              	.L153:
 664 0022 00BF     	 .align 2
 665              	.L152:
 666 0024 00000000 	 .word .LANCHOR1
 668              	 .section .text.uxTaskPriorityGetFromISR,"ax",%progbits
 669              	 .align 2
 670              	 .global uxTaskPriorityGetFromISR
 671              	 .thumb
 672              	 .thumb_func
 674              	uxTaskPriorityGetFromISR:
 675              	 
 676              	 
 677 0000 10B5     	 push {r4,lr}
 678 0002 0446     	 mov r4,r0
 679 0004 FFF7FEFF 	 bl vPortValidateInterruptPriority
 680              	
 681 0008 EFF31183 	 mrs r3,basepri
 682 000c 4FF0FC02 	 mov r2,#252
 683 0010 82F31188 	 msr basepri,r2
 684 0014 BFF36F8F 	 isb 
 685 0018 BFF34F8F 	 dsb 
 686              	
 687              	
 688              	 .thumb
 689 001c 1CB1     	 cbz r4,.L157
 690              	
 691 001e 83F31188 	 msr basepri,r3
 692              	
 693              	 .thumb
 694 0022 E06A     	 ldr r0,[r4,#44]
 695 0024 10BD     	 pop {r4,pc}
 696              	.L157:
 697 0026 034A     	 ldr r2,.L158
 698 0028 1468     	 ldr r4,[r2]
 699              	
 700 002a 83F31188 	 msr basepri,r3
 701              	
 702              	 .thumb
 703 002e E06A     	 ldr r0,[r4,#44]
 704 0030 10BD     	 pop {r4,pc}
 705              	.L159:
 706 0032 00BF     	 .align 2
 707              	.L158:
 708 0034 00000000 	 .word .LANCHOR1
 710              	 .section .text.vTaskPrioritySet,"ax",%progbits
 711              	 .align 2
 712              	 .global vTaskPrioritySet
 713              	 .thumb
 714              	 .thumb_func
 716              	vTaskPrioritySet:
 717              	 
 718              	 
 719 0000 0429     	 cmp r1,#4
 720 0002 2DE9F041 	 push {r4,r5,r6,r7,r8,lr}
 721 0006 0D46     	 mov r5,r1
 722 0008 08D9     	 bls .L161
 723              	
 724 000a 4FF0FC03 	 mov r3,#252
 725 000e 83F31188 	 msr basepri,r3
 726 0012 BFF36F8F 	 isb 
 727 0016 BFF34F8F 	 dsb 
 728              	
 729              	
 730              	 .thumb
 731              	.L162:
 732 001a FEE7     	 b .L162
 733              	.L161:
 734 001c 0446     	 mov r4,r0
 735 001e FFF7FEFF 	 bl vPortEnterCritical
 736 0022 002C     	 cmp r4,#0
 737 0024 4DD0     	 beq .L181
 738              	.L163:
 739 0026 E36C     	 ldr r3,[r4,#76]
 740 0028 9D42     	 cmp r5,r3
 741 002a 46D0     	 beq .L165
 742 002c 274A     	 ldr r2,.L182
 743 002e 09D9     	 bls .L166
 744 0030 1168     	 ldr r1,[r2]
 745 0032 8C42     	 cmp r4,r1
 746 0034 48D0     	 beq .L175
 747 0036 1268     	 ldr r2,[r2]
 748 0038 D66A     	 ldr r6,[r2,#44]
 749 003a B542     	 cmp r5,r6
 750 003c 34BF     	 ite cc
 751 003e 0026     	 movcc r6,#0
 752 0040 0126     	 movcs r6,#1
 753 0042 04E0     	 b .L167
 754              	.L166:
 755 0044 1668     	 ldr r6,[r2]
 756 0046 A61B     	 subs r6,r4,r6
 757 0048 B6FA86F6 	 clz r6,r6
 758 004c 7609     	 lsrs r6,r6,#5
 759              	.L167:
 760 004e E76A     	 ldr r7,[r4,#44]
 761 0050 E564     	 str r5,[r4,#76]
 762 0052 BB42     	 cmp r3,r7
 763 0054 A369     	 ldr r3,[r4,#24]
 764 0056 08BF     	 it eq
 765 0058 E562     	 streq r5,[r4,#44]
 766 005a 002B     	 cmp r3,#0
 767 005c A4BF     	 itt ge
 768 005e C5F10505 	 rsbge r5,r5,#5
 769 0062 A561     	 strge r5,[r4,#24]
 770 0064 1A4D     	 ldr r5,.L182+4
 771 0066 6269     	 ldr r2,[r4,#20]
 772 0068 07EB8703 	 add r3,r7,r7,lsl#2
 773 006c 05EB8303 	 add r3,r5,r3,lsl#2
 774 0070 9A42     	 cmp r2,r3
 775 0072 19D1     	 bne .L171
 776 0074 04F10408 	 add r8,r4,#4
 777 0078 4046     	 mov r0,r8
 778 007a FFF7FEFF 	 bl uxListRemove
 779 007e 154B     	 ldr r3,.L182+8
 780 0080 28B9     	 cbnz r0,.L174
 781 0082 1A68     	 ldr r2,[r3]
 782 0084 0121     	 movs r1,#1
 783 0086 B940     	 lsls r1,r1,r7
 784 0088 22EA0102 	 bic r2,r2,r1
 785 008c 1A60     	 str r2,[r3]
 786              	.L174:
 787 008e E06A     	 ldr r0,[r4,#44]
 788 0090 1A68     	 ldr r2,[r3]
 789 0092 0124     	 movs r4,#1
 790 0094 8440     	 lsls r4,r4,r0
 791 0096 00EB8000 	 add r0,r0,r0,lsl#2
 792 009a 2243     	 orrs r2,r2,r4
 793 009c 4146     	 mov r1,r8
 794 009e 05EB8000 	 add r0,r5,r0,lsl#2
 795 00a2 1A60     	 str r2,[r3]
 796 00a4 FFF7FEFF 	 bl vListInsertEnd
 797              	.L171:
 798 00a8 3EB1     	 cbz r6,.L165
 799 00aa 0B4B     	 ldr r3,.L182+12
 800 00ac 4FF08052 	 mov r2,#268435456
 801 00b0 1A60     	 str r2,[r3]
 802              	
 803 00b2 BFF34F8F 	 dsb
 804              	
 805              	
 806 00b6 BFF36F8F 	 isb
 807              	
 808              	 .thumb
 809              	.L165:
 810 00ba BDE8F041 	 pop {r4,r5,r6,r7,r8,lr}
 811 00be FFF7FEBF 	 b vPortExitCritical
 812              	.L181:
 813 00c2 024B     	 ldr r3,.L182
 814 00c4 1C68     	 ldr r4,[r3]
 815 00c6 AEE7     	 b .L163
 816              	.L175:
 817 00c8 0026     	 movs r6,#0
 818 00ca C0E7     	 b .L167
 819              	.L183:
 820              	 .align 2
 821              	.L182:
 822 00cc 00000000 	 .word .LANCHOR1
 823 00d0 00000000 	 .word .LANCHOR8
 824 00d4 00000000 	 .word .LANCHOR2
 825 00d8 04ED00E0 	 .word -536810236
 827              	 .section .text.vTaskSuspend,"ax",%progbits
 828              	 .align 2
 829              	 .global vTaskSuspend
 830              	 .thumb
 831              	 .thumb_func
 833              	vTaskSuspend:
 834              	 
 835              	 
 836 0000 F8B5     	 push {r3,r4,r5,r6,r7,lr}
 837 0002 0546     	 mov r5,r0
 838 0004 494C     	 ldr r4,.L219
 839 0006 FFF7FEFF 	 bl vPortEnterCritical
 840 000a 002D     	 cmp r5,#0
 841 000c 70D0     	 beq .L212
 842              	.L185:
 843 000e 2E1D     	 adds r6,r5,#4
 844 0010 3046     	 mov r0,r6
 845 0012 FFF7FEFF 	 bl uxListRemove
 846 0016 30B9     	 cbnz r0,.L186
 847 0018 E96A     	 ldr r1,[r5,#44]
 848 001a 454B     	 ldr r3,.L219+4
 849 001c 01EB8102 	 add r2,r1,r1,lsl#2
 850 0020 53F82230 	 ldr r3,[r3,r2,lsl#2]
 851 0024 9BB1     	 cbz r3,.L213
 852              	.L186:
 853 0026 AB6A     	 ldr r3,[r5,#40]
 854 0028 1BB1     	 cbz r3,.L187
 855 002a 05F11800 	 add r0,r5,#24
 856 002e FFF7FEFF 	 bl uxListRemove
 857              	.L187:
 858 0032 404F     	 ldr r7,.L219+8
 859 0034 4048     	 ldr r0,.L219+12
 860 0036 3146     	 mov r1,r6
 861 0038 FFF7FEFF 	 bl vListInsertEnd
 862 003c FFF7FEFF 	 bl vPortExitCritical
 863 0040 3B68     	 ldr r3,[r7]
 864 0042 63B9     	 cbnz r3,.L214
 865 0044 2368     	 ldr r3,[r4]
 866 0046 394A     	 ldr r2,.L219
 867 0048 9D42     	 cmp r5,r3
 868 004a 1BD0     	 beq .L215
 869              	.L184:
 870 004c F8BD     	 pop {r3,r4,r5,r6,r7,pc}
 871              	.L213:
 872 004e 3B48     	 ldr r0,.L219+16
 873 0050 0122     	 movs r2,#1
 874 0052 0368     	 ldr r3,[r0]
 875 0054 8A40     	 lsls r2,r2,r1
 876 0056 23EA0203 	 bic r3,r3,r2
 877 005a 0360     	 str r3,[r0]
 878 005c E3E7     	 b .L186
 879              	.L214:
 880 005e FFF7FEFF 	 bl vPortEnterCritical
 881 0062 374B     	 ldr r3,.L219+20
 882 0064 1A68     	 ldr r2,[r3]
 883 0066 1268     	 ldr r2,[r2]
 884 0068 002A     	 cmp r2,#0
 885 006a 3CD0     	 beq .L189
 886 006c 1A68     	 ldr r2,[r3]
 887 006e 354B     	 ldr r3,.L219+24
 888 0070 D268     	 ldr r2,[r2,#12]
 889 0072 D268     	 ldr r2,[r2,#12]
 890 0074 5268     	 ldr r2,[r2,#4]
 891 0076 1A60     	 str r2,[r3]
 892              	.L200:
 893 0078 FFF7FEFF 	 bl vPortExitCritical
 894 007c 2368     	 ldr r3,[r4]
 895 007e 2B4A     	 ldr r2,.L219
 896 0080 9D42     	 cmp r5,r3
 897 0082 E3D1     	 bne .L184
 898              	.L215:
 899 0084 3B68     	 ldr r3,[r7]
 900 0086 13BB     	 cbnz r3,.L216
 901 0088 2F49     	 ldr r1,.L219+28
 902 008a 2B48     	 ldr r0,.L219+12
 903 008c 0968     	 ldr r1,[r1]
 904 008e 0068     	 ldr r0,[r0]
 905 0090 8842     	 cmp r0,r1
 906 0092 2FD0     	 beq .L217
 907 0094 2D4B     	 ldr r3,.L219+32
 908 0096 1B68     	 ldr r3,[r3]
 909 0098 002B     	 cmp r3,#0
 910 009a 36D1     	 bne .L218
 911 009c 2C49     	 ldr r1,.L219+36
 912 009e 274A     	 ldr r2,.L219+16
 913 00a0 0B60     	 str r3,[r1]
 914 00a2 1368     	 ldr r3,[r2]
 915              	
 916 00a4 B3FA83F3 	 clz r3,r3
 917              	
 918              	 .thumb
 919 00a8 DBB2     	 uxtb r3,r3
 920 00aa C3F11F03 	 rsb r3,r3,#31
 921 00ae 03EB8303 	 add r3,r3,r3,lsl#2
 922 00b2 9B00     	 lsls r3,r3,#2
 923 00b4 1E48     	 ldr r0,.L219+4
 924 00b6 C258     	 ldr r2,[r0,r3]
 925 00b8 C118     	 adds r1,r0,r3
 926 00ba 52BB     	 cbnz r2,.L197
 927              	
 928 00bc 4FF0FC03 	 mov r3,#252
 929 00c0 83F31188 	 msr basepri,r3
 930 00c4 BFF36F8F 	 isb 
 931 00c8 BFF34F8F 	 dsb 
 932              	
 933              	
 934              	 .thumb
 935              	.L198:
 936 00cc FEE7     	 b .L198
 937              	.L216:
 938 00ce 1F4B     	 ldr r3,.L219+32
 939 00d0 1B68     	 ldr r3,[r3]
 940 00d2 8BB1     	 cbz r3,.L193
 941              	
 942 00d4 4FF0FC03 	 mov r3,#252
 943 00d8 83F31188 	 msr basepri,r3
 944 00dc BFF36F8F 	 isb 
 945 00e0 BFF34F8F 	 dsb 
 946              	
 947              	
 948              	 .thumb
 949              	.L194:
 950 00e4 FEE7     	 b .L194
 951              	.L189:
 952 00e6 174B     	 ldr r3,.L219+24
 953 00e8 4FF0FF32 	 mov r2,#-1
 954 00ec 1A60     	 str r2,[r3]
 955 00ee C3E7     	 b .L200
 956              	.L212:
 957 00f0 2568     	 ldr r5,[r4]
 958 00f2 8CE7     	 b .L185
 959              	.L217:
 960 00f4 1360     	 str r3,[r2]
 961 00f6 F8BD     	 pop {r3,r4,r5,r6,r7,pc}
 962              	.L193:
 963 00f8 164B     	 ldr r3,.L219+40
 964 00fa 4FF08052 	 mov r2,#268435456
 965 00fe 1A60     	 str r2,[r3]
 966              	
 967 0100 BFF34F8F 	 dsb
 968              	
 969              	
 970 0104 BFF36F8F 	 isb
 971              	
 972              	 .thumb
 973 0108 F8BD     	 pop {r3,r4,r5,r6,r7,pc}
 974              	.L218:
 975 010a 114B     	 ldr r3,.L219+36
 976 010c 0122     	 movs r2,#1
 977 010e 1A60     	 str r2,[r3]
 978 0110 F8BD     	 pop {r3,r4,r5,r6,r7,pc}
 979              	.L197:
 980 0112 4A68     	 ldr r2,[r1,#4]
 981 0114 0833     	 adds r3,r3,#8
 982 0116 5268     	 ldr r2,[r2,#4]
 983 0118 4A60     	 str r2,[r1,#4]
 984 011a 0344     	 add r3,r3,r0
 985 011c 9A42     	 cmp r2,r3
 986 011e 04BF     	 itt eq
 987 0120 5268     	 ldreq r2,[r2,#4]
 988 0122 4A60     	 streq r2,[r1,#4]
 989 0124 D368     	 ldr r3,[r2,#12]
 990 0126 2360     	 str r3,[r4]
 991 0128 F8BD     	 pop {r3,r4,r5,r6,r7,pc}
 992              	.L220:
 993 012a 00BF     	 .align 2
 994              	.L219:
 995 012c 00000000 	 .word .LANCHOR1
 996 0130 00000000 	 .word .LANCHOR8
 997 0134 00000000 	 .word .LANCHOR13
 998 0138 00000000 	 .word .LANCHOR3
 999 013c 00000000 	 .word .LANCHOR2
 1000 0140 00000000 	 .word .LANCHOR5
 1001 0144 00000000 	 .word .LANCHOR6
 1002 0148 00000000 	 .word .LANCHOR7
 1003 014c 00000000 	 .word .LANCHOR16
 1004 0150 00000000 	 .word .LANCHOR17
 1005 0154 04ED00E0 	 .word -536810236
 1007              	 .section .text.vTaskResume,"ax",%progbits
 1008              	 .align 2
 1009              	 .global vTaskResume
 1010              	 .thumb
 1011              	 .thumb_func
 1013              	vTaskResume:
 1014              	 
 1015              	 
 1016 0000 90B1     	 cbz r0,.L231
 1017 0002 2DE9F041 	 push {r4,r5,r6,r7,r8,lr}
 1018 0006 224E     	 ldr r6,.L233
 1019 0008 3368     	 ldr r3,[r6]
 1020 000a 9842     	 cmp r0,r3
 1021 000c 0AD0     	 beq .L221
 1022 000e 0446     	 mov r4,r0
 1023 0010 FFF7FEFF 	 bl vPortEnterCritical
 1024 0014 1F4B     	 ldr r3,.L233+4
 1025 0016 6269     	 ldr r2,[r4,#20]
 1026 0018 9A42     	 cmp r2,r3
 1027 001a 0ED0     	 beq .L232
 1028              	.L226:
 1029 001c BDE8F041 	 pop {r4,r5,r6,r7,r8,lr}
 1030 0020 FFF7FEBF 	 b vPortExitCritical
 1031              	.L221:
 1032 0024 BDE8F081 	 pop {r4,r5,r6,r7,r8,pc}
 1033              	.L231:
 1034              	
 1035 0028 4FF0FC03 	 mov r3,#252
 1036 002c 83F31188 	 msr basepri,r3
 1037 0030 BFF36F8F 	 isb 
 1038 0034 BFF34F8F 	 dsb 
 1039              	
 1040              	
 1041              	 .thumb
 1042              	.L223:
 1043 0038 FEE7     	 b .L223
 1044              	.L232:
 1045 003a A36A     	 ldr r3,[r4,#40]
 1046 003c 164A     	 ldr r2,.L233+8
 1047 003e 9342     	 cmp r3,r2
 1048 0040 ECD0     	 beq .L226
 1049 0042 002B     	 cmp r3,#0
 1050 0044 EAD1     	 bne .L226
 1051 0046 04F10408 	 add r8,r4,#4
 1052 004a 144F     	 ldr r7,.L233+12
 1053 004c 4046     	 mov r0,r8
 1054 004e FFF7FEFF 	 bl uxListRemove
 1055 0052 E36A     	 ldr r3,[r4,#44]
 1056 0054 3A68     	 ldr r2,[r7]
 1057 0056 1248     	 ldr r0,.L233+16
 1058 0058 0125     	 movs r5,#1
 1059 005a 9D40     	 lsls r5,r5,r3
 1060 005c 03EB8303 	 add r3,r3,r3,lsl#2
 1061 0060 2A43     	 orrs r2,r2,r5
 1062 0062 00EB8300 	 add r0,r0,r3,lsl#2
 1063 0066 4146     	 mov r1,r8
 1064 0068 3A60     	 str r2,[r7]
 1065 006a FFF7FEFF 	 bl vListInsertEnd
 1066 006e 3368     	 ldr r3,[r6]
 1067 0070 E26A     	 ldr r2,[r4,#44]
 1068 0072 DB6A     	 ldr r3,[r3,#44]
 1069 0074 9A42     	 cmp r2,r3
 1070 0076 D1D3     	 bcc .L226
 1071 0078 0A4B     	 ldr r3,.L233+20
 1072 007a 4FF08052 	 mov r2,#268435456
 1073 007e 1A60     	 str r2,[r3]
 1074              	
 1075 0080 BFF34F8F 	 dsb
 1076              	
 1077              	
 1078 0084 BFF36F8F 	 isb
 1079              	
 1080              	 .thumb
 1081 0088 BDE8F041 	 pop {r4,r5,r6,r7,r8,lr}
 1082 008c FFF7FEBF 	 b vPortExitCritical
 1083              	.L234:
 1084              	 .align 2
 1085              	.L233:
 1086 0090 00000000 	 .word .LANCHOR1
 1087 0094 00000000 	 .word .LANCHOR3
 1088 0098 00000000 	 .word .LANCHOR11
 1089 009c 00000000 	 .word .LANCHOR2
 1090 00a0 00000000 	 .word .LANCHOR8
 1091 00a4 04ED00E0 	 .word -536810236
 1093              	 .section .text.xTaskResumeFromISR,"ax",%progbits
 1094              	 .align 2
 1095              	 .global xTaskResumeFromISR
 1096              	 .thumb
 1097              	 .thumb_func
 1099              	xTaskResumeFromISR:
 1100              	 
 1101              	 
 1102 0000 C0B1     	 cbz r0,.L246
 1103 0002 2DE9F041 	 push {r4,r5,r6,r7,r8,lr}
 1104 0006 0546     	 mov r5,r0
 1105 0008 FFF7FEFF 	 bl vPortValidateInterruptPriority
 1106              	
 1107 000c EFF31186 	 mrs r6,basepri
 1108 0010 4FF0FC03 	 mov r3,#252
 1109 0014 83F31188 	 msr basepri,r3
 1110 0018 BFF36F8F 	 isb 
 1111 001c BFF34F8F 	 dsb 
 1112              	
 1113              	
 1114              	 .thumb
 1115 0020 224B     	 ldr r3,.L248
 1116 0022 6A69     	 ldr r2,[r5,#20]
 1117 0024 9A42     	 cmp r2,r3
 1118 0026 0ED0     	 beq .L247
 1119              	.L245:
 1120 0028 0024     	 movs r4,#0
 1121              	
 1122 002a 86F31188 	 msr basepri,r6
 1123              	
 1124              	 .thumb
 1125 002e 2046     	 mov r0,r4
 1126 0030 BDE8F081 	 pop {r4,r5,r6,r7,r8,pc}
 1127              	.L246:
 1128              	
 1129 0034 4FF0FC03 	 mov r3,#252
 1130 0038 83F31188 	 msr basepri,r3
 1131 003c BFF36F8F 	 isb 
 1132 0040 BFF34F8F 	 dsb 
 1133              	
 1134              	
 1135              	 .thumb
 1136              	.L237:
 1137 0044 FEE7     	 b .L237
 1138              	.L247:
 1139 0046 AC6A     	 ldr r4,[r5,#40]
 1140 0048 1948     	 ldr r0,.L248+4
 1141 004a 8442     	 cmp r4,r0
 1142 004c ECD0     	 beq .L245
 1143 004e 002C     	 cmp r4,#0
 1144 0050 EAD1     	 bne .L245
 1145 0052 184B     	 ldr r3,.L248+8
 1146 0054 1B68     	 ldr r3,[r3]
 1147 0056 03BB     	 cbnz r3,.L240
 1148 0058 174B     	 ldr r3,.L248+12
 1149 005a EC6A     	 ldr r4,[r5,#44]
 1150 005c 1B68     	 ldr r3,[r3]
 1151 005e 174F     	 ldr r7,.L248+16
 1152 0060 DB6A     	 ldr r3,[r3,#44]
 1153 0062 05F10408 	 add r8,r5,#4
 1154 0066 9C42     	 cmp r4,r3
 1155 0068 4046     	 mov r0,r8
 1156 006a 34BF     	 ite cc
 1157 006c 0024     	 movcc r4,#0
 1158 006e 0124     	 movcs r4,#1
 1159 0070 FFF7FEFF 	 bl uxListRemove
 1160 0074 EB6A     	 ldr r3,[r5,#44]
 1161 0076 3A68     	 ldr r2,[r7]
 1162 0078 1148     	 ldr r0,.L248+20
 1163 007a 0125     	 movs r5,#1
 1164 007c 9D40     	 lsls r5,r5,r3
 1165 007e 03EB8303 	 add r3,r3,r3,lsl#2
 1166 0082 2A43     	 orrs r2,r2,r5
 1167 0084 4146     	 mov r1,r8
 1168 0086 00EB8300 	 add r0,r0,r3,lsl#2
 1169 008a 3A60     	 str r2,[r7]
 1170 008c FFF7FEFF 	 bl vListInsertEnd
 1171              	
 1172 0090 86F31188 	 msr basepri,r6
 1173              	
 1174              	 .thumb
 1175 0094 2046     	 mov r0,r4
 1176 0096 BDE8F081 	 pop {r4,r5,r6,r7,r8,pc}
 1177              	.L240:
 1178 009a 05F11801 	 add r1,r5,#24
 1179 009e FFF7FEFF 	 bl vListInsertEnd
 1180              	
 1181 00a2 86F31188 	 msr basepri,r6
 1182              	
 1183              	 .thumb
 1184 00a6 2046     	 mov r0,r4
 1185 00a8 BDE8F081 	 pop {r4,r5,r6,r7,r8,pc}
 1186              	.L249:
 1187              	 .align 2
 1188              	.L248:
 1189 00ac 00000000 	 .word .LANCHOR3
 1190 00b0 00000000 	 .word .LANCHOR11
 1191 00b4 00000000 	 .word .LANCHOR16
 1192 00b8 00000000 	 .word .LANCHOR1
 1193 00bc 00000000 	 .word .LANCHOR2
 1194 00c0 00000000 	 .word .LANCHOR8
 1196              	 .section .text.vTaskStartScheduler,"ax",%progbits
 1197              	 .align 2
 1198              	 .global vTaskStartScheduler
 1199              	 .thumb
 1200              	 .thumb_func
 1202              	vTaskStartScheduler:
 1203              	 
 1204              	 
 1205 0000 30B5     	 push {r4,r5,lr}
 1206 0002 83B0     	 sub sp,sp,#12
 1207 0004 0024     	 movs r4,#0
 1208 0006 184A     	 ldr r2,.L257
 1209 0008 0192     	 str r2,[sp,#4]
 1210 000a 0094     	 str r4,[sp]
 1211 000c 2346     	 mov r3,r4
 1212 000e 1748     	 ldr r0,.L257+4
 1213 0010 1749     	 ldr r1,.L257+8
 1214 0012 8222     	 movs r2,#130
 1215 0014 FFF7FEFF 	 bl xTaskCreate
 1216 0018 0128     	 cmp r0,#1
 1217 001a 0CD0     	 beq .L255
 1218              	.L251:
 1219 001c 0130     	 adds r0,r0,#1
 1220 001e 01D0     	 beq .L256
 1221 0020 03B0     	 add sp,sp,#12
 1222              	 
 1223 0022 30BD     	 pop {r4,r5,pc}
 1224              	.L256:
 1225              	
 1226 0024 4FF0FC03 	 mov r3,#252
 1227 0028 83F31188 	 msr basepri,r3
 1228 002c BFF36F8F 	 isb 
 1229 0030 BFF34F8F 	 dsb 
 1230              	
 1231              	
 1232              	 .thumb
 1233              	.L253:
 1234 0034 FEE7     	 b .L253
 1235              	.L255:
 1236 0036 FFF7FEFF 	 bl xTimerCreateTimerTask
 1237 003a 0128     	 cmp r0,#1
 1238 003c EED1     	 bne .L251
 1239              	
 1240 003e 4FF0FC03 	 mov r3,#252
 1241 0042 83F31188 	 msr basepri,r3
 1242 0046 BFF36F8F 	 isb 
 1243 004a BFF34F8F 	 dsb 
 1244              	
 1245              	
 1246              	 .thumb
 1247 004e 0949     	 ldr r1,.L257+12
 1248 0050 094A     	 ldr r2,.L257+16
 1249 0052 0A4B     	 ldr r3,.L257+20
 1250 0054 4FF0FF35 	 mov r5,#-1
 1251 0058 0D60     	 str r5,[r1]
 1252 005a 1060     	 str r0,[r2]
 1253 005c 1C60     	 str r4,[r3]
 1254 005e 03B0     	 add sp,sp,#12
 1255              	 
 1256 0060 BDE83040 	 pop {r4,r5,lr}
 1257 0064 FFF7FEBF 	 b xPortStartScheduler
 1258              	.L258:
 1259              	 .align 2
 1260              	.L257:
 1261 0068 00000000 	 .word .LANCHOR18
 1262 006c 00000000 	 .word prvIdleTask
 1263 0070 00000000 	 .word .LC0
 1264 0074 00000000 	 .word .LANCHOR6
 1265 0078 00000000 	 .word .LANCHOR13
 1266 007c 00000000 	 .word .LANCHOR0
 1268              	 .section .text.vTaskEndScheduler,"ax",%progbits
 1269              	 .align 2
 1270              	 .global vTaskEndScheduler
 1271              	 .thumb
 1272              	 .thumb_func
 1274              	vTaskEndScheduler:
 1275              	 
 1276              	 
 1277              	 
 1278              	
 1279 0000 4FF0FC03 	 mov r3,#252
 1280 0004 83F31188 	 msr basepri,r3
 1281 0008 BFF36F8F 	 isb 
 1282 000c BFF34F8F 	 dsb 
 1283              	
 1284              	
 1285              	 .thumb
 1286 0010 024B     	 ldr r3,.L260
 1287 0012 0022     	 movs r2,#0
 1288 0014 1A60     	 str r2,[r3]
 1289 0016 FFF7FEBF 	 b vPortEndScheduler
 1290              	.L261:
 1291 001a 00BF     	 .align 2
 1292              	.L260:
 1293 001c 00000000 	 .word .LANCHOR13
 1295              	 .section .text.vTaskSuspendAll,"ax",%progbits
 1296              	 .align 2
 1297              	 .global vTaskSuspendAll
 1298              	 .thumb
 1299              	 .thumb_func
 1301              	vTaskSuspendAll:
 1302              	 
 1303              	 
 1304              	 
 1305 0000 024A     	 ldr r2,.L263
 1306 0002 1368     	 ldr r3,[r2]
 1307 0004 0133     	 adds r3,r3,#1
 1308 0006 1360     	 str r3,[r2]
 1309 0008 7047     	 bx lr
 1310              	.L264:
 1311 000a 00BF     	 .align 2
 1312              	.L263:
 1313 000c 00000000 	 .word .LANCHOR16
 1315              	 .section .text.xTaskGetTickCount,"ax",%progbits
 1316              	 .align 2
 1317              	 .global xTaskGetTickCount
 1318              	 .thumb
 1319              	 .thumb_func
 1321              	xTaskGetTickCount:
 1322              	 
 1323              	 
 1324              	 
 1325 0000 014B     	 ldr r3,.L266
 1326 0002 1868     	 ldr r0,[r3]
 1327 0004 7047     	 bx lr
 1328              	.L267:
 1329 0006 00BF     	 .align 2
 1330              	.L266:
 1331 0008 00000000 	 .word .LANCHOR0
 1333              	 .section .text.xTaskGetTickCountFromISR,"ax",%progbits
 1334              	 .align 2
 1335              	 .global xTaskGetTickCountFromISR
 1336              	 .thumb
 1337              	 .thumb_func
 1339              	xTaskGetTickCountFromISR:
 1340              	 
 1341              	 
 1342 0000 08B5     	 push {r3,lr}
 1343 0002 FFF7FEFF 	 bl vPortValidateInterruptPriority
 1344 0006 014B     	 ldr r3,.L270
 1345 0008 1868     	 ldr r0,[r3]
 1346 000a 08BD     	 pop {r3,pc}
 1347              	.L271:
 1348              	 .align 2
 1349              	.L270:
 1350 000c 00000000 	 .word .LANCHOR0
 1352              	 .section .text.uxTaskGetNumberOfTasks,"ax",%progbits
 1353              	 .align 2
 1354              	 .global uxTaskGetNumberOfTasks
 1355              	 .thumb
 1356              	 .thumb_func
 1358              	uxTaskGetNumberOfTasks:
 1359              	 
 1360              	 
 1361              	 
 1362 0000 014B     	 ldr r3,.L273
 1363 0002 1868     	 ldr r0,[r3]
 1364 0004 7047     	 bx lr
 1365              	.L274:
 1366 0006 00BF     	 .align 2
 1367              	.L273:
 1368 0008 00000000 	 .word .LANCHOR7
 1370              	 .section .text.pcTaskGetName,"ax",%progbits
 1371              	 .align 2
 1372              	 .global pcTaskGetName
 1373              	 .thumb
 1374              	 .thumb_func
 1376              	pcTaskGetName:
 1377              	 
 1378              	 
 1379              	 
 1380 0000 08B1     	 cbz r0,.L278
 1381              	.L276:
 1382 0002 3430     	 adds r0,r0,#52
 1383 0004 7047     	 bx lr
 1384              	.L278:
 1385 0006 064B     	 ldr r3,.L279
 1386 0008 1868     	 ldr r0,[r3]
 1387 000a 0028     	 cmp r0,#0
 1388 000c F9D1     	 bne .L276
 1389              	
 1390 000e 4FF0FC03 	 mov r3,#252
 1391 0012 83F31188 	 msr basepri,r3
 1392 0016 BFF36F8F 	 isb 
 1393 001a BFF34F8F 	 dsb 
 1394              	
 1395              	
 1396              	 .thumb
 1397              	.L277:
 1398 001e FEE7     	 b .L277
 1399              	.L280:
 1400              	 .align 2
 1401              	.L279:
 1402 0020 00000000 	 .word .LANCHOR1
 1404              	 .section .text.xTaskGetIdleTaskHandle,"ax",%progbits
 1405              	 .align 2
 1406              	 .global xTaskGetIdleTaskHandle
 1407              	 .thumb
 1408              	 .thumb_func
 1410              	xTaskGetIdleTaskHandle:
 1411              	 
 1412              	 
 1413              	 
 1414 0000 064B     	 ldr r3,.L285
 1415 0002 1868     	 ldr r0,[r3]
 1416 0004 00B1     	 cbz r0,.L284
 1417 0006 7047     	 bx lr
 1418              	.L284:
 1419              	
 1420 0008 4FF0FC03 	 mov r3,#252
 1421 000c 83F31188 	 msr basepri,r3
 1422 0010 BFF36F8F 	 isb 
 1423 0014 BFF34F8F 	 dsb 
 1424              	
 1425              	
 1426              	 .thumb
 1427              	.L283:
 1428 0018 FEE7     	 b .L283
 1429              	.L286:
 1430 001a 00BF     	 .align 2
 1431              	.L285:
 1432 001c 00000000 	 .word .LANCHOR18
 1434              	 .section .text.xTaskIncrementTick,"ax",%progbits
 1435              	 .align 2
 1436              	 .global xTaskIncrementTick
 1437              	 .thumb
 1438              	 .thumb_func
 1440              	xTaskIncrementTick:
 1441              	 
 1442              	 
 1443 0000 2DE9F84F 	 push {r3,r4,r5,r6,r7,r8,r9,r10,fp,lr}
 1444 0004 424B     	 ldr r3,.L317
 1445 0006 1B68     	 ldr r3,[r3]
 1446 0008 BBB9     	 cbnz r3,.L288
 1447 000a 424B     	 ldr r3,.L317+4
 1448 000c 1C68     	 ldr r4,[r3]
 1449 000e 0134     	 adds r4,r4,#1
 1450 0010 1C60     	 str r4,[r3]
 1451 0012 0CB3     	 cbz r4,.L315
 1452              	.L289:
 1453 0014 404E     	 ldr r6,.L317+8
 1454 0016 3368     	 ldr r3,[r6]
 1455 0018 9C42     	 cmp r4,r3
 1456 001a 2BD2     	 bcs .L302
 1457 001c 3F4F     	 ldr r7,.L317+12
 1458 001e 404D     	 ldr r5,.L317+16
 1459 0020 4FF0000B 	 mov fp,#0
 1460              	.L293:
 1461 0024 2A68     	 ldr r2,[r5]
 1462 0026 D26A     	 ldr r2,[r2,#44]
 1463 0028 02EB8202 	 add r2,r2,r2,lsl#2
 1464 002c 57F82220 	 ldr r2,[r7,r2,lsl#2]
 1465 0030 022A     	 cmp r2,#2
 1466 0032 28BF     	 it cs
 1467 0034 4FF0010B 	 movcs fp,#1
 1468 0038 05E0     	 b .L298
 1469              	.L288:
 1470 003a 3A4A     	 ldr r2,.L317+20
 1471 003c 1368     	 ldr r3,[r2]
 1472 003e 0133     	 adds r3,r3,#1
 1473 0040 1360     	 str r3,[r2]
 1474 0042 4FF0000B 	 mov fp,#0
 1475              	.L298:
 1476 0046 384A     	 ldr r2,.L317+24
 1477 0048 1268     	 ldr r2,[r2]
 1478 004a 002A     	 cmp r2,#0
 1479 004c 18BF     	 it ne
 1480 004e 4FF0010B 	 movne fp,#1
 1481 0052 5846     	 mov r0,fp
 1482 0054 BDE8F88F 	 pop {r3,r4,r5,r6,r7,r8,r9,r10,fp,pc}
 1483              	.L315:
 1484 0058 344B     	 ldr r3,.L317+28
 1485 005a 1A68     	 ldr r2,[r3]
 1486 005c 1268     	 ldr r2,[r2]
 1487 005e 002A     	 cmp r2,#0
 1488 0060 47D0     	 beq .L290
 1489              	
 1490 0062 4FF0FC03 	 mov r3,#252
 1491 0066 83F31188 	 msr basepri,r3
 1492 006a BFF36F8F 	 isb 
 1493 006e BFF34F8F 	 dsb 
 1494              	
 1495              	
 1496              	 .thumb
 1497              	.L291:
 1498 0072 FEE7     	 b .L291
 1499              	.L302:
 1500 0074 294F     	 ldr r7,.L317+12
 1501 0076 2A4D     	 ldr r5,.L317+16
 1502 0078 DFF8BC90 	 ldr r9,.L317+40
 1503 007c 4FF0000B 	 mov fp,#0
 1504 0080 2EE0     	 b .L292
 1505              	.L309:
 1506 0082 2A4B     	 ldr r3,.L317+28
 1507 0084 1A68     	 ldr r2,[r3]
 1508 0086 D268     	 ldr r2,[r2,#12]
 1509 0088 D2F80C80 	 ldr r8,[r2,#12]
 1510 008c D8F80410 	 ldr r1,[r8,#4]
 1511 0090 08F1040A 	 add r10,r8,#4
 1512 0094 8C42     	 cmp r4,r1
 1513 0096 5046     	 mov r0,r10
 1514 0098 37D3     	 bcc .L316
 1515 009a FFF7FEFF 	 bl uxListRemove
 1516 009e D8F82810 	 ldr r1,[r8,#40]
 1517 00a2 08F11800 	 add r0,r8,#24
 1518 00a6 09B1     	 cbz r1,.L296
 1519 00a8 FFF7FEFF 	 bl uxListRemove
 1520              	.L296:
 1521 00ac D8F82C00 	 ldr r0,[r8,#44]
 1522 00b0 D9F80030 	 ldr r3,[r9]
 1523 00b4 0122     	 movs r2,#1
 1524 00b6 02FA00FC 	 lsl ip,r2,r0
 1525 00ba 00EB8000 	 add r0,r0,r0,lsl#2
 1526 00be 5146     	 mov r1,r10
 1527 00c0 07EB8000 	 add r0,r7,r0,lsl#2
 1528 00c4 4CEA0303 	 orr r3,ip,r3
 1529 00c8 C9F80030 	 str r3,[r9]
 1530 00cc FFF7FEFF 	 bl vListInsertEnd
 1531 00d0 2868     	 ldr r0,[r5]
 1532 00d2 D8F82C10 	 ldr r1,[r8,#44]
 1533 00d6 C26A     	 ldr r2,[r0,#44]
 1534 00d8 9142     	 cmp r1,r2
 1535 00da 28BF     	 it cs
 1536 00dc 4FF0010B 	 movcs fp,#1
 1537              	.L292:
 1538 00e0 124B     	 ldr r3,.L317+28
 1539 00e2 1A68     	 ldr r2,[r3]
 1540 00e4 1268     	 ldr r2,[r2]
 1541 00e6 002A     	 cmp r2,#0
 1542 00e8 CBD1     	 bne .L309
 1543 00ea 4FF0FF32 	 mov r2,#-1
 1544 00ee 3260     	 str r2,[r6]
 1545 00f0 98E7     	 b .L293
 1546              	.L290:
 1547 00f2 0F49     	 ldr r1,.L317+32
 1548 00f4 1868     	 ldr r0,[r3]
 1549 00f6 0F4A     	 ldr r2,.L317+36
 1550 00f8 0D68     	 ldr r5,[r1]
 1551 00fa 1D60     	 str r5,[r3]
 1552 00fc 0860     	 str r0,[r1]
 1553 00fe 1368     	 ldr r3,[r2]
 1554 0100 0133     	 adds r3,r3,#1
 1555 0102 1360     	 str r3,[r2]
 1556 0104 FFF7FEFF 	 bl prvResetNextTaskUnblockTime
 1557 0108 84E7     	 b .L289
 1558              	.L316:
 1559 010a 3160     	 str r1,[r6]
 1560 010c 8AE7     	 b .L293
 1561              	.L318:
 1562 010e 00BF     	 .align 2
 1563              	.L317:
 1564 0110 00000000 	 .word .LANCHOR16
 1565 0114 00000000 	 .word .LANCHOR0
 1566 0118 00000000 	 .word .LANCHOR6
 1567 011c 00000000 	 .word .LANCHOR8
 1568 0120 00000000 	 .word .LANCHOR1
 1569 0124 00000000 	 .word .LANCHOR20
 1570 0128 00000000 	 .word .LANCHOR17
 1571 012c 00000000 	 .word .LANCHOR5
 1572 0130 00000000 	 .word .LANCHOR4
 1573 0134 00000000 	 .word .LANCHOR19
 1574 0138 00000000 	 .word .LANCHOR2
 1576              	 .section .text.xTaskResumeAll,"ax",%progbits
 1577              	 .align 2
 1578              	 .global xTaskResumeAll
 1579              	 .thumb
 1580              	 .thumb_func
 1582              	xTaskResumeAll:
 1583              	 
 1584              	 
 1585 0000 2DE9F84F 	 push {r3,r4,r5,r6,r7,r8,r9,r10,fp,lr}
 1586 0004 334C     	 ldr r4,.L348
 1587 0006 2368     	 ldr r3,[r4]
 1588 0008 43B9     	 cbnz r3,.L320
 1589              	
 1590 000a 4FF0FC03 	 mov r3,#252
 1591 000e 83F31188 	 msr basepri,r3
 1592 0012 BFF36F8F 	 isb 
 1593 0016 BFF34F8F 	 dsb 
 1594              	
 1595              	
 1596              	 .thumb
 1597              	.L321:
 1598 001a FEE7     	 b .L321
 1599              	.L320:
 1600 001c FFF7FEFF 	 bl vPortEnterCritical
 1601 0020 2368     	 ldr r3,[r4]
 1602 0022 013B     	 subs r3,r3,#1
 1603 0024 2360     	 str r3,[r4]
 1604 0026 2468     	 ldr r4,[r4]
 1605 0028 002C     	 cmp r4,#0
 1606 002a 4DD1     	 bne .L325
 1607 002c 2A4B     	 ldr r3,.L348+4
 1608 002e 1B68     	 ldr r3,[r3]
 1609 0030 002B     	 cmp r3,#0
 1610 0032 49D0     	 beq .L325
 1611 0034 DFF8B8A0 	 ldr r10,.L348+28
 1612 0038 284D     	 ldr r5,.L348+8
 1613 003a 294E     	 ldr r6,.L348+12
 1614 003c DFF8B480 	 ldr r8,.L348+32
 1615 0040 D346     	 mov fp,r10
 1616              	.L324:
 1617 0042 DAF80030 	 ldr r3,[r10]
 1618 0046 0127     	 movs r7,#1
 1619 0048 23B3     	 cbz r3,.L347
 1620              	.L327:
 1621 004a DBF80C30 	 ldr r3,[fp,#12]
 1622 004e DC68     	 ldr r4,[r3,#12]
 1623 0050 04F10409 	 add r9,r4,#4
 1624 0054 04F11800 	 add r0,r4,#24
 1625 0058 FFF7FEFF 	 bl uxListRemove
 1626 005c 4846     	 mov r0,r9
 1627 005e FFF7FEFF 	 bl uxListRemove
 1628 0062 E06A     	 ldr r0,[r4,#44]
 1629 0064 3368     	 ldr r3,[r6]
 1630 0066 07FA00F2 	 lsl r2,r7,r0
 1631 006a 00EB8000 	 add r0,r0,r0,lsl#2
 1632 006e 1343     	 orrs r3,r3,r2
 1633 0070 4946     	 mov r1,r9
 1634 0072 08EB8000 	 add r0,r8,r0,lsl#2
 1635 0076 3360     	 str r3,[r6]
 1636 0078 FFF7FEFF 	 bl vListInsertEnd
 1637 007c 194B     	 ldr r3,.L348+16
 1638 007e E26A     	 ldr r2,[r4,#44]
 1639 0080 1B68     	 ldr r3,[r3]
 1640 0082 DB6A     	 ldr r3,[r3,#44]
 1641 0084 9A42     	 cmp r2,r3
 1642 0086 DCD3     	 bcc .L324
 1643 0088 DAF80030 	 ldr r3,[r10]
 1644 008c 2F60     	 str r7,[r5]
 1645 008e 0127     	 movs r7,#1
 1646 0090 002B     	 cmp r3,#0
 1647 0092 DAD1     	 bne .L327
 1648              	.L347:
 1649 0094 0CB1     	 cbz r4,.L328
 1650 0096 FFF7FEFF 	 bl prvResetNextTaskUnblockTime
 1651              	.L328:
 1652 009a 134E     	 ldr r6,.L348+20
 1653 009c 3468     	 ldr r4,[r6]
 1654 009e 3CB1     	 cbz r4,.L329
 1655 00a0 0127     	 movs r7,#1
 1656              	.L331:
 1657 00a2 FFF7FEFF 	 bl xTaskIncrementTick
 1658 00a6 00B1     	 cbz r0,.L330
 1659 00a8 2F60     	 str r7,[r5]
 1660              	.L330:
 1661 00aa 013C     	 subs r4,r4,#1
 1662 00ac F9D1     	 bne .L331
 1663 00ae 3460     	 str r4,[r6]
 1664              	.L329:
 1665 00b0 2B68     	 ldr r3,[r5]
 1666 00b2 4BB1     	 cbz r3,.L325
 1667 00b4 0D4B     	 ldr r3,.L348+24
 1668 00b6 4FF08052 	 mov r2,#268435456
 1669 00ba 1A60     	 str r2,[r3]
 1670              	
 1671 00bc BFF34F8F 	 dsb
 1672              	
 1673              	
 1674 00c0 BFF36F8F 	 isb
 1675              	
 1676              	 .thumb
 1677 00c4 0124     	 movs r4,#1
 1678 00c6 00E0     	 b .L323
 1679              	.L325:
 1680 00c8 0024     	 movs r4,#0
 1681              	.L323:
 1682 00ca FFF7FEFF 	 bl vPortExitCritical
 1683 00ce 2046     	 mov r0,r4
 1684 00d0 BDE8F88F 	 pop {r3,r4,r5,r6,r7,r8,r9,r10,fp,pc}
 1685              	.L349:
 1686              	 .align 2
 1687              	.L348:
 1688 00d4 00000000 	 .word .LANCHOR16
 1689 00d8 00000000 	 .word .LANCHOR7
 1690 00dc 00000000 	 .word .LANCHOR17
 1691 00e0 00000000 	 .word .LANCHOR2
 1692 00e4 00000000 	 .word .LANCHOR1
 1693 00e8 00000000 	 .word .LANCHOR20
 1694 00ec 04ED00E0 	 .word -536810236
 1695 00f0 00000000 	 .word .LANCHOR11
 1696 00f4 00000000 	 .word .LANCHOR8
 1698              	 .section .text.vTaskDelayUntil,"ax",%progbits
 1699              	 .align 2
 1700              	 .global vTaskDelayUntil
 1701              	 .thumb
 1702              	 .thumb_func
 1704              	vTaskDelayUntil:
 1705              	 
 1706              	 
 1707 0000 38B5     	 push {r3,r4,r5,lr}
 1708 0002 A8B1     	 cbz r0,.L364
 1709 0004 41B9     	 cbnz r1,.L353
 1710              	
 1711 0006 4FF0FC03 	 mov r3,#252
 1712 000a 83F31188 	 msr basepri,r3
 1713 000e BFF36F8F 	 isb 
 1714 0012 BFF34F8F 	 dsb 
 1715              	
 1716              	
 1717              	 .thumb
 1718              	.L354:
 1719 0016 FEE7     	 b .L354
 1720              	.L353:
 1721 0018 1D4C     	 ldr r4,.L365
 1722 001a 2368     	 ldr r3,[r4]
 1723 001c 8BB1     	 cbz r3,.L355
 1724              	
 1725 001e 4FF0FC03 	 mov r3,#252
 1726 0022 83F31188 	 msr basepri,r3
 1727 0026 BFF36F8F 	 isb 
 1728 002a BFF34F8F 	 dsb 
 1729              	
 1730              	
 1731              	 .thumb
 1732              	.L356:
 1733 002e FEE7     	 b .L356
 1734              	.L364:
 1735              	
 1736 0030 4FF0FC03 	 mov r3,#252
 1737 0034 83F31188 	 msr basepri,r3
 1738 0038 BFF36F8F 	 isb 
 1739 003c BFF34F8F 	 dsb 
 1740              	
 1741              	
 1742              	 .thumb
 1743              	.L352:
 1744 0040 FEE7     	 b .L352
 1745              	.L355:
 1746 0042 0246     	 mov r2,r0
 1747 0044 2068     	 ldr r0,[r4]
 1748 0046 134D     	 ldr r5,.L365+4
 1749 0048 0130     	 adds r0,r0,#1
 1750 004a 2060     	 str r0,[r4]
 1751 004c 0B46     	 mov r3,r1
 1752 004e 2868     	 ldr r0,[r5]
 1753 0050 1168     	 ldr r1,[r2]
 1754 0052 8842     	 cmp r0,r1
 1755 0054 0B44     	 add r3,r3,r1
 1756 0056 14D2     	 bcs .L357
 1757 0058 9942     	 cmp r1,r3
 1758 005a 16D9     	 bls .L358
 1759              	.L363:
 1760 005c 9842     	 cmp r0,r3
 1761 005e 14D2     	 bcs .L358
 1762              	.L359:
 1763 0060 1360     	 str r3,[r2]
 1764 0062 181A     	 subs r0,r3,r0
 1765 0064 0021     	 movs r1,#0
 1766 0066 FFF7FEFF 	 bl prvAddCurrentTaskToDelayedList
 1767              	.L361:
 1768 006a FFF7FEFF 	 bl xTaskResumeAll
 1769 006e 58B9     	 cbnz r0,.L350
 1770 0070 094B     	 ldr r3,.L365+8
 1771 0072 4FF08052 	 mov r2,#268435456
 1772 0076 1A60     	 str r2,[r3]
 1773              	
 1774 0078 BFF34F8F 	 dsb
 1775              	
 1776              	
 1777 007c BFF36F8F 	 isb
 1778              	
 1779              	 .thumb
 1780 0080 38BD     	 pop {r3,r4,r5,pc}
 1781              	.L357:
 1782 0082 9942     	 cmp r1,r3
 1783 0084 ECD8     	 bhi .L359
 1784 0086 E9E7     	 b .L363
 1785              	.L350:
 1786 0088 38BD     	 pop {r3,r4,r5,pc}
 1787              	.L358:
 1788 008a 1360     	 str r3,[r2]
 1789 008c EDE7     	 b .L361
 1790              	.L366:
 1791 008e 00BF     	 .align 2
 1792              	.L365:
 1793 0090 00000000 	 .word .LANCHOR16
 1794 0094 00000000 	 .word .LANCHOR0
 1795 0098 04ED00E0 	 .word -536810236
 1797              	 .section .text.vTaskDelay,"ax",%progbits
 1798              	 .align 2
 1799              	 .global vTaskDelay
 1800              	 .thumb
 1801              	 .thumb_func
 1803              	vTaskDelay:
 1804              	 
 1805              	 
 1806 0000 08B5     	 push {r3,lr}
 1807 0002 58B1     	 cbz r0,.L372
 1808 0004 0F4B     	 ldr r3,.L377
 1809 0006 1968     	 ldr r1,[r3]
 1810 0008 89B1     	 cbz r1,.L370
 1811              	
 1812 000a 4FF0FC03 	 mov r3,#252
 1813 000e 83F31188 	 msr basepri,r3
 1814 0012 BFF36F8F 	 isb 
 1815 0016 BFF34F8F 	 dsb 
 1816              	
 1817              	
 1818              	 .thumb
 1819              	.L371:
 1820 001a FEE7     	 b .L371
 1821              	.L372:
 1822 001c 0A4B     	 ldr r3,.L377+4
 1823 001e 4FF08052 	 mov r2,#268435456
 1824 0022 1A60     	 str r2,[r3]
 1825              	
 1826 0024 BFF34F8F 	 dsb
 1827              	
 1828              	
 1829 0028 BFF36F8F 	 isb
 1830              	
 1831              	 .thumb
 1832 002c 08BD     	 pop {r3,pc}
 1833              	.L370:
 1834 002e 1A68     	 ldr r2,[r3]
 1835 0030 0132     	 adds r2,r2,#1
 1836 0032 1A60     	 str r2,[r3]
 1837 0034 FFF7FEFF 	 bl prvAddCurrentTaskToDelayedList
 1838 0038 FFF7FEFF 	 bl xTaskResumeAll
 1839 003c 0028     	 cmp r0,#0
 1840 003e EDD0     	 beq .L372
 1841 0040 08BD     	 pop {r3,pc}
 1842              	.L378:
 1843 0042 00BF     	 .align 2
 1844              	.L377:
 1845 0044 00000000 	 .word .LANCHOR16
 1846 0048 04ED00E0 	 .word -536810236
 1848              	 .section .text.prvIdleTask,"ax",%progbits
 1849              	 .align 2
 1850              	 .thumb
 1851              	 .thumb_func
 1853              	prvIdleTask:
 1854              	 
 1855              	 
 1856              	 
 1857 0000 1F4E     	 ldr r6,.L390
 1858 0002 204D     	 ldr r5,.L390+4
 1859 0004 204C     	 ldr r4,.L390+8
 1860 0006 DFF88880 	 ldr r8,.L390+16
 1861 000a DFF88890 	 ldr r9,.L390+20
 1862 000e 2DE98848 	 push {r3,r7,fp,lr}
 1863 0012 B246     	 mov r10,r6
 1864 0014 06E0     	 b .L381
 1865              	.L382:
 1866 0016 2368     	 ldr r3,[r4]
 1867 0018 3768     	 ldr r7,[r6]
 1868 001a 0133     	 adds r3,r3,#1
 1869 001c 2360     	 str r3,[r4]
 1870 001e FFF7FEFF 	 bl xTaskResumeAll
 1871 0022 7FB9     	 cbnz r7,.L389
 1872              	.L381:
 1873 0024 2B68     	 ldr r3,[r5]
 1874 0026 002B     	 cmp r3,#0
 1875 0028 F5D1     	 bne .L382
 1876 002a D9F80030 	 ldr r3,[r9]
 1877 002e 012B     	 cmp r3,#1
 1878 0030 F8D9     	 bls .L381
 1879 0032 164B     	 ldr r3,.L390+12
 1880 0034 4FF08052 	 mov r2,#268435456
 1881 0038 1A60     	 str r2,[r3]
 1882              	
 1883 003a BFF34F8F 	 dsb
 1884              	
 1885              	
 1886 003e BFF36F8F 	 isb
 1887              	
 1888              	 .thumb
 1889 0042 EFE7     	 b .L381
 1890              	.L389:
 1891 0044 FFF7FEFF 	 bl vPortEnterCritical
 1892 0048 DAF80C30 	 ldr r3,[r10,#12]
 1893 004c D3F80CB0 	 ldr fp,[r3,#12]
 1894 0050 0BF10400 	 add r0,fp,#4
 1895 0054 FFF7FEFF 	 bl uxListRemove
 1896 0058 D8F80030 	 ldr r3,[r8]
 1897 005c 094A     	 ldr r2,.L390+4
 1898 005e 013B     	 subs r3,r3,#1
 1899 0060 C8F80030 	 str r3,[r8]
 1900 0064 074B     	 ldr r3,.L390+4
 1901 0066 1B68     	 ldr r3,[r3]
 1902 0068 013B     	 subs r3,r3,#1
 1903 006a 1360     	 str r3,[r2]
 1904 006c FFF7FEFF 	 bl vPortExitCritical
 1905 0070 DBF83000 	 ldr r0,[fp,#48]
 1906 0074 FFF7FEFF 	 bl vPortFree
 1907 0078 5846     	 mov r0,fp
 1908 007a FFF7FEFF 	 bl vPortFree
 1909 007e D1E7     	 b .L381
 1910              	.L391:
 1911              	 .align 2
 1912              	.L390:
 1913 0080 00000000 	 .word .LANCHOR12
 1914 0084 00000000 	 .word .LANCHOR15
 1915 0088 00000000 	 .word .LANCHOR16
 1916 008c 04ED00E0 	 .word -536810236
 1917 0090 00000000 	 .word .LANCHOR7
 1918 0094 00000000 	 .word .LANCHOR8
 1920              	 .section .text.xTaskGetHandle,"ax",%progbits
 1921              	 .align 2
 1922              	 .global xTaskGetHandle
 1923              	 .thumb
 1924              	 .thumb_func
 1926              	xTaskGetHandle:
 1927              	 
 1928              	 
 1929 0000 F8B5     	 push {r3,r4,r5,r6,r7,lr}
 1930 0002 0546     	 mov r5,r0
 1931 0004 FFF7FEFF 	 bl strlen
 1932 0008 0F28     	 cmp r0,#15
 1933 000a 08D9     	 bls .L393
 1934              	
 1935 000c 4FF0FC03 	 mov r3,#252
 1936 0010 83F31188 	 msr basepri,r3
 1937 0014 BFF36F8F 	 isb 
 1938 0018 BFF34F8F 	 dsb 
 1939              	
 1940              	
 1941              	 .thumb
 1942              	.L394:
 1943 001c FEE7     	 b .L394
 1944              	.L393:
 1945 001e 5849     	 ldr r1,.L460
 1946 0020 584A     	 ldr r2,.L460+4
 1947 0022 0B68     	 ldr r3,[r1]
 1948 0024 0133     	 adds r3,r3,#1
 1949 0026 0B60     	 str r3,[r1]
 1950 0028 A2F16407 	 sub r7,r2,#100
 1951              	.L403:
 1952 002c 52F8083C 	 ldr r3,[r2,#-8]
 1953 0030 002B     	 cmp r3,#0
 1954 0032 00F08380 	 beq .L395
 1955 0036 52F8043C 	 ldr r3,[r2,#-4]
 1956 003a 5B68     	 ldr r3,[r3,#4]
 1957 003c 42F8043C 	 str r3,[r2,#-4]
 1958 0040 9342     	 cmp r3,r2
 1959 0042 04BF     	 itt eq
 1960 0044 5368     	 ldreq r3,[r2,#4]
 1961 0046 42F8043C 	 streq r3,[r2,#-4]
 1962 004a DE68     	 ldr r6,[r3,#12]
 1963              	.L400:
 1964 004c 5B68     	 ldr r3,[r3,#4]
 1965 004e 42F8043C 	 str r3,[r2,#-4]
 1966 0052 9342     	 cmp r3,r2
 1967 0054 04BF     	 itt eq
 1968 0056 5B68     	 ldreq r3,[r3,#4]
 1969 0058 42F8043C 	 streq r3,[r2,#-4]
 1970 005c DC68     	 ldr r4,[r3,#12]
 1971 005e 2978     	 ldrb r1,[r5]
 1972 0060 94F83400 	 ldrb r0,[r4,#52]
 1973 0064 8142     	 cmp r1,r0
 1974 0066 67D1     	 bne .L398
 1975 0068 0029     	 cmp r1,#0
 1976 006a 00F08480 	 beq .L402
 1977 006e 94F83500 	 ldrb r0,[r4,#53]
 1978 0072 6978     	 ldrb r1,[r5,#1]
 1979 0074 8142     	 cmp r1,r0
 1980 0076 5FD1     	 bne .L398
 1981 0078 0029     	 cmp r1,#0
 1982 007a 7CD0     	 beq .L402
 1983 007c 94F83600 	 ldrb r0,[r4,#54]
 1984 0080 A978     	 ldrb r1,[r5,#2]
 1985 0082 8142     	 cmp r1,r0
 1986 0084 58D1     	 bne .L398
 1987 0086 0029     	 cmp r1,#0
 1988 0088 75D0     	 beq .L402
 1989 008a 94F83700 	 ldrb r0,[r4,#55]
 1990 008e E978     	 ldrb r1,[r5,#3]
 1991 0090 8142     	 cmp r1,r0
 1992 0092 51D1     	 bne .L398
 1993 0094 0029     	 cmp r1,#0
 1994 0096 6ED0     	 beq .L402
 1995 0098 94F83800 	 ldrb r0,[r4,#56]
 1996 009c 2979     	 ldrb r1,[r5,#4]
 1997 009e 8142     	 cmp r1,r0
 1998 00a0 4AD1     	 bne .L398
 1999 00a2 0029     	 cmp r1,#0
 2000 00a4 67D0     	 beq .L402
 2001 00a6 94F83900 	 ldrb r0,[r4,#57]
 2002 00aa 6979     	 ldrb r1,[r5,#5]
 2003 00ac 8142     	 cmp r1,r0
 2004 00ae 43D1     	 bne .L398
 2005 00b0 0029     	 cmp r1,#0
 2006 00b2 60D0     	 beq .L402
 2007 00b4 94F83A00 	 ldrb r0,[r4,#58]
 2008 00b8 A979     	 ldrb r1,[r5,#6]
 2009 00ba 8142     	 cmp r1,r0
 2010 00bc 3CD1     	 bne .L398
 2011 00be 0029     	 cmp r1,#0
 2012 00c0 59D0     	 beq .L402
 2013 00c2 94F83B00 	 ldrb r0,[r4,#59]
 2014 00c6 E979     	 ldrb r1,[r5,#7]
 2015 00c8 8142     	 cmp r1,r0
 2016 00ca 35D1     	 bne .L398
 2017 00cc 0029     	 cmp r1,#0
 2018 00ce 52D0     	 beq .L402
 2019 00d0 94F83C00 	 ldrb r0,[r4,#60]
 2020 00d4 297A     	 ldrb r1,[r5,#8]
 2021 00d6 8142     	 cmp r1,r0
 2022 00d8 2ED1     	 bne .L398
 2023 00da 0029     	 cmp r1,#0
 2024 00dc 4BD0     	 beq .L402
 2025 00de 94F83D00 	 ldrb r0,[r4,#61]
 2026 00e2 697A     	 ldrb r1,[r5,#9]
 2027 00e4 8142     	 cmp r1,r0
 2028 00e6 27D1     	 bne .L398
 2029 00e8 0029     	 cmp r1,#0
 2030 00ea 44D0     	 beq .L402
 2031 00ec 94F83E00 	 ldrb r0,[r4,#62]
 2032 00f0 A97A     	 ldrb r1,[r5,#10]
 2033 00f2 8142     	 cmp r1,r0
 2034 00f4 20D1     	 bne .L398
 2035 00f6 0029     	 cmp r1,#0
 2036 00f8 3DD0     	 beq .L402
 2037 00fa 94F83F00 	 ldrb r0,[r4,#63]
 2038 00fe E97A     	 ldrb r1,[r5,#11]
 2039 0100 8142     	 cmp r1,r0
 2040 0102 19D1     	 bne .L398
 2041 0104 0029     	 cmp r1,#0
 2042 0106 36D0     	 beq .L402
 2043 0108 94F84000 	 ldrb r0,[r4,#64]
 2044 010c 297B     	 ldrb r1,[r5,#12]
 2045 010e 8142     	 cmp r1,r0
 2046 0110 12D1     	 bne .L398
 2047 0112 81B3     	 cbz r1,.L402
 2048 0114 94F84100 	 ldrb r0,[r4,#65]
 2049 0118 697B     	 ldrb r1,[r5,#13]
 2050 011a 8142     	 cmp r1,r0
 2051 011c 0CD1     	 bne .L398
 2052 011e 51B3     	 cbz r1,.L402
 2053 0120 94F84200 	 ldrb r0,[r4,#66]
 2054 0124 A97B     	 ldrb r1,[r5,#14]
 2055 0126 8142     	 cmp r1,r0
 2056 0128 06D1     	 bne .L398
 2057 012a 21B3     	 cbz r1,.L402
 2058 012c 94F84300 	 ldrb r0,[r4,#67]
 2059 0130 E97B     	 ldrb r1,[r5,#15]
 2060 0132 8142     	 cmp r1,r0
 2061 0134 00D1     	 bne .L398
 2062 0136 F1B1     	 cbz r1,.L402
 2063              	.L398:
 2064 0138 A642     	 cmp r6,r4
 2065 013a 87D1     	 bne .L400
 2066              	.L395:
 2067 013c 143A     	 subs r2,r2,#20
 2068 013e BA42     	 cmp r2,r7
 2069 0140 7FF474AF 	 bne .L403
 2070 0144 104B     	 ldr r3,.L460+8
 2071 0146 2946     	 mov r1,r5
 2072 0148 1868     	 ldr r0,[r3]
 2073 014a FFF7FEFF 	 bl prvSearchForNameWithinSingleList
 2074 014e 0446     	 mov r4,r0
 2075 0150 88B9     	 cbnz r0,.L402
 2076 0152 0E4B     	 ldr r3,.L460+12
 2077 0154 2946     	 mov r1,r5
 2078 0156 1868     	 ldr r0,[r3]
 2079 0158 FFF7FEFF 	 bl prvSearchForNameWithinSingleList
 2080 015c 0446     	 mov r4,r0
 2081 015e 50B9     	 cbnz r0,.L402
 2082 0160 0B48     	 ldr r0,.L460+16
 2083 0162 2946     	 mov r1,r5
 2084 0164 FFF7FEFF 	 bl prvSearchForNameWithinSingleList
 2085 0168 0446     	 mov r4,r0
 2086 016a 20B9     	 cbnz r0,.L402
 2087 016c 2946     	 mov r1,r5
 2088 016e 0948     	 ldr r0,.L460+20
 2089 0170 FFF7FEFF 	 bl prvSearchForNameWithinSingleList
 2090 0174 0446     	 mov r4,r0
 2091              	.L402:
 2092 0176 FFF7FEFF 	 bl xTaskResumeAll
 2093 017a 2046     	 mov r0,r4
 2094 017c F8BD     	 pop {r3,r4,r5,r6,r7,pc}
 2095              	.L461:
 2096 017e 00BF     	 .align 2
 2097              	.L460:
 2098 0180 00000000 	 .word .LANCHOR16
 2099 0184 58000000 	 .word .LANCHOR8+88
 2100 0188 00000000 	 .word .LANCHOR5
 2101 018c 00000000 	 .word .LANCHOR4
 2102 0190 00000000 	 .word .LANCHOR3
 2103 0194 00000000 	 .word .LANCHOR12
 2105              	 .section .text.xTaskAbortDelay,"ax",%progbits
 2106              	 .align 2
 2107              	 .global xTaskAbortDelay
 2108              	 .thumb
 2109              	 .thumb_func
 2111              	xTaskAbortDelay:
 2112              	 
 2113              	 
 2114 0000 F8B5     	 push {r3,r4,r5,r6,r7,lr}
 2115 0002 E0B1     	 cbz r0,.L475
 2116 0004 2C4A     	 ldr r2,.L477
 2117 0006 2D4E     	 ldr r6,.L477+4
 2118 0008 1368     	 ldr r3,[r2]
 2119 000a 0133     	 adds r3,r3,#1
 2120 000c 1360     	 str r3,[r2]
 2121 000e 3368     	 ldr r3,[r6]
 2122 0010 9842     	 cmp r0,r3
 2123 0012 0446     	 mov r4,r0
 2124 0014 0FD0     	 beq .L467
 2125 0016 FFF7FEFF 	 bl vPortEnterCritical
 2126 001a 6569     	 ldr r5,[r4,#20]
 2127 001c FFF7FEFF 	 bl vPortExitCritical
 2128 0020 274B     	 ldr r3,.L477+8
 2129 0022 1B68     	 ldr r3,[r3]
 2130 0024 9D42     	 cmp r5,r3
 2131 0026 16D0     	 beq .L466
 2132 0028 264B     	 ldr r3,.L477+12
 2133 002a 1B68     	 ldr r3,[r3]
 2134 002c 9D42     	 cmp r5,r3
 2135 002e 12D0     	 beq .L466
 2136 0030 254B     	 ldr r3,.L477+16
 2137 0032 9D42     	 cmp r5,r3
 2138 0034 0CD0     	 beq .L476
 2139              	.L467:
 2140 0036 FFF7FEFF 	 bl xTaskResumeAll
 2141 003a 0020     	 movs r0,#0
 2142 003c F8BD     	 pop {r3,r4,r5,r6,r7,pc}
 2143              	.L475:
 2144              	
 2145 003e 4FF0FC03 	 mov r3,#252
 2146 0042 83F31188 	 msr basepri,r3
 2147 0046 BFF36F8F 	 isb 
 2148 004a BFF34F8F 	 dsb 
 2149              	
 2150              	
 2151              	 .thumb
 2152              	.L464:
 2153 004e FEE7     	 b .L464
 2154              	.L476:
 2155 0050 A36A     	 ldr r3,[r4,#40]
 2156 0052 002B     	 cmp r3,#0
 2157 0054 EFD0     	 beq .L467
 2158              	.L466:
 2159 0056 251D     	 adds r5,r4,#4
 2160 0058 2846     	 mov r0,r5
 2161 005a FFF7FEFF 	 bl uxListRemove
 2162 005e FFF7FEFF 	 bl vPortEnterCritical
 2163 0062 A36A     	 ldr r3,[r4,#40]
 2164 0064 33B1     	 cbz r3,.L469
 2165 0066 04F11800 	 add r0,r4,#24
 2166 006a FFF7FEFF 	 bl uxListRemove
 2167 006e 0123     	 movs r3,#1
 2168 0070 84F86D30 	 strb r3,[r4,#109]
 2169              	.L469:
 2170 0074 FFF7FEFF 	 bl vPortExitCritical
 2171 0078 DFF858E0 	 ldr lr,.L477+28
 2172 007c E36A     	 ldr r3,[r4,#44]
 2173 007e DEF80020 	 ldr r2,[lr]
 2174 0082 1248     	 ldr r0,.L477+20
 2175 0084 0127     	 movs r7,#1
 2176 0086 07FA03FC 	 lsl ip,r7,r3
 2177 008a 03EB8303 	 add r3,r3,r3,lsl#2
 2178 008e 4CEA0202 	 orr r2,ip,r2
 2179 0092 00EB8300 	 add r0,r0,r3,lsl#2
 2180 0096 2946     	 mov r1,r5
 2181 0098 CEF80020 	 str r2,[lr]
 2182 009c FFF7FEFF 	 bl vListInsertEnd
 2183 00a0 3368     	 ldr r3,[r6]
 2184 00a2 E26A     	 ldr r2,[r4,#44]
 2185 00a4 DB6A     	 ldr r3,[r3,#44]
 2186 00a6 9A42     	 cmp r2,r3
 2187 00a8 C5D9     	 bls .L467
 2188 00aa 094B     	 ldr r3,.L477+24
 2189 00ac 1F60     	 str r7,[r3]
 2190 00ae FFF7FEFF 	 bl xTaskResumeAll
 2191 00b2 0020     	 movs r0,#0
 2192 00b4 F8BD     	 pop {r3,r4,r5,r6,r7,pc}
 2193              	.L478:
 2194 00b6 00BF     	 .align 2
 2195              	.L477:
 2196 00b8 00000000 	 .word .LANCHOR16
 2197 00bc 00000000 	 .word .LANCHOR1
 2198 00c0 00000000 	 .word .LANCHOR5
 2199 00c4 00000000 	 .word .LANCHOR4
 2200 00c8 00000000 	 .word .LANCHOR3
 2201 00cc 00000000 	 .word .LANCHOR8
 2202 00d0 00000000 	 .word .LANCHOR17
 2203 00d4 00000000 	 .word .LANCHOR2
 2205              	 .section .text.prvListTasksWithinSingleList.part.6,"ax",%progbits
 2206              	 .align 2
 2207              	 .thumb
 2208              	 .thumb_func
 2210              	prvListTasksWithinSingleList.part.6:
 2211              	 
 2212              	 
 2213 0000 4B68     	 ldr r3,[r1,#4]
 2214 0002 5B68     	 ldr r3,[r3,#4]
 2215 0004 4B60     	 str r3,[r1,#4]
 2216 0006 2DE9F04F 	 push {r4,r5,r6,r7,r8,r9,r10,fp,lr}
 2217 000a 01F10809 	 add r9,r1,#8
 2218 000e 4B45     	 cmp r3,r9
 2219 0010 08BF     	 it eq
 2220 0012 5B68     	 ldreq r3,[r3,#4]
 2221 0014 D3F80CB0 	 ldr fp,[r3,#12]
 2222 0018 83B0     	 sub sp,sp,#12
 2223 001a 0F46     	 mov r7,r1
 2224 001c 9246     	 mov r10,r2
 2225 001e 00F12004 	 add r4,r0,#32
 2226 0022 4FF00008 	 mov r8,#0
 2227              	.L494:
 2228 0026 5B68     	 ldr r3,[r3,#4]
 2229 0028 7B60     	 str r3,[r7,#4]
 2230 002a 9945     	 cmp r9,r3
 2231 002c 04BF     	 itt eq
 2232 002e FB68     	 ldreq r3,[r7,#12]
 2233 0030 7B60     	 streq r3,[r7,#4]
 2234 0032 DE68     	 ldr r6,[r3,#12]
 2235 0034 002E     	 cmp r6,#0
 2236 0036 71D0     	 beq .L509
 2237 0038 3546     	 mov r5,r6
 2238              	.L482:
 2239 003a EB6A     	 ldr r3,[r5,#44]
 2240 003c 14F814EC 	 ldrb lr,[r4,#-20]
 2241 0040 44F8103C 	 str r3,[r4,#-16]
 2242 0044 05F13400 	 add r0,r5,#52
 2243 0048 44F81C0C 	 str r0,[r4,#-28]
 2244 004c 44F8205C 	 str r5,[r4,#-32]
 2245 0050 2B6B     	 ldr r3,[r5,#48]
 2246 0052 686C     	 ldr r0,[r5,#68]
 2247 0054 44F8180C 	 str r0,[r4,#-24]
 2248 0058 BEF1030F 	 cmp lr,#3
 2249 005c 44F8043C 	 str r3,[r4,#-4]
 2250 0060 1FD0     	 beq .L510
 2251              	.L483:
 2252 0062 EB6C     	 ldr r3,[r5,#76]
 2253 0064 44F80C3C 	 str r3,[r4,#-12]
 2254 0068 BAF1050F 	 cmp r10,#5
 2255 006c 4FF00003 	 mov r3,#0
 2256 0070 44F8083C 	 str r3,[r4,#-8]
 2257 0074 22D0     	 beq .L485
 2258 0076 2A6B     	 ldr r2,[r5,#48]
 2259 0078 04F814AC 	 strb r10,[r4,#-20]
 2260 007c 1378     	 ldrb r3,[r2]
 2261 007e A52B     	 cmp r3,#165
 2262 0080 41D1     	 bne .L502
 2263              	.L513:
 2264 0082 531C     	 adds r3,r2,#1
 2265              	.L492:
 2266 0084 9D1A     	 subs r5,r3,r2
 2267 0086 13F8010B 	 ldrb r0,[r3],#1
 2268 008a A528     	 cmp r0,#165
 2269 008c FAD0     	 beq .L492
 2270 008e C5F38F05 	 ubfx r5,r5,#2,#16
 2271 0092 B345     	 cmp fp,r6
 2272 0094 24F8245B 	 strh r5,[r4],#36
 2273 0098 08F10108 	 add r8,r8,#1
 2274 009c 3AD0     	 beq .L493
 2275              	.L514:
 2276 009e 7B68     	 ldr r3,[r7,#4]
 2277 00a0 C1E7     	 b .L494
 2278              	.L510:
 2279 00a2 294B     	 ldr r3,.L515
 2280 00a4 284A     	 ldr r2,.L515
 2281 00a6 1868     	 ldr r0,[r3]
 2282 00a8 AB6A     	 ldr r3,[r5,#40]
 2283 00aa 0130     	 adds r0,r0,#1
 2284 00ac 1060     	 str r0,[r2]
 2285 00ae 13B1     	 cbz r3,.L484
 2286 00b0 0223     	 movs r3,#2
 2287 00b2 04F8143C 	 strb r3,[r4,#-20]
 2288              	.L484:
 2289 00b6 FFF7FEFF 	 bl xTaskResumeAll
 2290 00ba D2E7     	 b .L483
 2291              	.L485:
 2292 00bc 002E     	 cmp r6,#0
 2293 00be 34D0     	 beq .L511
 2294 00c0 224A     	 ldr r2,.L515+4
 2295 00c2 1068     	 ldr r0,[r2]
 2296 00c4 8642     	 cmp r6,r0
 2297 00c6 18D0     	 beq .L489
 2298 00c8 FFF7FEFF 	 bl vPortEnterCritical
 2299 00cc 7369     	 ldr r3,[r6,#20]
 2300 00ce 0193     	 str r3,[sp,#4]
 2301 00d0 FFF7FEFF 	 bl vPortExitCritical
 2302 00d4 1E4B     	 ldr r3,.L515+8
 2303 00d6 1868     	 ldr r0,[r3]
 2304 00d8 019B     	 ldr r3,[sp,#4]
 2305 00da 8342     	 cmp r3,r0
 2306 00dc 21D0     	 beq .L498
 2307 00de 1D48     	 ldr r0,.L515+12
 2308 00e0 0068     	 ldr r0,[r0]
 2309 00e2 8342     	 cmp r3,r0
 2310 00e4 1DD0     	 beq .L498
 2311 00e6 1C48     	 ldr r0,.L515+16
 2312 00e8 8342     	 cmp r3,r0
 2313 00ea 27D0     	 beq .L512
 2314 00ec 1B48     	 ldr r0,.L515+20
 2315 00ee 8342     	 cmp r3,r0
 2316 00f0 19D0     	 beq .L500
 2317 00f2 002B     	 cmp r3,#0
 2318 00f4 0CBF     	 ite eq
 2319 00f6 0423     	 moveq r3,#4
 2320 00f8 0123     	 movne r3,#1
 2321              	.L489:
 2322 00fa 2A6B     	 ldr r2,[r5,#48]
 2323 00fc 04F8143C 	 strb r3,[r4,#-20]
 2324 0100 1378     	 ldrb r3,[r2]
 2325 0102 A52B     	 cmp r3,#165
 2326 0104 BDD0     	 beq .L513
 2327              	.L502:
 2328 0106 0025     	 movs r5,#0
 2329 0108 B345     	 cmp fp,r6
 2330 010a 24F8245B 	 strh r5,[r4],#36
 2331 010e 08F10108 	 add r8,r8,#1
 2332 0112 C4D1     	 bne .L514
 2333              	.L493:
 2334 0114 4046     	 mov r0,r8
 2335 0116 03B0     	 add sp,sp,#12
 2336              	 
 2337 0118 BDE8F08F 	 pop {r4,r5,r6,r7,r8,r9,r10,fp,pc}
 2338              	.L509:
 2339 011c 0B4B     	 ldr r3,.L515+4
 2340 011e 1D68     	 ldr r5,[r3]
 2341 0120 8BE7     	 b .L482
 2342              	.L498:
 2343 0122 0223     	 movs r3,#2
 2344 0124 E9E7     	 b .L489
 2345              	.L500:
 2346 0126 0423     	 movs r3,#4
 2347 0128 E7E7     	 b .L489
 2348              	.L511:
 2349              	
 2350 012a 4FF0FC03 	 mov r3,#252
 2351 012e 83F31188 	 msr basepri,r3
 2352 0132 BFF36F8F 	 isb 
 2353 0136 BFF34F8F 	 dsb 
 2354              	
 2355              	
 2356              	 .thumb
 2357              	.L488:
 2358 013a FEE7     	 b .L488
 2359              	.L512:
 2360 013c B36A     	 ldr r3,[r6,#40]
 2361 013e 002B     	 cmp r3,#0
 2362 0140 0CBF     	 ite eq
 2363 0142 0323     	 moveq r3,#3
 2364 0144 0223     	 movne r3,#2
 2365 0146 D8E7     	 b .L489
 2366              	.L516:
 2367              	 .align 2
 2368              	.L515:
 2369 0148 00000000 	 .word .LANCHOR16
 2370 014c 00000000 	 .word .LANCHOR1
 2371 0150 00000000 	 .word .LANCHOR5
 2372 0154 00000000 	 .word .LANCHOR4
 2373 0158 00000000 	 .word .LANCHOR3
 2374 015c 00000000 	 .word .LANCHOR12
 2376              	 .section .text.uxTaskGetSystemState,"ax",%progbits
 2377              	 .align 2
 2378              	 .global uxTaskGetSystemState
 2379              	 .thumb
 2380              	 .thumb_func
 2382              	uxTaskGetSystemState:
 2383              	 
 2384              	 
 2385 0000 2DE9F84F 	 push {r3,r4,r5,r6,r7,r8,r9,r10,fp,lr}
 2386 0004 534C     	 ldr r4,.L551
 2387 0006 544D     	 ldr r5,.L551+4
 2388 0008 2368     	 ldr r3,[r4]
 2389 000a 0133     	 adds r3,r3,#1
 2390 000c 2360     	 str r3,[r4]
 2391 000e 2B68     	 ldr r3,[r5]
 2392 0010 8B42     	 cmp r3,r1
 2393 0012 40D8     	 bhi .L528
 2394 0014 514E     	 ldr r6,.L551+8
 2395 0016 346D     	 ldr r4,[r6,#80]
 2396 0018 9246     	 mov r10,r2
 2397 001a 8346     	 mov fp,r0
 2398 001c 002C     	 cmp r4,#0
 2399 001e 62D1     	 bne .L542
 2400 0020 F06B     	 ldr r0,[r6,#60]
 2401 0022 0028     	 cmp r0,#0
 2402 0024 68D1     	 bne .L543
 2403              	.L520:
 2404 0026 B76A     	 ldr r7,[r6,#40]
 2405 0028 2518     	 adds r5,r4,r0
 2406 002a 002F     	 cmp r7,#0
 2407 002c 39D1     	 bne .L544
 2408              	.L531:
 2409 002e 3846     	 mov r0,r7
 2410 0030 7769     	 ldr r7,[r6,#20]
 2411 0032 4419     	 adds r4,r0,r5
 2412 0034 002F     	 cmp r7,#0
 2413 0036 40D1     	 bne .L545
 2414              	.L532:
 2415 0038 3846     	 mov r0,r7
 2416 003a 3768     	 ldr r7,[r6]
 2417 003c 00EB0409 	 add r9,r0,r4
 2418 0040 002F     	 cmp r7,#0
 2419 0042 47D1     	 bne .L546
 2420              	.L533:
 2421 0044 3846     	 mov r0,r7
 2422              	.L523:
 2423 0046 464B     	 ldr r3,.L551+12
 2424 0048 1968     	 ldr r1,[r3]
 2425 004a 0E68     	 ldr r6,[r1]
 2426 004c 00EB0908 	 add r8,r0,r9
 2427 0050 002E     	 cmp r6,#0
 2428 0052 76D1     	 bne .L547
 2429 0054 3046     	 mov r0,r6
 2430              	.L524:
 2431 0056 434B     	 ldr r3,.L551+16
 2432 0058 1968     	 ldr r1,[r3]
 2433 005a 0D68     	 ldr r5,[r1]
 2434 005c 00EB0807 	 add r7,r0,r8
 2435 0060 002D     	 cmp r5,#0
 2436 0062 66D1     	 bne .L548
 2437 0064 2846     	 mov r0,r5
 2438              	.L525:
 2439 0066 4049     	 ldr r1,.L551+20
 2440 0068 0C68     	 ldr r4,[r1]
 2441 006a C619     	 adds r6,r0,r7
 2442 006c 002C     	 cmp r4,#0
 2443 006e 58D1     	 bne .L549
 2444 0070 2046     	 mov r0,r4
 2445              	.L526:
 2446 0072 3E49     	 ldr r1,.L551+24
 2447 0074 0C68     	 ldr r4,[r1]
 2448 0076 8519     	 adds r5,r0,r6
 2449 0078 002C     	 cmp r4,#0
 2450 007a 4AD1     	 bne .L550
 2451 007c 2046     	 mov r0,r4
 2452              	.L527:
 2453 007e 4419     	 adds r4,r0,r5
 2454 0080 BAF1000F 	 cmp r10,#0
 2455 0084 02D0     	 beq .L518
 2456 0086 0023     	 movs r3,#0
 2457 0088 CAF80030 	 str r3,[r10]
 2458              	.L518:
 2459 008c FFF7FEFF 	 bl xTaskResumeAll
 2460 0090 2046     	 mov r0,r4
 2461 0092 BDE8F88F 	 pop {r3,r4,r5,r6,r7,r8,r9,r10,fp,pc}
 2462              	.L528:
 2463 0096 0024     	 movs r4,#0
 2464 0098 FFF7FEFF 	 bl xTaskResumeAll
 2465 009c 2046     	 mov r0,r4
 2466 009e BDE8F88F 	 pop {r3,r4,r5,r6,r7,r8,r9,r10,fp,pc}
 2467              	.L544:
 2468 00a2 05EBC500 	 add r0,r5,r5,lsl#3
 2469 00a6 0BEB8000 	 add r0,fp,r0,lsl#2
 2470 00aa 3149     	 ldr r1,.L551+28
 2471 00ac 0122     	 movs r2,#1
 2472 00ae FFF7FEFF 	 bl prvListTasksWithinSingleList.part.6
 2473 00b2 7769     	 ldr r7,[r6,#20]
 2474 00b4 4419     	 adds r4,r0,r5
 2475 00b6 002F     	 cmp r7,#0
 2476 00b8 BED0     	 beq .L532
 2477              	.L545:
 2478 00ba 04EBC400 	 add r0,r4,r4,lsl#3
 2479 00be 0BEB8000 	 add r0,fp,r0,lsl#2
 2480 00c2 2C49     	 ldr r1,.L551+32
 2481 00c4 0122     	 movs r2,#1
 2482 00c6 FFF7FEFF 	 bl prvListTasksWithinSingleList.part.6
 2483 00ca 3768     	 ldr r7,[r6]
 2484 00cc 00EB0409 	 add r9,r0,r4
 2485 00d0 002F     	 cmp r7,#0
 2486 00d2 B7D0     	 beq .L533
 2487              	.L546:
 2488 00d4 09EBC900 	 add r0,r9,r9,lsl#3
 2489 00d8 0BEB8000 	 add r0,fp,r0,lsl#2
 2490 00dc 1F49     	 ldr r1,.L551+8
 2491 00de 0122     	 movs r2,#1
 2492 00e0 FFF7FEFF 	 bl prvListTasksWithinSingleList.part.6
 2493 00e4 AFE7     	 b .L523
 2494              	.L542:
 2495 00e6 06F15001 	 add r1,r6,#80
 2496 00ea 0122     	 movs r2,#1
 2497 00ec FFF7FEFF 	 bl prvListTasksWithinSingleList.part.6
 2498 00f0 0446     	 mov r4,r0
 2499 00f2 F06B     	 ldr r0,[r6,#60]
 2500 00f4 0028     	 cmp r0,#0
 2501 00f6 96D0     	 beq .L520
 2502              	.L543:
 2503 00f8 04EBC400 	 add r0,r4,r4,lsl#3
 2504 00fc 0BEB8000 	 add r0,fp,r0,lsl#2
 2505 0100 1D49     	 ldr r1,.L551+36
 2506 0102 0122     	 movs r2,#1
 2507 0104 FFF7FEFF 	 bl prvListTasksWithinSingleList.part.6
 2508 0108 B76A     	 ldr r7,[r6,#40]
 2509 010a 2518     	 adds r5,r4,r0
 2510 010c 002F     	 cmp r7,#0
 2511 010e 8ED0     	 beq .L531
 2512 0110 C7E7     	 b .L544
 2513              	.L550:
 2514 0112 05EBC500 	 add r0,r5,r5,lsl#3
 2515 0116 0BEB8000 	 add r0,fp,r0,lsl#2
 2516 011a 0322     	 movs r2,#3
 2517 011c FFF7FEFF 	 bl prvListTasksWithinSingleList.part.6
 2518 0120 ADE7     	 b .L527
 2519              	.L549:
 2520 0122 06EBC600 	 add r0,r6,r6,lsl#3
 2521 0126 0BEB8000 	 add r0,fp,r0,lsl#2
 2522 012a 0422     	 movs r2,#4
 2523 012c FFF7FEFF 	 bl prvListTasksWithinSingleList.part.6
 2524 0130 9FE7     	 b .L526
 2525              	.L548:
 2526 0132 07EBC700 	 add r0,r7,r7,lsl#3
 2527 0136 0BEB8000 	 add r0,fp,r0,lsl#2
 2528 013a 0222     	 movs r2,#2
 2529 013c FFF7FEFF 	 bl prvListTasksWithinSingleList.part.6
 2530 0140 91E7     	 b .L525
 2531              	.L547:
 2532 0142 08EBC800 	 add r0,r8,r8,lsl#3
 2533 0146 0BEB8000 	 add r0,fp,r0,lsl#2
 2534 014a 0222     	 movs r2,#2
 2535 014c FFF7FEFF 	 bl prvListTasksWithinSingleList.part.6
 2536 0150 81E7     	 b .L524
 2537              	.L552:
 2538 0152 00BF     	 .align 2
 2539              	.L551:
 2540 0154 00000000 	 .word .LANCHOR16
 2541 0158 00000000 	 .word .LANCHOR7
 2542 015c 00000000 	 .word .LANCHOR8
 2543 0160 00000000 	 .word .LANCHOR5
 2544 0164 00000000 	 .word .LANCHOR4
 2545 0168 00000000 	 .word .LANCHOR12
 2546 016c 00000000 	 .word .LANCHOR3
 2547 0170 28000000 	 .word .LANCHOR8+40
 2548 0174 14000000 	 .word .LANCHOR8+20
 2549 0178 3C000000 	 .word .LANCHOR8+60
 2551              	 .section .text.vTaskSwitchContext,"ax",%progbits
 2552              	 .align 2
 2553              	 .global vTaskSwitchContext
 2554              	 .thumb
 2555              	 .thumb_func
 2557              	vTaskSwitchContext:
 2558              	 
 2559              	 
 2560              	 
 2561 0000 164B     	 ldr r3,.L560
 2562 0002 1B68     	 ldr r3,[r3]
 2563 0004 33BB     	 cbnz r3,.L559
 2564 0006 1649     	 ldr r1,.L560+4
 2565 0008 164A     	 ldr r2,.L560+8
 2566 000a 0B60     	 str r3,[r1]
 2567 000c 1368     	 ldr r3,[r2]
 2568              	
 2569 000e B3FA83F3 	 clz r3,r3
 2570              	
 2571              	 .thumb
 2572 0012 DBB2     	 uxtb r3,r3
 2573 0014 C3F11F03 	 rsb r3,r3,#31
 2574 0018 03EB8303 	 add r3,r3,r3,lsl#2
 2575 001c 9B00     	 lsls r3,r3,#2
 2576 001e 1248     	 ldr r0,.L560+12
 2577 0020 C258     	 ldr r2,[r0,r3]
 2578 0022 C118     	 adds r1,r0,r3
 2579 0024 42B9     	 cbnz r2,.L556
 2580              	
 2581 0026 4FF0FC03 	 mov r3,#252
 2582 002a 83F31188 	 msr basepri,r3
 2583 002e BFF36F8F 	 isb 
 2584 0032 BFF34F8F 	 dsb 
 2585              	
 2586              	
 2587              	 .thumb
 2588              	.L557:
 2589 0036 FEE7     	 b .L557
 2590              	.L556:
 2591 0038 4A68     	 ldr r2,[r1,#4]
 2592 003a 0833     	 adds r3,r3,#8
 2593 003c 5268     	 ldr r2,[r2,#4]
 2594 003e 4A60     	 str r2,[r1,#4]
 2595 0040 0344     	 add r3,r3,r0
 2596 0042 9A42     	 cmp r2,r3
 2597 0044 08BF     	 it eq
 2598 0046 5268     	 ldreq r2,[r2,#4]
 2599 0048 084B     	 ldr r3,.L560+16
 2600 004a 08BF     	 it eq
 2601 004c 4A60     	 streq r2,[r1,#4]
 2602 004e D268     	 ldr r2,[r2,#12]
 2603 0050 1A60     	 str r2,[r3]
 2604 0052 7047     	 bx lr
 2605              	.L559:
 2606 0054 024B     	 ldr r3,.L560+4
 2607 0056 0122     	 movs r2,#1
 2608 0058 1A60     	 str r2,[r3]
 2609 005a 7047     	 bx lr
 2610              	.L561:
 2611              	 .align 2
 2612              	.L560:
 2613 005c 00000000 	 .word .LANCHOR16
 2614 0060 00000000 	 .word .LANCHOR17
 2615 0064 00000000 	 .word .LANCHOR2
 2616 0068 00000000 	 .word .LANCHOR8
 2617 006c 00000000 	 .word .LANCHOR1
 2619              	 .section .text.vTaskPlaceOnEventList,"ax",%progbits
 2620              	 .align 2
 2621              	 .global vTaskPlaceOnEventList
 2622              	 .thumb
 2623              	 .thumb_func
 2625              	vTaskPlaceOnEventList:
 2626              	 
 2627              	 
 2628 0000 0028     	 cmp r0,#0
 2629 0002 2ED0     	 beq .L570
 2630 0004 70B5     	 push {r4,r5,r6,lr}
 2631 0006 234D     	 ldr r5,.L573
 2632 0008 0C46     	 mov r4,r1
 2633 000a 2968     	 ldr r1,[r5]
 2634 000c 1831     	 adds r1,r1,#24
 2635 000e FFF7FEFF 	 bl vListInsert
 2636 0012 214B     	 ldr r3,.L573+4
 2637 0014 1E68     	 ldr r6,[r3]
 2638 0016 2B68     	 ldr r3,[r5]
 2639 0018 2868     	 ldr r0,[r5]
 2640 001a 0022     	 movs r2,#0
 2641 001c 83F86D20 	 strb r2,[r3,#109]
 2642 0020 0430     	 adds r0,r0,#4
 2643 0022 FFF7FEFF 	 bl uxListRemove
 2644 0026 40B9     	 cbnz r0,.L565
 2645 0028 2B68     	 ldr r3,[r5]
 2646 002a 1C49     	 ldr r1,.L573+8
 2647 002c D86A     	 ldr r0,[r3,#44]
 2648 002e 0B68     	 ldr r3,[r1]
 2649 0030 0122     	 movs r2,#1
 2650 0032 8240     	 lsls r2,r2,r0
 2651 0034 23EA0203 	 bic r3,r3,r2
 2652 0038 0B60     	 str r3,[r1]
 2653              	.L565:
 2654 003a 631C     	 adds r3,r4,#1
 2655 003c 1AD0     	 beq .L571
 2656 003e 3444     	 add r4,r4,r6
 2657 0040 2A68     	 ldr r2,[r5]
 2658 0042 144B     	 ldr r3,.L573
 2659 0044 5460     	 str r4,[r2,#4]
 2660 0046 A642     	 cmp r6,r4
 2661 0048 1BD8     	 bhi .L572
 2662 004a 154A     	 ldr r2,.L573+12
 2663 004c 1068     	 ldr r0,[r2]
 2664 004e 1968     	 ldr r1,[r3]
 2665 0050 0431     	 adds r1,r1,#4
 2666 0052 FFF7FEFF 	 bl vListInsert
 2667 0056 134B     	 ldr r3,.L573+16
 2668 0058 1A68     	 ldr r2,[r3]
 2669 005a 9442     	 cmp r4,r2
 2670 005c 38BF     	 it cc
 2671 005e 1C60     	 strcc r4,[r3]
 2672 0060 70BD     	 pop {r4,r5,r6,pc}
 2673              	.L570:
 2674              	
 2675 0062 4FF0FC03 	 mov r3,#252
 2676 0066 83F31188 	 msr basepri,r3
 2677 006a BFF36F8F 	 isb 
 2678 006e BFF34F8F 	 dsb 
 2679              	
 2680              	
 2681              	 .thumb
 2682              	.L564:
 2683 0072 FEE7     	 b .L564
 2684              	.L571:
 2685 0074 2968     	 ldr r1,[r5]
 2686 0076 0C48     	 ldr r0,.L573+20
 2687 0078 0431     	 adds r1,r1,#4
 2688 007a BDE87040 	 pop {r4,r5,r6,lr}
 2689 007e FFF7FEBF 	 b vListInsertEnd
 2690              	.L572:
 2691 0082 0A4A     	 ldr r2,.L573+24
 2692 0084 1068     	 ldr r0,[r2]
 2693 0086 1968     	 ldr r1,[r3]
 2694 0088 BDE87040 	 pop {r4,r5,r6,lr}
 2695 008c 0431     	 adds r1,r1,#4
 2696 008e FFF7FEBF 	 b vListInsert
 2697              	.L574:
 2698 0092 00BF     	 .align 2
 2699              	.L573:
 2700 0094 00000000 	 .word .LANCHOR1
 2701 0098 00000000 	 .word .LANCHOR0
 2702 009c 00000000 	 .word .LANCHOR2
 2703 00a0 00000000 	 .word .LANCHOR5
 2704 00a4 00000000 	 .word .LANCHOR6
 2705 00a8 00000000 	 .word .LANCHOR3
 2706 00ac 00000000 	 .word .LANCHOR4
 2708              	 .section .text.vTaskPlaceOnUnorderedEventList,"ax",%progbits
 2709              	 .align 2
 2710              	 .global vTaskPlaceOnUnorderedEventList
 2711              	 .thumb
 2712              	 .thumb_func
 2714              	vTaskPlaceOnUnorderedEventList:
 2715              	 
 2716              	 
 2717 0000 38B5     	 push {r3,r4,r5,lr}
 2718 0002 E0B1     	 cbz r0,.L581
 2719 0004 124B     	 ldr r3,.L582
 2720 0006 1B68     	 ldr r3,[r3]
 2721 0008 43B9     	 cbnz r3,.L578
 2722              	
 2723 000a 4FF0FC03 	 mov r3,#252
 2724 000e 83F31188 	 msr basepri,r3
 2725 0012 BFF36F8F 	 isb 
 2726 0016 BFF34F8F 	 dsb 
 2727              	
 2728              	
 2729              	 .thumb
 2730              	.L579:
 2731 001a FEE7     	 b .L579
 2732              	.L578:
 2733 001c 1446     	 mov r4,r2
 2734 001e 0D4A     	 ldr r2,.L582+4
 2735 0020 0B46     	 mov r3,r1
 2736 0022 1568     	 ldr r5,[r2]
 2737 0024 1168     	 ldr r1,[r2]
 2738 0026 43F00043 	 orr r3,r3,#-2147483648
 2739 002a AB61     	 str r3,[r5,#24]
 2740 002c 1831     	 adds r1,r1,#24
 2741 002e FFF7FEFF 	 bl vListInsertEnd
 2742 0032 2046     	 mov r0,r4
 2743 0034 0121     	 movs r1,#1
 2744 0036 BDE83840 	 pop {r3,r4,r5,lr}
 2745 003a FFF7FEBF 	 b prvAddCurrentTaskToDelayedList
 2746              	.L581:
 2747              	
 2748 003e 4FF0FC03 	 mov r3,#252
 2749 0042 83F31188 	 msr basepri,r3
 2750 0046 BFF36F8F 	 isb 
 2751 004a BFF34F8F 	 dsb 
 2752              	
 2753              	
 2754              	 .thumb
 2755              	.L577:
 2756 004e FEE7     	 b .L577
 2757              	.L583:
 2758              	 .align 2
 2759              	.L582:
 2760 0050 00000000 	 .word .LANCHOR16
 2761 0054 00000000 	 .word .LANCHOR1
 2763              	 .section .text.vTaskPlaceOnEventListRestricted,"ax",%progbits
 2764              	 .align 2
 2765              	 .global vTaskPlaceOnEventListRestricted
 2766              	 .thumb
 2767              	 .thumb_func
 2769              	vTaskPlaceOnEventListRestricted:
 2770              	 
 2771              	 
 2772 0000 F8B5     	 push {r3,r4,r5,r6,r7,lr}
 2773 0002 0028     	 cmp r0,#0
 2774 0004 33D0     	 beq .L598
 2775 0006 274D     	 ldr r5,.L601
 2776 0008 0C46     	 mov r4,r1
 2777 000a 2968     	 ldr r1,[r5]
 2778 000c 1831     	 adds r1,r1,#24
 2779 000e 1746     	 mov r7,r2
 2780 0010 FFF7FEFF 	 bl vListInsertEnd
 2781 0014 244B     	 ldr r3,.L601+4
 2782 0016 1E68     	 ldr r6,[r3]
 2783 0018 2B68     	 ldr r3,[r5]
 2784 001a 2868     	 ldr r0,[r5]
 2785 001c 0022     	 movs r2,#0
 2786 001e 9742     	 cmp r7,r2
 2787 0020 83F86D20 	 strb r2,[r3,#109]
 2788 0024 00F10400 	 add r0,r0,#4
 2789 0028 18BF     	 it ne
 2790 002a 4FF0FF34 	 movne r4,#-1
 2791 002e FFF7FEFF 	 bl uxListRemove
 2792 0032 40B9     	 cbnz r0,.L588
 2793 0034 2B68     	 ldr r3,[r5]
 2794 0036 1D49     	 ldr r1,.L601+8
 2795 0038 D86A     	 ldr r0,[r3,#44]
 2796 003a 0B68     	 ldr r3,[r1]
 2797 003c 0122     	 movs r2,#1
 2798 003e 8240     	 lsls r2,r2,r0
 2799 0040 23EA0203 	 bic r3,r3,r2
 2800 0044 0B60     	 str r3,[r1]
 2801              	.L588:
 2802 0046 631C     	 adds r3,r4,#1
 2803 0048 22D0     	 beq .L599
 2804              	.L589:
 2805 004a 3444     	 add r4,r4,r6
 2806 004c 2A68     	 ldr r2,[r5]
 2807 004e 154B     	 ldr r3,.L601
 2808 0050 5460     	 str r4,[r2,#4]
 2809 0052 A642     	 cmp r6,r4
 2810 0054 14D8     	 bhi .L600
 2811 0056 164A     	 ldr r2,.L601+12
 2812 0058 1068     	 ldr r0,[r2]
 2813 005a 1968     	 ldr r1,[r3]
 2814 005c 0431     	 adds r1,r1,#4
 2815 005e FFF7FEFF 	 bl vListInsert
 2816 0062 144B     	 ldr r3,.L601+16
 2817 0064 1A68     	 ldr r2,[r3]
 2818 0066 9442     	 cmp r4,r2
 2819 0068 38BF     	 it cc
 2820 006a 1C60     	 strcc r4,[r3]
 2821 006c F8BD     	 pop {r3,r4,r5,r6,r7,pc}
 2822              	.L598:
 2823              	
 2824 006e 4FF0FC03 	 mov r3,#252
 2825 0072 83F31188 	 msr basepri,r3
 2826 0076 BFF36F8F 	 isb 
 2827 007a BFF34F8F 	 dsb 
 2828              	
 2829              	
 2830              	 .thumb
 2831              	.L586:
 2832 007e FEE7     	 b .L586
 2833              	.L600:
 2834 0080 0D4A     	 ldr r2,.L601+20
 2835 0082 1068     	 ldr r0,[r2]
 2836 0084 1968     	 ldr r1,[r3]
 2837 0086 BDE8F840 	 pop {r3,r4,r5,r6,r7,lr}
 2838 008a 0431     	 adds r1,r1,#4
 2839 008c FFF7FEBF 	 b vListInsert
 2840              	.L599:
 2841 0090 002F     	 cmp r7,#0
 2842 0092 DAD0     	 beq .L589
 2843 0094 2968     	 ldr r1,[r5]
 2844 0096 0948     	 ldr r0,.L601+24
 2845 0098 0431     	 adds r1,r1,#4
 2846 009a BDE8F840 	 pop {r3,r4,r5,r6,r7,lr}
 2847 009e FFF7FEBF 	 b vListInsertEnd
 2848              	.L602:
 2849 00a2 00BF     	 .align 2
 2850              	.L601:
 2851 00a4 00000000 	 .word .LANCHOR1
 2852 00a8 00000000 	 .word .LANCHOR0
 2853 00ac 00000000 	 .word .LANCHOR2
 2854 00b0 00000000 	 .word .LANCHOR5
 2855 00b4 00000000 	 .word .LANCHOR6
 2856 00b8 00000000 	 .word .LANCHOR4
 2857 00bc 00000000 	 .word .LANCHOR3
 2859              	 .section .text.xTaskRemoveFromEventList,"ax",%progbits
 2860              	 .align 2
 2861              	 .global xTaskRemoveFromEventList
 2862              	 .thumb
 2863              	 .thumb_func
 2865              	xTaskRemoveFromEventList:
 2866              	 
 2867              	 
 2868 0000 F8B5     	 push {r3,r4,r5,r6,r7,lr}
 2869 0002 C368     	 ldr r3,[r0,#12]
 2870 0004 DC68     	 ldr r4,[r3,#12]
 2871 0006 2CB3     	 cbz r4,.L611
 2872 0008 04F11805 	 add r5,r4,#24
 2873 000c 2846     	 mov r0,r5
 2874 000e FFF7FEFF 	 bl uxListRemove
 2875 0012 174B     	 ldr r3,.L612
 2876 0014 1B68     	 ldr r3,[r3]
 2877 0016 33BB     	 cbnz r3,.L606
 2878 0018 271D     	 adds r7,r4,#4
 2879 001a 164E     	 ldr r6,.L612+4
 2880 001c 3846     	 mov r0,r7
 2881 001e FFF7FEFF 	 bl uxListRemove
 2882 0022 E36A     	 ldr r3,[r4,#44]
 2883 0024 3268     	 ldr r2,[r6]
 2884 0026 1448     	 ldr r0,.L612+8
 2885 0028 0125     	 movs r5,#1
 2886 002a 9D40     	 lsls r5,r5,r3
 2887 002c 03EB8303 	 add r3,r3,r3,lsl#2
 2888 0030 2A43     	 orrs r2,r2,r5
 2889 0032 3946     	 mov r1,r7
 2890 0034 00EB8300 	 add r0,r0,r3,lsl#2
 2891 0038 3260     	 str r2,[r6]
 2892 003a FFF7FEFF 	 bl vListInsertEnd
 2893              	.L607:
 2894 003e 0F4B     	 ldr r3,.L612+12
 2895 0040 E26A     	 ldr r2,[r4,#44]
 2896 0042 1B68     	 ldr r3,[r3]
 2897 0044 DB6A     	 ldr r3,[r3,#44]
 2898 0046 9A42     	 cmp r2,r3
 2899 0048 83BF     	 ittte hi
 2900 004a 0D4B     	 ldrhi r3,.L612+16
 2901 004c 0120     	 movhi r0,#1
 2902 004e 1860     	 strhi r0,[r3]
 2903 0050 0020     	 movls r0,#0
 2904 0052 F8BD     	 pop {r3,r4,r5,r6,r7,pc}
 2905              	.L611:
 2906              	
 2907 0054 4FF0FC03 	 mov r3,#252
 2908 0058 83F31188 	 msr basepri,r3
 2909 005c BFF36F8F 	 isb 
 2910 0060 BFF34F8F 	 dsb 
 2911              	
 2912              	
 2913              	 .thumb
 2914              	.L605:
 2915 0064 FEE7     	 b .L605
 2916              	.L606:
 2917 0066 2946     	 mov r1,r5
 2918 0068 0648     	 ldr r0,.L612+20
 2919 006a FFF7FEFF 	 bl vListInsertEnd
 2920 006e E6E7     	 b .L607
 2921              	.L613:
 2922              	 .align 2
 2923              	.L612:
 2924 0070 00000000 	 .word .LANCHOR16
 2925 0074 00000000 	 .word .LANCHOR2
 2926 0078 00000000 	 .word .LANCHOR8
 2927 007c 00000000 	 .word .LANCHOR1
 2928 0080 00000000 	 .word .LANCHOR17
 2929 0084 00000000 	 .word .LANCHOR11
 2931              	 .section .text.xTaskRemoveFromUnorderedEventList,"ax",%progbits
 2932              	 .align 2
 2933              	 .global xTaskRemoveFromUnorderedEventList
 2934              	 .thumb
 2935              	 .thumb_func
 2937              	xTaskRemoveFromUnorderedEventList:
 2938              	 
 2939              	 
 2940 0000 F8B5     	 push {r3,r4,r5,r6,r7,lr}
 2941 0002 1E4B     	 ldr r3,.L623
 2942 0004 1B68     	 ldr r3,[r3]
 2943 0006 43B9     	 cbnz r3,.L615
 2944              	
 2945 0008 4FF0FC03 	 mov r3,#252
 2946 000c 83F31188 	 msr basepri,r3
 2947 0010 BFF36F8F 	 isb 
 2948 0014 BFF34F8F 	 dsb 
 2949              	
 2950              	
 2951              	 .thumb
 2952              	.L616:
 2953 0018 FEE7     	 b .L616
 2954              	.L615:
 2955 001a C468     	 ldr r4,[r0,#12]
 2956 001c 41F00043 	 orr r3,r1,#-2147483648
 2957 0020 0360     	 str r3,[r0]
 2958 0022 0CB3     	 cbz r4,.L622
 2959 0024 271D     	 adds r7,r4,#4
 2960 0026 FFF7FEFF 	 bl uxListRemove
 2961 002a 154E     	 ldr r6,.L623+4
 2962 002c 3846     	 mov r0,r7
 2963 002e FFF7FEFF 	 bl uxListRemove
 2964 0032 E36A     	 ldr r3,[r4,#44]
 2965 0034 3268     	 ldr r2,[r6]
 2966 0036 1348     	 ldr r0,.L623+8
 2967 0038 0125     	 movs r5,#1
 2968 003a 05FA03FE 	 lsl lr,r5,r3
 2969 003e 03EB8303 	 add r3,r3,r3,lsl#2
 2970 0042 00EB8300 	 add r0,r0,r3,lsl#2
 2971 0046 4EEA0202 	 orr r2,lr,r2
 2972 004a 3946     	 mov r1,r7
 2973 004c 3260     	 str r2,[r6]
 2974 004e FFF7FEFF 	 bl vListInsertEnd
 2975 0052 0D4B     	 ldr r3,.L623+12
 2976 0054 E26A     	 ldr r2,[r4,#44]
 2977 0056 1B68     	 ldr r3,[r3]
 2978 0058 DB6A     	 ldr r3,[r3,#44]
 2979 005a 9A42     	 cmp r2,r3
 2980 005c 83BF     	 ittte hi
 2981 005e 0B4B     	 ldrhi r3,.L623+16
 2982 0060 2846     	 movhi r0,r5
 2983 0062 1D60     	 strhi r5,[r3]
 2984 0064 0020     	 movls r0,#0
 2985 0066 F8BD     	 pop {r3,r4,r5,r6,r7,pc}
 2986              	.L622:
 2987              	
 2988 0068 4FF0FC03 	 mov r3,#252
 2989 006c 83F31188 	 msr basepri,r3
 2990 0070 BFF36F8F 	 isb 
 2991 0074 BFF34F8F 	 dsb 
 2992              	
 2993              	
 2994              	 .thumb
 2995              	.L618:
 2996 0078 FEE7     	 b .L618
 2997              	.L624:
 2998 007a 00BF     	 .align 2
 2999              	.L623:
 3000 007c 00000000 	 .word .LANCHOR16
 3001 0080 00000000 	 .word .LANCHOR2
 3002 0084 00000000 	 .word .LANCHOR8
 3003 0088 00000000 	 .word .LANCHOR1
 3004 008c 00000000 	 .word .LANCHOR17
 3006              	 .section .text.vTaskSetTimeOutState,"ax",%progbits
 3007              	 .align 2
 3008              	 .global vTaskSetTimeOutState
 3009              	 .thumb
 3010              	 .thumb_func
 3012              	vTaskSetTimeOutState:
 3013              	 
 3014              	 
 3015              	 
 3016 0000 30B1     	 cbz r0,.L628
 3017 0002 084A     	 ldr r2,.L629
 3018 0004 084B     	 ldr r3,.L629+4
 3019 0006 1268     	 ldr r2,[r2]
 3020 0008 1B68     	 ldr r3,[r3]
 3021 000a 80E80C00 	 stmia r0,{r2,r3}
 3022 000e 7047     	 bx lr
 3023              	.L628:
 3024              	
 3025 0010 4FF0FC03 	 mov r3,#252
 3026 0014 83F31188 	 msr basepri,r3
 3027 0018 BFF36F8F 	 isb 
 3028 001c BFF34F8F 	 dsb 
 3029              	
 3030              	
 3031              	 .thumb
 3032              	.L627:
 3033 0020 FEE7     	 b .L627
 3034              	.L630:
 3035 0022 00BF     	 .align 2
 3036              	.L629:
 3037 0024 00000000 	 .word .LANCHOR19
 3038 0028 00000000 	 .word .LANCHOR0
 3040              	 .section .text.xTaskCheckForTimeOut,"ax",%progbits
 3041              	 .align 2
 3042              	 .global xTaskCheckForTimeOut
 3043              	 .thumb
 3044              	 .thumb_func
 3046              	xTaskCheckForTimeOut:
 3047              	 
 3048              	 
 3049 0000 F8B5     	 push {r3,r4,r5,r6,r7,lr}
 3050 0002 0028     	 cmp r0,#0
 3051 0004 37D0     	 beq .L645
 3052 0006 69B3     	 cbz r1,.L646
 3053 0008 0E46     	 mov r6,r1
 3054 000a 0546     	 mov r5,r0
 3055 000c 214F     	 ldr r7,.L648
 3056 000e FFF7FEFF 	 bl vPortEnterCritical
 3057 0012 214B     	 ldr r3,.L648+4
 3058 0014 3968     	 ldr r1,[r7]
 3059 0016 1A68     	 ldr r2,[r3]
 3060 0018 92F86D40 	 ldrb r4,[r2,#109]
 3061 001c CCB9     	 cbnz r4,.L647
 3062 001e 3268     	 ldr r2,[r6]
 3063 0020 531C     	 adds r3,r2,#1
 3064 0022 12D0     	 beq .L637
 3065 0024 1D48     	 ldr r0,.L648+8
 3066 0026 2C68     	 ldr r4,[r5]
 3067 0028 0368     	 ldr r3,[r0]
 3068 002a 9C42     	 cmp r4,r3
 3069 002c 6B68     	 ldr r3,[r5,#4]
 3070 002e 01D0     	 beq .L639
 3071 0030 9942     	 cmp r1,r3
 3072 0032 29D2     	 bcs .L644
 3073              	.L639:
 3074 0034 CC1A     	 subs r4,r1,r3
 3075 0036 A242     	 cmp r2,r4
 3076 0038 26D9     	 bls .L644
 3077 003a 521A     	 subs r2,r2,r1
 3078 003c 1344     	 add r3,r3,r2
 3079 003e 0168     	 ldr r1,[r0]
 3080 0040 3A68     	 ldr r2,[r7]
 3081 0042 3360     	 str r3,[r6]
 3082 0044 85E80600 	 stmia r5,{r1,r2}
 3083 0048 0024     	 movs r4,#0
 3084              	.L637:
 3085 004a FFF7FEFF 	 bl vPortExitCritical
 3086 004e 2046     	 mov r0,r4
 3087 0050 F8BD     	 pop {r3,r4,r5,r6,r7,pc}
 3088              	.L647:
 3089 0052 1B68     	 ldr r3,[r3]
 3090 0054 0022     	 movs r2,#0
 3091 0056 83F86D20 	 strb r2,[r3,#109]
 3092 005a 0124     	 movs r4,#1
 3093 005c FFF7FEFF 	 bl vPortExitCritical
 3094 0060 2046     	 mov r0,r4
 3095 0062 F8BD     	 pop {r3,r4,r5,r6,r7,pc}
 3096              	.L646:
 3097              	
 3098 0064 4FF0FC03 	 mov r3,#252
 3099 0068 83F31188 	 msr basepri,r3
 3100 006c BFF36F8F 	 isb 
 3101 0070 BFF34F8F 	 dsb 
 3102              	
 3103              	
 3104              	 .thumb
 3105              	.L635:
 3106 0074 FEE7     	 b .L635
 3107              	.L645:
 3108              	
 3109 0076 4FF0FC03 	 mov r3,#252
 3110 007a 83F31188 	 msr basepri,r3
 3111 007e BFF36F8F 	 isb 
 3112 0082 BFF34F8F 	 dsb 
 3113              	
 3114              	
 3115              	 .thumb
 3116              	.L633:
 3117 0086 FEE7     	 b .L633
 3118              	.L644:
 3119 0088 0124     	 movs r4,#1
 3120 008a FFF7FEFF 	 bl vPortExitCritical
 3121 008e 2046     	 mov r0,r4
 3122 0090 F8BD     	 pop {r3,r4,r5,r6,r7,pc}
 3123              	.L649:
 3124 0092 00BF     	 .align 2
 3125              	.L648:
 3126 0094 00000000 	 .word .LANCHOR0
 3127 0098 00000000 	 .word .LANCHOR1
 3128 009c 00000000 	 .word .LANCHOR19
 3130              	 .section .text.vTaskMissedYield,"ax",%progbits
 3131              	 .align 2
 3132              	 .global vTaskMissedYield
 3133              	 .thumb
 3134              	 .thumb_func
 3136              	vTaskMissedYield:
 3137              	 
 3138              	 
 3139              	 
 3140 0000 014B     	 ldr r3,.L651
 3141 0002 0122     	 movs r2,#1
 3142 0004 1A60     	 str r2,[r3]
 3143 0006 7047     	 bx lr
 3144              	.L652:
 3145              	 .align 2
 3146              	.L651:
 3147 0008 00000000 	 .word .LANCHOR17
 3149              	 .section .text.uxTaskGetTaskNumber,"ax",%progbits
 3150              	 .align 2
 3151              	 .global uxTaskGetTaskNumber
 3152              	 .thumb
 3153              	 .thumb_func
 3155              	uxTaskGetTaskNumber:
 3156              	 
 3157              	 
 3158              	 
 3159 0000 00B1     	 cbz r0,.L654
 3160 0002 806C     	 ldr r0,[r0,#72]
 3161              	.L654:
 3162 0004 7047     	 bx lr
 3164 0006 00BF     	 .section .text.vTaskSetTaskNumber,"ax",%progbits
 3165              	 .align 2
 3166              	 .global vTaskSetTaskNumber
 3167              	 .thumb
 3168              	 .thumb_func
 3170              	vTaskSetTaskNumber:
 3171              	 
 3172              	 
 3173              	 
 3174 0000 00B1     	 cbz r0,.L656
 3175 0002 8164     	 str r1,[r0,#72]
 3176              	.L656:
 3177 0004 7047     	 bx lr
 3179 0006 00BF     	 .section .text.vTaskSetThreadLocalStoragePointer,"ax",%progbits
 3180              	 .align 2
 3181              	 .global vTaskSetThreadLocalStoragePointer
 3182              	 .thumb
 3183              	 .thumb_func
 3185              	vTaskSetThreadLocalStoragePointer:
 3186              	 
 3187              	 
 3188              	 
 3189 0000 0429     	 cmp r1,#4
 3190 0002 03DC     	 bgt .L661
 3191 0004 18B1     	 cbz r0,.L664
 3192              	.L663:
 3193 0006 00EB8100 	 add r0,r0,r1,lsl#2
 3194 000a 4265     	 str r2,[r0,#84]
 3195              	.L661:
 3196 000c 7047     	 bx lr
 3197              	.L664:
 3198 000e 014B     	 ldr r3,.L665
 3199 0010 1868     	 ldr r0,[r3]
 3200 0012 F8E7     	 b .L663
 3201              	.L666:
 3202              	 .align 2
 3203              	.L665:
 3204 0014 00000000 	 .word .LANCHOR1
 3206              	 .section .text.pvTaskGetThreadLocalStoragePointer,"ax",%progbits
 3207              	 .align 2
 3208              	 .global pvTaskGetThreadLocalStoragePointer
 3209              	 .thumb
 3210              	 .thumb_func
 3212              	pvTaskGetThreadLocalStoragePointer:
 3213              	 
 3214              	 
 3215              	 
 3216 0000 0429     	 cmp r1,#4
 3217 0002 0ADC     	 bgt .L670
 3218 0004 18B1     	 cbz r0,.L671
 3219 0006 00EB8100 	 add r0,r0,r1,lsl#2
 3220 000a 406D     	 ldr r0,[r0,#84]
 3221 000c 7047     	 bx lr
 3222              	.L671:
 3223 000e 044B     	 ldr r3,.L672
 3224 0010 1868     	 ldr r0,[r3]
 3225 0012 00EB8100 	 add r0,r0,r1,lsl#2
 3226 0016 406D     	 ldr r0,[r0,#84]
 3227 0018 7047     	 bx lr
 3228              	.L670:
 3229 001a 0020     	 movs r0,#0
 3230 001c 7047     	 bx lr
 3231              	.L673:
 3232 001e 00BF     	 .align 2
 3233              	.L672:
 3234 0020 00000000 	 .word .LANCHOR1
 3236              	 .section .text.vTaskGetInfo,"ax",%progbits
 3237              	 .align 2
 3238              	 .global vTaskGetInfo
 3239              	 .thumb
 3240              	 .thumb_func
 3242              	vTaskGetInfo:
 3243              	 
 3244              	 
 3245 0000 2DE9F041 	 push {r4,r5,r6,r7,r8,lr}
 3246 0004 0C46     	 mov r4,r1
 3247 0006 9046     	 mov r8,r2
 3248 0008 1F46     	 mov r7,r3
 3249 000a 0646     	 mov r6,r0
 3250 000c 0028     	 cmp r0,#0
 3251 000e 55D0     	 beq .L702
 3252 0010 0546     	 mov r5,r0
 3253              	.L675:
 3254 0012 207B     	 ldrb r0,[r4,#12]
 3255 0014 6B6C     	 ldr r3,[r5,#68]
 3256 0016 E96A     	 ldr r1,[r5,#44]
 3257 0018 2A6B     	 ldr r2,[r5,#48]
 3258 001a A360     	 str r3,[r4,#8]
 3259 001c 0328     	 cmp r0,#3
 3260 001e 05F13403 	 add r3,r5,#52
 3261 0022 2560     	 str r5,[r4]
 3262 0024 6360     	 str r3,[r4,#4]
 3263 0026 2161     	 str r1,[r4,#16]
 3264 0028 E261     	 str r2,[r4,#28]
 3265 002a 1CD0     	 beq .L703
 3266              	.L676:
 3267 002c EB6C     	 ldr r3,[r5,#76]
 3268 002e 6361     	 str r3,[r4,#20]
 3269 0030 0021     	 movs r1,#0
 3270 0032 052F     	 cmp r7,#5
 3271 0034 A161     	 str r1,[r4,#24]
 3272 0036 23D0     	 beq .L678
 3273 0038 2773     	 strb r7,[r4,#12]
 3274              	.L679:
 3275 003a B8F1000F 	 cmp r8,#0
 3276 003e 0ED0     	 beq .L684
 3277 0040 286B     	 ldr r0,[r5,#48]
 3278 0042 0378     	 ldrb r3,[r0]
 3279 0044 A52B     	 cmp r3,#165
 3280 0046 19D1     	 bne .L695
 3281 0048 431C     	 adds r3,r0,#1
 3282              	.L686:
 3283 004a 191A     	 subs r1,r3,r0
 3284 004c 13F8012B 	 ldrb r2,[r3],#1
 3285 0050 A52A     	 cmp r2,#165
 3286 0052 FAD0     	 beq .L686
 3287 0054 C1F38F01 	 ubfx r1,r1,#2,#16
 3288              	.L685:
 3289 0058 2184     	 strh r1,[r4,#32]
 3290 005a BDE8F081 	 pop {r4,r5,r6,r7,r8,pc}
 3291              	.L684:
 3292 005e A4F82080 	 strh r8,[r4,#32]
 3293 0062 BDE8F081 	 pop {r4,r5,r6,r7,r8,pc}
 3294              	.L703:
 3295 0066 2249     	 ldr r1,.L706
 3296 0068 AA6A     	 ldr r2,[r5,#40]
 3297 006a 0B68     	 ldr r3,[r1]
 3298 006c 0133     	 adds r3,r3,#1
 3299 006e 0B60     	 str r3,[r1]
 3300 0070 0AB1     	 cbz r2,.L677
 3301 0072 0223     	 movs r3,#2
 3302 0074 2373     	 strb r3,[r4,#12]
 3303              	.L677:
 3304 0076 FFF7FEFF 	 bl xTaskResumeAll
 3305 007a D7E7     	 b .L676
 3306              	.L695:
 3307 007c 0021     	 movs r1,#0
 3308 007e EBE7     	 b .L685
 3309              	.L678:
 3310 0080 2EB3     	 cbz r6,.L704
 3311 0082 1C4B     	 ldr r3,.L706+4
 3312 0084 1B68     	 ldr r3,[r3]
 3313 0086 9E42     	 cmp r6,r3
 3314 0088 16D0     	 beq .L682
 3315 008a FFF7FEFF 	 bl vPortEnterCritical
 3316 008e 7769     	 ldr r7,[r6,#20]
 3317 0090 FFF7FEFF 	 bl vPortExitCritical
 3318 0094 184B     	 ldr r3,.L706+8
 3319 0096 1B68     	 ldr r3,[r3]
 3320 0098 9F42     	 cmp r7,r3
 3321 009a 12D0     	 beq .L691
 3322 009c 174B     	 ldr r3,.L706+12
 3323 009e 1B68     	 ldr r3,[r3]
 3324 00a0 9F42     	 cmp r7,r3
 3325 00a2 0ED0     	 beq .L691
 3326 00a4 164B     	 ldr r3,.L706+16
 3327 00a6 9F42     	 cmp r7,r3
 3328 00a8 1AD0     	 beq .L705
 3329 00aa 164B     	 ldr r3,.L706+20
 3330 00ac 9F42     	 cmp r7,r3
 3331 00ae 0BD0     	 beq .L693
 3332 00b0 002F     	 cmp r7,#0
 3333 00b2 0CBF     	 ite eq
 3334 00b4 0421     	 moveq r1,#4
 3335 00b6 0121     	 movne r1,#1
 3336              	.L682:
 3337 00b8 2173     	 strb r1,[r4,#12]
 3338 00ba BEE7     	 b .L679
 3339              	.L702:
 3340 00bc 0D4B     	 ldr r3,.L706+4
 3341 00be 1D68     	 ldr r5,[r3]
 3342 00c0 A7E7     	 b .L675
 3343              	.L691:
 3344 00c2 0221     	 movs r1,#2
 3345 00c4 2173     	 strb r1,[r4,#12]
 3346 00c6 B8E7     	 b .L679
 3347              	.L693:
 3348 00c8 0421     	 movs r1,#4
 3349 00ca 2173     	 strb r1,[r4,#12]
 3350 00cc B5E7     	 b .L679
 3351              	.L704:
 3352              	
 3353 00ce 4FF0FC03 	 mov r3,#252
 3354 00d2 83F31188 	 msr basepri,r3
 3355 00d6 BFF36F8F 	 isb 
 3356 00da BFF34F8F 	 dsb 
 3357              	
 3358              	
 3359              	 .thumb
 3360              	.L681:
 3361 00de FEE7     	 b .L681
 3362              	.L705:
 3363 00e0 B36A     	 ldr r3,[r6,#40]
 3364 00e2 002B     	 cmp r3,#0
 3365 00e4 0CBF     	 ite eq
 3366 00e6 0321     	 moveq r1,#3
 3367 00e8 0221     	 movne r1,#2
 3368 00ea 2173     	 strb r1,[r4,#12]
 3369 00ec A5E7     	 b .L679
 3370              	.L707:
 3371 00ee 00BF     	 .align 2
 3372              	.L706:
 3373 00f0 00000000 	 .word .LANCHOR16
 3374 00f4 00000000 	 .word .LANCHOR1
 3375 00f8 00000000 	 .word .LANCHOR5
 3376 00fc 00000000 	 .word .LANCHOR4
 3377 0100 00000000 	 .word .LANCHOR3
 3378 0104 00000000 	 .word .LANCHOR12
 3380              	 .section .text.uxTaskGetStackHighWaterMark,"ax",%progbits
 3381              	 .align 2
 3382              	 .global uxTaskGetStackHighWaterMark
 3383              	 .thumb
 3384              	 .thumb_func
 3386              	uxTaskGetStackHighWaterMark:
 3387              	 
 3388              	 
 3389              	 
 3390 0000 60B1     	 cbz r0,.L715
 3391              	.L709:
 3392 0002 016B     	 ldr r1,[r0,#48]
 3393 0004 0B78     	 ldrb r3,[r1]
 3394 0006 A52B     	 cmp r3,#165
 3395 0008 0BD1     	 bne .L712
 3396 000a 4B1C     	 adds r3,r1,#1
 3397              	.L711:
 3398 000c 581A     	 subs r0,r3,r1
 3399 000e 13F8012B 	 ldrb r2,[r3],#1
 3400 0012 A52A     	 cmp r2,#165
 3401 0014 FAD0     	 beq .L711
 3402 0016 C0F38F00 	 ubfx r0,r0,#2,#16
 3403 001a 7047     	 bx lr
 3404              	.L715:
 3405 001c 024B     	 ldr r3,.L716
 3406 001e 1868     	 ldr r0,[r3]
 3407 0020 EFE7     	 b .L709
 3408              	.L712:
 3409 0022 0020     	 movs r0,#0
 3410 0024 7047     	 bx lr
 3411              	.L717:
 3412 0026 00BF     	 .align 2
 3413              	.L716:
 3414 0028 00000000 	 .word .LANCHOR1
 3416              	 .section .text.xTaskGetCurrentTaskHandle,"ax",%progbits
 3417              	 .align 2
 3418              	 .global xTaskGetCurrentTaskHandle
 3419              	 .thumb
 3420              	 .thumb_func
 3422              	xTaskGetCurrentTaskHandle:
 3423              	 
 3424              	 
 3425              	 
 3426 0000 014B     	 ldr r3,.L719
 3427 0002 1868     	 ldr r0,[r3]
 3428 0004 7047     	 bx lr
 3429              	.L720:
 3430 0006 00BF     	 .align 2
 3431              	.L719:
 3432 0008 00000000 	 .word .LANCHOR1
 3434              	 .section .text.xTaskGetSchedulerState,"ax",%progbits
 3435              	 .align 2
 3436              	 .global xTaskGetSchedulerState
 3437              	 .thumb
 3438              	 .thumb_func
 3440              	xTaskGetSchedulerState:
 3441              	 
 3442              	 
 3443              	 
 3444 0000 054B     	 ldr r3,.L725
 3445 0002 1B68     	 ldr r3,[r3]
 3446 0004 33B1     	 cbz r3,.L723
 3447 0006 054B     	 ldr r3,.L725+4
 3448 0008 1B68     	 ldr r3,[r3]
 3449 000a 002B     	 cmp r3,#0
 3450 000c 0CBF     	 ite eq
 3451 000e 0220     	 moveq r0,#2
 3452 0010 0020     	 movne r0,#0
 3453 0012 7047     	 bx lr
 3454              	.L723:
 3455 0014 0120     	 movs r0,#1
 3456 0016 7047     	 bx lr
 3457              	.L726:
 3458              	 .align 2
 3459              	.L725:
 3460 0018 00000000 	 .word .LANCHOR13
 3461 001c 00000000 	 .word .LANCHOR16
 3463              	 .section .text.vTaskPriorityInherit,"ax",%progbits
 3464              	 .align 2
 3465              	 .global vTaskPriorityInherit
 3466              	 .thumb
 3467              	 .thumb_func
 3469              	vTaskPriorityInherit:
 3470              	 
 3471              	 
 3472 0000 0028     	 cmp r0,#0
 3473 0002 42D0     	 beq .L741
 3474 0004 2DE9F041 	 push {r4,r5,r6,r7,r8,lr}
 3475 0008 214C     	 ldr r4,.L745
 3476 000a C36A     	 ldr r3,[r0,#44]
 3477 000c 2268     	 ldr r2,[r4]
 3478 000e D26A     	 ldr r2,[r2,#44]
 3479 0010 9342     	 cmp r3,r2
 3480 0012 12D2     	 bcs .L727
 3481 0014 8269     	 ldr r2,[r0,#24]
 3482 0016 002A     	 cmp r2,#0
 3483 0018 04DB     	 blt .L729
 3484 001a 2268     	 ldr r2,[r4]
 3485 001c D26A     	 ldr r2,[r2,#44]
 3486 001e C2F10502 	 rsb r2,r2,#5
 3487 0022 8261     	 str r2,[r0,#24]
 3488              	.L729:
 3489 0024 1B4D     	 ldr r5,.L745+4
 3490 0026 4269     	 ldr r2,[r0,#20]
 3491 0028 03EB8303 	 add r3,r3,r3,lsl#2
 3492 002c 05EB8303 	 add r3,r5,r3,lsl#2
 3493 0030 9A42     	 cmp r2,r3
 3494 0032 04D0     	 beq .L743
 3495 0034 2368     	 ldr r3,[r4]
 3496 0036 DB6A     	 ldr r3,[r3,#44]
 3497 0038 C362     	 str r3,[r0,#44]
 3498              	.L727:
 3499 003a BDE8F081 	 pop {r4,r5,r6,r7,r8,pc}
 3500              	.L743:
 3501 003e 00F10408 	 add r8,r0,#4
 3502 0042 0746     	 mov r7,r0
 3503 0044 4046     	 mov r0,r8
 3504 0046 FFF7FEFF 	 bl uxListRemove
 3505 004a F8B9     	 cbnz r0,.L744
 3506 004c FB6A     	 ldr r3,[r7,#44]
 3507 004e 124E     	 ldr r6,.L745+8
 3508 0050 03EB8302 	 add r2,r3,r3,lsl#2
 3509 0054 55F82220 	 ldr r2,[r5,r2,lsl#2]
 3510 0058 32B9     	 cbnz r2,.L732
 3511 005a 3268     	 ldr r2,[r6]
 3512 005c 0121     	 movs r1,#1
 3513 005e 01FA03F3 	 lsl r3,r1,r3
 3514 0062 22EA0303 	 bic r3,r2,r3
 3515 0066 3360     	 str r3,[r6]
 3516              	.L732:
 3517 0068 2368     	 ldr r3,[r4]
 3518 006a 3268     	 ldr r2,[r6]
 3519 006c D86A     	 ldr r0,[r3,#44]
 3520 006e F862     	 str r0,[r7,#44]
 3521 0070 0123     	 movs r3,#1
 3522 0072 8340     	 lsls r3,r3,r0
 3523 0074 1343     	 orrs r3,r3,r2
 3524 0076 00EB8000 	 add r0,r0,r0,lsl#2
 3525 007a 4146     	 mov r1,r8
 3526 007c 05EB8000 	 add r0,r5,r0,lsl#2
 3527 0080 3360     	 str r3,[r6]
 3528 0082 BDE8F041 	 pop {r4,r5,r6,r7,r8,lr}
 3529 0086 FFF7FEBF 	 b vListInsertEnd
 3530              	.L741:
 3531 008a 7047     	 bx lr
 3532              	.L744:
 3533 008c 024E     	 ldr r6,.L745+8
 3534 008e EBE7     	 b .L732
 3535              	.L746:
 3536              	 .align 2
 3537              	.L745:
 3538 0090 00000000 	 .word .LANCHOR1
 3539 0094 00000000 	 .word .LANCHOR8
 3540 0098 00000000 	 .word .LANCHOR2
 3542              	 .section .text.xTaskPriorityDisinherit,"ax",%progbits
 3543              	 .align 2
 3544              	 .global xTaskPriorityDisinherit
 3545              	 .thumb
 3546              	 .thumb_func
 3548              	xTaskPriorityDisinherit:
 3549              	 
 3550              	 
 3551 0000 08B3     	 cbz r0,.L763
 3552 0002 F8B5     	 push {r3,r4,r5,r6,r7,lr}
 3553 0004 284B     	 ldr r3,.L765
 3554 0006 1B68     	 ldr r3,[r3]
 3555 0008 9842     	 cmp r0,r3
 3556 000a 08D0     	 beq .L750
 3557              	
 3558 000c 4FF0FC03 	 mov r3,#252
 3559 0010 83F31188 	 msr basepri,r3
 3560 0014 BFF36F8F 	 isb 
 3561 0018 BFF34F8F 	 dsb 
 3562              	
 3563              	
 3564              	 .thumb
 3565              	.L751:
 3566 001c FEE7     	 b .L751
 3567              	.L750:
 3568 001e 036D     	 ldr r3,[r0,#80]
 3569 0020 43B9     	 cbnz r3,.L752
 3570              	
 3571 0022 4FF0FC03 	 mov r3,#252
 3572 0026 83F31188 	 msr basepri,r3
 3573 002a BFF36F8F 	 isb 
 3574 002e BFF34F8F 	 dsb 
 3575              	
 3576              	
 3577              	 .thumb
 3578              	.L753:
 3579 0032 FEE7     	 b .L753
 3580              	.L752:
 3581 0034 C16A     	 ldr r1,[r0,#44]
 3582 0036 C26C     	 ldr r2,[r0,#76]
 3583 0038 013B     	 subs r3,r3,#1
 3584 003a 9142     	 cmp r1,r2
 3585 003c 0365     	 str r3,[r0,#80]
 3586 003e 00D0     	 beq .L754
 3587 0040 1BB1     	 cbz r3,.L764
 3588              	.L754:
 3589 0042 0020     	 movs r0,#0
 3590 0044 F8BD     	 pop {r3,r4,r5,r6,r7,pc}
 3591              	.L763:
 3592 0046 0020     	 movs r0,#0
 3593 0048 7047     	 bx lr
 3594              	.L764:
 3595 004a 071D     	 adds r7,r0,#4
 3596 004c 0446     	 mov r4,r0
 3597 004e 3846     	 mov r0,r7
 3598 0050 FFF7FEFF 	 bl uxListRemove
 3599 0054 B8B1     	 cbz r0,.L758
 3600 0056 1548     	 ldr r0,.L765+4
 3601 0058 154A     	 ldr r2,.L765+8
 3602              	.L755:
 3603 005a E36C     	 ldr r3,[r4,#76]
 3604 005c 1668     	 ldr r6,[r2]
 3605 005e E362     	 str r3,[r4,#44]
 3606 0060 0125     	 movs r5,#1
 3607 0062 05FA03FC 	 lsl ip,r5,r3
 3608 0066 C3F1050E 	 rsb lr,r3,#5
 3609 006a 03EB8303 	 add r3,r3,r3,lsl#2
 3610 006e 4CEA0606 	 orr r6,ip,r6
 3611 0072 00EB8300 	 add r0,r0,r3,lsl#2
 3612 0076 3946     	 mov r1,r7
 3613 0078 C4F818E0 	 str lr,[r4,#24]
 3614 007c 1660     	 str r6,[r2]
 3615 007e FFF7FEFF 	 bl vListInsertEnd
 3616 0082 2846     	 mov r0,r5
 3617 0084 F8BD     	 pop {r3,r4,r5,r6,r7,pc}
 3618              	.L758:
 3619 0086 E16A     	 ldr r1,[r4,#44]
 3620 0088 0848     	 ldr r0,.L765+4
 3621 008a 094A     	 ldr r2,.L765+8
 3622 008c 01EB8103 	 add r3,r1,r1,lsl#2
 3623 0090 50F82330 	 ldr r3,[r0,r3,lsl#2]
 3624 0094 002B     	 cmp r3,#0
 3625 0096 E0D1     	 bne .L755
 3626 0098 1368     	 ldr r3,[r2]
 3627 009a 0125     	 movs r5,#1
 3628 009c 8D40     	 lsls r5,r5,r1
 3629 009e 23EA0503 	 bic r3,r3,r5
 3630 00a2 1360     	 str r3,[r2]
 3631 00a4 D9E7     	 b .L755
 3632              	.L766:
 3633 00a6 00BF     	 .align 2
 3634              	.L765:
 3635 00a8 00000000 	 .word .LANCHOR1
 3636 00ac 00000000 	 .word .LANCHOR8
 3637 00b0 00000000 	 .word .LANCHOR2
 3639              	 .section .text.vTaskList,"ax",%progbits
 3640              	 .align 2
 3641              	 .global vTaskList
 3642              	 .thumb
 3643              	 .thumb_func
 3645              	vTaskList:
 3646              	 
 3647              	 
 3648 0000 2DE9F041 	 push {r4,r5,r6,r7,r8,lr}
 3649 0004 534B     	 ldr r3,.L819
 3650 0006 84B0     	 sub sp,sp,#16
 3651 0008 1A68     	 ldr r2,[r3]
 3652 000a 0292     	 str r2,[sp,#8]
 3653 000c 1B68     	 ldr r3,[r3]
 3654 000e 0446     	 mov r4,r0
 3655 0010 0025     	 movs r5,#0
 3656 0012 03EBC300 	 add r0,r3,r3,lsl#3
 3657 0016 8000     	 lsls r0,r0,#2
 3658 0018 2570     	 strb r5,[r4]
 3659 001a FFF7FEFF 	 bl pvPortMalloc
 3660 001e 0028     	 cmp r0,#0
 3661 0020 00F09480 	 beq .L767
 3662 0024 2A46     	 mov r2,r5
 3663 0026 0299     	 ldr r1,[sp,#8]
 3664 0028 0746     	 mov r7,r0
 3665 002a FFF7FEFF 	 bl uxTaskGetSystemState
 3666 002e 0290     	 str r0,[sp,#8]
 3667 0030 0395     	 str r5,[sp,#12]
 3668 0032 039B     	 ldr r3,[sp,#12]
 3669 0034 029A     	 ldr r2,[sp,#8]
 3670 0036 9A42     	 cmp r2,r3
 3671 0038 40F28580 	 bls .L775
 3672 003c 464E     	 ldr r6,.L819+4
 3673              	.L774:
 3674 003e 039B     	 ldr r3,[sp,#12]
 3675 0040 03EBC303 	 add r3,r3,r3,lsl#3
 3676 0044 07EB8303 	 add r3,r7,r3,lsl#2
 3677 0048 2046     	 mov r0,r4
 3678 004a 1B7B     	 ldrb r3,[r3,#12]
 3679 004c 013B     	 subs r3,r3,#1
 3680 004e DBB2     	 uxtb r3,r3
 3681 0050 032B     	 cmp r3,#3
 3682 0052 98BF     	 it ls
 3683 0054 16F80380 	 ldrbls r8,[r6,r3]
 3684 0058 039B     	 ldr r3,[sp,#12]
 3685 005a 03EBC303 	 add r3,r3,r3,lsl#3
 3686 005e 07EB8303 	 add r3,r7,r3,lsl#2
 3687 0062 88BF     	 it hi
 3688 0064 4FF00008 	 movhi r8,#0
 3689 0068 5968     	 ldr r1,[r3,#4]
 3690 006a FFF7FEFF 	 bl stpcpy
 3691 006e 011B     	 subs r1,r0,r4
 3692 0070 0E29     	 cmp r1,#14
 3693 0072 3FD8     	 bhi .L771
 3694 0074 4A1C     	 adds r2,r1,#1
 3695 0076 2023     	 movs r3,#32
 3696 0078 0F2A     	 cmp r2,#15
 3697 007a 0370     	 strb r3,[r0]
 3698 007c 39D0     	 beq .L818
 3699 007e 881C     	 adds r0,r1,#2
 3700 0080 0F28     	 cmp r0,#15
 3701 0082 A354     	 strb r3,[r4,r2]
 3702 0084 35D0     	 beq .L818
 3703 0086 CA1C     	 adds r2,r1,#3
 3704 0088 0F2A     	 cmp r2,#15
 3705 008a 2354     	 strb r3,[r4,r0]
 3706 008c 31D0     	 beq .L818
 3707 008e 081D     	 adds r0,r1,#4
 3708 0090 0F28     	 cmp r0,#15
 3709 0092 A354     	 strb r3,[r4,r2]
 3710 0094 2DD0     	 beq .L818
 3711 0096 4A1D     	 adds r2,r1,#5
 3712 0098 0F2A     	 cmp r2,#15
 3713 009a 2354     	 strb r3,[r4,r0]
 3714 009c 29D0     	 beq .L818
 3715 009e 881D     	 adds r0,r1,#6
 3716 00a0 0F28     	 cmp r0,#15
 3717 00a2 A354     	 strb r3,[r4,r2]
 3718 00a4 25D0     	 beq .L818
 3719 00a6 CA1D     	 adds r2,r1,#7
 3720 00a8 0F2A     	 cmp r2,#15
 3721 00aa 2354     	 strb r3,[r4,r0]
 3722 00ac 21D0     	 beq .L818
 3723 00ae 01F10800 	 add r0,r1,#8
 3724 00b2 0F28     	 cmp r0,#15
 3725 00b4 A354     	 strb r3,[r4,r2]
 3726 00b6 1CD0     	 beq .L818
 3727 00b8 01F10902 	 add r2,r1,#9
 3728 00bc 0F2A     	 cmp r2,#15
 3729 00be 2354     	 strb r3,[r4,r0]
 3730 00c0 17D0     	 beq .L818
 3731 00c2 01F10A00 	 add r0,r1,#10
 3732 00c6 2023     	 movs r3,#32
 3733 00c8 0F28     	 cmp r0,#15
 3734 00ca A354     	 strb r3,[r4,r2]
 3735 00cc 11D0     	 beq .L818
 3736 00ce 01F10B02 	 add r2,r1,#11
 3737 00d2 0F2A     	 cmp r2,#15
 3738 00d4 2354     	 strb r3,[r4,r0]
 3739 00d6 0CD0     	 beq .L818
 3740 00d8 01F10C00 	 add r0,r1,#12
 3741 00dc 0F28     	 cmp r0,#15
 3742 00de A354     	 strb r3,[r4,r2]
 3743 00e0 07D0     	 beq .L818
 3744 00e2 01F10D02 	 add r2,r1,#13
 3745 00e6 0F2A     	 cmp r2,#15
 3746 00e8 2354     	 strb r3,[r4,r0]
 3747 00ea 02D0     	 beq .L818
 3748 00ec A354     	 strb r3,[r4,r2]
 3749 00ee 01B9     	 cbnz r1,.L818
 3750 00f0 A373     	 strb r3,[r4,#14]
 3751              	.L818:
 3752 00f2 0F21     	 movs r1,#15
 3753              	.L771:
 3754 00f4 0398     	 ldr r0,[sp,#12]
 3755 00f6 039A     	 ldr r2,[sp,#12]
 3756 00f8 039B     	 ldr r3,[sp,#12]
 3757 00fa 6554     	 strb r5,[r4,r1]
 3758 00fc 02EBC202 	 add r2,r2,r2,lsl#3
 3759 0100 00EBC000 	 add r0,r0,r0,lsl#3
 3760 0104 07EB820E 	 add lr,r7,r2,lsl#2
 3761 0108 07EB8002 	 add r2,r7,r0,lsl#2
 3762 010c 03EBC300 	 add r0,r3,r3,lsl#3
 3763 0110 BEF820E0 	 ldrh lr,[lr,#32]
 3764 0114 1369     	 ldr r3,[r2,#16]
 3765 0116 CDF800E0 	 str lr,[sp]
 3766 011a 07EB8000 	 add r0,r7,r0,lsl#2
 3767 011e 0C44     	 add r4,r4,r1
 3768 0120 8268     	 ldr r2,[r0,#8]
 3769 0122 0192     	 str r2,[sp,#4]
 3770 0124 2046     	 mov r0,r4
 3771 0126 4246     	 mov r2,r8
 3772 0128 0C49     	 ldr r1,.L819+8
 3773 012a FFF7FEFF 	 bl sprintf
 3774 012e 2046     	 mov r0,r4
 3775 0130 FFF7FEFF 	 bl strlen
 3776 0134 039B     	 ldr r3,[sp,#12]
 3777 0136 0133     	 adds r3,r3,#1
 3778 0138 0393     	 str r3,[sp,#12]
 3779 013a 039A     	 ldr r2,[sp,#12]
 3780 013c 029B     	 ldr r3,[sp,#8]
 3781 013e 9A42     	 cmp r2,r3
 3782 0140 0444     	 add r4,r4,r0
 3783 0142 FFF47CAF 	 bcc .L774
 3784              	.L775:
 3785 0146 3846     	 mov r0,r7
 3786 0148 FFF7FEFF 	 bl vPortFree
 3787              	.L767:
 3788 014c 04B0     	 add sp,sp,#16
 3789              	 
 3790 014e BDE8F081 	 pop {r4,r5,r6,r7,r8,pc}
 3791              	.L820:
 3792 0152 00BF     	 .align 2
 3793              	.L819:
 3794 0154 00000000 	 .word .LANCHOR7
 3795 0158 00000000 	 .word .LANCHOR21
 3796 015c 08000000 	 .word .LC1
 3798              	 .section .text.uxTaskResetEventItemValue,"ax",%progbits
 3799              	 .align 2
 3800              	 .global uxTaskResetEventItemValue
 3801              	 .thumb
 3802              	 .thumb_func
 3804              	uxTaskResetEventItemValue:
 3805              	 
 3806              	 
 3807              	 
 3808 0000 044B     	 ldr r3,.L822
 3809 0002 1968     	 ldr r1,[r3]
 3810 0004 1A68     	 ldr r2,[r3]
 3811 0006 1B68     	 ldr r3,[r3]
 3812 0008 8869     	 ldr r0,[r1,#24]
 3813 000a DB6A     	 ldr r3,[r3,#44]
 3814 000c C3F10503 	 rsb r3,r3,#5
 3815 0010 9361     	 str r3,[r2,#24]
 3816 0012 7047     	 bx lr
 3817              	.L823:
 3818              	 .align 2
 3819              	.L822:
 3820 0014 00000000 	 .word .LANCHOR1
 3822              	 .section .text.pvTaskIncrementMutexHeldCount,"ax",%progbits
 3823              	 .align 2
 3824              	 .global pvTaskIncrementMutexHeldCount
 3825              	 .thumb
 3826              	 .thumb_func
 3828              	pvTaskIncrementMutexHeldCount:
 3829              	 
 3830              	 
 3831              	 
 3832 0000 044B     	 ldr r3,.L829
 3833 0002 1A68     	 ldr r2,[r3]
 3834 0004 1AB1     	 cbz r2,.L825
 3835 0006 1968     	 ldr r1,[r3]
 3836 0008 0A6D     	 ldr r2,[r1,#80]
 3837 000a 0132     	 adds r2,r2,#1
 3838 000c 0A65     	 str r2,[r1,#80]
 3839              	.L825:
 3840 000e 1868     	 ldr r0,[r3]
 3841 0010 7047     	 bx lr
 3842              	.L830:
 3843 0012 00BF     	 .align 2
 3844              	.L829:
 3845 0014 00000000 	 .word .LANCHOR1
 3847              	 .section .text.ulTaskNotifyTake,"ax",%progbits
 3848              	 .align 2
 3849              	 .global ulTaskNotifyTake
 3850              	 .thumb
 3851              	 .thumb_func
 3853              	ulTaskNotifyTake:
 3854              	 
 3855              	 
 3856 0000 2DE9F041 	 push {r4,r5,r6,r7,r8,lr}
 3857 0004 304C     	 ldr r4,.L852
 3858 0006 0646     	 mov r6,r0
 3859 0008 0D46     	 mov r5,r1
 3860 000a FFF7FEFF 	 bl vPortEnterCritical
 3861 000e 2368     	 ldr r3,[r4]
 3862 0010 9B6E     	 ldr r3,[r3,#104]
 3863 0012 23B9     	 cbnz r3,.L833
 3864 0014 2268     	 ldr r2,[r4]
 3865 0016 0127     	 movs r7,#1
 3866 0018 82F86C70 	 strb r7,[r2,#108]
 3867 001c BDB9     	 cbnz r5,.L848
 3868              	.L833:
 3869 001e FFF7FEFF 	 bl vPortExitCritical
 3870 0022 FFF7FEFF 	 bl vPortEnterCritical
 3871 0026 2368     	 ldr r3,[r4]
 3872 0028 274A     	 ldr r2,.L852
 3873 002a 9D6E     	 ldr r5,[r3,#104]
 3874 002c 1DB1     	 cbz r5,.L839
 3875 002e 1368     	 ldr r3,[r2]
 3876 0030 56B9     	 cbnz r6,.L849
 3877 0032 6A1E     	 subs r2,r5,#1
 3878 0034 9A66     	 str r2,[r3,#104]
 3879              	.L839:
 3880 0036 2368     	 ldr r3,[r4]
 3881 0038 0022     	 movs r2,#0
 3882 003a 83F86C20 	 strb r2,[r3,#108]
 3883 003e FFF7FEFF 	 bl vPortExitCritical
 3884 0042 2846     	 mov r0,r5
 3885 0044 BDE8F081 	 pop {r4,r5,r6,r7,r8,pc}
 3886              	.L849:
 3887 0048 0022     	 movs r2,#0
 3888 004a 9A66     	 str r2,[r3,#104]
 3889 004c F3E7     	 b .L839
 3890              	.L848:
 3891 004e 1F4A     	 ldr r2,.L852+4
 3892 0050 D2F80080 	 ldr r8,[r2]
 3893 0054 2268     	 ldr r2,[r4]
 3894 0056 2068     	 ldr r0,[r4]
 3895 0058 82F86D30 	 strb r3,[r2,#109]
 3896 005c 0430     	 adds r0,r0,#4
 3897 005e FFF7FEFF 	 bl uxListRemove
 3898 0062 38B9     	 cbnz r0,.L835
 3899 0064 2368     	 ldr r3,[r4]
 3900 0066 1A4A     	 ldr r2,.L852+8
 3901 0068 D96A     	 ldr r1,[r3,#44]
 3902 006a 1368     	 ldr r3,[r2]
 3903 006c 8F40     	 lsls r7,r7,r1
 3904 006e 23EA0707 	 bic r7,r3,r7
 3905 0072 1760     	 str r7,[r2]
 3906              	.L835:
 3907 0074 6B1C     	 adds r3,r5,#1
 3908 0076 20D0     	 beq .L850
 3909 0078 4544     	 add r5,r5,r8
 3910 007a 2368     	 ldr r3,[r4]
 3911 007c 124A     	 ldr r2,.L852
 3912 007e 5D60     	 str r5,[r3,#4]
 3913 0080 A845     	 cmp r8,r5
 3914 0082 13D8     	 bhi .L851
 3915 0084 134B     	 ldr r3,.L852+12
 3916 0086 1868     	 ldr r0,[r3]
 3917 0088 1168     	 ldr r1,[r2]
 3918 008a 0431     	 adds r1,r1,#4
 3919 008c FFF7FEFF 	 bl vListInsert
 3920 0090 114B     	 ldr r3,.L852+16
 3921 0092 1A68     	 ldr r2,[r3]
 3922 0094 9542     	 cmp r5,r2
 3923 0096 38BF     	 it cc
 3924 0098 1D60     	 strcc r5,[r3]
 3925              	.L837:
 3926 009a 104B     	 ldr r3,.L852+20
 3927 009c 4FF08052 	 mov r2,#268435456
 3928 00a0 1A60     	 str r2,[r3]
 3929              	
 3930 00a2 BFF34F8F 	 dsb
 3931              	
 3932              	
 3933 00a6 BFF36F8F 	 isb
 3934              	
 3935              	 .thumb
 3936 00aa B8E7     	 b .L833
 3937              	.L851:
 3938 00ac 0C4B     	 ldr r3,.L852+24
 3939 00ae 1868     	 ldr r0,[r3]
 3940 00b0 1168     	 ldr r1,[r2]
 3941 00b2 0431     	 adds r1,r1,#4
 3942 00b4 FFF7FEFF 	 bl vListInsert
 3943 00b8 EFE7     	 b .L837
 3944              	.L850:
 3945 00ba 2168     	 ldr r1,[r4]
 3946 00bc 0948     	 ldr r0,.L852+28
 3947 00be 0431     	 adds r1,r1,#4
 3948 00c0 FFF7FEFF 	 bl vListInsertEnd
 3949 00c4 E9E7     	 b .L837
 3950              	.L853:
 3951 00c6 00BF     	 .align 2
 3952              	.L852:
 3953 00c8 00000000 	 .word .LANCHOR1
 3954 00cc 00000000 	 .word .LANCHOR0
 3955 00d0 00000000 	 .word .LANCHOR2
 3956 00d4 00000000 	 .word .LANCHOR5
 3957 00d8 00000000 	 .word .LANCHOR6
 3958 00dc 04ED00E0 	 .word -536810236
 3959 00e0 00000000 	 .word .LANCHOR4
 3960 00e4 00000000 	 .word .LANCHOR3
 3962              	 .section .text.xTaskNotifyWait,"ax",%progbits
 3963              	 .align 2
 3964              	 .global xTaskNotifyWait
 3965              	 .thumb
 3966              	 .thumb_func
 3968              	xTaskNotifyWait:
 3969              	 
 3970              	 
 3971 0000 2DE9F843 	 push {r3,r4,r5,r6,r7,r8,r9,lr}
 3972 0004 394C     	 ldr r4,.L875
 3973 0006 1E46     	 mov r6,r3
 3974 0008 8046     	 mov r8,r0
 3975 000a 0F46     	 mov r7,r1
 3976 000c 1546     	 mov r5,r2
 3977 000e FFF7FEFF 	 bl vPortEnterCritical
 3978 0012 2368     	 ldr r3,[r4]
 3979 0014 93F86C30 	 ldrb r3,[r3,#108]
 3980 0018 022B     	 cmp r3,#2
 3981 001a 0AD0     	 beq .L856
 3982 001c 2368     	 ldr r3,[r4]
 3983 001e 9A6E     	 ldr r2,[r3,#104]
 3984 0020 22EA0800 	 bic r0,r2,r8
 3985 0024 9866     	 str r0,[r3,#104]
 3986 0026 2368     	 ldr r3,[r4]
 3987 0028 4FF00108 	 mov r8,#1
 3988 002c 83F86C80 	 strb r8,[r3,#108]
 3989 0030 E6B9     	 cbnz r6,.L872
 3990              	.L856:
 3991 0032 FFF7FEFF 	 bl vPortExitCritical
 3992 0036 FFF7FEFF 	 bl vPortEnterCritical
 3993 003a 15B1     	 cbz r5,.L862
 3994 003c 2368     	 ldr r3,[r4]
 3995 003e 9B6E     	 ldr r3,[r3,#104]
 3996 0040 2B60     	 str r3,[r5]
 3997              	.L862:
 3998 0042 2368     	 ldr r3,[r4]
 3999 0044 294A     	 ldr r2,.L875
 4000 0046 93F86C30 	 ldrb r3,[r3,#108]
 4001 004a 012B     	 cmp r3,#1
 4002 004c 45D0     	 beq .L864
 4003 004e 1368     	 ldr r3,[r2]
 4004 0050 996E     	 ldr r1,[r3,#104]
 4005 0052 21EA0701 	 bic r1,r1,r7
 4006 0056 9966     	 str r1,[r3,#104]
 4007 0058 0125     	 movs r5,#1
 4008              	.L863:
 4009 005a 2368     	 ldr r3,[r4]
 4010 005c 0022     	 movs r2,#0
 4011 005e 83F86C20 	 strb r2,[r3,#108]
 4012 0062 FFF7FEFF 	 bl vPortExitCritical
 4013 0066 2846     	 mov r0,r5
 4014 0068 BDE8F883 	 pop {r3,r4,r5,r6,r7,r8,r9,pc}
 4015              	.L872:
 4016 006c 204B     	 ldr r3,.L875+4
 4017 006e D3F80090 	 ldr r9,[r3]
 4018 0072 2368     	 ldr r3,[r4]
 4019 0074 2068     	 ldr r0,[r4]
 4020 0076 0022     	 movs r2,#0
 4021 0078 83F86D20 	 strb r2,[r3,#109]
 4022 007c 0430     	 adds r0,r0,#4
 4023 007e FFF7FEFF 	 bl uxListRemove
 4024 0082 40B9     	 cbnz r0,.L858
 4025 0084 2368     	 ldr r3,[r4]
 4026 0086 1B4A     	 ldr r2,.L875+8
 4027 0088 D96A     	 ldr r1,[r3,#44]
 4028 008a 1368     	 ldr r3,[r2]
 4029 008c 08FA01F8 	 lsl r8,r8,r1
 4030 0090 23EA0803 	 bic r3,r3,r8
 4031 0094 1360     	 str r3,[r2]
 4032              	.L858:
 4033 0096 731C     	 adds r3,r6,#1
 4034 0098 19D0     	 beq .L873
 4035 009a 4E44     	 add r6,r6,r9
 4036 009c 2368     	 ldr r3,[r4]
 4037 009e 134A     	 ldr r2,.L875
 4038 00a0 5E60     	 str r6,[r3,#4]
 4039 00a2 B145     	 cmp r9,r6
 4040 00a4 1BD8     	 bhi .L874
 4041 00a6 144B     	 ldr r3,.L875+12
 4042 00a8 1868     	 ldr r0,[r3]
 4043 00aa 1168     	 ldr r1,[r2]
 4044 00ac 0431     	 adds r1,r1,#4
 4045 00ae FFF7FEFF 	 bl vListInsert
 4046 00b2 124B     	 ldr r3,.L875+16
 4047 00b4 1A68     	 ldr r2,[r3]
 4048 00b6 9642     	 cmp r6,r2
 4049 00b8 38BF     	 it cc
 4050 00ba 1E60     	 strcc r6,[r3]
 4051              	.L860:
 4052 00bc 104B     	 ldr r3,.L875+20
 4053 00be 4FF08052 	 mov r2,#268435456
 4054 00c2 1A60     	 str r2,[r3]
 4055              	
 4056 00c4 BFF34F8F 	 dsb
 4057              	
 4058              	
 4059 00c8 BFF36F8F 	 isb
 4060              	
 4061              	 .thumb
 4062 00cc B1E7     	 b .L856
 4063              	.L873:
 4064 00ce 2168     	 ldr r1,[r4]
 4065 00d0 0C48     	 ldr r0,.L875+24
 4066 00d2 0431     	 adds r1,r1,#4
 4067 00d4 FFF7FEFF 	 bl vListInsertEnd
 4068 00d8 F0E7     	 b .L860
 4069              	.L864:
 4070 00da 0025     	 movs r5,#0
 4071 00dc BDE7     	 b .L863
 4072              	.L874:
 4073 00de 0A4B     	 ldr r3,.L875+28
 4074 00e0 1868     	 ldr r0,[r3]
 4075 00e2 1168     	 ldr r1,[r2]
 4076 00e4 0431     	 adds r1,r1,#4
 4077 00e6 FFF7FEFF 	 bl vListInsert
 4078 00ea E7E7     	 b .L860
 4079              	.L876:
 4080              	 .align 2
 4081              	.L875:
 4082 00ec 00000000 	 .word .LANCHOR1
 4083 00f0 00000000 	 .word .LANCHOR0
 4084 00f4 00000000 	 .word .LANCHOR2
 4085 00f8 00000000 	 .word .LANCHOR5
 4086 00fc 00000000 	 .word .LANCHOR6
 4087 0100 04ED00E0 	 .word -536810236
 4088 0104 00000000 	 .word .LANCHOR3
 4089 0108 00000000 	 .word .LANCHOR4
 4091              	 .section .text.xTaskGenericNotify,"ax",%progbits
 4092              	 .align 2
 4093              	 .global xTaskGenericNotify
 4094              	 .thumb
 4095              	 .thumb_func
 4097              	xTaskGenericNotify:
 4098              	 
 4099              	 
 4100 0000 F8B5     	 push {r3,r4,r5,r6,r7,lr}
 4101 0002 E8B1     	 cbz r0,.L898
 4102 0004 1D46     	 mov r5,r3
 4103 0006 0446     	 mov r4,r0
 4104 0008 1646     	 mov r6,r2
 4105 000a 0F46     	 mov r7,r1
 4106 000c FFF7FEFF 	 bl vPortEnterCritical
 4107 0010 0DB1     	 cbz r5,.L880
 4108 0012 A36E     	 ldr r3,[r4,#104]
 4109 0014 2B60     	 str r3,[r5]
 4110              	.L880:
 4111 0016 94F86C50 	 ldrb r5,[r4,#108]
 4112 001a 0222     	 movs r2,#2
 4113 001c 731E     	 subs r3,r6,#1
 4114 001e EDB2     	 uxtb r5,r5
 4115 0020 84F86C20 	 strb r2,[r4,#108]
 4116 0024 032B     	 cmp r3,#3
 4117 0026 04D8     	 bhi .L881
 4118 0028 DFE803F0 	 tbb [pc,r3]
 4119              	.L883:
 4120 002c 36       	 .byte (.L882-.L883)/2
 4121 002d 32       	 .byte (.L884-.L883)/2
 4122 002e 02       	 .byte (.L897-.L883)/2
 4123 002f 3A       	 .byte (.L886-.L883)/2
 4124              	 .p2align 1
 4125              	.L897:
 4126 0030 A766     	 str r7,[r4,#104]
 4127              	.L881:
 4128 0032 012D     	 cmp r5,#1
 4129 0034 0DD0     	 beq .L888
 4130              	.L891:
 4131 0036 0125     	 movs r5,#1
 4132 0038 FFF7FEFF 	 bl vPortExitCritical
 4133 003c 2846     	 mov r0,r5
 4134 003e F8BD     	 pop {r3,r4,r5,r6,r7,pc}
 4135              	.L898:
 4136              	
 4137 0040 4FF0FC03 	 mov r3,#252
 4138 0044 83F31188 	 msr basepri,r3
 4139 0048 BFF36F8F 	 isb 
 4140 004c BFF34F8F 	 dsb 
 4141              	
 4142              	
 4143              	 .thumb
 4144              	.L879:
 4145 0050 FEE7     	 b .L879
 4146              	.L888:
 4147 0052 271D     	 adds r7,r4,#4
 4148 0054 1F4E     	 ldr r6,.L899
 4149 0056 3846     	 mov r0,r7
 4150 0058 FFF7FEFF 	 bl uxListRemove
 4151 005c E36A     	 ldr r3,[r4,#44]
 4152 005e 3268     	 ldr r2,[r6]
 4153 0060 1D48     	 ldr r0,.L899+4
 4154 0062 05FA03FE 	 lsl lr,r5,r3
 4155 0066 03EB8303 	 add r3,r3,r3,lsl#2
 4156 006a 4EEA0202 	 orr r2,lr,r2
 4157 006e 00EB8300 	 add r0,r0,r3,lsl#2
 4158 0072 3946     	 mov r1,r7
 4159 0074 3260     	 str r2,[r6]
 4160 0076 FFF7FEFF 	 bl vListInsertEnd
 4161 007a A36A     	 ldr r3,[r4,#40]
 4162 007c BBB1     	 cbz r3,.L889
 4163              	
 4164 007e 4FF0FC03 	 mov r3,#252
 4165 0082 83F31188 	 msr basepri,r3
 4166 0086 BFF36F8F 	 isb 
 4167 008a BFF34F8F 	 dsb 
 4168              	
 4169              	
 4170              	 .thumb
 4171              	.L890:
 4172 008e FEE7     	 b .L890
 4173              	.L884:
 4174 0090 A36E     	 ldr r3,[r4,#104]
 4175 0092 0133     	 adds r3,r3,#1
 4176 0094 A366     	 str r3,[r4,#104]
 4177 0096 CCE7     	 b .L881
 4178              	.L882:
 4179 0098 A36E     	 ldr r3,[r4,#104]
 4180 009a 1F43     	 orrs r7,r7,r3
 4181 009c A766     	 str r7,[r4,#104]
 4182 009e C8E7     	 b .L881
 4183              	.L886:
 4184 00a0 022D     	 cmp r5,#2
 4185 00a2 C5D1     	 bne .L897
 4186 00a4 0025     	 movs r5,#0
 4187 00a6 FFF7FEFF 	 bl vPortExitCritical
 4188 00aa 2846     	 mov r0,r5
 4189 00ac F8BD     	 pop {r3,r4,r5,r6,r7,pc}
 4190              	.L889:
 4191 00ae 0B4B     	 ldr r3,.L899+8
 4192 00b0 E26A     	 ldr r2,[r4,#44]
 4193 00b2 1B68     	 ldr r3,[r3]
 4194 00b4 DB6A     	 ldr r3,[r3,#44]
 4195 00b6 9A42     	 cmp r2,r3
 4196 00b8 BDD9     	 bls .L891
 4197 00ba 094B     	 ldr r3,.L899+12
 4198 00bc 4FF08052 	 mov r2,#268435456
 4199 00c0 1A60     	 str r2,[r3]
 4200              	
 4201 00c2 BFF34F8F 	 dsb
 4202              	
 4203              	
 4204 00c6 BFF36F8F 	 isb
 4205              	
 4206              	 .thumb
 4207 00ca FFF7FEFF 	 bl vPortExitCritical
 4208 00ce 2846     	 mov r0,r5
 4209 00d0 F8BD     	 pop {r3,r4,r5,r6,r7,pc}
 4210              	.L900:
 4211 00d2 00BF     	 .align 2
 4212              	.L899:
 4213 00d4 00000000 	 .word .LANCHOR2
 4214 00d8 00000000 	 .word .LANCHOR8
 4215 00dc 00000000 	 .word .LANCHOR1
 4216 00e0 04ED00E0 	 .word -536810236
 4218              	 .section .text.xTaskGenericNotifyFromISR,"ax",%progbits
 4219              	 .align 2
 4220              	 .global xTaskGenericNotifyFromISR
 4221              	 .thumb
 4222              	 .thumb_func
 4224              	xTaskGenericNotifyFromISR:
 4225              	 
 4226              	 
 4227 0000 2DE9F843 	 push {r3,r4,r5,r6,r7,r8,r9,lr}
 4228 0004 DDF82080 	 ldr r8,[sp,#32]
 4229 0008 40B3     	 cbz r0,.L925
 4230 000a 0446     	 mov r4,r0
 4231 000c 1D46     	 mov r5,r3
 4232 000e 1646     	 mov r6,r2
 4233 0010 8946     	 mov r9,r1
 4234 0012 FFF7FEFF 	 bl vPortValidateInterruptPriority
 4235              	
 4236 0016 EFF31187 	 mrs r7,basepri
 4237 001a 4FF0FC03 	 mov r3,#252
 4238 001e 83F31188 	 msr basepri,r3
 4239 0022 BFF36F8F 	 isb 
 4240 0026 BFF34F8F 	 dsb 
 4241              	
 4242              	
 4243              	 .thumb
 4244 002a 0DB1     	 cbz r5,.L904
 4245 002c A36E     	 ldr r3,[r4,#104]
 4246 002e 2B60     	 str r3,[r5]
 4247              	.L904:
 4248 0030 94F86C50 	 ldrb r5,[r4,#108]
 4249 0034 0222     	 movs r2,#2
 4250 0036 731E     	 subs r3,r6,#1
 4251 0038 EDB2     	 uxtb r5,r5
 4252 003a 84F86C20 	 strb r2,[r4,#108]
 4253 003e 032B     	 cmp r3,#3
 4254 0040 05D8     	 bhi .L905
 4255 0042 DFE803F0 	 tbb [pc,r3]
 4256              	.L907:
 4257 0046 23       	 .byte (.L906-.L907)/2
 4258 0047 1F       	 .byte (.L908-.L907)/2
 4259 0048 02       	 .byte (.L924-.L907)/2
 4260 0049 28       	 .byte (.L910-.L907)/2
 4261              	 .p2align 1
 4262              	.L924:
 4263 004a C4F86890 	 str r9,[r4,#104]
 4264              	.L905:
 4265 004e 012D     	 cmp r5,#1
 4266 0050 0DD0     	 beq .L912
 4267              	.L917:
 4268 0052 0120     	 movs r0,#1
 4269              	
 4270 0054 87F31188 	 msr basepri,r7
 4271              	
 4272              	 .thumb
 4273 0058 BDE8F883 	 pop {r3,r4,r5,r6,r7,r8,r9,pc}
 4274              	.L925:
 4275              	
 4276 005c 4FF0FC03 	 mov r3,#252
 4277 0060 83F31188 	 msr basepri,r3
 4278 0064 BFF36F8F 	 isb 
 4279 0068 BFF34F8F 	 dsb 
 4280              	
 4281              	
 4282              	 .thumb
 4283              	.L903:
 4284 006c FEE7     	 b .L903
 4285              	.L912:
 4286 006e A36A     	 ldr r3,[r4,#40]
 4287 0070 C3B1     	 cbz r3,.L913
 4288              	
 4289 0072 4FF0FC03 	 mov r3,#252
 4290 0076 83F31188 	 msr basepri,r3
 4291 007a BFF36F8F 	 isb 
 4292 007e BFF34F8F 	 dsb 
 4293              	
 4294              	
 4295              	 .thumb
 4296              	.L914:
 4297 0082 FEE7     	 b .L914
 4298              	.L908:
 4299 0084 A36E     	 ldr r3,[r4,#104]
 4300 0086 0133     	 adds r3,r3,#1
 4301 0088 A366     	 str r3,[r4,#104]
 4302 008a E0E7     	 b .L905
 4303              	.L906:
 4304 008c A36E     	 ldr r3,[r4,#104]
 4305 008e 49EA0303 	 orr r3,r9,r3
 4306 0092 A366     	 str r3,[r4,#104]
 4307 0094 DBE7     	 b .L905
 4308              	.L910:
 4309 0096 022D     	 cmp r5,#2
 4310 0098 D7D1     	 bne .L924
 4311 009a 0020     	 movs r0,#0
 4312              	
 4313 009c 87F31188 	 msr basepri,r7
 4314              	
 4315              	 .thumb
 4316 00a0 BDE8F883 	 pop {r3,r4,r5,r6,r7,r8,r9,pc}
 4317              	.L913:
 4318 00a4 194B     	 ldr r3,.L926
 4319 00a6 1B68     	 ldr r3,[r3]
 4320 00a8 13BB     	 cbnz r3,.L915
 4321 00aa 04F10409 	 add r9,r4,#4
 4322 00ae 184E     	 ldr r6,.L926+4
 4323 00b0 4846     	 mov r0,r9
 4324 00b2 FFF7FEFF 	 bl uxListRemove
 4325 00b6 E36A     	 ldr r3,[r4,#44]
 4326 00b8 3268     	 ldr r2,[r6]
 4327 00ba 1648     	 ldr r0,.L926+8
 4328 00bc 9D40     	 lsls r5,r5,r3
 4329 00be 03EB8303 	 add r3,r3,r3,lsl#2
 4330 00c2 1543     	 orrs r5,r5,r2
 4331 00c4 4946     	 mov r1,r9
 4332 00c6 00EB8300 	 add r0,r0,r3,lsl#2
 4333 00ca 3560     	 str r5,[r6]
 4334 00cc FFF7FEFF 	 bl vListInsertEnd
 4335              	.L916:
 4336 00d0 114B     	 ldr r3,.L926+12
 4337 00d2 E26A     	 ldr r2,[r4,#44]
 4338 00d4 1B68     	 ldr r3,[r3]
 4339 00d6 DB6A     	 ldr r3,[r3,#44]
 4340 00d8 9A42     	 cmp r2,r3
 4341 00da BAD9     	 bls .L917
 4342 00dc B8F1000F 	 cmp r8,#0
 4343 00e0 0CD0     	 beq .L918
 4344 00e2 0120     	 movs r0,#1
 4345 00e4 C8F80000 	 str r0,[r8]
 4346              	
 4347 00e8 87F31188 	 msr basepri,r7
 4348              	
 4349              	 .thumb
 4350 00ec BDE8F883 	 pop {r3,r4,r5,r6,r7,r8,r9,pc}
 4351              	.L915:
 4352 00f0 0A48     	 ldr r0,.L926+16
 4353 00f2 04F11801 	 add r1,r4,#24
 4354 00f6 FFF7FEFF 	 bl vListInsertEnd
 4355 00fa E9E7     	 b .L916
 4356              	.L918:
 4357 00fc 084B     	 ldr r3,.L926+20
 4358 00fe 0120     	 movs r0,#1
 4359 0100 1860     	 str r0,[r3]
 4360              	
 4361 0102 87F31188 	 msr basepri,r7
 4362              	
 4363              	 .thumb
 4364 0106 BDE8F883 	 pop {r3,r4,r5,r6,r7,r8,r9,pc}
 4365              	.L927:
 4366 010a 00BF     	 .align 2
 4367              	.L926:
 4368 010c 00000000 	 .word .LANCHOR16
 4369 0110 00000000 	 .word .LANCHOR2
 4370 0114 00000000 	 .word .LANCHOR8
 4371 0118 00000000 	 .word .LANCHOR1
 4372 011c 00000000 	 .word .LANCHOR11
 4373 0120 00000000 	 .word .LANCHOR17
 4375              	 .section .text.vTaskNotifyGiveFromISR,"ax",%progbits
 4376              	 .align 2
 4377              	 .global vTaskNotifyGiveFromISR
 4378              	 .thumb
 4379              	 .thumb_func
 4381              	vTaskNotifyGiveFromISR:
 4382              	 
 4383              	 
 4384 0000 F0B1     	 cbz r0,.L940
 4385 0002 2DE9F041 	 push {r4,r5,r6,r7,r8,lr}
 4386 0006 0446     	 mov r4,r0
 4387 0008 0E46     	 mov r6,r1
 4388 000a FFF7FEFF 	 bl vPortValidateInterruptPriority
 4389              	
 4390 000e EFF31187 	 mrs r7,basepri
 4391 0012 4FF0FC03 	 mov r3,#252
 4392 0016 83F31188 	 msr basepri,r3
 4393 001a BFF36F8F 	 isb 
 4394 001e BFF34F8F 	 dsb 
 4395              	
 4396              	
 4397              	 .thumb
 4398 0022 0223     	 movs r3,#2
 4399 0024 94F86C50 	 ldrb r5,[r4,#108]
 4400 0028 84F86C30 	 strb r3,[r4,#108]
 4401 002c A36E     	 ldr r3,[r4,#104]
 4402 002e EDB2     	 uxtb r5,r5
 4403 0030 0133     	 adds r3,r3,#1
 4404 0032 012D     	 cmp r5,#1
 4405 0034 A366     	 str r3,[r4,#104]
 4406 0036 0CD0     	 beq .L941
 4407              	.L932:
 4408              	
 4409 0038 87F31188 	 msr basepri,r7
 4410              	
 4411              	 .thumb
 4412 003c BDE8F081 	 pop {r4,r5,r6,r7,r8,pc}
 4413              	.L940:
 4414              	
 4415 0040 4FF0FC03 	 mov r3,#252
 4416 0044 83F31188 	 msr basepri,r3
 4417 0048 BFF36F8F 	 isb 
 4418 004c BFF34F8F 	 dsb 
 4419              	
 4420              	
 4421              	 .thumb
 4422              	.L930:
 4423 0050 FEE7     	 b .L930
 4424              	.L941:
 4425 0052 A36A     	 ldr r3,[r4,#40]
 4426 0054 43B1     	 cbz r3,.L933
 4427              	
 4428 0056 4FF0FC03 	 mov r3,#252
 4429 005a 83F31188 	 msr basepri,r3
 4430 005e BFF36F8F 	 isb 
 4431 0062 BFF34F8F 	 dsb 
 4432              	
 4433              	
 4434              	 .thumb
 4435              	.L934:
 4436 0066 FEE7     	 b .L934
 4437              	.L933:
 4438 0068 194B     	 ldr r3,.L942
 4439 006a 1B68     	 ldr r3,[r3]
 4440 006c 13BB     	 cbnz r3,.L935
 4441 006e 04F10408 	 add r8,r4,#4
 4442 0072 4046     	 mov r0,r8
 4443 0074 FFF7FEFF 	 bl uxListRemove
 4444 0078 DFF868E0 	 ldr lr,.L942+20
 4445 007c E36A     	 ldr r3,[r4,#44]
 4446 007e DEF80020 	 ldr r2,[lr]
 4447 0082 1448     	 ldr r0,.L942+4
 4448 0084 9D40     	 lsls r5,r5,r3
 4449 0086 03EB8303 	 add r3,r3,r3,lsl#2
 4450 008a 1543     	 orrs r5,r5,r2
 4451 008c 4146     	 mov r1,r8
 4452 008e 00EB8300 	 add r0,r0,r3,lsl#2
 4453 0092 CEF80050 	 str r5,[lr]
 4454 0096 FFF7FEFF 	 bl vListInsertEnd
 4455              	.L936:
 4456 009a 0F4B     	 ldr r3,.L942+8
 4457 009c E26A     	 ldr r2,[r4,#44]
 4458 009e 1B68     	 ldr r3,[r3]
 4459 00a0 DB6A     	 ldr r3,[r3,#44]
 4460 00a2 9A42     	 cmp r2,r3
 4461 00a4 C8D9     	 bls .L932
 4462 00a6 5EB1     	 cbz r6,.L938
 4463 00a8 0123     	 movs r3,#1
 4464 00aa 3360     	 str r3,[r6]
 4465              	
 4466 00ac 87F31188 	 msr basepri,r7
 4467              	
 4468              	 .thumb
 4469 00b0 BDE8F081 	 pop {r4,r5,r6,r7,r8,pc}
 4470              	.L935:
 4471 00b4 0948     	 ldr r0,.L942+12
 4472 00b6 04F11801 	 add r1,r4,#24
 4473 00ba FFF7FEFF 	 bl vListInsertEnd
 4474 00be ECE7     	 b .L936
 4475              	.L938:
 4476 00c0 074B     	 ldr r3,.L942+16
 4477 00c2 0122     	 movs r2,#1
 4478 00c4 1A60     	 str r2,[r3]
 4479              	
 4480 00c6 87F31188 	 msr basepri,r7
 4481              	
 4482              	 .thumb
 4483 00ca BDE8F081 	 pop {r4,r5,r6,r7,r8,pc}
 4484              	.L943:
 4485 00ce 00BF     	 .align 2
 4486              	.L942:
 4487 00d0 00000000 	 .word .LANCHOR16
 4488 00d4 00000000 	 .word .LANCHOR8
 4489 00d8 00000000 	 .word .LANCHOR1
 4490 00dc 00000000 	 .word .LANCHOR11
 4491 00e0 00000000 	 .word .LANCHOR17
 4492 00e4 00000000 	 .word .LANCHOR2
 4494              	 .section .text.xTaskNotifyStateClear,"ax",%progbits
 4495              	 .align 2
 4496              	 .global xTaskNotifyStateClear
 4497              	 .thumb
 4498              	 .thumb_func
 4500              	xTaskNotifyStateClear:
 4501              	 
 4502              	 
 4503 0000 10B5     	 push {r4,lr}
 4504 0002 0446     	 mov r4,r0
 4505 0004 70B1     	 cbz r0,.L949
 4506              	.L945:
 4507 0006 FFF7FEFF 	 bl vPortEnterCritical
 4508 000a 94F86C30 	 ldrb r3,[r4,#108]
 4509 000e 022B     	 cmp r3,#2
 4510 0010 05BF     	 ittet eq
 4511 0012 0023     	 moveq r3,#0
 4512 0014 84F86C30 	 strbeq r3,[r4,#108]
 4513 0018 0024     	 movne r4,#0
 4514 001a 0124     	 moveq r4,#1
 4515 001c FFF7FEFF 	 bl vPortExitCritical
 4516 0020 2046     	 mov r0,r4
 4517 0022 10BD     	 pop {r4,pc}
 4518              	.L949:
 4519 0024 014B     	 ldr r3,.L950
 4520 0026 1C68     	 ldr r4,[r3]
 4521 0028 EDE7     	 b .L945
 4522              	.L951:
 4523 002a 00BF     	 .align 2
 4524              	.L950:
 4525 002c 00000000 	 .word .LANCHOR1
 4527              	 .global pxCurrentTCB
 4528              	 .section .bss.xNumOfOverflows,"aw",%nobits
 4529              	 .align 2
 4530              	 .set .LANCHOR19,.+0
 4533              	xNumOfOverflows:
 4534 0000 00000000 	 .space 4
 4535              	 .section .bss.pxDelayedTaskList,"aw",%nobits
 4536              	 .align 2
 4537              	 .set .LANCHOR5,.+0
 4540              	pxDelayedTaskList:
 4541 0000 00000000 	 .space 4
 4542              	 .section .rodata.str1.4,"aMS",%progbits,1
 4543              	 .align 2
 4544              	.LC0:
 4545 0000 49444C45 	 .ascii "IDLE\000"
 4545      00
 4546 0005 000000   	 .space 3
 4547              	.LC1:
 4548 0008 09256309 	 .ascii "\011%c\011%u\011%u\011%u\015\012\000"
 4548      25750925 
 4548      75092575 
 4548      0D0A00
 4549 0017 00       	 .section .bss.xSchedulerRunning,"aw",%nobits
 4550              	 .align 2
 4551              	 .set .LANCHOR13,.+0
 4554              	xSchedulerRunning:
 4555 0000 00000000 	 .space 4
 4556              	 .section .bss.uxSchedulerSuspended,"aw",%nobits
 4557              	 .align 2
 4558              	 .set .LANCHOR16,.+0
 4561              	uxSchedulerSuspended:
 4562 0000 00000000 	 .space 4
 4563              	 .section .bss.xDelayedTaskList1,"aw",%nobits
 4564              	 .align 2
 4565              	 .set .LANCHOR9,.+0
 4568              	xDelayedTaskList1:
 4569 0000 00000000 	 .space 20
 4569      00000000 
 4569      00000000 
 4569      00000000 
 4569      00000000 
 4570              	 .section .rodata.CSWTCH.265,"a",%progbits
 4571              	 .align 2
 4572              	 .set .LANCHOR21,.+0
 4575              	CSWTCH.265:
 4576 0000 52       	 .byte 82
 4577 0001 42       	 .byte 66
 4578 0002 53       	 .byte 83
 4579 0003 44       	 .byte 68
 4580              	 .section .bss.uxPendedTicks,"aw",%nobits
 4581              	 .align 2
 4582              	 .set .LANCHOR20,.+0
 4585              	uxPendedTicks:
 4586 0000 00000000 	 .space 4
 4587              	 .section .bss.pxReadyTasksLists,"aw",%nobits
 4588              	 .align 2
 4589              	 .set .LANCHOR8,.+0
 4592              	pxReadyTasksLists:
 4593 0000 00000000 	 .space 100
 4593      00000000 
 4593      00000000 
 4593      00000000 
 4593      00000000 
 4594              	 .section .bss.xTasksWaitingTermination,"aw",%nobits
 4595              	 .align 2
 4596              	 .set .LANCHOR12,.+0
 4599              	xTasksWaitingTermination:
 4600 0000 00000000 	 .space 20
 4600      00000000 
 4600      00000000 
 4600      00000000 
 4600      00000000 
 4601              	 .section .bss.uxDeletedTasksWaitingCleanUp,"aw",%nobits
 4602              	 .align 2
 4603              	 .set .LANCHOR15,.+0
 4606              	uxDeletedTasksWaitingCleanUp:
 4607 0000 00000000 	 .space 4
 4608              	 .section .bss.pxCurrentTCB,"aw",%nobits
 4609              	 .align 2
 4610              	 .set .LANCHOR1,.+0
 4613              	pxCurrentTCB:
 4614 0000 00000000 	 .space 4
 4615              	 .section .bss.xNextTaskUnblockTime,"aw",%nobits
 4616              	 .align 2
 4617              	 .set .LANCHOR6,.+0
 4620              	xNextTaskUnblockTime:
 4621 0000 00000000 	 .space 4
 4622              	 .section .bss.xIdleTaskHandle,"aw",%nobits
 4623              	 .align 2
 4624              	 .set .LANCHOR18,.+0
 4627              	xIdleTaskHandle:
 4628 0000 00000000 	 .space 4
 4629              	 .section .bss.xTickCount,"aw",%nobits
 4630              	 .align 2
 4631              	 .set .LANCHOR0,.+0
 4634              	xTickCount:
 4635 0000 00000000 	 .space 4
 4636              	 .section .bss.pxOverflowDelayedTaskList,"aw",%nobits
 4637              	 .align 2
 4638              	 .set .LANCHOR4,.+0
 4641              	pxOverflowDelayedTaskList:
 4642 0000 00000000 	 .space 4
 4643              	 .section .bss.xPendingReadyList,"aw",%nobits
 4644              	 .align 2
 4645              	 .set .LANCHOR11,.+0
 4648              	xPendingReadyList:
 4649 0000 00000000 	 .space 20
 4649      00000000 
 4649      00000000 
 4649      00000000 
 4649      00000000 
 4650              	 .section .bss.uxTaskNumber,"aw",%nobits
 4651              	 .align 2
 4652              	 .set .LANCHOR14,.+0
 4655              	uxTaskNumber:
 4656 0000 00000000 	 .space 4
 4657              	 .section .bss.uxCurrentNumberOfTasks,"aw",%nobits
 4658              	 .align 2
 4659              	 .set .LANCHOR7,.+0
 4662              	uxCurrentNumberOfTasks:
 4663 0000 00000000 	 .space 4
 4664              	 .section .bss.xDelayedTaskList2,"aw",%nobits
 4665              	 .align 2
 4666              	 .set .LANCHOR10,.+0
 4669              	xDelayedTaskList2:
 4670 0000 00000000 	 .space 20
 4670      00000000 
 4670      00000000 
 4670      00000000 
 4670      00000000 
 4671              	 .section .bss.xSuspendedTaskList,"aw",%nobits
 4672              	 .align 2
 4673              	 .set .LANCHOR3,.+0
 4676              	xSuspendedTaskList:
 4677 0000 00000000 	 .space 20
 4677      00000000 
 4677      00000000 
 4677      00000000 
 4677      00000000 
 4678              	 .section .bss.uxTopReadyPriority,"aw",%nobits
 4679              	 .align 2
 4680              	 .set .LANCHOR2,.+0
 4683              	uxTopReadyPriority:
 4684 0000 00000000 	 .space 4
 4685              	 .section .bss.xYieldPending,"aw",%nobits
 4686              	 .align 2
 4687              	 .set .LANCHOR17,.+0
 4690              	xYieldPending:
 4691 0000 00000000 	 .space 4
 4692              	 .ident "GCC: (GNU Tools for ARM Embedded Processors) 4.9.3 20141119 (release) [ARM/embedded-4_9-branch revision 218278]"
DEFINED SYMBOLS
                            *ABS*:00000000 tasks.c
    {standard input}:17     .text.unlikely.prvSearchForNameWithinSingleList:00000000 $t
    {standard input}:21     .text.unlikely.prvSearchForNameWithinSingleList:00000000 prvSearchForNameWithinSingleList
    {standard input}:71     .text.unlikely.prvAddCurrentTaskToDelayedList:00000000 $t
    {standard input}:75     .text.unlikely.prvAddCurrentTaskToDelayedList:00000000 prvAddCurrentTaskToDelayedList
    {standard input}:136    .text.unlikely.prvAddCurrentTaskToDelayedList:00000078 $d
    {standard input}:145    .text.unlikely.prvResetNextTaskUnblockTime:00000000 $t
    {standard input}:149    .text.unlikely.prvResetNextTaskUnblockTime:00000000 prvResetNextTaskUnblockTime
    {standard input}:171    .text.unlikely.prvResetNextTaskUnblockTime:00000020 $d
    {standard input}:175    .text.xTaskCreate:00000000 $t
    {standard input}:180    .text.xTaskCreate:00000000 xTaskCreate
    {standard input}:416    .text.xTaskCreate:0000023c $d
    {standard input}:432    .text.vTaskDelete:00000000 $t
    {standard input}:437    .text.vTaskDelete:00000000 vTaskDelete
    {standard input}:552    .text.vTaskDelete:000000d8 $d
    {standard input}:566    .text.eTaskGetState:00000000 $t
    {standard input}:571    .text.eTaskGetState:00000000 eTaskGetState
    {standard input}:633    .text.eTaskGetState:00000068 $d
    {standard input}:640    .text.uxTaskPriorityGet:00000000 $t
    {standard input}:645    .text.uxTaskPriorityGet:00000000 uxTaskPriorityGet
    {standard input}:666    .text.uxTaskPriorityGet:00000024 $d
    {standard input}:669    .text.uxTaskPriorityGetFromISR:00000000 $t
    {standard input}:674    .text.uxTaskPriorityGetFromISR:00000000 uxTaskPriorityGetFromISR
    {standard input}:708    .text.uxTaskPriorityGetFromISR:00000034 $d
    {standard input}:711    .text.vTaskPrioritySet:00000000 $t
    {standard input}:716    .text.vTaskPrioritySet:00000000 vTaskPrioritySet
    {standard input}:822    .text.vTaskPrioritySet:000000cc $d
    {standard input}:828    .text.vTaskSuspend:00000000 $t
    {standard input}:833    .text.vTaskSuspend:00000000 vTaskSuspend
    {standard input}:995    .text.vTaskSuspend:0000012c $d
    {standard input}:1008   .text.vTaskResume:00000000 $t
    {standard input}:1013   .text.vTaskResume:00000000 vTaskResume
    {standard input}:1086   .text.vTaskResume:00000090 $d
    {standard input}:1094   .text.xTaskResumeFromISR:00000000 $t
    {standard input}:1099   .text.xTaskResumeFromISR:00000000 xTaskResumeFromISR
    {standard input}:1189   .text.xTaskResumeFromISR:000000ac $d
    {standard input}:1197   .text.vTaskStartScheduler:00000000 $t
    {standard input}:1202   .text.vTaskStartScheduler:00000000 vTaskStartScheduler
    {standard input}:1261   .text.vTaskStartScheduler:00000068 $d
    {standard input}:1853   .text.prvIdleTask:00000000 prvIdleTask
    {standard input}:1269   .text.vTaskEndScheduler:00000000 $t
    {standard input}:1274   .text.vTaskEndScheduler:00000000 vTaskEndScheduler
    {standard input}:1293   .text.vTaskEndScheduler:0000001c $d
    {standard input}:1296   .text.vTaskSuspendAll:00000000 $t
    {standard input}:1301   .text.vTaskSuspendAll:00000000 vTaskSuspendAll
    {standard input}:1313   .text.vTaskSuspendAll:0000000c $d
    {standard input}:1316   .text.xTaskGetTickCount:00000000 $t
    {standard input}:1321   .text.xTaskGetTickCount:00000000 xTaskGetTickCount
    {standard input}:1331   .text.xTaskGetTickCount:00000008 $d
    {standard input}:1334   .text.xTaskGetTickCountFromISR:00000000 $t
    {standard input}:1339   .text.xTaskGetTickCountFromISR:00000000 xTaskGetTickCountFromISR
    {standard input}:1350   .text.xTaskGetTickCountFromISR:0000000c $d
    {standard input}:1353   .text.uxTaskGetNumberOfTasks:00000000 $t
    {standard input}:1358   .text.uxTaskGetNumberOfTasks:00000000 uxTaskGetNumberOfTasks
    {standard input}:1368   .text.uxTaskGetNumberOfTasks:00000008 $d
    {standard input}:1371   .text.pcTaskGetName:00000000 $t
    {standard input}:1376   .text.pcTaskGetName:00000000 pcTaskGetName
    {standard input}:1402   .text.pcTaskGetName:00000020 $d
    {standard input}:1405   .text.xTaskGetIdleTaskHandle:00000000 $t
    {standard input}:1410   .text.xTaskGetIdleTaskHandle:00000000 xTaskGetIdleTaskHandle
    {standard input}:1432   .text.xTaskGetIdleTaskHandle:0000001c $d
    {standard input}:1435   .text.xTaskIncrementTick:00000000 $t
    {standard input}:1440   .text.xTaskIncrementTick:00000000 xTaskIncrementTick
    {standard input}:1564   .text.xTaskIncrementTick:00000110 $d
    {standard input}:1577   .text.xTaskResumeAll:00000000 $t
    {standard input}:1582   .text.xTaskResumeAll:00000000 xTaskResumeAll
    {standard input}:1688   .text.xTaskResumeAll:000000d4 $d
    {standard input}:1699   .text.vTaskDelayUntil:00000000 $t
    {standard input}:1704   .text.vTaskDelayUntil:00000000 vTaskDelayUntil
    {standard input}:1793   .text.vTaskDelayUntil:00000090 $d
    {standard input}:1798   .text.vTaskDelay:00000000 $t
    {standard input}:1803   .text.vTaskDelay:00000000 vTaskDelay
    {standard input}:1845   .text.vTaskDelay:00000044 $d
    {standard input}:1849   .text.prvIdleTask:00000000 $t
    {standard input}:1913   .text.prvIdleTask:00000080 $d
    {standard input}:1921   .text.xTaskGetHandle:00000000 $t
    {standard input}:1926   .text.xTaskGetHandle:00000000 xTaskGetHandle
    {standard input}:2098   .text.xTaskGetHandle:00000180 $d
    {standard input}:2106   .text.xTaskAbortDelay:00000000 $t
    {standard input}:2111   .text.xTaskAbortDelay:00000000 xTaskAbortDelay
    {standard input}:2196   .text.xTaskAbortDelay:000000b8 $d
    {standard input}:2206   .text.prvListTasksWithinSingleList.part.6:00000000 $t
    {standard input}:2210   .text.prvListTasksWithinSingleList.part.6:00000000 prvListTasksWithinSingleList.part.6
    {standard input}:2369   .text.prvListTasksWithinSingleList.part.6:00000148 $d
    {standard input}:2377   .text.uxTaskGetSystemState:00000000 $t
    {standard input}:2382   .text.uxTaskGetSystemState:00000000 uxTaskGetSystemState
    {standard input}:2540   .text.uxTaskGetSystemState:00000154 $d
    {standard input}:2552   .text.vTaskSwitchContext:00000000 $t
    {standard input}:2557   .text.vTaskSwitchContext:00000000 vTaskSwitchContext
    {standard input}:2613   .text.vTaskSwitchContext:0000005c $d
    {standard input}:2620   .text.vTaskPlaceOnEventList:00000000 $t
    {standard input}:2625   .text.vTaskPlaceOnEventList:00000000 vTaskPlaceOnEventList
    {standard input}:2700   .text.vTaskPlaceOnEventList:00000094 $d
    {standard input}:2709   .text.vTaskPlaceOnUnorderedEventList:00000000 $t
    {standard input}:2714   .text.vTaskPlaceOnUnorderedEventList:00000000 vTaskPlaceOnUnorderedEventList
    {standard input}:2760   .text.vTaskPlaceOnUnorderedEventList:00000050 $d
    {standard input}:2764   .text.vTaskPlaceOnEventListRestricted:00000000 $t
    {standard input}:2769   .text.vTaskPlaceOnEventListRestricted:00000000 vTaskPlaceOnEventListRestricted
    {standard input}:2851   .text.vTaskPlaceOnEventListRestricted:000000a4 $d
    {standard input}:2860   .text.xTaskRemoveFromEventList:00000000 $t
    {standard input}:2865   .text.xTaskRemoveFromEventList:00000000 xTaskRemoveFromEventList
    {standard input}:2924   .text.xTaskRemoveFromEventList:00000070 $d
    {standard input}:2932   .text.xTaskRemoveFromUnorderedEventList:00000000 $t
    {standard input}:2937   .text.xTaskRemoveFromUnorderedEventList:00000000 xTaskRemoveFromUnorderedEventList
    {standard input}:3000   .text.xTaskRemoveFromUnorderedEventList:0000007c $d
    {standard input}:3007   .text.vTaskSetTimeOutState:00000000 $t
    {standard input}:3012   .text.vTaskSetTimeOutState:00000000 vTaskSetTimeOutState
    {standard input}:3037   .text.vTaskSetTimeOutState:00000024 $d
    {standard input}:3041   .text.xTaskCheckForTimeOut:00000000 $t
    {standard input}:3046   .text.xTaskCheckForTimeOut:00000000 xTaskCheckForTimeOut
    {standard input}:3126   .text.xTaskCheckForTimeOut:00000094 $d
    {standard input}:3131   .text.vTaskMissedYield:00000000 $t
    {standard input}:3136   .text.vTaskMissedYield:00000000 vTaskMissedYield
    {standard input}:3147   .text.vTaskMissedYield:00000008 $d
    {standard input}:3150   .text.uxTaskGetTaskNumber:00000000 $t
    {standard input}:3155   .text.uxTaskGetTaskNumber:00000000 uxTaskGetTaskNumber
    {standard input}:3165   .text.vTaskSetTaskNumber:00000000 $t
    {standard input}:3170   .text.vTaskSetTaskNumber:00000000 vTaskSetTaskNumber
    {standard input}:3180   .text.vTaskSetThreadLocalStoragePointer:00000000 $t
    {standard input}:3185   .text.vTaskSetThreadLocalStoragePointer:00000000 vTaskSetThreadLocalStoragePointer
    {standard input}:3204   .text.vTaskSetThreadLocalStoragePointer:00000014 $d
    {standard input}:3207   .text.pvTaskGetThreadLocalStoragePointer:00000000 $t
    {standard input}:3212   .text.pvTaskGetThreadLocalStoragePointer:00000000 pvTaskGetThreadLocalStoragePointer
    {standard input}:3234   .text.pvTaskGetThreadLocalStoragePointer:00000020 $d
    {standard input}:3237   .text.vTaskGetInfo:00000000 $t
    {standard input}:3242   .text.vTaskGetInfo:00000000 vTaskGetInfo
    {standard input}:3373   .text.vTaskGetInfo:000000f0 $d
    {standard input}:3381   .text.uxTaskGetStackHighWaterMark:00000000 $t
    {standard input}:3386   .text.uxTaskGetStackHighWaterMark:00000000 uxTaskGetStackHighWaterMark
    {standard input}:3414   .text.uxTaskGetStackHighWaterMark:00000028 $d
    {standard input}:3417   .text.xTaskGetCurrentTaskHandle:00000000 $t
    {standard input}:3422   .text.xTaskGetCurrentTaskHandle:00000000 xTaskGetCurrentTaskHandle
    {standard input}:3432   .text.xTaskGetCurrentTaskHandle:00000008 $d
    {standard input}:3435   .text.xTaskGetSchedulerState:00000000 $t
    {standard input}:3440   .text.xTaskGetSchedulerState:00000000 xTaskGetSchedulerState
    {standard input}:3460   .text.xTaskGetSchedulerState:00000018 $d
    {standard input}:3464   .text.vTaskPriorityInherit:00000000 $t
    {standard input}:3469   .text.vTaskPriorityInherit:00000000 vTaskPriorityInherit
    {standard input}:3538   .text.vTaskPriorityInherit:00000090 $d
    {standard input}:3543   .text.xTaskPriorityDisinherit:00000000 $t
    {standard input}:3548   .text.xTaskPriorityDisinherit:00000000 xTaskPriorityDisinherit
    {standard input}:3635   .text.xTaskPriorityDisinherit:000000a8 $d
    {standard input}:3640   .text.vTaskList:00000000 $t
    {standard input}:3645   .text.vTaskList:00000000 vTaskList
    {standard input}:3794   .text.vTaskList:00000154 $d
    {standard input}:3799   .text.uxTaskResetEventItemValue:00000000 $t
    {standard input}:3804   .text.uxTaskResetEventItemValue:00000000 uxTaskResetEventItemValue
    {standard input}:3820   .text.uxTaskResetEventItemValue:00000014 $d
    {standard input}:3823   .text.pvTaskIncrementMutexHeldCount:00000000 $t
    {standard input}:3828   .text.pvTaskIncrementMutexHeldCount:00000000 pvTaskIncrementMutexHeldCount
    {standard input}:3845   .text.pvTaskIncrementMutexHeldCount:00000014 $d
    {standard input}:3848   .text.ulTaskNotifyTake:00000000 $t
    {standard input}:3853   .text.ulTaskNotifyTake:00000000 ulTaskNotifyTake
    {standard input}:3953   .text.ulTaskNotifyTake:000000c8 $d
    {standard input}:3963   .text.xTaskNotifyWait:00000000 $t
    {standard input}:3968   .text.xTaskNotifyWait:00000000 xTaskNotifyWait
    {standard input}:4082   .text.xTaskNotifyWait:000000ec $d
    {standard input}:4092   .text.xTaskGenericNotify:00000000 $t
    {standard input}:4097   .text.xTaskGenericNotify:00000000 xTaskGenericNotify
    {standard input}:4120   .text.xTaskGenericNotify:0000002c $d
    {standard input}:4124   .text.xTaskGenericNotify:00000030 $t
    {standard input}:4213   .text.xTaskGenericNotify:000000d4 $d
    {standard input}:4219   .text.xTaskGenericNotifyFromISR:00000000 $t
    {standard input}:4224   .text.xTaskGenericNotifyFromISR:00000000 xTaskGenericNotifyFromISR
    {standard input}:4257   .text.xTaskGenericNotifyFromISR:00000046 $d
    {standard input}:4261   .text.xTaskGenericNotifyFromISR:0000004a $t
    {standard input}:4368   .text.xTaskGenericNotifyFromISR:0000010c $d
    {standard input}:4376   .text.vTaskNotifyGiveFromISR:00000000 $t
    {standard input}:4381   .text.vTaskNotifyGiveFromISR:00000000 vTaskNotifyGiveFromISR
    {standard input}:4487   .text.vTaskNotifyGiveFromISR:000000d0 $d
    {standard input}:4495   .text.xTaskNotifyStateClear:00000000 $t
    {standard input}:4500   .text.xTaskNotifyStateClear:00000000 xTaskNotifyStateClear
    {standard input}:4525   .text.xTaskNotifyStateClear:0000002c $d
    {standard input}:4613   .bss.pxCurrentTCB:00000000 pxCurrentTCB
    {standard input}:4529   .bss.xNumOfOverflows:00000000 $d
    {standard input}:4533   .bss.xNumOfOverflows:00000000 xNumOfOverflows
    {standard input}:4536   .bss.pxDelayedTaskList:00000000 $d
    {standard input}:4540   .bss.pxDelayedTaskList:00000000 pxDelayedTaskList
    {standard input}:4543   .rodata.str1.4:00000000 $d
    {standard input}:4550   .bss.xSchedulerRunning:00000000 $d
    {standard input}:4554   .bss.xSchedulerRunning:00000000 xSchedulerRunning
    {standard input}:4557   .bss.uxSchedulerSuspended:00000000 $d
    {standard input}:4561   .bss.uxSchedulerSuspended:00000000 uxSchedulerSuspended
    {standard input}:4564   .bss.xDelayedTaskList1:00000000 $d
    {standard input}:4568   .bss.xDelayedTaskList1:00000000 xDelayedTaskList1
    {standard input}:4571   .rodata.CSWTCH.265:00000000 $d
    {standard input}:4575   .rodata.CSWTCH.265:00000000 CSWTCH.265
    {standard input}:4581   .bss.uxPendedTicks:00000000 $d
    {standard input}:4585   .bss.uxPendedTicks:00000000 uxPendedTicks
    {standard input}:4588   .bss.pxReadyTasksLists:00000000 $d
    {standard input}:4592   .bss.pxReadyTasksLists:00000000 pxReadyTasksLists
    {standard input}:4595   .bss.xTasksWaitingTermination:00000000 $d
    {standard input}:4599   .bss.xTasksWaitingTermination:00000000 xTasksWaitingTermination
    {standard input}:4602   .bss.uxDeletedTasksWaitingCleanUp:00000000 $d
    {standard input}:4606   .bss.uxDeletedTasksWaitingCleanUp:00000000 uxDeletedTasksWaitingCleanUp
    {standard input}:4609   .bss.pxCurrentTCB:00000000 $d
    {standard input}:4616   .bss.xNextTaskUnblockTime:00000000 $d
    {standard input}:4620   .bss.xNextTaskUnblockTime:00000000 xNextTaskUnblockTime
    {standard input}:4623   .bss.xIdleTaskHandle:00000000 $d
    {standard input}:4627   .bss.xIdleTaskHandle:00000000 xIdleTaskHandle
    {standard input}:4630   .bss.xTickCount:00000000 $d
    {standard input}:4634   .bss.xTickCount:00000000 xTickCount
    {standard input}:4637   .bss.pxOverflowDelayedTaskList:00000000 $d
    {standard input}:4641   .bss.pxOverflowDelayedTaskList:00000000 pxOverflowDelayedTaskList
    {standard input}:4644   .bss.xPendingReadyList:00000000 $d
    {standard input}:4648   .bss.xPendingReadyList:00000000 xPendingReadyList
    {standard input}:4651   .bss.uxTaskNumber:00000000 $d
    {standard input}:4655   .bss.uxTaskNumber:00000000 uxTaskNumber
    {standard input}:4658   .bss.uxCurrentNumberOfTasks:00000000 $d
    {standard input}:4662   .bss.uxCurrentNumberOfTasks:00000000 uxCurrentNumberOfTasks
    {standard input}:4665   .bss.xDelayedTaskList2:00000000 $d
    {standard input}:4669   .bss.xDelayedTaskList2:00000000 xDelayedTaskList2
    {standard input}:4672   .bss.xSuspendedTaskList:00000000 $d
    {standard input}:4676   .bss.xSuspendedTaskList:00000000 xSuspendedTaskList
    {standard input}:4679   .bss.uxTopReadyPriority:00000000 $d
    {standard input}:4683   .bss.uxTopReadyPriority:00000000 uxTopReadyPriority
    {standard input}:4686   .bss.xYieldPending:00000000 $d
    {standard input}:4690   .bss.xYieldPending:00000000 xYieldPending

UNDEFINED SYMBOLS
uxListRemove
vListInsertEnd
vListInsert
pvPortMalloc
memset
vListInitialiseItem
pxPortInitialiseStack
vPortEnterCritical
vPortExitCritical
vPortFree
vListInitialise
vPortValidateInterruptPriority
xTimerCreateTimerTask
xPortStartScheduler
vPortEndScheduler
strlen
stpcpy
sprintf
