   1              	 .syntax unified
   2              	 .cpu cortex-m4
   3              	 .eabi_attribute 27,3
   4              	 .fpu fpv4-sp-d16
   5              	 .eabi_attribute 20,1
   6              	 .eabi_attribute 21,1
   7              	 .eabi_attribute 23,3
   8              	 .eabi_attribute 24,1
   9              	 .eabi_attribute 25,1
  10              	 .eabi_attribute 26,1
  11              	 .eabi_attribute 30,2
  12              	 .eabi_attribute 34,1
  13              	 .eabi_attribute 18,4
  14              	 .thumb
  15              	 .file "spi_master.c"
  16              	 .text
  17              	.Ltext0:
  18              	 .cfi_sections .debug_frame
  19              	 .section .text.SPI_MASTER_lReceiveIRQ,"ax",%progbits
  20              	 .align 2
  21              	 .thumb
  22              	 .thumb_func
  24              	SPI_MASTER_lReceiveIRQ:
  25              	.LFB305:
  26              	 .file 1 "../Dave/Generated/SPI_MASTER/spi_master.c"
   1:../Dave/Generated/SPI_MASTER/spi_master.c **** /**
   2:../Dave/Generated/SPI_MASTER/spi_master.c ****  * @file spi_master.c
   3:../Dave/Generated/SPI_MASTER/spi_master.c ****  * @date 2016-10-26
   4:../Dave/Generated/SPI_MASTER/spi_master.c ****  *
   5:../Dave/Generated/SPI_MASTER/spi_master.c ****  * NOTE:
   6:../Dave/Generated/SPI_MASTER/spi_master.c ****  * This file is generated by DAVE. Any manual modification done to this file will be lost when the 
   7:../Dave/Generated/SPI_MASTER/spi_master.c ****  *
   8:../Dave/Generated/SPI_MASTER/spi_master.c ****  * @cond
   9:../Dave/Generated/SPI_MASTER/spi_master.c ****  **************************************************************************************************
  10:../Dave/Generated/SPI_MASTER/spi_master.c ****  * SPI_MASTER v4.3.20 - Configures the properties of USIC channel to support SPI mode of communicat
  11:../Dave/Generated/SPI_MASTER/spi_master.c ****  *
  12:../Dave/Generated/SPI_MASTER/spi_master.c ****  * Copyright (c) 2015-2016, Infineon Technologies AG
  13:../Dave/Generated/SPI_MASTER/spi_master.c ****  * All rights reserved.
  14:../Dave/Generated/SPI_MASTER/spi_master.c ****  *
  15:../Dave/Generated/SPI_MASTER/spi_master.c ****  * Redistribution and use in source and binary forms, with or without modification,are permitted pr
  16:../Dave/Generated/SPI_MASTER/spi_master.c ****  * following conditions are met:
  17:../Dave/Generated/SPI_MASTER/spi_master.c ****  *
  18:../Dave/Generated/SPI_MASTER/spi_master.c ****  *   Redistributions of source code must retain the above copyright notice, this list of conditions
  19:../Dave/Generated/SPI_MASTER/spi_master.c ****  *   disclaimer.
  20:../Dave/Generated/SPI_MASTER/spi_master.c ****  *
  21:../Dave/Generated/SPI_MASTER/spi_master.c ****  *   Redistributions in binary form must reproduce the above copyright notice, this list of conditi
  22:../Dave/Generated/SPI_MASTER/spi_master.c ****  *   following disclaimer in the documentation and/or other materials provided with the distributio
  23:../Dave/Generated/SPI_MASTER/spi_master.c ****  *
  24:../Dave/Generated/SPI_MASTER/spi_master.c ****  *   Neither the name of the copyright holders nor the names of its contributors may be used to end
  25:../Dave/Generated/SPI_MASTER/spi_master.c ****  *   products derived from this software without specific prior written permission.
  26:../Dave/Generated/SPI_MASTER/spi_master.c ****  *
  27:../Dave/Generated/SPI_MASTER/spi_master.c ****  * THIS SOFTWARE IS PROVIDED BY THE COPYRIGHT HOLDERS AND CONTRIBUTORS "AS IS" AND ANY EXPRESS OR I
  28:../Dave/Generated/SPI_MASTER/spi_master.c ****  * INCLUDING, BUT NOT LIMITED TO, THE IMPLIED WARRANTIES OF MERCHANTABILITY AND FITNESS FOR A PARTI
  29:../Dave/Generated/SPI_MASTER/spi_master.c ****  * DISCLAIMED. IN NO EVENT SHALL THE COPYRIGHT HOLDER OR CONTRIBUTORS BE LIABLE  FOR ANY DIRECT, IN
  30:../Dave/Generated/SPI_MASTER/spi_master.c ****  * SPECIAL, EXEMPLARY, OR CONSEQUENTIAL DAMAGES (INCLUDING, BUT NOT LIMITED TO, PROCUREMENT OF SUBS
  31:../Dave/Generated/SPI_MASTER/spi_master.c ****  * SERVICES; LOSS OF USE, DATA, OR PROFITS; OR BUSINESS INTERRUPTION) HOWEVER CAUSED AND ON ANY THE
  32:../Dave/Generated/SPI_MASTER/spi_master.c ****  * WHETHER IN CONTRACT, STRICT LIABILITY,OR TORT (INCLUDING NEGLIGENCE OR OTHERWISE) ARISING IN ANY
  33:../Dave/Generated/SPI_MASTER/spi_master.c ****  * USE OF THIS SOFTWARE, EVEN IF ADVISED OF THE POSSIBILITY OF SUCH DAMAGE.
  34:../Dave/Generated/SPI_MASTER/spi_master.c ****  *
  35:../Dave/Generated/SPI_MASTER/spi_master.c ****  * To improve the quality of the software, users are encouraged to share modifications, enhancement
  36:../Dave/Generated/SPI_MASTER/spi_master.c ****  * with Infineon Technologies AG (dave@infineon.com).
  37:../Dave/Generated/SPI_MASTER/spi_master.c ****  **************************************************************************************************
  38:../Dave/Generated/SPI_MASTER/spi_master.c ****  *
  39:../Dave/Generated/SPI_MASTER/spi_master.c ****  * Change History
  40:../Dave/Generated/SPI_MASTER/spi_master.c ****  * --------------
  41:../Dave/Generated/SPI_MASTER/spi_master.c ****  *
  42:../Dave/Generated/SPI_MASTER/spi_master.c ****  * 2015-02-16:
  43:../Dave/Generated/SPI_MASTER/spi_master.c ****  *     - Initial version<br>
  44:../Dave/Generated/SPI_MASTER/spi_master.c ****  *
  45:../Dave/Generated/SPI_MASTER/spi_master.c ****  * 2015-02-20:
  46:../Dave/Generated/SPI_MASTER/spi_master.c ****  *     - SPI_MASTER_SetMode() API is updated to return, error if mode change is not possible.<br>
  47:../Dave/Generated/SPI_MASTER/spi_master.c ****  *
  48:../Dave/Generated/SPI_MASTER/spi_master.c ****  * 2015-05-08:
  49:../Dave/Generated/SPI_MASTER/spi_master.c ****  *     - SPI_MASTER_SetBaudRate() and SPI_MASTER_Transfer() are added<br>
  50:../Dave/Generated/SPI_MASTER/spi_master.c ****  *     - "SPI_MASTER_OVERSAMPLING" macro is removed, since it is not being used<br>
  51:../Dave/Generated/SPI_MASTER/spi_master.c ****  *     - SPI_MASTER_lInit() prototype is moved to spi_master_conf.c file<br>
  52:../Dave/Generated/SPI_MASTER/spi_master.c ****  *     - All local APIs are made as static<br>
  53:../Dave/Generated/SPI_MASTER/spi_master.c ****  *     - Added SPI_MASTER_lPortModeSet() and SPI_MASTER_lPortModeReset() to support SPI_MASTER_SetB
  54:../Dave/Generated/SPI_MASTER/spi_master.c ****  *     - SPI_MASTER_lStd_RBUF_Flush() renamed as SPI_MASTER_lStd_RBUFFlush()<br>
  55:../Dave/Generated/SPI_MASTER/spi_master.c ****  *     - SPI_MASTER_lGetFIFOSize() is removed by replacing the functionality<br>
  56:../Dave/Generated/SPI_MASTER/spi_master.c ****  *     - In SPI_MASTER_Receive(), SPI_MASTER_Transmit() APIs a runtime condition check is added for
  57:../Dave/Generated/SPI_MASTER/spi_master.c ****  *       and length<br>
  58:../Dave/Generated/SPI_MASTER/spi_master.c ****  *     - In SPI_MASTER_lTransmitHandler() API, local call to FIFO fill is removed and replaced with
  59:../Dave/Generated/SPI_MASTER/spi_master.c ****  *
  60:../Dave/Generated/SPI_MASTER/spi_master.c ****  * 2015-06-20:
  61:../Dave/Generated/SPI_MASTER/spi_master.c ****  *     - For SPI_MASTER_Transfer(), SPI_MASTER_Receive(), SPI_MASTER_Transmit() APIs, the input dat
  62:../Dave/Generated/SPI_MASTER/spi_master.c ****  *       from 16-bit to 8-bit.
  63:../Dave/Generated/SPI_MASTER/spi_master.c ****  *     - Word count in Transmission and reception APIs, is updated according to the word length set
  64:../Dave/Generated/SPI_MASTER/spi_master.c ****  *       instead of data length.
  65:../Dave/Generated/SPI_MASTER/spi_master.c ****  *     - In SPI_MASTER_Transfer() API, a check is added to support full duplex mode only.
  66:../Dave/Generated/SPI_MASTER/spi_master.c ****  *     - SPI_MASTER_lFIFORead() local API signature is changed to accept number of bytes per word.
  67:../Dave/Generated/SPI_MASTER/spi_master.c ****  *     - word_length is moved from SPI_MASTER_CONFIG_t to SPI_MASTER_DYNAMIC_CONFIG_t, to support r
  68:../Dave/Generated/SPI_MASTER/spi_master.c ****  *     - Abort API are updated to return the status.
  69:../Dave/Generated/SPI_MASTER/spi_master.c ****  *
  70:../Dave/Generated/SPI_MASTER/spi_master.c ****  * 2015-07-07:
  71:../Dave/Generated/SPI_MASTER/spi_master.c ****  *     - DYNAMIC_CONFIG_t is renamed as RUNTIME_t
  72:../Dave/Generated/SPI_MASTER/spi_master.c ****  *
  73:../Dave/Generated/SPI_MASTER/spi_master.c ****  * 2015-09-30:
  74:../Dave/Generated/SPI_MASTER/spi_master.c ****  *     - SPI_MASTER_STATUS_MODE_MISMATCH is returned from the transmit and receive APIs
  75:../Dave/Generated/SPI_MASTER/spi_master.c ****  * 
  76:../Dave/Generated/SPI_MASTER/spi_master.c ****  * 2015-10-08:
  77:../Dave/Generated/SPI_MASTER/spi_master.c ****  *     - SPI_MASTER_lValidateModeChange() local API is added to chekc the mode change is vaild or n
  78:../Dave/Generated/SPI_MASTER/spi_master.c ****  *     - Abort APIs are updated.
  79:../Dave/Generated/SPI_MASTER/spi_master.c ****  *
  80:../Dave/Generated/SPI_MASTER/spi_master.c ****  * 2015-10-14:
  81:../Dave/Generated/SPI_MASTER/spi_master.c ****  *     - new variable "spi_master_config_mode" to store the actual mode generated during initialisa
  82:../Dave/Generated/SPI_MASTER/spi_master.c ****  *     - SPI_MASTER_lValidateModeChange() is updated to support full-duplex to half-duplex mode.
  83:../Dave/Generated/SPI_MASTER/spi_master.c ****  *     - XMC_USIC_CH_TriggerServiceRequest() is removed from the DMA transmit by adding during init
  84:../Dave/Generated/SPI_MASTER/spi_master.c ****  *
  85:../Dave/Generated/SPI_MASTER/spi_master.c ****  * 2015-12-17:
  86:../Dave/Generated/SPI_MASTER/spi_master.c ****  *     - Corrected transmission of unintended data during reception.
  87:../Dave/Generated/SPI_MASTER/spi_master.c ****  *
  88:../Dave/Generated/SPI_MASTER/spi_master.c ****  * 2016-04-07:
  89:../Dave/Generated/SPI_MASTER/spi_master.c ****  *     - memcpy() usage is eliminated.
  90:../Dave/Generated/SPI_MASTER/spi_master.c ****  *     - Usage of the XMC_SPI_Transmit() API is replaced with  XMC_USIC_CH_WriteToTBUFTCI(),
  91:../Dave/Generated/SPI_MASTER/spi_master.c ****  *       XMC_USIC_CH_TXFIFO_PutDataHPCMode() based on the mode selected to improve the performance.
  92:../Dave/Generated/SPI_MASTER/spi_master.c ****  *
  93:../Dave/Generated/SPI_MASTER/spi_master.c ****  * 2016-06-07:
  94:../Dave/Generated/SPI_MASTER/spi_master.c ****  *     - SPI_MASTER_Receive API in direct mode, corrected.
  95:../Dave/Generated/SPI_MASTER/spi_master.c ****  *
  96:../Dave/Generated/SPI_MASTER/spi_master.c ****  * 2016-10-26:
  97:../Dave/Generated/SPI_MASTER/spi_master.c ****  *     - Fix issue when using FIFO and high baudrates by setting the RX FIFO limit to half of the R
  98:../Dave/Generated/SPI_MASTER/spi_master.c ****  *
  99:../Dave/Generated/SPI_MASTER/spi_master.c ****  * @endcond
 100:../Dave/Generated/SPI_MASTER/spi_master.c ****  *
 101:../Dave/Generated/SPI_MASTER/spi_master.c ****  */
 102:../Dave/Generated/SPI_MASTER/spi_master.c **** /**************************************************************************************************
 103:../Dave/Generated/SPI_MASTER/spi_master.c ****  * HEADER FILES
 104:../Dave/Generated/SPI_MASTER/spi_master.c ****  **************************************************************************************************
 105:../Dave/Generated/SPI_MASTER/spi_master.c **** #include "spi_master.h"
 106:../Dave/Generated/SPI_MASTER/spi_master.c **** 
 107:../Dave/Generated/SPI_MASTER/spi_master.c **** 
 108:../Dave/Generated/SPI_MASTER/spi_master.c **** /**************************************************************************************************
 109:../Dave/Generated/SPI_MASTER/spi_master.c ****  * MACROS
 110:../Dave/Generated/SPI_MASTER/spi_master.c ****  **************************************************************************************************
 111:../Dave/Generated/SPI_MASTER/spi_master.c **** #define SPI_MASTER_WORD_LENGTH_8_BIT             (8U) /* This is used to check while incrementing t
 112:../Dave/Generated/SPI_MASTER/spi_master.c **** #define SPI_MASTER_2_BYTES_PER_WORD              (2U) /* Word length is 16-bits */
 113:../Dave/Generated/SPI_MASTER/spi_master.c **** #define SPI_MASTER_1_BYTE_PER_WORD               (1U) /* Word length is 8-bits */
 114:../Dave/Generated/SPI_MASTER/spi_master.c **** 
 115:../Dave/Generated/SPI_MASTER/spi_master.c **** #define SPI_MASTER_RECEIVE_INDICATION_FLAG       ((uint32_t)XMC_SPI_CH_STATUS_FLAG_RECEIVE_INDICATI
 116:../Dave/Generated/SPI_MASTER/spi_master.c ****                                                   (uint32_t)XMC_SPI_CH_STATUS_FLAG_ALTERNATIVE_RECE
 117:../Dave/Generated/SPI_MASTER/spi_master.c **** 
 118:../Dave/Generated/SPI_MASTER/spi_master.c **** #define SPI_MASTER_FIFO_RECEIVE_INDICATION_FLAG  ((uint32_t)XMC_USIC_CH_RXFIFO_EVENT_STANDARD | \
 119:../Dave/Generated/SPI_MASTER/spi_master.c ****                                                   (uint32_t)XMC_USIC_CH_RXFIFO_EVENT_ALTERNATE)
 120:../Dave/Generated/SPI_MASTER/spi_master.c **** 
 121:../Dave/Generated/SPI_MASTER/spi_master.c **** #define SPI_MASTER_RECEIVE_EVENT                 ((uint32_t)XMC_SPI_CH_EVENT_STANDARD_RECEIVE | \
 122:../Dave/Generated/SPI_MASTER/spi_master.c ****                                                   (uint32_t)XMC_SPI_CH_EVENT_ALTERNATIVE_RECEIVE)
 123:../Dave/Generated/SPI_MASTER/spi_master.c **** 
 124:../Dave/Generated/SPI_MASTER/spi_master.c **** #define SPI_MASTER_FIFO_RECEIVE_EVENT            ((uint32_t)XMC_USIC_CH_RXFIFO_EVENT_CONF_STANDARD 
 125:../Dave/Generated/SPI_MASTER/spi_master.c ****                                                   (uint32_t)XMC_USIC_CH_RXFIFO_EVENT_CONF_ALTERNATE
 126:../Dave/Generated/SPI_MASTER/spi_master.c **** /**************************************************************************************************
 127:../Dave/Generated/SPI_MASTER/spi_master.c ****  * LOCAL DATA
 128:../Dave/Generated/SPI_MASTER/spi_master.c **** ***************************************************************************************************
 129:../Dave/Generated/SPI_MASTER/spi_master.c **** 
 130:../Dave/Generated/SPI_MASTER/spi_master.c **** 
 131:../Dave/Generated/SPI_MASTER/spi_master.c **** /**************************************************************************************************
 132:../Dave/Generated/SPI_MASTER/spi_master.c ****  * LOCAL ROUTINES
 133:../Dave/Generated/SPI_MASTER/spi_master.c ****  **************************************************************************************************
 134:../Dave/Generated/SPI_MASTER/spi_master.c **** #if (SPI_MASTER_INTERRUPT_TRANSMIT_MODE == 1U)
 135:../Dave/Generated/SPI_MASTER/spi_master.c **** /* Transmit interrupt handler for the APP */
 136:../Dave/Generated/SPI_MASTER/spi_master.c **** void SPI_MASTER_lTransmitHandler(const SPI_MASTER_t * const handle);
 137:../Dave/Generated/SPI_MASTER/spi_master.c **** #endif
 138:../Dave/Generated/SPI_MASTER/spi_master.c **** 
 139:../Dave/Generated/SPI_MASTER/spi_master.c **** #if (SPI_MASTER_INTERRUPT_RECEIVE_MODE == 1U)
 140:../Dave/Generated/SPI_MASTER/spi_master.c **** static SPI_MASTER_STATUS_t SPI_MASTER_lReceiveIRQ(const SPI_MASTER_t *const handle, uint32_t count)
 141:../Dave/Generated/SPI_MASTER/spi_master.c **** /* This is used to reconfigure the FIFO settings dynamically */
 142:../Dave/Generated/SPI_MASTER/spi_master.c **** static void SPI_MASTER_lReconfigureRxFIFO(const SPI_MASTER_t * const handle, uint32_t data_size);
 143:../Dave/Generated/SPI_MASTER/spi_master.c **** /* Read data from FIFO */
 144:../Dave/Generated/SPI_MASTER/spi_master.c **** static void SPI_MASTER_lFIFORead(const SPI_MASTER_t * const handle, const uint32_t bytes_per_word);
 145:../Dave/Generated/SPI_MASTER/spi_master.c **** /* Receive interrupt handler for the APP */
 146:../Dave/Generated/SPI_MASTER/spi_master.c **** void SPI_MASTER_lReceiveHandler(const SPI_MASTER_t * const handle);
 147:../Dave/Generated/SPI_MASTER/spi_master.c **** #endif
 148:../Dave/Generated/SPI_MASTER/spi_master.c **** 
 149:../Dave/Generated/SPI_MASTER/spi_master.c **** #if(SPI_MASTER_DMA_RECEIVE_MODE == 1U)
 150:../Dave/Generated/SPI_MASTER/spi_master.c **** static SPI_MASTER_STATUS_t SPI_MASTER_lReceiveDMA(const SPI_MASTER_t *const handle, uint32_t count)
 151:../Dave/Generated/SPI_MASTER/spi_master.c **** #endif
 152:../Dave/Generated/SPI_MASTER/spi_master.c **** 
 153:../Dave/Generated/SPI_MASTER/spi_master.c **** #if(SPI_MASTER_DIRECT_TRANSMIT_MODE == 1U)
 154:../Dave/Generated/SPI_MASTER/spi_master.c **** static SPI_MASTER_STATUS_t SPI_MASTER_lStartTransmitPolling(const SPI_MASTER_t *const handle, uint8
 155:../Dave/Generated/SPI_MASTER/spi_master.c **** #endif
 156:../Dave/Generated/SPI_MASTER/spi_master.c **** 
 157:../Dave/Generated/SPI_MASTER/spi_master.c **** #if(SPI_MASTER_DIRECT_RECEIVE_MODE == 1U)
 158:../Dave/Generated/SPI_MASTER/spi_master.c **** static SPI_MASTER_STATUS_t SPI_MASTER_lStartReceivePolling(const SPI_MASTER_t *const handle, uint8_
 159:../Dave/Generated/SPI_MASTER/spi_master.c **** static SPI_MASTER_STATUS_t SPI_MASTER_lReceivePolling(const SPI_MASTER_t *const handle, uint32_t co
 160:../Dave/Generated/SPI_MASTER/spi_master.c **** #endif
 161:../Dave/Generated/SPI_MASTER/spi_master.c **** 
 162:../Dave/Generated/SPI_MASTER/spi_master.c **** #ifdef SPI_MASTER_PARITY_ERROR
 163:../Dave/Generated/SPI_MASTER/spi_master.c **** /* Protocol interrupt handler for the APP */
 164:../Dave/Generated/SPI_MASTER/spi_master.c **** void SPI_MASTER_lProtocolHandler(const SPI_MASTER_t * const handle);
 165:../Dave/Generated/SPI_MASTER/spi_master.c **** #endif
 166:../Dave/Generated/SPI_MASTER/spi_master.c **** 
 167:../Dave/Generated/SPI_MASTER/spi_master.c **** /* Flush RBUF0, RBUF1 */
 168:../Dave/Generated/SPI_MASTER/spi_master.c **** static void SPI_MASTER_lStdRBUFFlush(XMC_USIC_CH_t *const channel);
 169:../Dave/Generated/SPI_MASTER/spi_master.c **** 
 170:../Dave/Generated/SPI_MASTER/spi_master.c **** /* This is used to reconfigure the registers while changing the SPI mode dynamically */
 171:../Dave/Generated/SPI_MASTER/spi_master.c **** static void SPI_MASTER_lPortConfig(const SPI_MASTER_t* handle);
 172:../Dave/Generated/SPI_MASTER/spi_master.c **** /* Set the mode of the port pin according to the configuration */
 173:../Dave/Generated/SPI_MASTER/spi_master.c **** static void SPI_MASTER_lPortModeSet(const SPI_MASTER_t* handle);
 174:../Dave/Generated/SPI_MASTER/spi_master.c **** /* Set the mode of the port pin as input */
 175:../Dave/Generated/SPI_MASTER/spi_master.c **** static void SPI_MASTER_lPortModeReset(const SPI_MASTER_t* handle);
 176:../Dave/Generated/SPI_MASTER/spi_master.c **** /* Returns whether mode change is valid or not */
 177:../Dave/Generated/SPI_MASTER/spi_master.c **** static SPI_MASTER_STATUS_t SPI_MASTER_lValidateModeChange(const SPI_MASTER_t * handle, XMC_SPI_CH_M
 178:../Dave/Generated/SPI_MASTER/spi_master.c **** /**************************************************************************************************
 179:../Dave/Generated/SPI_MASTER/spi_master.c ****  * API IMPLEMENTATION
 180:../Dave/Generated/SPI_MASTER/spi_master.c ****  **************************************************************************************************
 181:../Dave/Generated/SPI_MASTER/spi_master.c **** /*
 182:../Dave/Generated/SPI_MASTER/spi_master.c ****  * API to retrieve the version of the SPI_MASTER
 183:../Dave/Generated/SPI_MASTER/spi_master.c ****  */
 184:../Dave/Generated/SPI_MASTER/spi_master.c **** DAVE_APP_VERSION_t SPI_MASTER_GetAppVersion()
 185:../Dave/Generated/SPI_MASTER/spi_master.c **** {
 186:../Dave/Generated/SPI_MASTER/spi_master.c ****   DAVE_APP_VERSION_t version;
 187:../Dave/Generated/SPI_MASTER/spi_master.c **** 
 188:../Dave/Generated/SPI_MASTER/spi_master.c ****   version.major = SPI_MASTER_MAJOR_VERSION;
 189:../Dave/Generated/SPI_MASTER/spi_master.c ****   version.minor = SPI_MASTER_MINOR_VERSION;
 190:../Dave/Generated/SPI_MASTER/spi_master.c ****   version.patch = SPI_MASTER_PATCH_VERSION;
 191:../Dave/Generated/SPI_MASTER/spi_master.c **** 
 192:../Dave/Generated/SPI_MASTER/spi_master.c ****   return version;
 193:../Dave/Generated/SPI_MASTER/spi_master.c **** }
 194:../Dave/Generated/SPI_MASTER/spi_master.c **** 
 195:../Dave/Generated/SPI_MASTER/spi_master.c **** /*
 196:../Dave/Generated/SPI_MASTER/spi_master.c ****  * This function initializes the SPI channel, based on UI configuration.
 197:../Dave/Generated/SPI_MASTER/spi_master.c ****  */
 198:../Dave/Generated/SPI_MASTER/spi_master.c **** SPI_MASTER_STATUS_t SPI_MASTER_Init(SPI_MASTER_t* const handle)
 199:../Dave/Generated/SPI_MASTER/spi_master.c **** {
 200:../Dave/Generated/SPI_MASTER/spi_master.c ****   SPI_MASTER_STATUS_t status;
 201:../Dave/Generated/SPI_MASTER/spi_master.c **** 
 202:../Dave/Generated/SPI_MASTER/spi_master.c ****   XMC_ASSERT("SPI_MASTER_Init:handle NULL" , (handle != NULL));
 203:../Dave/Generated/SPI_MASTER/spi_master.c **** 
 204:../Dave/Generated/SPI_MASTER/spi_master.c ****   /* Configure the port registers and data input registers of SPI channel */
 205:../Dave/Generated/SPI_MASTER/spi_master.c ****   status = handle->config->fptr_spi_master_config();
 206:../Dave/Generated/SPI_MASTER/spi_master.c **** 
 207:../Dave/Generated/SPI_MASTER/spi_master.c ****   return status;
 208:../Dave/Generated/SPI_MASTER/spi_master.c **** }
 209:../Dave/Generated/SPI_MASTER/spi_master.c **** 
 210:../Dave/Generated/SPI_MASTER/spi_master.c **** /*
 211:../Dave/Generated/SPI_MASTER/spi_master.c ****  * Change the SPI mode of communication.
 212:../Dave/Generated/SPI_MASTER/spi_master.c ****  */
 213:../Dave/Generated/SPI_MASTER/spi_master.c **** SPI_MASTER_STATUS_t SPI_MASTER_SetMode(SPI_MASTER_t* const handle,
 214:../Dave/Generated/SPI_MASTER/spi_master.c ****                                        const XMC_SPI_CH_MODE_t mode)
 215:../Dave/Generated/SPI_MASTER/spi_master.c **** {
 216:../Dave/Generated/SPI_MASTER/spi_master.c ****   SPI_MASTER_STATUS_t status;
 217:../Dave/Generated/SPI_MASTER/spi_master.c **** 
 218:../Dave/Generated/SPI_MASTER/spi_master.c ****   XMC_ASSERT("SPI_MASTER_Configure:handle NULL" , (handle != NULL));
 219:../Dave/Generated/SPI_MASTER/spi_master.c **** 
 220:../Dave/Generated/SPI_MASTER/spi_master.c ****   status = SPI_MASTER_STATUS_SUCCESS;
 221:../Dave/Generated/SPI_MASTER/spi_master.c **** 
 222:../Dave/Generated/SPI_MASTER/spi_master.c ****   if ((false == handle->runtime->tx_busy) && (false == handle->runtime->rx_busy))
 223:../Dave/Generated/SPI_MASTER/spi_master.c ****   {
 224:../Dave/Generated/SPI_MASTER/spi_master.c ****     if (handle->runtime->spi_master_mode != mode)
 225:../Dave/Generated/SPI_MASTER/spi_master.c ****     {
 226:../Dave/Generated/SPI_MASTER/spi_master.c ****       status =  SPI_MASTER_lValidateModeChange(handle, mode);
 227:../Dave/Generated/SPI_MASTER/spi_master.c **** 
 228:../Dave/Generated/SPI_MASTER/spi_master.c ****       if (SPI_MASTER_STATUS_SUCCESS == status)
 229:../Dave/Generated/SPI_MASTER/spi_master.c ****       {
 230:../Dave/Generated/SPI_MASTER/spi_master.c ****         handle->runtime->spi_master_mode = mode;
 231:../Dave/Generated/SPI_MASTER/spi_master.c **** 
 232:../Dave/Generated/SPI_MASTER/spi_master.c ****         /* This changes the operating mode and related settings */
 233:../Dave/Generated/SPI_MASTER/spi_master.c ****         SPI_MASTER_lPortConfig(handle);
 234:../Dave/Generated/SPI_MASTER/spi_master.c ****       }
 235:../Dave/Generated/SPI_MASTER/spi_master.c ****     }
 236:../Dave/Generated/SPI_MASTER/spi_master.c ****   }
 237:../Dave/Generated/SPI_MASTER/spi_master.c ****   else
 238:../Dave/Generated/SPI_MASTER/spi_master.c ****   {
 239:../Dave/Generated/SPI_MASTER/spi_master.c ****     status = SPI_MASTER_STATUS_BUSY;
 240:../Dave/Generated/SPI_MASTER/spi_master.c ****   }
 241:../Dave/Generated/SPI_MASTER/spi_master.c ****   return status;
 242:../Dave/Generated/SPI_MASTER/spi_master.c **** }
 243:../Dave/Generated/SPI_MASTER/spi_master.c **** 
 244:../Dave/Generated/SPI_MASTER/spi_master.c **** /*
 245:../Dave/Generated/SPI_MASTER/spi_master.c ****  * Set the baud rate during runtime.
 246:../Dave/Generated/SPI_MASTER/spi_master.c ****  */
 247:../Dave/Generated/SPI_MASTER/spi_master.c **** SPI_MASTER_STATUS_t SPI_MASTER_SetBaudRate(SPI_MASTER_t* const handle, const uint32_t baud_rate)
 248:../Dave/Generated/SPI_MASTER/spi_master.c **** {
 249:../Dave/Generated/SPI_MASTER/spi_master.c ****   SPI_MASTER_STATUS_t status;
 250:../Dave/Generated/SPI_MASTER/spi_master.c **** 
 251:../Dave/Generated/SPI_MASTER/spi_master.c ****   if ((false == handle->runtime->tx_busy) && (false == handle->runtime->rx_busy))
 252:../Dave/Generated/SPI_MASTER/spi_master.c ****   {
 253:../Dave/Generated/SPI_MASTER/spi_master.c ****     /* Stops the SPI channel */
 254:../Dave/Generated/SPI_MASTER/spi_master.c ****     status = (SPI_MASTER_STATUS_t)XMC_SPI_CH_Stop(handle->channel);
 255:../Dave/Generated/SPI_MASTER/spi_master.c **** 
 256:../Dave/Generated/SPI_MASTER/spi_master.c ****     if (SPI_MASTER_STATUS_SUCCESS == status)
 257:../Dave/Generated/SPI_MASTER/spi_master.c ****     {
 258:../Dave/Generated/SPI_MASTER/spi_master.c ****       /* Set all the pins as input */
 259:../Dave/Generated/SPI_MASTER/spi_master.c ****       SPI_MASTER_lPortModeReset(handle);
 260:../Dave/Generated/SPI_MASTER/spi_master.c **** 
 261:../Dave/Generated/SPI_MASTER/spi_master.c ****       /* Update the new baud rate */
 262:../Dave/Generated/SPI_MASTER/spi_master.c ****       status = (SPI_MASTER_STATUS_t)XMC_SPI_CH_SetBaudrate(handle->channel, baud_rate);
 263:../Dave/Generated/SPI_MASTER/spi_master.c **** 
 264:../Dave/Generated/SPI_MASTER/spi_master.c ****       if (SPI_MASTER_STATUS_SUCCESS == status)
 265:../Dave/Generated/SPI_MASTER/spi_master.c ****       {
 266:../Dave/Generated/SPI_MASTER/spi_master.c ****         /* Configure Leading/Trailing delay */
 267:../Dave/Generated/SPI_MASTER/spi_master.c ****         XMC_SPI_CH_SetSlaveSelectDelay(handle->channel, (uint32_t)handle->config->leading_trailing_
 268:../Dave/Generated/SPI_MASTER/spi_master.c ****       }
 269:../Dave/Generated/SPI_MASTER/spi_master.c **** 
 270:../Dave/Generated/SPI_MASTER/spi_master.c ****       /* Configure the clock polarity and clock delay */
 271:../Dave/Generated/SPI_MASTER/spi_master.c ****       XMC_SPI_CH_ConfigureShiftClockOutput(handle->channel,
 272:../Dave/Generated/SPI_MASTER/spi_master.c ****                                            handle->config->shift_clk_passive_level,
 273:../Dave/Generated/SPI_MASTER/spi_master.c ****                                            XMC_SPI_CH_BRG_SHIFT_CLOCK_OUTPUT_SCLK);
 274:../Dave/Generated/SPI_MASTER/spi_master.c ****       /* Start the SPI channel */
 275:../Dave/Generated/SPI_MASTER/spi_master.c ****       XMC_SPI_CH_Start(handle->channel);
 276:../Dave/Generated/SPI_MASTER/spi_master.c **** 
 277:../Dave/Generated/SPI_MASTER/spi_master.c ****       /* Set the mode of the according the generated configuration */
 278:../Dave/Generated/SPI_MASTER/spi_master.c ****       SPI_MASTER_lPortModeSet(handle);
 279:../Dave/Generated/SPI_MASTER/spi_master.c ****     }
 280:../Dave/Generated/SPI_MASTER/spi_master.c ****   }
 281:../Dave/Generated/SPI_MASTER/spi_master.c ****   else
 282:../Dave/Generated/SPI_MASTER/spi_master.c ****   {
 283:../Dave/Generated/SPI_MASTER/spi_master.c ****     status = SPI_MASTER_STATUS_BUSY;
 284:../Dave/Generated/SPI_MASTER/spi_master.c ****   }
 285:../Dave/Generated/SPI_MASTER/spi_master.c **** 
 286:../Dave/Generated/SPI_MASTER/spi_master.c ****   return status;
 287:../Dave/Generated/SPI_MASTER/spi_master.c **** }
 288:../Dave/Generated/SPI_MASTER/spi_master.c **** 
 289:../Dave/Generated/SPI_MASTER/spi_master.c **** SPI_MASTER_STATUS_t SPI_MASTER_Transmit(const SPI_MASTER_t *const handle, uint8_t* dataptr, uint32_
 290:../Dave/Generated/SPI_MASTER/spi_master.c **** {
 291:../Dave/Generated/SPI_MASTER/spi_master.c ****   SPI_MASTER_STATUS_t status;
 292:../Dave/Generated/SPI_MASTER/spi_master.c ****   
 293:../Dave/Generated/SPI_MASTER/spi_master.c ****    status = SPI_MASTER_STATUS_FAILURE;
 294:../Dave/Generated/SPI_MASTER/spi_master.c **** 
 295:../Dave/Generated/SPI_MASTER/spi_master.c **** #if (SPI_MASTER_INTERRUPT_TRANSMIT_MODE == 1U)
 296:../Dave/Generated/SPI_MASTER/spi_master.c ****   if (handle->config->transmit_mode == SPI_MASTER_TRANSFER_MODE_INTERRUPT)
 297:../Dave/Generated/SPI_MASTER/spi_master.c ****   {
 298:../Dave/Generated/SPI_MASTER/spi_master.c ****     status = SPI_MASTER_StartTransmitIRQ(handle, dataptr, count);
 299:../Dave/Generated/SPI_MASTER/spi_master.c ****   }
 300:../Dave/Generated/SPI_MASTER/spi_master.c **** #endif
 301:../Dave/Generated/SPI_MASTER/spi_master.c **** 
 302:../Dave/Generated/SPI_MASTER/spi_master.c **** #if (SPI_MASTER_DMA_TRANSMIT_MODE == 1U)
 303:../Dave/Generated/SPI_MASTER/spi_master.c ****   if (handle->config->transmit_mode == SPI_MASTER_TRANSFER_MODE_DMA)
 304:../Dave/Generated/SPI_MASTER/spi_master.c ****   {
 305:../Dave/Generated/SPI_MASTER/spi_master.c ****     status = SPI_MASTER_StartTransmitDMA(handle, dataptr, count);
 306:../Dave/Generated/SPI_MASTER/spi_master.c ****   }
 307:../Dave/Generated/SPI_MASTER/spi_master.c **** #endif
 308:../Dave/Generated/SPI_MASTER/spi_master.c **** 
 309:../Dave/Generated/SPI_MASTER/spi_master.c **** #if (SPI_MASTER_DIRECT_TRANSMIT_MODE == 1U)
 310:../Dave/Generated/SPI_MASTER/spi_master.c ****   if (handle->config->transmit_mode == SPI_MASTER_TRANSFER_MODE_DIRECT)
 311:../Dave/Generated/SPI_MASTER/spi_master.c ****   {
 312:../Dave/Generated/SPI_MASTER/spi_master.c ****     status = SPI_MASTER_lStartTransmitPolling(handle, dataptr, count);
 313:../Dave/Generated/SPI_MASTER/spi_master.c ****   }
 314:../Dave/Generated/SPI_MASTER/spi_master.c **** #endif
 315:../Dave/Generated/SPI_MASTER/spi_master.c **** 
 316:../Dave/Generated/SPI_MASTER/spi_master.c ****   return status;
 317:../Dave/Generated/SPI_MASTER/spi_master.c **** }
 318:../Dave/Generated/SPI_MASTER/spi_master.c **** 
 319:../Dave/Generated/SPI_MASTER/spi_master.c **** SPI_MASTER_STATUS_t SPI_MASTER_Receive(const SPI_MASTER_t *const handle, uint8_t* dataptr, uint32_t
 320:../Dave/Generated/SPI_MASTER/spi_master.c **** {
 321:../Dave/Generated/SPI_MASTER/spi_master.c ****   SPI_MASTER_STATUS_t status;
 322:../Dave/Generated/SPI_MASTER/spi_master.c **** 
 323:../Dave/Generated/SPI_MASTER/spi_master.c ****   status = SPI_MASTER_STATUS_FAILURE;
 324:../Dave/Generated/SPI_MASTER/spi_master.c **** 
 325:../Dave/Generated/SPI_MASTER/spi_master.c **** #if (SPI_MASTER_INTERRUPT_RECEIVE_MODE == 1U)
 326:../Dave/Generated/SPI_MASTER/spi_master.c ****   if (handle->config->receive_mode == SPI_MASTER_TRANSFER_MODE_INTERRUPT)
 327:../Dave/Generated/SPI_MASTER/spi_master.c ****   {
 328:../Dave/Generated/SPI_MASTER/spi_master.c ****     status = SPI_MASTER_StartReceiveIRQ(handle, dataptr, count);
 329:../Dave/Generated/SPI_MASTER/spi_master.c ****   }
 330:../Dave/Generated/SPI_MASTER/spi_master.c **** #endif
 331:../Dave/Generated/SPI_MASTER/spi_master.c **** 
 332:../Dave/Generated/SPI_MASTER/spi_master.c **** #if (SPI_MASTER_DMA_RECEIVE_MODE == 1U)
 333:../Dave/Generated/SPI_MASTER/spi_master.c ****   if (handle->config->receive_mode == SPI_MASTER_TRANSFER_MODE_DMA)
 334:../Dave/Generated/SPI_MASTER/spi_master.c ****   {
 335:../Dave/Generated/SPI_MASTER/spi_master.c ****     status = SPI_MASTER_StartReceiveDMA(handle, dataptr, count);
 336:../Dave/Generated/SPI_MASTER/spi_master.c ****   }
 337:../Dave/Generated/SPI_MASTER/spi_master.c **** #endif
 338:../Dave/Generated/SPI_MASTER/spi_master.c **** 
 339:../Dave/Generated/SPI_MASTER/spi_master.c **** #if (SPI_MASTER_DIRECT_RECEIVE_MODE == 1U)
 340:../Dave/Generated/SPI_MASTER/spi_master.c ****   if (handle->config->receive_mode == SPI_MASTER_TRANSFER_MODE_DIRECT)
 341:../Dave/Generated/SPI_MASTER/spi_master.c ****   {
 342:../Dave/Generated/SPI_MASTER/spi_master.c ****     status = SPI_MASTER_lStartReceivePolling(handle, dataptr, count);
 343:../Dave/Generated/SPI_MASTER/spi_master.c ****   }
 344:../Dave/Generated/SPI_MASTER/spi_master.c **** #endif
 345:../Dave/Generated/SPI_MASTER/spi_master.c **** 
 346:../Dave/Generated/SPI_MASTER/spi_master.c ****   return status;
 347:../Dave/Generated/SPI_MASTER/spi_master.c **** }
 348:../Dave/Generated/SPI_MASTER/spi_master.c **** 
 349:../Dave/Generated/SPI_MASTER/spi_master.c **** #if (SPI_MASTER_INTERRUPT_TRANSMIT_MODE == 1U)
 350:../Dave/Generated/SPI_MASTER/spi_master.c **** /*
 351:../Dave/Generated/SPI_MASTER/spi_master.c ****  * Transmit the number of data words specified.
 352:../Dave/Generated/SPI_MASTER/spi_master.c ****  */
 353:../Dave/Generated/SPI_MASTER/spi_master.c **** SPI_MASTER_STATUS_t SPI_MASTER_StartTransmitIRQ(const SPI_MASTER_t *const handle, uint8_t* dataptr,
 354:../Dave/Generated/SPI_MASTER/spi_master.c **** {
 355:../Dave/Generated/SPI_MASTER/spi_master.c ****   SPI_MASTER_STATUS_t status;
 356:../Dave/Generated/SPI_MASTER/spi_master.c ****   uint32_t bytes_per_word = SPI_MASTER_1_BYTE_PER_WORD; /* This is to support the word length 8 and
 357:../Dave/Generated/SPI_MASTER/spi_master.c ****                                                            Specify the number of bytes for the conf
 358:../Dave/Generated/SPI_MASTER/spi_master.c ****   SPI_MASTER_RUNTIME_t * runtime_handle;
 359:../Dave/Generated/SPI_MASTER/spi_master.c **** 
 360:../Dave/Generated/SPI_MASTER/spi_master.c ****   XMC_ASSERT("SPI_MASTER_StartTransmitIRQ:handle NULL" , (handle != NULL));
 361:../Dave/Generated/SPI_MASTER/spi_master.c **** 
 362:../Dave/Generated/SPI_MASTER/spi_master.c ****   status = SPI_MASTER_STATUS_MODE_MISMATCH;
 363:../Dave/Generated/SPI_MASTER/spi_master.c ****   runtime_handle = handle->runtime;
 364:../Dave/Generated/SPI_MASTER/spi_master.c **** 
 365:../Dave/Generated/SPI_MASTER/spi_master.c ****   if (handle->config->transmit_mode == SPI_MASTER_TRANSFER_MODE_INTERRUPT)
 366:../Dave/Generated/SPI_MASTER/spi_master.c ****   {
 367:../Dave/Generated/SPI_MASTER/spi_master.c ****     /* Check whether SPI channel is free or not */
 368:../Dave/Generated/SPI_MASTER/spi_master.c ****     if ((dataptr != NULL) && (count > 0U))
 369:../Dave/Generated/SPI_MASTER/spi_master.c ****     {
 370:../Dave/Generated/SPI_MASTER/spi_master.c ****       status = SPI_MASTER_STATUS_BUSY;
 371:../Dave/Generated/SPI_MASTER/spi_master.c ****       /*Check data pointer is valid or not*/
 372:../Dave/Generated/SPI_MASTER/spi_master.c ****       if (false == runtime_handle->tx_busy)
 373:../Dave/Generated/SPI_MASTER/spi_master.c ****       {
 374:../Dave/Generated/SPI_MASTER/spi_master.c ****         if (handle->runtime->word_length > SPI_MASTER_WORD_LENGTH_8_BIT)
 375:../Dave/Generated/SPI_MASTER/spi_master.c ****         {
 376:../Dave/Generated/SPI_MASTER/spi_master.c ****           bytes_per_word = SPI_MASTER_2_BYTES_PER_WORD; /* Word length is 16-bits */
 377:../Dave/Generated/SPI_MASTER/spi_master.c ****         }
 378:../Dave/Generated/SPI_MASTER/spi_master.c **** 
 379:../Dave/Generated/SPI_MASTER/spi_master.c ****         /* Obtain the address of data, size of data */
 380:../Dave/Generated/SPI_MASTER/spi_master.c ****         runtime_handle->tx_data = dataptr;
 381:../Dave/Generated/SPI_MASTER/spi_master.c ****         runtime_handle->tx_data_count = (uint32_t)count << (bytes_per_word - 1U);
 382:../Dave/Generated/SPI_MASTER/spi_master.c ****         /* Initialize to first index and set the busy flag */
 383:../Dave/Generated/SPI_MASTER/spi_master.c ****         runtime_handle->tx_data_index = 0U;
 384:../Dave/Generated/SPI_MASTER/spi_master.c ****         runtime_handle->tx_busy = true;
 385:../Dave/Generated/SPI_MASTER/spi_master.c **** 
 386:../Dave/Generated/SPI_MASTER/spi_master.c ****         /* Enable the transmit buffer event */
 387:../Dave/Generated/SPI_MASTER/spi_master.c ****         if ((uint32_t)handle->config->tx_fifo_size > 0U)
 388:../Dave/Generated/SPI_MASTER/spi_master.c ****         {
 389:../Dave/Generated/SPI_MASTER/spi_master.c ****           /* Flush the Transmit FIFO */
 390:../Dave/Generated/SPI_MASTER/spi_master.c ****           XMC_USIC_CH_TXFIFO_Flush(handle->channel);
 391:../Dave/Generated/SPI_MASTER/spi_master.c ****           XMC_USIC_CH_TXFIFO_EnableEvent(handle->channel,(uint32_t)XMC_USIC_CH_TXFIFO_EVENT_CONF_ST
 392:../Dave/Generated/SPI_MASTER/spi_master.c ****         }
 393:../Dave/Generated/SPI_MASTER/spi_master.c ****         else
 394:../Dave/Generated/SPI_MASTER/spi_master.c ****         {
 395:../Dave/Generated/SPI_MASTER/spi_master.c ****           XMC_USIC_CH_EnableEvent(handle->channel,(uint32_t)XMC_USIC_CH_EVENT_TRANSMIT_BUFFER);
 396:../Dave/Generated/SPI_MASTER/spi_master.c ****         }
 397:../Dave/Generated/SPI_MASTER/spi_master.c ****         XMC_SPI_CH_SetTransmitMode(handle->channel, runtime_handle->spi_master_mode);
 398:../Dave/Generated/SPI_MASTER/spi_master.c ****         status = SPI_MASTER_STATUS_SUCCESS;
 399:../Dave/Generated/SPI_MASTER/spi_master.c **** 
 400:../Dave/Generated/SPI_MASTER/spi_master.c ****         /* Trigger the transmit buffer interrupt */
 401:../Dave/Generated/SPI_MASTER/spi_master.c ****         XMC_USIC_CH_TriggerServiceRequest(handle->channel, (uint32_t)handle->config->tx_sr);
 402:../Dave/Generated/SPI_MASTER/spi_master.c ****       }
 403:../Dave/Generated/SPI_MASTER/spi_master.c ****     }
 404:../Dave/Generated/SPI_MASTER/spi_master.c ****     else
 405:../Dave/Generated/SPI_MASTER/spi_master.c ****     {
 406:../Dave/Generated/SPI_MASTER/spi_master.c ****       status = SPI_MASTER_STATUS_BUFFER_INVALID;
 407:../Dave/Generated/SPI_MASTER/spi_master.c ****     }
 408:../Dave/Generated/SPI_MASTER/spi_master.c ****   }
 409:../Dave/Generated/SPI_MASTER/spi_master.c ****   return status;
 410:../Dave/Generated/SPI_MASTER/spi_master.c **** }
 411:../Dave/Generated/SPI_MASTER/spi_master.c **** #endif
 412:../Dave/Generated/SPI_MASTER/spi_master.c **** 
 413:../Dave/Generated/SPI_MASTER/spi_master.c **** #if(SPI_MASTER_DMA_TRANSMIT_MODE == 1U)
 414:../Dave/Generated/SPI_MASTER/spi_master.c **** SPI_MASTER_STATUS_t SPI_MASTER_StartTransmitDMA(const SPI_MASTER_t *const handle, uint8_t *data_ptr
 415:../Dave/Generated/SPI_MASTER/spi_master.c **** {
 416:../Dave/Generated/SPI_MASTER/spi_master.c ****   SPI_MASTER_STATUS_t status;
 417:../Dave/Generated/SPI_MASTER/spi_master.c ****   SPI_MASTER_RUNTIME_t * runtime_handle;
 418:../Dave/Generated/SPI_MASTER/spi_master.c ****   uint32_t dma_ctll;
 419:../Dave/Generated/SPI_MASTER/spi_master.c ****   uint32_t mode;
 420:../Dave/Generated/SPI_MASTER/spi_master.c **** 
 421:../Dave/Generated/SPI_MASTER/spi_master.c ****   XMC_ASSERT("SPI_MASTER_StartTransmitDMA:handle NULL" , (handle != NULL));
 422:../Dave/Generated/SPI_MASTER/spi_master.c **** 
 423:../Dave/Generated/SPI_MASTER/spi_master.c ****   status = SPI_MASTER_STATUS_MODE_MISMATCH;
 424:../Dave/Generated/SPI_MASTER/spi_master.c ****   runtime_handle = handle->runtime;
 425:../Dave/Generated/SPI_MASTER/spi_master.c **** 
 426:../Dave/Generated/SPI_MASTER/spi_master.c ****   if (handle->config->transmit_mode == SPI_MASTER_TRANSFER_MODE_DMA)
 427:../Dave/Generated/SPI_MASTER/spi_master.c ****   {
 428:../Dave/Generated/SPI_MASTER/spi_master.c ****     /* Check whether SPI channel is free or not */
 429:../Dave/Generated/SPI_MASTER/spi_master.c ****     if (false == runtime_handle->tx_busy)
 430:../Dave/Generated/SPI_MASTER/spi_master.c ****     {
 431:../Dave/Generated/SPI_MASTER/spi_master.c ****       /* Check data pointer is valid or not */
 432:../Dave/Generated/SPI_MASTER/spi_master.c ****       if ((data_ptr != NULL) && (block_size > 0U) && (block_size <= SPI_MASTER_DMA_MAXCOUNT))
 433:../Dave/Generated/SPI_MASTER/spi_master.c ****       {
 434:../Dave/Generated/SPI_MASTER/spi_master.c ****         /* Obtain the address of data, size of data */
 435:../Dave/Generated/SPI_MASTER/spi_master.c ****         runtime_handle->tx_data_count = block_size;
 436:../Dave/Generated/SPI_MASTER/spi_master.c ****         /* Initialize to first index and set the busy flag */
 437:../Dave/Generated/SPI_MASTER/spi_master.c ****         runtime_handle->tx_data_index = 0U;
 438:../Dave/Generated/SPI_MASTER/spi_master.c ****         runtime_handle->tx_busy = true;
 439:../Dave/Generated/SPI_MASTER/spi_master.c **** 
 440:../Dave/Generated/SPI_MASTER/spi_master.c ****         if (runtime_handle->tx_data_dummy == true)
 441:../Dave/Generated/SPI_MASTER/spi_master.c ****         {
 442:../Dave/Generated/SPI_MASTER/spi_master.c ****           dma_ctll = (uint32_t)handle->global_dma->dma->CH[handle->dma_ch_tx_number].CTLL;
 443:../Dave/Generated/SPI_MASTER/spi_master.c **** 
 444:../Dave/Generated/SPI_MASTER/spi_master.c ****           dma_ctll = (uint32_t)(dma_ctll & (uint32_t)(~(GPDMA0_CH_CTLL_SINC_Msk))) |
 445:../Dave/Generated/SPI_MASTER/spi_master.c ****                                ((uint32_t)XMC_DMA_CH_ADDRESS_COUNT_MODE_NO_CHANGE << GPDMA0_CH_CTLL
 446:../Dave/Generated/SPI_MASTER/spi_master.c **** 
 447:../Dave/Generated/SPI_MASTER/spi_master.c ****           handle->global_dma->dma->CH[handle->dma_ch_tx_number].CTLL = dma_ctll;
 448:../Dave/Generated/SPI_MASTER/spi_master.c ****           mode = (uint32_t)((uint32_t)handle->runtime->spi_master_mode & 0xfffbU);
 449:../Dave/Generated/SPI_MASTER/spi_master.c ****         }
 450:../Dave/Generated/SPI_MASTER/spi_master.c ****         else
 451:../Dave/Generated/SPI_MASTER/spi_master.c ****         {
 452:../Dave/Generated/SPI_MASTER/spi_master.c ****           runtime_handle->tx_data = data_ptr;
 453:../Dave/Generated/SPI_MASTER/spi_master.c ****           dma_ctll = handle->global_dma->dma->CH[handle->dma_ch_tx_number].CTLL;
 454:../Dave/Generated/SPI_MASTER/spi_master.c **** 
 455:../Dave/Generated/SPI_MASTER/spi_master.c ****           dma_ctll = (uint32_t)(dma_ctll & (~GPDMA0_CH_CTLL_SINC_Msk)) |
 456:../Dave/Generated/SPI_MASTER/spi_master.c ****                                ((uint32_t)XMC_DMA_CH_ADDRESS_COUNT_MODE_INCREMENT << GPDMA0_CH_CTLL
 457:../Dave/Generated/SPI_MASTER/spi_master.c **** 
 458:../Dave/Generated/SPI_MASTER/spi_master.c ****           handle->global_dma->dma->CH[handle->dma_ch_tx_number].CTLL = dma_ctll;
 459:../Dave/Generated/SPI_MASTER/spi_master.c ****           mode = (uint32_t)handle->runtime->spi_master_mode;
 460:../Dave/Generated/SPI_MASTER/spi_master.c ****         }
 461:../Dave/Generated/SPI_MASTER/spi_master.c **** 
 462:../Dave/Generated/SPI_MASTER/spi_master.c ****         /* Enable transmit event generation */
 463:../Dave/Generated/SPI_MASTER/spi_master.c ****         XMC_SPI_CH_EnableEvent(handle->channel, (uint32_t)XMC_SPI_CH_EVENT_RECEIVE_START);
 464:../Dave/Generated/SPI_MASTER/spi_master.c **** 
 465:../Dave/Generated/SPI_MASTER/spi_master.c ****         XMC_DMA_CH_SetBlockSize(handle->global_dma->dma, handle->dma_ch_tx_number, block_size);
 466:../Dave/Generated/SPI_MASTER/spi_master.c **** 
 467:../Dave/Generated/SPI_MASTER/spi_master.c ****         XMC_DMA_CH_SetSourceAddress(handle->global_dma->dma, handle->dma_ch_tx_number, (uint32_t)ru
 468:../Dave/Generated/SPI_MASTER/spi_master.c **** 
 469:../Dave/Generated/SPI_MASTER/spi_master.c ****         XMC_SPI_CH_SetTransmitMode(handle->channel, runtime_handle->spi_master_mode);
 470:../Dave/Generated/SPI_MASTER/spi_master.c **** 
 471:../Dave/Generated/SPI_MASTER/spi_master.c ****         XMC_DMA_CH_SetDestinationAddress(handle->global_dma->dma,
 472:../Dave/Generated/SPI_MASTER/spi_master.c ****                                          handle->dma_ch_tx_number,
 473:../Dave/Generated/SPI_MASTER/spi_master.c ****                                          (uint32_t)&(handle->channel->TBUF[mode]));
 474:../Dave/Generated/SPI_MASTER/spi_master.c **** 
 475:../Dave/Generated/SPI_MASTER/spi_master.c ****         status = SPI_MASTER_STATUS_SUCCESS;
 476:../Dave/Generated/SPI_MASTER/spi_master.c **** 
 477:../Dave/Generated/SPI_MASTER/spi_master.c ****         XMC_DMA_CH_Enable(handle->global_dma->dma, handle->dma_ch_tx_number);
 478:../Dave/Generated/SPI_MASTER/spi_master.c ****       }
 479:../Dave/Generated/SPI_MASTER/spi_master.c ****       else
 480:../Dave/Generated/SPI_MASTER/spi_master.c ****       {
 481:../Dave/Generated/SPI_MASTER/spi_master.c ****         status = SPI_MASTER_STATUS_BUFFER_INVALID;
 482:../Dave/Generated/SPI_MASTER/spi_master.c ****       }
 483:../Dave/Generated/SPI_MASTER/spi_master.c ****     }
 484:../Dave/Generated/SPI_MASTER/spi_master.c ****     else
 485:../Dave/Generated/SPI_MASTER/spi_master.c ****     {
 486:../Dave/Generated/SPI_MASTER/spi_master.c ****       status = SPI_MASTER_STATUS_BUSY;
 487:../Dave/Generated/SPI_MASTER/spi_master.c ****     }
 488:../Dave/Generated/SPI_MASTER/spi_master.c ****   }
 489:../Dave/Generated/SPI_MASTER/spi_master.c **** 
 490:../Dave/Generated/SPI_MASTER/spi_master.c ****   return status;
 491:../Dave/Generated/SPI_MASTER/spi_master.c **** }
 492:../Dave/Generated/SPI_MASTER/spi_master.c **** #endif
 493:../Dave/Generated/SPI_MASTER/spi_master.c **** 
 494:../Dave/Generated/SPI_MASTER/spi_master.c **** #if (SPI_MASTER_DIRECT_TRANSMIT_MODE == 1U)
 495:../Dave/Generated/SPI_MASTER/spi_master.c **** SPI_MASTER_STATUS_t SPI_MASTER_lStartTransmitPolling(const SPI_MASTER_t *const handle, uint8_t* dat
 496:../Dave/Generated/SPI_MASTER/spi_master.c **** {
 497:../Dave/Generated/SPI_MASTER/spi_master.c ****   SPI_MASTER_STATUS_t status;
 498:../Dave/Generated/SPI_MASTER/spi_master.c ****   uint16_t data;
 499:../Dave/Generated/SPI_MASTER/spi_master.c ****   uint32_t bytes_per_word = SPI_MASTER_1_BYTE_PER_WORD;; /* This is to support the word length 8 an
 500:../Dave/Generated/SPI_MASTER/spi_master.c ****                                                             Specify the number of bytes for the con
 501:../Dave/Generated/SPI_MASTER/spi_master.c ****   SPI_MASTER_RUNTIME_t * runtime_handle;
 502:../Dave/Generated/SPI_MASTER/spi_master.c **** 
 503:../Dave/Generated/SPI_MASTER/spi_master.c ****   status = SPI_MASTER_STATUS_BUSY;
 504:../Dave/Generated/SPI_MASTER/spi_master.c ****   runtime_handle = handle->runtime;
 505:../Dave/Generated/SPI_MASTER/spi_master.c ****   data = 0U;
 506:../Dave/Generated/SPI_MASTER/spi_master.c **** 
 507:../Dave/Generated/SPI_MASTER/spi_master.c ****   XMC_ASSERT("SPI_MASTER_lStartTransmitPolling:handle NULL" , (handle != NULL));
 508:../Dave/Generated/SPI_MASTER/spi_master.c **** 
 509:../Dave/Generated/SPI_MASTER/spi_master.c ****   /* Check whether SPI channel is free or not */
 510:../Dave/Generated/SPI_MASTER/spi_master.c ****   if ((dataptr != NULL) && (count > 0U))
 511:../Dave/Generated/SPI_MASTER/spi_master.c ****   {
 512:../Dave/Generated/SPI_MASTER/spi_master.c ****     /* Check data pointer is valid or not */
 513:../Dave/Generated/SPI_MASTER/spi_master.c ****     if (false == runtime_handle->tx_busy)
 514:../Dave/Generated/SPI_MASTER/spi_master.c ****     {
 515:../Dave/Generated/SPI_MASTER/spi_master.c ****       if (handle->runtime->word_length > SPI_MASTER_WORD_LENGTH_8_BIT)
 516:../Dave/Generated/SPI_MASTER/spi_master.c ****       {
 517:../Dave/Generated/SPI_MASTER/spi_master.c ****         bytes_per_word = SPI_MASTER_2_BYTES_PER_WORD; /* Word length is 16-bits */
 518:../Dave/Generated/SPI_MASTER/spi_master.c ****       }
 519:../Dave/Generated/SPI_MASTER/spi_master.c **** 
 520:../Dave/Generated/SPI_MASTER/spi_master.c ****       runtime_handle->tx_busy = true;
 521:../Dave/Generated/SPI_MASTER/spi_master.c ****       /* Obtain the address of data, size of data */
 522:../Dave/Generated/SPI_MASTER/spi_master.c ****       runtime_handle->tx_data = dataptr;
 523:../Dave/Generated/SPI_MASTER/spi_master.c ****       runtime_handle->tx_data_count = (uint32_t)count << (bytes_per_word - 1U);
 524:../Dave/Generated/SPI_MASTER/spi_master.c ****       /* Initialize to first index and set the busy flag */
 525:../Dave/Generated/SPI_MASTER/spi_master.c ****       runtime_handle->tx_data_index = 0U;
 526:../Dave/Generated/SPI_MASTER/spi_master.c **** 
 527:../Dave/Generated/SPI_MASTER/spi_master.c ****       XMC_SPI_CH_SetTransmitMode(handle->channel, runtime_handle->spi_master_mode);
 528:../Dave/Generated/SPI_MASTER/spi_master.c **** 
 529:../Dave/Generated/SPI_MASTER/spi_master.c ****       if ((uint32_t)handle->config->tx_fifo_size > 0U)
 530:../Dave/Generated/SPI_MASTER/spi_master.c ****       {
 531:../Dave/Generated/SPI_MASTER/spi_master.c ****         /* Flush the Transmit FIFO */
 532:../Dave/Generated/SPI_MASTER/spi_master.c ****         XMC_USIC_CH_TXFIFO_Flush(handle->channel);
 533:../Dave/Generated/SPI_MASTER/spi_master.c **** 
 534:../Dave/Generated/SPI_MASTER/spi_master.c ****         while (runtime_handle->tx_data_index < runtime_handle->tx_data_count)
 535:../Dave/Generated/SPI_MASTER/spi_master.c ****         {
 536:../Dave/Generated/SPI_MASTER/spi_master.c ****           while (XMC_USIC_CH_TXFIFO_IsFull(handle->channel) == true)
 537:../Dave/Generated/SPI_MASTER/spi_master.c ****           {
 538:../Dave/Generated/SPI_MASTER/spi_master.c ****               /* Wait until FIFO is having space for next entry */
 539:../Dave/Generated/SPI_MASTER/spi_master.c ****           }
 540:../Dave/Generated/SPI_MASTER/spi_master.c ****           if (runtime_handle->tx_data_dummy == true)
 541:../Dave/Generated/SPI_MASTER/spi_master.c ****           {
 542:../Dave/Generated/SPI_MASTER/spi_master.c ****             XMC_USIC_CH_TXFIFO_PutDataHPCMode(handle->channel, 0xFFFFU, (uint32_t)runtime_handle->s
 543:../Dave/Generated/SPI_MASTER/spi_master.c ****           }
 544:../Dave/Generated/SPI_MASTER/spi_master.c ****           else
 545:../Dave/Generated/SPI_MASTER/spi_master.c ****           {
 546:../Dave/Generated/SPI_MASTER/spi_master.c ****             if(bytes_per_word == SPI_MASTER_2_BYTES_PER_WORD)
 547:../Dave/Generated/SPI_MASTER/spi_master.c ****             {
 548:../Dave/Generated/SPI_MASTER/spi_master.c ****               data = *((uint16_t*)&runtime_handle->tx_data[runtime_handle->tx_data_index]);
 549:../Dave/Generated/SPI_MASTER/spi_master.c ****             }
 550:../Dave/Generated/SPI_MASTER/spi_master.c ****             else
 551:../Dave/Generated/SPI_MASTER/spi_master.c ****             {
 552:../Dave/Generated/SPI_MASTER/spi_master.c ****               data = runtime_handle->tx_data[runtime_handle->tx_data_index];
 553:../Dave/Generated/SPI_MASTER/spi_master.c ****             }
 554:../Dave/Generated/SPI_MASTER/spi_master.c ****             XMC_USIC_CH_TXFIFO_PutDataHPCMode(handle->channel, data, (uint32_t)runtime_handle->spi_
 555:../Dave/Generated/SPI_MASTER/spi_master.c ****           }
 556:../Dave/Generated/SPI_MASTER/spi_master.c ****           (runtime_handle->tx_data_index)+= bytes_per_word;
 557:../Dave/Generated/SPI_MASTER/spi_master.c ****         }
 558:../Dave/Generated/SPI_MASTER/spi_master.c ****       }
 559:../Dave/Generated/SPI_MASTER/spi_master.c ****       else
 560:../Dave/Generated/SPI_MASTER/spi_master.c ****       {
 561:../Dave/Generated/SPI_MASTER/spi_master.c ****         do
 562:../Dave/Generated/SPI_MASTER/spi_master.c ****         {
 563:../Dave/Generated/SPI_MASTER/spi_master.c ****           while((uint32_t)XMC_USIC_CH_GetTransmitBufferStatus(handle->channel) == (uint32_t)XMC_USI
 564:../Dave/Generated/SPI_MASTER/spi_master.c ****           {
 565:../Dave/Generated/SPI_MASTER/spi_master.c ****           }
 566:../Dave/Generated/SPI_MASTER/spi_master.c **** 
 567:../Dave/Generated/SPI_MASTER/spi_master.c ****           if (runtime_handle->tx_data_dummy == true)
 568:../Dave/Generated/SPI_MASTER/spi_master.c ****           {
 569:../Dave/Generated/SPI_MASTER/spi_master.c ****             XMC_USIC_CH_WriteToTBUFTCI(handle->channel, 0xFFFFU, runtime_handle->spi_master_mode);
 570:../Dave/Generated/SPI_MASTER/spi_master.c ****           }
 571:../Dave/Generated/SPI_MASTER/spi_master.c ****           else
 572:../Dave/Generated/SPI_MASTER/spi_master.c ****           {
 573:../Dave/Generated/SPI_MASTER/spi_master.c ****             if(bytes_per_word == SPI_MASTER_2_BYTES_PER_WORD)
 574:../Dave/Generated/SPI_MASTER/spi_master.c ****             {
 575:../Dave/Generated/SPI_MASTER/spi_master.c ****               data = *((uint16_t*)&runtime_handle->tx_data[runtime_handle->tx_data_index]);
 576:../Dave/Generated/SPI_MASTER/spi_master.c ****             }
 577:../Dave/Generated/SPI_MASTER/spi_master.c ****             else
 578:../Dave/Generated/SPI_MASTER/spi_master.c ****             {
 579:../Dave/Generated/SPI_MASTER/spi_master.c ****               data = runtime_handle->tx_data[runtime_handle->tx_data_index];
 580:../Dave/Generated/SPI_MASTER/spi_master.c ****             }
 581:../Dave/Generated/SPI_MASTER/spi_master.c ****             XMC_USIC_CH_WriteToTBUFTCI(handle->channel, data, runtime_handle->spi_master_mode);
 582:../Dave/Generated/SPI_MASTER/spi_master.c ****           }
 583:../Dave/Generated/SPI_MASTER/spi_master.c ****           (runtime_handle->tx_data_index)+=bytes_per_word;
 584:../Dave/Generated/SPI_MASTER/spi_master.c **** 
 585:../Dave/Generated/SPI_MASTER/spi_master.c ****           while ((XMC_SPI_CH_GetStatusFlag(handle->channel) & (uint32_t)XMC_SPI_CH_STATUS_FLAG_RECE
 586:../Dave/Generated/SPI_MASTER/spi_master.c ****           {
 587:../Dave/Generated/SPI_MASTER/spi_master.c **** 
 588:../Dave/Generated/SPI_MASTER/spi_master.c ****           }
 589:../Dave/Generated/SPI_MASTER/spi_master.c ****           XMC_SPI_CH_ClearStatusFlag(handle->channel, (uint32_t)XMC_SPI_CH_STATUS_FLAG_RECEIVER_STA
 590:../Dave/Generated/SPI_MASTER/spi_master.c ****         } while(runtime_handle->tx_data_index < runtime_handle->tx_data_count);
 591:../Dave/Generated/SPI_MASTER/spi_master.c ****       }
 592:../Dave/Generated/SPI_MASTER/spi_master.c **** 
 593:../Dave/Generated/SPI_MASTER/spi_master.c ****       while((uint32_t)XMC_USIC_CH_GetTransmitBufferStatus(handle->channel) == (uint32_t)XMC_USIC_CH
 594:../Dave/Generated/SPI_MASTER/spi_master.c ****       {
 595:../Dave/Generated/SPI_MASTER/spi_master.c ****       }
 596:../Dave/Generated/SPI_MASTER/spi_master.c **** 
 597:../Dave/Generated/SPI_MASTER/spi_master.c ****       runtime_handle->tx_busy = false;
 598:../Dave/Generated/SPI_MASTER/spi_master.c ****       runtime_handle->tx_data_count = 0U;
 599:../Dave/Generated/SPI_MASTER/spi_master.c ****       runtime_handle->tx_data_index = 0U;
 600:../Dave/Generated/SPI_MASTER/spi_master.c ****       status = SPI_MASTER_STATUS_SUCCESS;
 601:../Dave/Generated/SPI_MASTER/spi_master.c ****     }
 602:../Dave/Generated/SPI_MASTER/spi_master.c ****   }
 603:../Dave/Generated/SPI_MASTER/spi_master.c ****   else
 604:../Dave/Generated/SPI_MASTER/spi_master.c ****   {
 605:../Dave/Generated/SPI_MASTER/spi_master.c ****     status = SPI_MASTER_STATUS_BUFFER_INVALID;
 606:../Dave/Generated/SPI_MASTER/spi_master.c ****   }
 607:../Dave/Generated/SPI_MASTER/spi_master.c ****   runtime_handle->rx_data_dummy = true;
 608:../Dave/Generated/SPI_MASTER/spi_master.c ****   return status;
 609:../Dave/Generated/SPI_MASTER/spi_master.c **** }
 610:../Dave/Generated/SPI_MASTER/spi_master.c **** #endif
 611:../Dave/Generated/SPI_MASTER/spi_master.c **** 
 612:../Dave/Generated/SPI_MASTER/spi_master.c **** #if (SPI_MASTER_DIRECT_RECEIVE_MODE == 1U)
 613:../Dave/Generated/SPI_MASTER/spi_master.c **** 
 614:../Dave/Generated/SPI_MASTER/spi_master.c **** SPI_MASTER_STATUS_t SPI_MASTER_lStartReceivePolling(const SPI_MASTER_t *const handle, uint8_t* data
 615:../Dave/Generated/SPI_MASTER/spi_master.c **** {
 616:../Dave/Generated/SPI_MASTER/spi_master.c ****   SPI_MASTER_STATUS_t status;
 617:../Dave/Generated/SPI_MASTER/spi_master.c **** 
 618:../Dave/Generated/SPI_MASTER/spi_master.c ****   SPI_MASTER_RUNTIME_t * runtime_handle;
 619:../Dave/Generated/SPI_MASTER/spi_master.c ****   static uint8_t dummy_data[2] = {0xFFU, 0xFFU};
 620:../Dave/Generated/SPI_MASTER/spi_master.c **** 
 621:../Dave/Generated/SPI_MASTER/spi_master.c ****   XMC_ASSERT("SPI_MASTER_lStartReceivePolling:handle NULL" , (handle != NULL));
 622:../Dave/Generated/SPI_MASTER/spi_master.c **** 
 623:../Dave/Generated/SPI_MASTER/spi_master.c ****   status = SPI_MASTER_STATUS_BUSY;
 624:../Dave/Generated/SPI_MASTER/spi_master.c ****   runtime_handle = handle->runtime;
 625:../Dave/Generated/SPI_MASTER/spi_master.c **** 
 626:../Dave/Generated/SPI_MASTER/spi_master.c ****   if ((dataptr != NULL) && (count > 0U))
 627:../Dave/Generated/SPI_MASTER/spi_master.c ****   {
 628:../Dave/Generated/SPI_MASTER/spi_master.c ****     /*Check data pointer is valid or not*/
 629:../Dave/Generated/SPI_MASTER/spi_master.c ****     if ((false == runtime_handle->rx_busy) && (false == runtime_handle->tx_busy))
 630:../Dave/Generated/SPI_MASTER/spi_master.c ****     {
 631:../Dave/Generated/SPI_MASTER/spi_master.c ****       runtime_handle->rx_busy = true;
 632:../Dave/Generated/SPI_MASTER/spi_master.c ****       runtime_handle->rx_data = dataptr;
 633:../Dave/Generated/SPI_MASTER/spi_master.c ****       runtime_handle->tx_data = &dummy_data[0];
 634:../Dave/Generated/SPI_MASTER/spi_master.c ****       runtime_handle->tx_data_dummy = true;
 635:../Dave/Generated/SPI_MASTER/spi_master.c ****       runtime_handle->rx_data_dummy = false;
 636:../Dave/Generated/SPI_MASTER/spi_master.c **** 
 637:../Dave/Generated/SPI_MASTER/spi_master.c ****       status = SPI_MASTER_lReceivePolling(handle, count);
 638:../Dave/Generated/SPI_MASTER/spi_master.c **** 
 639:../Dave/Generated/SPI_MASTER/spi_master.c ****       runtime_handle->tx_data_dummy = false;
 640:../Dave/Generated/SPI_MASTER/spi_master.c ****       runtime_handle->rx_busy = false;
 641:../Dave/Generated/SPI_MASTER/spi_master.c ****     }
 642:../Dave/Generated/SPI_MASTER/spi_master.c ****   }
 643:../Dave/Generated/SPI_MASTER/spi_master.c ****   else
 644:../Dave/Generated/SPI_MASTER/spi_master.c ****   {
 645:../Dave/Generated/SPI_MASTER/spi_master.c ****     status = SPI_MASTER_STATUS_BUFFER_INVALID;
 646:../Dave/Generated/SPI_MASTER/spi_master.c ****   }
 647:../Dave/Generated/SPI_MASTER/spi_master.c ****   return status;
 648:../Dave/Generated/SPI_MASTER/spi_master.c **** }
 649:../Dave/Generated/SPI_MASTER/spi_master.c **** 
 650:../Dave/Generated/SPI_MASTER/spi_master.c **** 
 651:../Dave/Generated/SPI_MASTER/spi_master.c **** #endif
 652:../Dave/Generated/SPI_MASTER/spi_master.c **** 
 653:../Dave/Generated/SPI_MASTER/spi_master.c **** #if (SPI_MASTER_INTERRUPT_RECEIVE_MODE == 1U)
 654:../Dave/Generated/SPI_MASTER/spi_master.c **** /*
 655:../Dave/Generated/SPI_MASTER/spi_master.c ****  * Receive the specified the number of data words.
 656:../Dave/Generated/SPI_MASTER/spi_master.c ****  */
 657:../Dave/Generated/SPI_MASTER/spi_master.c **** SPI_MASTER_STATUS_t SPI_MASTER_StartReceiveIRQ(const SPI_MASTER_t *const handle, uint8_t* dataptr, 
 658:../Dave/Generated/SPI_MASTER/spi_master.c **** {
 659:../Dave/Generated/SPI_MASTER/spi_master.c ****   SPI_MASTER_STATUS_t status;
 660:../Dave/Generated/SPI_MASTER/spi_master.c ****   SPI_MASTER_RUNTIME_t * runtime_handle;
 661:../Dave/Generated/SPI_MASTER/spi_master.c ****   static uint8_t dummy_data[2] = {0xFFU, 0xFFU};
 662:../Dave/Generated/SPI_MASTER/spi_master.c **** 
 663:../Dave/Generated/SPI_MASTER/spi_master.c ****   XMC_ASSERT("SPI_MASTER_StartReceiveIRQ:handle NULL" , (handle != NULL));
 664:../Dave/Generated/SPI_MASTER/spi_master.c **** 
 665:../Dave/Generated/SPI_MASTER/spi_master.c ****   status = SPI_MASTER_STATUS_MODE_MISMATCH;
 666:../Dave/Generated/SPI_MASTER/spi_master.c ****   runtime_handle = handle->runtime;
 667:../Dave/Generated/SPI_MASTER/spi_master.c **** 
 668:../Dave/Generated/SPI_MASTER/spi_master.c ****   if (handle->config->receive_mode == SPI_MASTER_TRANSFER_MODE_INTERRUPT)
 669:../Dave/Generated/SPI_MASTER/spi_master.c ****   {
 670:../Dave/Generated/SPI_MASTER/spi_master.c ****     status = SPI_MASTER_STATUS_BUSY;
 671:../Dave/Generated/SPI_MASTER/spi_master.c ****     /* Check whether SPI channel is free or not */
 672:../Dave/Generated/SPI_MASTER/spi_master.c ****     if ((dataptr != NULL) && (count > 0U))
 673:../Dave/Generated/SPI_MASTER/spi_master.c ****     {
 674:../Dave/Generated/SPI_MASTER/spi_master.c ****       /*Check data pointer is valid or not*/
 675:../Dave/Generated/SPI_MASTER/spi_master.c ****       if ((false == runtime_handle->rx_busy) && (false == runtime_handle->tx_busy))
 676:../Dave/Generated/SPI_MASTER/spi_master.c ****       {
 677:../Dave/Generated/SPI_MASTER/spi_master.c ****         runtime_handle->rx_busy = true;
 678:../Dave/Generated/SPI_MASTER/spi_master.c ****         runtime_handle->rx_data = dataptr;
 679:../Dave/Generated/SPI_MASTER/spi_master.c ****         runtime_handle->tx_data = &dummy_data[0];
 680:../Dave/Generated/SPI_MASTER/spi_master.c ****         runtime_handle->tx_data_count = count;
 681:../Dave/Generated/SPI_MASTER/spi_master.c ****         runtime_handle->tx_data_dummy = true;
 682:../Dave/Generated/SPI_MASTER/spi_master.c ****         runtime_handle->rx_data_dummy = false;
 683:../Dave/Generated/SPI_MASTER/spi_master.c **** 
 684:../Dave/Generated/SPI_MASTER/spi_master.c ****         status = SPI_MASTER_lReceiveIRQ(handle, count);
 685:../Dave/Generated/SPI_MASTER/spi_master.c **** 
 686:../Dave/Generated/SPI_MASTER/spi_master.c ****       }
 687:../Dave/Generated/SPI_MASTER/spi_master.c ****     }
 688:../Dave/Generated/SPI_MASTER/spi_master.c ****     else
 689:../Dave/Generated/SPI_MASTER/spi_master.c ****     {
 690:../Dave/Generated/SPI_MASTER/spi_master.c ****       status = SPI_MASTER_STATUS_BUFFER_INVALID;
 691:../Dave/Generated/SPI_MASTER/spi_master.c ****     }
 692:../Dave/Generated/SPI_MASTER/spi_master.c ****   }
 693:../Dave/Generated/SPI_MASTER/spi_master.c ****   return status;
 694:../Dave/Generated/SPI_MASTER/spi_master.c **** }
 695:../Dave/Generated/SPI_MASTER/spi_master.c **** #endif
 696:../Dave/Generated/SPI_MASTER/spi_master.c **** 
 697:../Dave/Generated/SPI_MASTER/spi_master.c **** #if(SPI_MASTER_DMA_RECEIVE_MODE == 1U)
 698:../Dave/Generated/SPI_MASTER/spi_master.c **** SPI_MASTER_STATUS_t SPI_MASTER_StartReceiveDMA(const SPI_MASTER_t  *const handle, uint8_t *dataptr,
 699:../Dave/Generated/SPI_MASTER/spi_master.c **** {
 700:../Dave/Generated/SPI_MASTER/spi_master.c ****   SPI_MASTER_STATUS_t status;
 701:../Dave/Generated/SPI_MASTER/spi_master.c ****   SPI_MASTER_RUNTIME_t * runtime_handle;
 702:../Dave/Generated/SPI_MASTER/spi_master.c ****   static uint8_t dummy_data[2] = {0xFFU, 0xFFU};
 703:../Dave/Generated/SPI_MASTER/spi_master.c **** 
 704:../Dave/Generated/SPI_MASTER/spi_master.c ****   XMC_ASSERT("SPI_MASTER_StartReceiveDMA:handle NULL" , (handle != NULL));
 705:../Dave/Generated/SPI_MASTER/spi_master.c **** 
 706:../Dave/Generated/SPI_MASTER/spi_master.c ****   status = SPI_MASTER_STATUS_MODE_MISMATCH;
 707:../Dave/Generated/SPI_MASTER/spi_master.c ****   runtime_handle = handle->runtime;
 708:../Dave/Generated/SPI_MASTER/spi_master.c **** 
 709:../Dave/Generated/SPI_MASTER/spi_master.c ****   if (handle->config->receive_mode == SPI_MASTER_TRANSFER_MODE_DMA)
 710:../Dave/Generated/SPI_MASTER/spi_master.c ****   {
 711:../Dave/Generated/SPI_MASTER/spi_master.c ****     status = SPI_MASTER_STATUS_BUSY;
 712:../Dave/Generated/SPI_MASTER/spi_master.c ****     /* Check whether SPI channel is free or not */
 713:../Dave/Generated/SPI_MASTER/spi_master.c ****     if ((false == runtime_handle->rx_busy) && (false == runtime_handle->tx_busy))
 714:../Dave/Generated/SPI_MASTER/spi_master.c ****     {
 715:../Dave/Generated/SPI_MASTER/spi_master.c ****       /* Check data pointer is valid or not */
 716:../Dave/Generated/SPI_MASTER/spi_master.c ****       if ((dataptr != NULL) && (block_size > 0U) && (block_size <= SPI_MASTER_DMA_MAXCOUNT))
 717:../Dave/Generated/SPI_MASTER/spi_master.c ****       {
 718:../Dave/Generated/SPI_MASTER/spi_master.c ****         runtime_handle->rx_busy = true;
 719:../Dave/Generated/SPI_MASTER/spi_master.c ****         runtime_handle->rx_data = dataptr;
 720:../Dave/Generated/SPI_MASTER/spi_master.c ****         runtime_handle->tx_data = &dummy_data[0];
 721:../Dave/Generated/SPI_MASTER/spi_master.c ****         runtime_handle->tx_data_count = block_size;
 722:../Dave/Generated/SPI_MASTER/spi_master.c ****         runtime_handle->tx_data_dummy = true;
 723:../Dave/Generated/SPI_MASTER/spi_master.c ****         runtime_handle->rx_data_dummy = false;
 724:../Dave/Generated/SPI_MASTER/spi_master.c **** 
 725:../Dave/Generated/SPI_MASTER/spi_master.c ****         status = SPI_MASTER_lReceiveDMA(handle, block_size);
 726:../Dave/Generated/SPI_MASTER/spi_master.c ****       }
 727:../Dave/Generated/SPI_MASTER/spi_master.c ****       else
 728:../Dave/Generated/SPI_MASTER/spi_master.c ****       {
 729:../Dave/Generated/SPI_MASTER/spi_master.c ****         status = SPI_MASTER_STATUS_BUFFER_INVALID;
 730:../Dave/Generated/SPI_MASTER/spi_master.c ****       }
 731:../Dave/Generated/SPI_MASTER/spi_master.c ****     }
 732:../Dave/Generated/SPI_MASTER/spi_master.c ****     else
 733:../Dave/Generated/SPI_MASTER/spi_master.c ****     {
 734:../Dave/Generated/SPI_MASTER/spi_master.c ****       status = SPI_MASTER_STATUS_BUSY;
 735:../Dave/Generated/SPI_MASTER/spi_master.c ****     }
 736:../Dave/Generated/SPI_MASTER/spi_master.c ****   }
 737:../Dave/Generated/SPI_MASTER/spi_master.c ****   return status;
 738:../Dave/Generated/SPI_MASTER/spi_master.c **** }
 739:../Dave/Generated/SPI_MASTER/spi_master.c **** #endif
 740:../Dave/Generated/SPI_MASTER/spi_master.c **** 
 741:../Dave/Generated/SPI_MASTER/spi_master.c **** /*
 742:../Dave/Generated/SPI_MASTER/spi_master.c ****  * Transmit and receive the data at the same time. This is supported for full duplex mode only.
 743:../Dave/Generated/SPI_MASTER/spi_master.c ****  */
 744:../Dave/Generated/SPI_MASTER/spi_master.c **** SPI_MASTER_STATUS_t SPI_MASTER_Transfer(const SPI_MASTER_t *const handle,
 745:../Dave/Generated/SPI_MASTER/spi_master.c ****                                         uint8_t* tx_dataptr,
 746:../Dave/Generated/SPI_MASTER/spi_master.c ****                                         uint8_t* rx_dataptr,
 747:../Dave/Generated/SPI_MASTER/spi_master.c ****                                         uint32_t count)
 748:../Dave/Generated/SPI_MASTER/spi_master.c **** {
 749:../Dave/Generated/SPI_MASTER/spi_master.c ****   SPI_MASTER_STATUS_t status;
 750:../Dave/Generated/SPI_MASTER/spi_master.c ****   SPI_MASTER_RUNTIME_t * runtime_handle;
 751:../Dave/Generated/SPI_MASTER/spi_master.c **** 
 752:../Dave/Generated/SPI_MASTER/spi_master.c ****   XMC_ASSERT("SPI_MASTER_Transfer:handle NULL" , (handle != NULL));
 753:../Dave/Generated/SPI_MASTER/spi_master.c **** 
 754:../Dave/Generated/SPI_MASTER/spi_master.c ****   status = SPI_MASTER_STATUS_BUSY;
 755:../Dave/Generated/SPI_MASTER/spi_master.c ****   runtime_handle = handle->runtime;
 756:../Dave/Generated/SPI_MASTER/spi_master.c **** 
 757:../Dave/Generated/SPI_MASTER/spi_master.c ****   if (XMC_SPI_CH_MODE_STANDARD == runtime_handle->spi_master_mode)
 758:../Dave/Generated/SPI_MASTER/spi_master.c ****   {
 759:../Dave/Generated/SPI_MASTER/spi_master.c ****     /* Check whether SPI channel is free or not */
 760:../Dave/Generated/SPI_MASTER/spi_master.c ****     if ((tx_dataptr != NULL) && (rx_dataptr != NULL) && (count > 0U))
 761:../Dave/Generated/SPI_MASTER/spi_master.c ****     {
 762:../Dave/Generated/SPI_MASTER/spi_master.c ****       /*Check data pointer is valid or not*/
 763:../Dave/Generated/SPI_MASTER/spi_master.c ****       if ((false == runtime_handle->rx_busy) && (false == runtime_handle->tx_busy))
 764:../Dave/Generated/SPI_MASTER/spi_master.c ****       {
 765:../Dave/Generated/SPI_MASTER/spi_master.c ****         runtime_handle->rx_busy = true;
 766:../Dave/Generated/SPI_MASTER/spi_master.c ****         runtime_handle->rx_data = rx_dataptr;
 767:../Dave/Generated/SPI_MASTER/spi_master.c ****         runtime_handle->tx_data = tx_dataptr;
 768:../Dave/Generated/SPI_MASTER/spi_master.c ****         runtime_handle->tx_data_count = count;
 769:../Dave/Generated/SPI_MASTER/spi_master.c ****         runtime_handle->tx_data_dummy = false;
 770:../Dave/Generated/SPI_MASTER/spi_master.c ****         runtime_handle->rx_data_dummy = false;
 771:../Dave/Generated/SPI_MASTER/spi_master.c **** 
 772:../Dave/Generated/SPI_MASTER/spi_master.c **** #if (SPI_MASTER_INTERRUPT_RECEIVE_MODE == 1U)
 773:../Dave/Generated/SPI_MASTER/spi_master.c ****         if (handle->config->receive_mode == SPI_MASTER_TRANSFER_MODE_INTERRUPT)
 774:../Dave/Generated/SPI_MASTER/spi_master.c ****         {
 775:../Dave/Generated/SPI_MASTER/spi_master.c ****           status = SPI_MASTER_lReceiveIRQ(handle, count);
 776:../Dave/Generated/SPI_MASTER/spi_master.c ****         }
 777:../Dave/Generated/SPI_MASTER/spi_master.c **** #endif
 778:../Dave/Generated/SPI_MASTER/spi_master.c **** #if (SPI_MASTER_DMA_RECEIVE_MODE == 1U)
 779:../Dave/Generated/SPI_MASTER/spi_master.c ****         if (handle->config->receive_mode == SPI_MASTER_TRANSFER_MODE_DMA)
 780:../Dave/Generated/SPI_MASTER/spi_master.c ****         {
 781:../Dave/Generated/SPI_MASTER/spi_master.c ****           status = SPI_MASTER_lReceiveDMA(handle, count);
 782:../Dave/Generated/SPI_MASTER/spi_master.c ****         }
 783:../Dave/Generated/SPI_MASTER/spi_master.c **** #endif
 784:../Dave/Generated/SPI_MASTER/spi_master.c **** #if (SPI_MASTER_DIRECT_RECEIVE_MODE == 1U)
 785:../Dave/Generated/SPI_MASTER/spi_master.c ****         if (handle->config->receive_mode == SPI_MASTER_TRANSFER_MODE_DIRECT)
 786:../Dave/Generated/SPI_MASTER/spi_master.c ****         {
 787:../Dave/Generated/SPI_MASTER/spi_master.c ****           status = SPI_MASTER_lReceivePolling(handle, count);
 788:../Dave/Generated/SPI_MASTER/spi_master.c ****           runtime_handle->rx_busy = false;
 789:../Dave/Generated/SPI_MASTER/spi_master.c ****         }
 790:../Dave/Generated/SPI_MASTER/spi_master.c **** #endif
 791:../Dave/Generated/SPI_MASTER/spi_master.c ****       }
 792:../Dave/Generated/SPI_MASTER/spi_master.c ****     }
 793:../Dave/Generated/SPI_MASTER/spi_master.c ****     else
 794:../Dave/Generated/SPI_MASTER/spi_master.c ****     {
 795:../Dave/Generated/SPI_MASTER/spi_master.c ****       status = SPI_MASTER_STATUS_BUFFER_INVALID;
 796:../Dave/Generated/SPI_MASTER/spi_master.c ****     }
 797:../Dave/Generated/SPI_MASTER/spi_master.c ****   }
 798:../Dave/Generated/SPI_MASTER/spi_master.c ****   else
 799:../Dave/Generated/SPI_MASTER/spi_master.c ****   {
 800:../Dave/Generated/SPI_MASTER/spi_master.c ****     status = SPI_MASTER_STATUS_FAILURE;
 801:../Dave/Generated/SPI_MASTER/spi_master.c ****   }
 802:../Dave/Generated/SPI_MASTER/spi_master.c **** 
 803:../Dave/Generated/SPI_MASTER/spi_master.c ****   return status;
 804:../Dave/Generated/SPI_MASTER/spi_master.c **** }
 805:../Dave/Generated/SPI_MASTER/spi_master.c **** 
 806:../Dave/Generated/SPI_MASTER/spi_master.c **** 
 807:../Dave/Generated/SPI_MASTER/spi_master.c **** /*
 808:../Dave/Generated/SPI_MASTER/spi_master.c ****  * Aborts the ongoing data reception.
 809:../Dave/Generated/SPI_MASTER/spi_master.c ****  */
 810:../Dave/Generated/SPI_MASTER/spi_master.c **** SPI_MASTER_STATUS_t SPI_MASTER_AbortReceive(const SPI_MASTER_t *const handle)
 811:../Dave/Generated/SPI_MASTER/spi_master.c **** {
 812:../Dave/Generated/SPI_MASTER/spi_master.c ****   SPI_MASTER_STATUS_t status;
 813:../Dave/Generated/SPI_MASTER/spi_master.c **** 
 814:../Dave/Generated/SPI_MASTER/spi_master.c ****   status = SPI_MASTER_STATUS_FAILURE;
 815:../Dave/Generated/SPI_MASTER/spi_master.c **** 
 816:../Dave/Generated/SPI_MASTER/spi_master.c ****   if ((handle->config->receive_mode != SPI_MASTER_TRANSFER_MODE_DIRECT) && (handle->runtime->rx_bus
 817:../Dave/Generated/SPI_MASTER/spi_master.c ****   {
 818:../Dave/Generated/SPI_MASTER/spi_master.c ****     /* Abort if any ongoing transmission w.r.t reception. */
 819:../Dave/Generated/SPI_MASTER/spi_master.c ****     status = SPI_MASTER_AbortTransmit(handle);
 820:../Dave/Generated/SPI_MASTER/spi_master.c **** 
 821:../Dave/Generated/SPI_MASTER/spi_master.c ****     if (status == SPI_MASTER_STATUS_SUCCESS)
 822:../Dave/Generated/SPI_MASTER/spi_master.c ****     {
 823:../Dave/Generated/SPI_MASTER/spi_master.c ****       /* Reset the user buffer pointer to null */
 824:../Dave/Generated/SPI_MASTER/spi_master.c ****       handle->runtime->rx_busy = false;
 825:../Dave/Generated/SPI_MASTER/spi_master.c ****       handle->runtime->rx_data = NULL;
 826:../Dave/Generated/SPI_MASTER/spi_master.c ****       handle->runtime->tx_data_dummy = false;
 827:../Dave/Generated/SPI_MASTER/spi_master.c ****       /* Disable the receive interrupts */
 828:../Dave/Generated/SPI_MASTER/spi_master.c ****       if ((uint32_t)handle->config->rx_fifo_size > 0U)
 829:../Dave/Generated/SPI_MASTER/spi_master.c ****       {
 830:../Dave/Generated/SPI_MASTER/spi_master.c ****         XMC_USIC_CH_RXFIFO_DisableEvent(handle->channel,(uint32_t)SPI_MASTER_FIFO_RECEIVE_EVENT);
 831:../Dave/Generated/SPI_MASTER/spi_master.c ****       }
 832:../Dave/Generated/SPI_MASTER/spi_master.c ****       else
 833:../Dave/Generated/SPI_MASTER/spi_master.c ****       {
 834:../Dave/Generated/SPI_MASTER/spi_master.c **** #if (SPI_MASTER_DMA_RECEIVE_MODE == 1U)
 835:../Dave/Generated/SPI_MASTER/spi_master.c ****         if (handle->config->receive_mode == SPI_MASTER_TRANSFER_MODE_DMA)
 836:../Dave/Generated/SPI_MASTER/spi_master.c ****         {
 837:../Dave/Generated/SPI_MASTER/spi_master.c ****           /* Disable the receive event */
 838:../Dave/Generated/SPI_MASTER/spi_master.c ****           if(XMC_DMA_CH_IsEnabled(handle->global_dma->dma, handle->dma_ch_rx_number))
 839:../Dave/Generated/SPI_MASTER/spi_master.c ****           {
 840:../Dave/Generated/SPI_MASTER/spi_master.c ****             XMC_DMA_CH_Disable(handle->global_dma->dma, handle->dma_ch_rx_number);
 841:../Dave/Generated/SPI_MASTER/spi_master.c ****             while(XMC_DMA_CH_IsEnabled(handle->global_dma->dma, handle->dma_ch_rx_number)==true)
 842:../Dave/Generated/SPI_MASTER/spi_master.c ****             {
 843:../Dave/Generated/SPI_MASTER/spi_master.c ****             }
 844:../Dave/Generated/SPI_MASTER/spi_master.c ****             XMC_SPI_CH_DisableEvent(handle->channel,
 845:../Dave/Generated/SPI_MASTER/spi_master.c ****             (uint32_t)((uint32_t)XMC_USIC_CH_EVENT_STANDARD_RECEIVE | (uint32_t)XMC_USIC_CH_EVENT_A
 846:../Dave/Generated/SPI_MASTER/spi_master.c ****           }
 847:../Dave/Generated/SPI_MASTER/spi_master.c ****         }
 848:../Dave/Generated/SPI_MASTER/spi_master.c ****         else
 849:../Dave/Generated/SPI_MASTER/spi_master.c **** #endif
 850:../Dave/Generated/SPI_MASTER/spi_master.c ****         {
 851:../Dave/Generated/SPI_MASTER/spi_master.c ****           XMC_SPI_CH_DisableEvent(handle->channel,
 852:../Dave/Generated/SPI_MASTER/spi_master.c ****             (uint32_t)((uint32_t)XMC_USIC_CH_EVENT_STANDARD_RECEIVE | (uint32_t)XMC_USIC_CH_EVENT_A
 853:../Dave/Generated/SPI_MASTER/spi_master.c ****         }
 854:../Dave/Generated/SPI_MASTER/spi_master.c ****       }
 855:../Dave/Generated/SPI_MASTER/spi_master.c ****       status = SPI_MASTER_STATUS_SUCCESS;
 856:../Dave/Generated/SPI_MASTER/spi_master.c ****     }
 857:../Dave/Generated/SPI_MASTER/spi_master.c ****     else
 858:../Dave/Generated/SPI_MASTER/spi_master.c ****     {
 859:../Dave/Generated/SPI_MASTER/spi_master.c ****       status = SPI_MASTER_STATUS_FAILURE;
 860:../Dave/Generated/SPI_MASTER/spi_master.c ****     }
 861:../Dave/Generated/SPI_MASTER/spi_master.c ****   }
 862:../Dave/Generated/SPI_MASTER/spi_master.c ****   return status;
 863:../Dave/Generated/SPI_MASTER/spi_master.c **** }
 864:../Dave/Generated/SPI_MASTER/spi_master.c **** 
 865:../Dave/Generated/SPI_MASTER/spi_master.c **** /*
 866:../Dave/Generated/SPI_MASTER/spi_master.c ****  * Aborts the ongoing data transmission.
 867:../Dave/Generated/SPI_MASTER/spi_master.c ****  */
 868:../Dave/Generated/SPI_MASTER/spi_master.c **** SPI_MASTER_STATUS_t SPI_MASTER_AbortTransmit(const SPI_MASTER_t *const handle)
 869:../Dave/Generated/SPI_MASTER/spi_master.c **** {
 870:../Dave/Generated/SPI_MASTER/spi_master.c ****   SPI_MASTER_STATUS_t status;
 871:../Dave/Generated/SPI_MASTER/spi_master.c **** 
 872:../Dave/Generated/SPI_MASTER/spi_master.c ****   status = SPI_MASTER_STATUS_FAILURE;
 873:../Dave/Generated/SPI_MASTER/spi_master.c **** 
 874:../Dave/Generated/SPI_MASTER/spi_master.c ****   if ((handle->config->transmit_mode != SPI_MASTER_TRANSFER_MODE_DIRECT) && (handle->runtime->tx_bu
 875:../Dave/Generated/SPI_MASTER/spi_master.c ****   {
 876:../Dave/Generated/SPI_MASTER/spi_master.c ****     /*Reset the user buffer pointer to null*/
 877:../Dave/Generated/SPI_MASTER/spi_master.c ****     handle->runtime->tx_busy = false;
 878:../Dave/Generated/SPI_MASTER/spi_master.c ****     handle->runtime->tx_data = NULL;
 879:../Dave/Generated/SPI_MASTER/spi_master.c ****     handle->runtime->tx_data_dummy = false;
 880:../Dave/Generated/SPI_MASTER/spi_master.c ****     /*Disable the transmit interrupts*/
 881:../Dave/Generated/SPI_MASTER/spi_master.c ****     if ((uint32_t)handle->config->tx_fifo_size > 0U)
 882:../Dave/Generated/SPI_MASTER/spi_master.c ****     {
 883:../Dave/Generated/SPI_MASTER/spi_master.c ****       /*Disable the transmit FIFO event*/
 884:../Dave/Generated/SPI_MASTER/spi_master.c ****       XMC_USIC_CH_TXFIFO_DisableEvent(handle->channel,(uint32_t)XMC_USIC_CH_TXFIFO_EVENT_CONF_STAND
 885:../Dave/Generated/SPI_MASTER/spi_master.c ****       XMC_USIC_CH_TXFIFO_Flush(handle->channel);
 886:../Dave/Generated/SPI_MASTER/spi_master.c ****     }
 887:../Dave/Generated/SPI_MASTER/spi_master.c ****     else
 888:../Dave/Generated/SPI_MASTER/spi_master.c ****     {
 889:../Dave/Generated/SPI_MASTER/spi_master.c **** #if (SPI_MASTER_DMA_TRANSMIT_MODE == 1U)
 890:../Dave/Generated/SPI_MASTER/spi_master.c ****       if(handle->config->transmit_mode == SPI_MASTER_TRANSFER_MODE_DMA)
 891:../Dave/Generated/SPI_MASTER/spi_master.c ****       {
 892:../Dave/Generated/SPI_MASTER/spi_master.c ****         /*Disable the standard transmit event*/
 893:../Dave/Generated/SPI_MASTER/spi_master.c ****         if(XMC_DMA_CH_IsEnabled(handle->global_dma->dma, handle->dma_ch_tx_number))
 894:../Dave/Generated/SPI_MASTER/spi_master.c ****         {
 895:../Dave/Generated/SPI_MASTER/spi_master.c ****           XMC_DMA_CH_Disable(handle->global_dma->dma, handle->dma_ch_tx_number);
 896:../Dave/Generated/SPI_MASTER/spi_master.c ****           while(XMC_DMA_CH_IsEnabled(handle->global_dma->dma, handle->dma_ch_tx_number)==true)
 897:../Dave/Generated/SPI_MASTER/spi_master.c ****           {
 898:../Dave/Generated/SPI_MASTER/spi_master.c ****           }
 899:../Dave/Generated/SPI_MASTER/spi_master.c ****           XMC_SPI_CH_DisableEvent(handle->channel, (uint32_t)XMC_USIC_CH_EVENT_TRANSMIT_BUFFER);
 900:../Dave/Generated/SPI_MASTER/spi_master.c ****         }
 901:../Dave/Generated/SPI_MASTER/spi_master.c ****       }
 902:../Dave/Generated/SPI_MASTER/spi_master.c ****       else
 903:../Dave/Generated/SPI_MASTER/spi_master.c **** #endif
 904:../Dave/Generated/SPI_MASTER/spi_master.c ****       {
 905:../Dave/Generated/SPI_MASTER/spi_master.c ****         /*Disable the standard transmit event*/
 906:../Dave/Generated/SPI_MASTER/spi_master.c ****         XMC_SPI_CH_DisableEvent(handle->channel, (uint32_t)XMC_USIC_CH_EVENT_TRANSMIT_BUFFER);
 907:../Dave/Generated/SPI_MASTER/spi_master.c ****       }
 908:../Dave/Generated/SPI_MASTER/spi_master.c ****     }
 909:../Dave/Generated/SPI_MASTER/spi_master.c ****     status = SPI_MASTER_STATUS_SUCCESS;
 910:../Dave/Generated/SPI_MASTER/spi_master.c ****   }
 911:../Dave/Generated/SPI_MASTER/spi_master.c ****   return status;
 912:../Dave/Generated/SPI_MASTER/spi_master.c **** }
 913:../Dave/Generated/SPI_MASTER/spi_master.c **** /**************************************************************************************************
 914:../Dave/Generated/SPI_MASTER/spi_master.c **** **                                                Private API definitions                          
 915:../Dave/Generated/SPI_MASTER/spi_master.c **** ***************************************************************************************************
 916:../Dave/Generated/SPI_MASTER/spi_master.c **** #if(SPI_MASTER_INTERRUPT_TRANSMIT_MODE == 1U)
 917:../Dave/Generated/SPI_MASTER/spi_master.c **** /*
 918:../Dave/Generated/SPI_MASTER/spi_master.c ****  * Transmit interrupt handler for the APP.
 919:../Dave/Generated/SPI_MASTER/spi_master.c ****  * This is a common interrupt handling function called for different instances of the APP.
 920:../Dave/Generated/SPI_MASTER/spi_master.c ****  *
 921:../Dave/Generated/SPI_MASTER/spi_master.c ****  */
 922:../Dave/Generated/SPI_MASTER/spi_master.c **** void SPI_MASTER_lTransmitHandler(const SPI_MASTER_t * const handle)
 923:../Dave/Generated/SPI_MASTER/spi_master.c **** {
 924:../Dave/Generated/SPI_MASTER/spi_master.c ****   uint16_t data; /* Data to be loaded into the TBUF */
 925:../Dave/Generated/SPI_MASTER/spi_master.c ****   uint32_t bytes_per_word = SPI_MASTER_1_BYTE_PER_WORD; /* This is to support the word length 8 and
 926:../Dave/Generated/SPI_MASTER/spi_master.c ****   SPI_MASTER_RUNTIME_t * runtime_handle = handle->runtime;
 927:../Dave/Generated/SPI_MASTER/spi_master.c **** 
 928:../Dave/Generated/SPI_MASTER/spi_master.c ****   if (handle->runtime->word_length > SPI_MASTER_WORD_LENGTH_8_BIT)
 929:../Dave/Generated/SPI_MASTER/spi_master.c ****   {
 930:../Dave/Generated/SPI_MASTER/spi_master.c ****     bytes_per_word = SPI_MASTER_2_BYTES_PER_WORD; /* Word length is 16-bits */
 931:../Dave/Generated/SPI_MASTER/spi_master.c ****   }
 932:../Dave/Generated/SPI_MASTER/spi_master.c **** 
 933:../Dave/Generated/SPI_MASTER/spi_master.c ****   if (runtime_handle->tx_data_index < runtime_handle->tx_data_count)
 934:../Dave/Generated/SPI_MASTER/spi_master.c ****   {
 935:../Dave/Generated/SPI_MASTER/spi_master.c ****     data = 0U;
 936:../Dave/Generated/SPI_MASTER/spi_master.c ****     /*When Transmit FIFO is enabled*/
 937:../Dave/Generated/SPI_MASTER/spi_master.c ****     if ((uint32_t)handle->config->tx_fifo_size > 0U)
 938:../Dave/Generated/SPI_MASTER/spi_master.c ****     {
 939:../Dave/Generated/SPI_MASTER/spi_master.c ****       /*Fill the transmit FIFO */
 940:../Dave/Generated/SPI_MASTER/spi_master.c ****       while (XMC_USIC_CH_TXFIFO_IsFull(handle->channel) == false)
 941:../Dave/Generated/SPI_MASTER/spi_master.c ****       {
 942:../Dave/Generated/SPI_MASTER/spi_master.c ****         if (runtime_handle->tx_data_index < runtime_handle->tx_data_count)
 943:../Dave/Generated/SPI_MASTER/spi_master.c ****         {
 944:../Dave/Generated/SPI_MASTER/spi_master.c ****           /*Load the FIFO byte by byte till either FIFO is full or all data is loaded*/
 945:../Dave/Generated/SPI_MASTER/spi_master.c ****           if (runtime_handle->tx_data_dummy == true)
 946:../Dave/Generated/SPI_MASTER/spi_master.c ****           {
 947:../Dave/Generated/SPI_MASTER/spi_master.c ****             XMC_USIC_CH_TXFIFO_PutDataHPCMode(handle->channel, 0xFFFFU, (uint32_t)runtime_handle->s
 948:../Dave/Generated/SPI_MASTER/spi_master.c ****           }
 949:../Dave/Generated/SPI_MASTER/spi_master.c ****           else
 950:../Dave/Generated/SPI_MASTER/spi_master.c ****           {
 951:../Dave/Generated/SPI_MASTER/spi_master.c ****             if(bytes_per_word == SPI_MASTER_2_BYTES_PER_WORD)
 952:../Dave/Generated/SPI_MASTER/spi_master.c ****             {
 953:../Dave/Generated/SPI_MASTER/spi_master.c ****               data = *((uint16_t*)&runtime_handle->tx_data[runtime_handle->tx_data_index]);
 954:../Dave/Generated/SPI_MASTER/spi_master.c ****             }
 955:../Dave/Generated/SPI_MASTER/spi_master.c ****             else
 956:../Dave/Generated/SPI_MASTER/spi_master.c ****             {
 957:../Dave/Generated/SPI_MASTER/spi_master.c ****               data = runtime_handle->tx_data[runtime_handle->tx_data_index];
 958:../Dave/Generated/SPI_MASTER/spi_master.c ****             }
 959:../Dave/Generated/SPI_MASTER/spi_master.c ****             XMC_USIC_CH_TXFIFO_PutDataHPCMode(handle->channel, data, (uint32_t)runtime_handle->spi_
 960:../Dave/Generated/SPI_MASTER/spi_master.c ****           }
 961:../Dave/Generated/SPI_MASTER/spi_master.c ****           (runtime_handle->tx_data_index)+= bytes_per_word;
 962:../Dave/Generated/SPI_MASTER/spi_master.c ****         }
 963:../Dave/Generated/SPI_MASTER/spi_master.c ****         else
 964:../Dave/Generated/SPI_MASTER/spi_master.c ****         {
 965:../Dave/Generated/SPI_MASTER/spi_master.c ****           break;
 966:../Dave/Generated/SPI_MASTER/spi_master.c ****         }
 967:../Dave/Generated/SPI_MASTER/spi_master.c ****       }
 968:../Dave/Generated/SPI_MASTER/spi_master.c ****     }
 969:../Dave/Generated/SPI_MASTER/spi_master.c ****     else/*When Transmit FIFO is disabled*/
 970:../Dave/Generated/SPI_MASTER/spi_master.c ****     {
 971:../Dave/Generated/SPI_MASTER/spi_master.c ****       if (runtime_handle->tx_data_dummy == true)
 972:../Dave/Generated/SPI_MASTER/spi_master.c ****       {
 973:../Dave/Generated/SPI_MASTER/spi_master.c ****         XMC_USIC_CH_WriteToTBUFTCI(handle->channel, 0xFFFFU, (uint32_t)runtime_handle->spi_master_m
 974:../Dave/Generated/SPI_MASTER/spi_master.c ****       }
 975:../Dave/Generated/SPI_MASTER/spi_master.c ****       else
 976:../Dave/Generated/SPI_MASTER/spi_master.c ****       {
 977:../Dave/Generated/SPI_MASTER/spi_master.c ****         if(bytes_per_word == SPI_MASTER_2_BYTES_PER_WORD)
 978:../Dave/Generated/SPI_MASTER/spi_master.c ****         {
 979:../Dave/Generated/SPI_MASTER/spi_master.c ****           data = *((uint16_t*)&runtime_handle->tx_data[runtime_handle->tx_data_index]);
 980:../Dave/Generated/SPI_MASTER/spi_master.c ****         }
 981:../Dave/Generated/SPI_MASTER/spi_master.c ****         else
 982:../Dave/Generated/SPI_MASTER/spi_master.c ****         {
 983:../Dave/Generated/SPI_MASTER/spi_master.c ****           data = runtime_handle->tx_data[runtime_handle->tx_data_index];
 984:../Dave/Generated/SPI_MASTER/spi_master.c ****         }
 985:../Dave/Generated/SPI_MASTER/spi_master.c ****         XMC_USIC_CH_WriteToTBUFTCI(handle->channel, data, (uint32_t)runtime_handle->spi_master_mode
 986:../Dave/Generated/SPI_MASTER/spi_master.c ****       }
 987:../Dave/Generated/SPI_MASTER/spi_master.c ****       (runtime_handle->tx_data_index)+= bytes_per_word;
 988:../Dave/Generated/SPI_MASTER/spi_master.c ****     }
 989:../Dave/Generated/SPI_MASTER/spi_master.c ****   }
 990:../Dave/Generated/SPI_MASTER/spi_master.c ****   else
 991:../Dave/Generated/SPI_MASTER/spi_master.c ****   {
 992:../Dave/Generated/SPI_MASTER/spi_master.c ****     if (XMC_USIC_CH_TXFIFO_IsEmpty(handle->channel) == true)
 993:../Dave/Generated/SPI_MASTER/spi_master.c ****     {
 994:../Dave/Generated/SPI_MASTER/spi_master.c ****       /* Clear the flag */
 995:../Dave/Generated/SPI_MASTER/spi_master.c ****       if ((uint32_t)handle->config->tx_fifo_size > 0U)
 996:../Dave/Generated/SPI_MASTER/spi_master.c ****       {
 997:../Dave/Generated/SPI_MASTER/spi_master.c ****         /* Clear the transmit FIFO event */
 998:../Dave/Generated/SPI_MASTER/spi_master.c ****         XMC_USIC_CH_TXFIFO_DisableEvent(handle->channel,(uint32_t)XMC_USIC_CH_TXFIFO_EVENT_CONF_STA
 999:../Dave/Generated/SPI_MASTER/spi_master.c ****       }
1000:../Dave/Generated/SPI_MASTER/spi_master.c ****       else
1001:../Dave/Generated/SPI_MASTER/spi_master.c ****       {
1002:../Dave/Generated/SPI_MASTER/spi_master.c ****         /* Clear the standard transmit event */
1003:../Dave/Generated/SPI_MASTER/spi_master.c ****         XMC_USIC_CH_DisableEvent(handle->channel, (uint32_t)XMC_USIC_CH_EVENT_TRANSMIT_BUFFER);
1004:../Dave/Generated/SPI_MASTER/spi_master.c ****       }
1005:../Dave/Generated/SPI_MASTER/spi_master.c **** 
1006:../Dave/Generated/SPI_MASTER/spi_master.c ****       /* Wait for the transmit buffer to be free to ensure that all data is transmitted */
1007:../Dave/Generated/SPI_MASTER/spi_master.c ****       while (XMC_USIC_CH_GetTransmitBufferStatus(handle->channel) == XMC_USIC_CH_TBUF_STATUS_BUSY)
1008:../Dave/Generated/SPI_MASTER/spi_master.c ****       {
1009:../Dave/Generated/SPI_MASTER/spi_master.c **** 
1010:../Dave/Generated/SPI_MASTER/spi_master.c ****       }
1011:../Dave/Generated/SPI_MASTER/spi_master.c **** 
1012:../Dave/Generated/SPI_MASTER/spi_master.c ****       /* All data is transmitted */
1013:../Dave/Generated/SPI_MASTER/spi_master.c ****       runtime_handle->tx_busy = false;
1014:../Dave/Generated/SPI_MASTER/spi_master.c ****       runtime_handle->tx_data = NULL;
1015:../Dave/Generated/SPI_MASTER/spi_master.c **** 
1016:../Dave/Generated/SPI_MASTER/spi_master.c ****       if ((handle->config->tx_cbhandler != NULL) && (runtime_handle->rx_busy == false))
1017:../Dave/Generated/SPI_MASTER/spi_master.c ****       {
1018:../Dave/Generated/SPI_MASTER/spi_master.c ****         /* Execute the callback function provided in the SPI_MASTER APP UI */
1019:../Dave/Generated/SPI_MASTER/spi_master.c ****         handle->config->tx_cbhandler();
1020:../Dave/Generated/SPI_MASTER/spi_master.c ****       }
1021:../Dave/Generated/SPI_MASTER/spi_master.c ****     }
1022:../Dave/Generated/SPI_MASTER/spi_master.c ****   }
1023:../Dave/Generated/SPI_MASTER/spi_master.c **** }
1024:../Dave/Generated/SPI_MASTER/spi_master.c **** #endif
1025:../Dave/Generated/SPI_MASTER/spi_master.c **** 
1026:../Dave/Generated/SPI_MASTER/spi_master.c **** #if (SPI_MASTER_INTERRUPT_RECEIVE_MODE == 1U)
1027:../Dave/Generated/SPI_MASTER/spi_master.c **** 
1028:../Dave/Generated/SPI_MASTER/spi_master.c **** SPI_MASTER_STATUS_t SPI_MASTER_lReceiveIRQ(const SPI_MASTER_t *const handle, uint32_t count)
1029:../Dave/Generated/SPI_MASTER/spi_master.c **** {
  27              	 .loc 1 1029 0
  28              	 .cfi_startproc
  29              	 
  30              	 
  31              	.LVL0:
  32 0000 F8B5     	 push {r3,r4,r5,r6,r7,lr}
  33              	.LCFI0:
  34              	 .cfi_def_cfa_offset 24
  35              	 .cfi_offset 3,-24
  36              	 .cfi_offset 4,-20
  37              	 .cfi_offset 5,-16
  38              	 .cfi_offset 6,-12
  39              	 .cfi_offset 7,-8
  40              	 .cfi_offset 14,-4
  41              	 .loc 1 1029 0
  42 0002 0446     	 mov r4,r0
1030:../Dave/Generated/SPI_MASTER/spi_master.c **** 
1031:../Dave/Generated/SPI_MASTER/spi_master.c ****   SPI_MASTER_STATUS_t status;
1032:../Dave/Generated/SPI_MASTER/spi_master.c ****   SPI_MASTER_RUNTIME_t * runtime_handle;
1033:../Dave/Generated/SPI_MASTER/spi_master.c ****   uint32_t bytes_per_word = SPI_MASTER_1_BYTE_PER_WORD;; /* This is to support the word length 8 an
1034:../Dave/Generated/SPI_MASTER/spi_master.c ****                                                             Specify the number of bytes for the con
1035:../Dave/Generated/SPI_MASTER/spi_master.c **** 
1036:../Dave/Generated/SPI_MASTER/spi_master.c ****   runtime_handle = handle->runtime;
1037:../Dave/Generated/SPI_MASTER/spi_master.c ****   runtime_handle->rx_data_index = 0U;
  43              	 .loc 1 1037 0
  44 0004 0020     	 movs r0,#0
  45              	.LVL1:
1036:../Dave/Generated/SPI_MASTER/spi_master.c ****   runtime_handle->rx_data_index = 0U;
  46              	 .loc 1 1036 0
  47 0006 A568     	 ldr r5,[r4,#8]
  48              	.LVL2:
1038:../Dave/Generated/SPI_MASTER/spi_master.c **** 
1039:../Dave/Generated/SPI_MASTER/spi_master.c ****   if (handle->runtime->word_length > SPI_MASTER_WORD_LENGTH_8_BIT)
1040:../Dave/Generated/SPI_MASTER/spi_master.c ****   {
1041:../Dave/Generated/SPI_MASTER/spi_master.c ****     bytes_per_word = SPI_MASTER_2_BYTES_PER_WORD; /* Word length is 16-bits */
1042:../Dave/Generated/SPI_MASTER/spi_master.c ****   }
1043:../Dave/Generated/SPI_MASTER/spi_master.c **** 
1044:../Dave/Generated/SPI_MASTER/spi_master.c ****   /* If no active reception in progress, obtain the address of data buffer and number of data bytes
1045:../Dave/Generated/SPI_MASTER/spi_master.c ****   runtime_handle->rx_data_count = (uint32_t)count << (bytes_per_word - 1U);
1046:../Dave/Generated/SPI_MASTER/spi_master.c **** 
1047:../Dave/Generated/SPI_MASTER/spi_master.c ****   /* Check if FIFO is enabled */
1048:../Dave/Generated/SPI_MASTER/spi_master.c ****   if ((uint32_t)handle->config->rx_fifo_size > 0U)
  49              	 .loc 1 1048 0
  50 0008 6268     	 ldr r2,[r4,#4]
1039:../Dave/Generated/SPI_MASTER/spi_master.c ****   {
  51              	 .loc 1 1039 0
  52 000a 2B68     	 ldr r3,[r5]
  53              	 .loc 1 1048 0
  54 000c 92F87D20 	 ldrb r2,[r2,#125]
1049:../Dave/Generated/SPI_MASTER/spi_master.c ****   {
1050:../Dave/Generated/SPI_MASTER/spi_master.c ****     /* Clear the receive FIFO */
1051:../Dave/Generated/SPI_MASTER/spi_master.c ****     XMC_USIC_CH_RXFIFO_Flush(handle->channel);
  55              	 .loc 1 1051 0
  56 0010 2668     	 ldr r6,[r4]
1037:../Dave/Generated/SPI_MASTER/spi_master.c **** 
  57              	 .loc 1 1037 0
  58 0012 2861     	 str r0,[r5,#16]
  59              	.LVL3:
1039:../Dave/Generated/SPI_MASTER/spi_master.c ****   {
  60              	 .loc 1 1039 0
  61 0014 082B     	 cmp r3,#8
  62 0016 94BF     	 ite ls
  63 0018 0023     	 movls r3,#0
  64 001a 0123     	 movhi r3,#1
1045:../Dave/Generated/SPI_MASTER/spi_master.c **** 
  65              	 .loc 1 1045 0
  66 001c 9940     	 lsls r1,r1,r3
  67              	.LVL4:
  68 001e E960     	 str r1,[r5,#12]
1048:../Dave/Generated/SPI_MASTER/spi_master.c ****   {
  69              	 .loc 1 1048 0
  70 0020 02B3     	 cbz r2,.L2
  71              	.LVL5:
  72              	.LBB116:
  73              	.LBB117:
  74              	 .file 2 "C:/Workspaces/Dave 4/CTPOT_test1/Libraries/XMCLib/inc/xmc_usic.h"
   1:C:/Workspaces/Dave 4/CTPOT_test1/Libraries/XMCLib/inc\xmc_usic.h **** /**
   2:C:/Workspaces/Dave 4/CTPOT_test1/Libraries/XMCLib/inc\xmc_usic.h ****  * @file xmc_usic.h
   3:C:/Workspaces/Dave 4/CTPOT_test1/Libraries/XMCLib/inc\xmc_usic.h ****  * @date 2017-02-10
   4:C:/Workspaces/Dave 4/CTPOT_test1/Libraries/XMCLib/inc\xmc_usic.h ****  *
   5:C:/Workspaces/Dave 4/CTPOT_test1/Libraries/XMCLib/inc\xmc_usic.h ****  * @cond
   6:C:/Workspaces/Dave 4/CTPOT_test1/Libraries/XMCLib/inc\xmc_usic.h ****  **************************************************************************************************
   7:C:/Workspaces/Dave 4/CTPOT_test1/Libraries/XMCLib/inc\xmc_usic.h ****  * XMClib v2.1.16 - XMC Peripheral Driver Library 
   8:C:/Workspaces/Dave 4/CTPOT_test1/Libraries/XMCLib/inc\xmc_usic.h ****  *
   9:C:/Workspaces/Dave 4/CTPOT_test1/Libraries/XMCLib/inc\xmc_usic.h ****  * Copyright (c) 2015-2017, Infineon Technologies AG
  10:C:/Workspaces/Dave 4/CTPOT_test1/Libraries/XMCLib/inc\xmc_usic.h ****  * All rights reserved.                        
  11:C:/Workspaces/Dave 4/CTPOT_test1/Libraries/XMCLib/inc\xmc_usic.h ****  *                                             
  12:C:/Workspaces/Dave 4/CTPOT_test1/Libraries/XMCLib/inc\xmc_usic.h ****  * Redistribution and use in source and binary forms, with or without modification,are permitted pr
  13:C:/Workspaces/Dave 4/CTPOT_test1/Libraries/XMCLib/inc\xmc_usic.h ****  * following conditions are met:   
  14:C:/Workspaces/Dave 4/CTPOT_test1/Libraries/XMCLib/inc\xmc_usic.h ****  *                                                                              
  15:C:/Workspaces/Dave 4/CTPOT_test1/Libraries/XMCLib/inc\xmc_usic.h ****  * Redistributions of source code must retain the above copyright notice, this list of conditions a
  16:C:/Workspaces/Dave 4/CTPOT_test1/Libraries/XMCLib/inc\xmc_usic.h ****  * disclaimer.                        
  17:C:/Workspaces/Dave 4/CTPOT_test1/Libraries/XMCLib/inc\xmc_usic.h ****  * 
  18:C:/Workspaces/Dave 4/CTPOT_test1/Libraries/XMCLib/inc\xmc_usic.h ****  * Redistributions in binary form must reproduce the above copyright notice, this list of condition
  19:C:/Workspaces/Dave 4/CTPOT_test1/Libraries/XMCLib/inc\xmc_usic.h ****  * disclaimer in the documentation and/or other materials provided with the distribution.          
  20:C:/Workspaces/Dave 4/CTPOT_test1/Libraries/XMCLib/inc\xmc_usic.h ****  * 
  21:C:/Workspaces/Dave 4/CTPOT_test1/Libraries/XMCLib/inc\xmc_usic.h ****  * Neither the name of the copyright holders nor the names of its contributors may be used to endor
  22:C:/Workspaces/Dave 4/CTPOT_test1/Libraries/XMCLib/inc\xmc_usic.h ****  * products derived from this software without specific prior written permission.                  
  23:C:/Workspaces/Dave 4/CTPOT_test1/Libraries/XMCLib/inc\xmc_usic.h ****  *                                                                              
  24:C:/Workspaces/Dave 4/CTPOT_test1/Libraries/XMCLib/inc\xmc_usic.h ****  * THIS SOFTWARE IS PROVIDED BY THE COPYRIGHT HOLDERS AND CONTRIBUTORS "AS IS" AND ANY EXPRESS OR I
  25:C:/Workspaces/Dave 4/CTPOT_test1/Libraries/XMCLib/inc\xmc_usic.h ****  * INCLUDING, BUT NOT LIMITED TO, THE IMPLIED WARRANTIES OF MERCHANTABILITY AND FITNESS FOR A PARTI
  26:C:/Workspaces/Dave 4/CTPOT_test1/Libraries/XMCLib/inc\xmc_usic.h ****  * DISCLAIMED. IN NO EVENT SHALL THE COPYRIGHT HOLDER OR CONTRIBUTORS BE LIABLE  FOR ANY DIRECT, IN
  27:C:/Workspaces/Dave 4/CTPOT_test1/Libraries/XMCLib/inc\xmc_usic.h ****  * SPECIAL, EXEMPLARY, OR CONSEQUENTIAL DAMAGES (INCLUDING, BUT NOT LIMITED TO, PROCUREMENT OF SUBS
  28:C:/Workspaces/Dave 4/CTPOT_test1/Libraries/XMCLib/inc\xmc_usic.h ****  * SERVICES; LOSS OF USE, DATA, OR PROFITS; OR BUSINESS INTERRUPTION) HOWEVER CAUSED AND ON ANY THE
  29:C:/Workspaces/Dave 4/CTPOT_test1/Libraries/XMCLib/inc\xmc_usic.h ****  * WHETHER IN CONTRACT, STRICT LIABILITY,OR TORT (INCLUDING NEGLIGENCE OR OTHERWISE) ARISING IN ANY
  30:C:/Workspaces/Dave 4/CTPOT_test1/Libraries/XMCLib/inc\xmc_usic.h ****  * OF THIS SOFTWARE, EVEN IF ADVISED OF THE POSSIBILITY OF SUCH DAMAGE.                            
  31:C:/Workspaces/Dave 4/CTPOT_test1/Libraries/XMCLib/inc\xmc_usic.h ****  *                                                                              
  32:C:/Workspaces/Dave 4/CTPOT_test1/Libraries/XMCLib/inc\xmc_usic.h ****  * To improve the quality of the software, users are encouraged to share modifications, enhancement
  33:C:/Workspaces/Dave 4/CTPOT_test1/Libraries/XMCLib/inc\xmc_usic.h ****  * Infineon Technologies AG dave@infineon.com).                                                    
  34:C:/Workspaces/Dave 4/CTPOT_test1/Libraries/XMCLib/inc\xmc_usic.h ****  **************************************************************************************************
  35:C:/Workspaces/Dave 4/CTPOT_test1/Libraries/XMCLib/inc\xmc_usic.h ****  *
  36:C:/Workspaces/Dave 4/CTPOT_test1/Libraries/XMCLib/inc\xmc_usic.h ****  * Change History
  37:C:/Workspaces/Dave 4/CTPOT_test1/Libraries/XMCLib/inc\xmc_usic.h ****  * --------------
  38:C:/Workspaces/Dave 4/CTPOT_test1/Libraries/XMCLib/inc\xmc_usic.h ****  *
  39:C:/Workspaces/Dave 4/CTPOT_test1/Libraries/XMCLib/inc\xmc_usic.h ****  * 2015-02-20:
  40:C:/Workspaces/Dave 4/CTPOT_test1/Libraries/XMCLib/inc\xmc_usic.h ****  *     - Initial draft<br>
  41:C:/Workspaces/Dave 4/CTPOT_test1/Libraries/XMCLib/inc\xmc_usic.h ****  *     - Documentation improved <br>
  42:C:/Workspaces/Dave 4/CTPOT_test1/Libraries/XMCLib/inc\xmc_usic.h ****  *
  43:C:/Workspaces/Dave 4/CTPOT_test1/Libraries/XMCLib/inc\xmc_usic.h ****  * 2015-05-08:
  44:C:/Workspaces/Dave 4/CTPOT_test1/Libraries/XMCLib/inc\xmc_usic.h ****  *     - Added XMC_USIC_CH_SetInputTriggerCombinationMode() and XMC_USIC_CH_SetTransmitBufferStatus
  45:C:/Workspaces/Dave 4/CTPOT_test1/Libraries/XMCLib/inc\xmc_usic.h ****  *      
  46:C:/Workspaces/Dave 4/CTPOT_test1/Libraries/XMCLib/inc\xmc_usic.h ****  * 2015-06-20:
  47:C:/Workspaces/Dave 4/CTPOT_test1/Libraries/XMCLib/inc\xmc_usic.h ****  *     - Removed version macros and declaration of GetDriverVersion API
  48:C:/Workspaces/Dave 4/CTPOT_test1/Libraries/XMCLib/inc\xmc_usic.h ****  * 
  49:C:/Workspaces/Dave 4/CTPOT_test1/Libraries/XMCLib/inc\xmc_usic.h ****  * 2015-08-17:
  50:C:/Workspaces/Dave 4/CTPOT_test1/Libraries/XMCLib/inc\xmc_usic.h ****  *     - Bug fixed in XMC_USIC_CH_SetTransmitBufferStatus API. OR operator removed.
  51:C:/Workspaces/Dave 4/CTPOT_test1/Libraries/XMCLib/inc\xmc_usic.h ****  *
  52:C:/Workspaces/Dave 4/CTPOT_test1/Libraries/XMCLib/inc\xmc_usic.h ****  * 2015-08-24:
  53:C:/Workspaces/Dave 4/CTPOT_test1/Libraries/XMCLib/inc\xmc_usic.h ****  *     - Added APIs for enabling/disabling delay compensation XMC_USIC_CH_DisableDelayCompensation(
  54:C:/Workspaces/Dave 4/CTPOT_test1/Libraries/XMCLib/inc\xmc_usic.h ****  *       XMC_USIC_CH_DisableDelayCompensation()
  55:C:/Workspaces/Dave 4/CTPOT_test1/Libraries/XMCLib/inc\xmc_usic.h ****  *
  56:C:/Workspaces/Dave 4/CTPOT_test1/Libraries/XMCLib/inc\xmc_usic.h ****  * 2015-08-25:
  57:C:/Workspaces/Dave 4/CTPOT_test1/Libraries/XMCLib/inc\xmc_usic.h ****  *     - Added APIs for defining if the data shift unit input is derived
  58:C:/Workspaces/Dave 4/CTPOT_test1/Libraries/XMCLib/inc\xmc_usic.h ****  *       from the input data path DXn or from the selected protocol pre-processors: XMC_USIC_CH_Con
  59:C:/Workspaces/Dave 4/CTPOT_test1/Libraries/XMCLib/inc\xmc_usic.h ****  *       and XMC_USIC_CH_ConnectInputDataShiftToDataInput()
  60:C:/Workspaces/Dave 4/CTPOT_test1/Libraries/XMCLib/inc\xmc_usic.h ****  *
  61:C:/Workspaces/Dave 4/CTPOT_test1/Libraries/XMCLib/inc\xmc_usic.h ****  * 2015-08-27:
  62:C:/Workspaces/Dave 4/CTPOT_test1/Libraries/XMCLib/inc\xmc_usic.h ****  *     - Fixed bug in XMC_USIC_CH_BRG_CLOCK_SOURCE_DX1T value.
  63:C:/Workspaces/Dave 4/CTPOT_test1/Libraries/XMCLib/inc\xmc_usic.h ****  *     - Added APIs for direct TBUF access: XMC_USIC_CH_WriteToTBUF() and XMC_USIC_CH_WriteToTBUFTC
  64:C:/Workspaces/Dave 4/CTPOT_test1/Libraries/XMCLib/inc\xmc_usic.h ****  *     - Added APIs for external input for BRG configuration:XMC_USIC_CH_ConfigExternalInputSignalT
  65:C:/Workspaces/Dave 4/CTPOT_test1/Libraries/XMCLib/inc\xmc_usic.h ****  *
  66:C:/Workspaces/Dave 4/CTPOT_test1/Libraries/XMCLib/inc\xmc_usic.h ****  * 2015-08-28:
  67:C:/Workspaces/Dave 4/CTPOT_test1/Libraries/XMCLib/inc\xmc_usic.h ****  *     - Added API for enabling the transfer trigger unit to set bit TCSR.TE if the trigger signal 
  68:C:/Workspaces/Dave 4/CTPOT_test1/Libraries/XMCLib/inc\xmc_usic.h ****  *       Clear to Send (CTS) signal: XMC_USIC_CH_EnableTBUFDataValidTrigger() and XMC_USIC_CH_Disab
  69:C:/Workspaces/Dave 4/CTPOT_test1/Libraries/XMCLib/inc\xmc_usic.h ****  *
  70:C:/Workspaces/Dave 4/CTPOT_test1/Libraries/XMCLib/inc\xmc_usic.h ****  * 2016-03-09:
  71:C:/Workspaces/Dave 4/CTPOT_test1/Libraries/XMCLib/inc\xmc_usic.h ****  *     - Optimization of write only registers
  72:C:/Workspaces/Dave 4/CTPOT_test1/Libraries/XMCLib/inc\xmc_usic.h ****  *
  73:C:/Workspaces/Dave 4/CTPOT_test1/Libraries/XMCLib/inc\xmc_usic.h ****  * 2016-04-10:
  74:C:/Workspaces/Dave 4/CTPOT_test1/Libraries/XMCLib/inc\xmc_usic.h ****  *     - Added an API to put the data into FIFO when hardware port control is enabled: XMC_USIC_CH_
  75:C:/Workspaces/Dave 4/CTPOT_test1/Libraries/XMCLib/inc\xmc_usic.h ****  *
  76:C:/Workspaces/Dave 4/CTPOT_test1/Libraries/XMCLib/inc\xmc_usic.h ****  * 2017-02-10:
  77:C:/Workspaces/Dave 4/CTPOT_test1/Libraries/XMCLib/inc\xmc_usic.h ****  *     - Added XMC_USIC_CH_SetShiftDirection() to allow selection of shift direction of the data wo
  78:C:/Workspaces/Dave 4/CTPOT_test1/Libraries/XMCLib/inc\xmc_usic.h ****  *     - Added XMC_USIC_CH_GetCaptureTimerValue() and XMC_USIC_CH_SetFractionalDivider()
  79:C:/Workspaces/Dave 4/CTPOT_test1/Libraries/XMCLib/inc\xmc_usic.h ****  *
  80:C:/Workspaces/Dave 4/CTPOT_test1/Libraries/XMCLib/inc\xmc_usic.h ****  * @endcond
  81:C:/Workspaces/Dave 4/CTPOT_test1/Libraries/XMCLib/inc\xmc_usic.h ****  *
  82:C:/Workspaces/Dave 4/CTPOT_test1/Libraries/XMCLib/inc\xmc_usic.h ****  */
  83:C:/Workspaces/Dave 4/CTPOT_test1/Libraries/XMCLib/inc\xmc_usic.h **** 
  84:C:/Workspaces/Dave 4/CTPOT_test1/Libraries/XMCLib/inc\xmc_usic.h **** #ifndef XMC_USIC_H
  85:C:/Workspaces/Dave 4/CTPOT_test1/Libraries/XMCLib/inc\xmc_usic.h **** #define XMC_USIC_H
  86:C:/Workspaces/Dave 4/CTPOT_test1/Libraries/XMCLib/inc\xmc_usic.h **** /*******************************************************************************
  87:C:/Workspaces/Dave 4/CTPOT_test1/Libraries/XMCLib/inc\xmc_usic.h ****  * HEADER FILES
  88:C:/Workspaces/Dave 4/CTPOT_test1/Libraries/XMCLib/inc\xmc_usic.h ****  *******************************************************************************/
  89:C:/Workspaces/Dave 4/CTPOT_test1/Libraries/XMCLib/inc\xmc_usic.h **** 
  90:C:/Workspaces/Dave 4/CTPOT_test1/Libraries/XMCLib/inc\xmc_usic.h **** #include "xmc_common.h"
  91:C:/Workspaces/Dave 4/CTPOT_test1/Libraries/XMCLib/inc\xmc_usic.h **** 
  92:C:/Workspaces/Dave 4/CTPOT_test1/Libraries/XMCLib/inc\xmc_usic.h **** /**
  93:C:/Workspaces/Dave 4/CTPOT_test1/Libraries/XMCLib/inc\xmc_usic.h ****  * @addtogroup XMClib XMC Peripheral Library
  94:C:/Workspaces/Dave 4/CTPOT_test1/Libraries/XMCLib/inc\xmc_usic.h ****  * @{
  95:C:/Workspaces/Dave 4/CTPOT_test1/Libraries/XMCLib/inc\xmc_usic.h ****  */
  96:C:/Workspaces/Dave 4/CTPOT_test1/Libraries/XMCLib/inc\xmc_usic.h **** 
  97:C:/Workspaces/Dave 4/CTPOT_test1/Libraries/XMCLib/inc\xmc_usic.h **** /**
  98:C:/Workspaces/Dave 4/CTPOT_test1/Libraries/XMCLib/inc\xmc_usic.h ****  * @addtogroup USIC
  99:C:/Workspaces/Dave 4/CTPOT_test1/Libraries/XMCLib/inc\xmc_usic.h ****  * @brief Universal Serial Interface Channel(USIC) driver for serial communication.
 100:C:/Workspaces/Dave 4/CTPOT_test1/Libraries/XMCLib/inc\xmc_usic.h ****  *
 101:C:/Workspaces/Dave 4/CTPOT_test1/Libraries/XMCLib/inc\xmc_usic.h ****  * The Universal Serial Interface Channel(USIC) module is a flexible interface module
 102:C:/Workspaces/Dave 4/CTPOT_test1/Libraries/XMCLib/inc\xmc_usic.h ****  * covering several serial communication protocols. A USIC module contains two
 103:C:/Workspaces/Dave 4/CTPOT_test1/Libraries/XMCLib/inc\xmc_usic.h ****  * independent communication channels named USICx_CH0 and USICx_CH1, with x
 104:C:/Workspaces/Dave 4/CTPOT_test1/Libraries/XMCLib/inc\xmc_usic.h ****  * being the number of the USIC module. The user can program, during run-time, which protocol will 
 105:C:/Workspaces/Dave 4/CTPOT_test1/Libraries/XMCLib/inc\xmc_usic.h ****  * by each communication channel and which pins are used.
 106:C:/Workspaces/Dave 4/CTPOT_test1/Libraries/XMCLib/inc\xmc_usic.h ****  * The driver provides APIs, configuration structures and enumerations to configure common features
 107:C:/Workspaces/Dave 4/CTPOT_test1/Libraries/XMCLib/inc\xmc_usic.h ****  * communication protocols.
 108:C:/Workspaces/Dave 4/CTPOT_test1/Libraries/XMCLib/inc\xmc_usic.h ****  * 
 109:C:/Workspaces/Dave 4/CTPOT_test1/Libraries/XMCLib/inc\xmc_usic.h ****  * USIC driver features:
 110:C:/Workspaces/Dave 4/CTPOT_test1/Libraries/XMCLib/inc\xmc_usic.h ****  * -# Allows configuration of FIFO for transmit and receive functions.
 111:C:/Workspaces/Dave 4/CTPOT_test1/Libraries/XMCLib/inc\xmc_usic.h ****  * -# Provides a structure type XMC_USIC_CH_t to represent the USIC channel registers in a programm
 112:C:/Workspaces/Dave 4/CTPOT_test1/Libraries/XMCLib/inc\xmc_usic.h ****  friendly format.
 113:C:/Workspaces/Dave 4/CTPOT_test1/Libraries/XMCLib/inc\xmc_usic.h ****  * -# Allows configuration of automatic update for frame length, word length, slave select or slave
 114:C:/Workspaces/Dave 4/CTPOT_test1/Libraries/XMCLib/inc\xmc_usic.h ****  * -# Allows transmission of data to FIFO using XMC_USIC_CH_TXFIFO_PutData() and XMC_USIC_CH_TXFIFO
 115:C:/Workspaces/Dave 4/CTPOT_test1/Libraries/XMCLib/inc\xmc_usic.h ****  * -# Allows reading of received data in FIFO using XMC_USIC_CH_RXFIFO_GetData()
 116:C:/Workspaces/Dave 4/CTPOT_test1/Libraries/XMCLib/inc\xmc_usic.h ****  * -# Allows configuration of baudrate using XMC_USIC_CH_SetBaudrate()
 117:C:/Workspaces/Dave 4/CTPOT_test1/Libraries/XMCLib/inc\xmc_usic.h ****  * -# Provides API to trigger interrupts using XMC_USIC_CH_TriggerServiceRequest()
 118:C:/Workspaces/Dave 4/CTPOT_test1/Libraries/XMCLib/inc\xmc_usic.h ****  * @{
 119:C:/Workspaces/Dave 4/CTPOT_test1/Libraries/XMCLib/inc\xmc_usic.h ****  */
 120:C:/Workspaces/Dave 4/CTPOT_test1/Libraries/XMCLib/inc\xmc_usic.h **** 
 121:C:/Workspaces/Dave 4/CTPOT_test1/Libraries/XMCLib/inc\xmc_usic.h **** /*******************************************************************************
 122:C:/Workspaces/Dave 4/CTPOT_test1/Libraries/XMCLib/inc\xmc_usic.h ****  * MACROS
 123:C:/Workspaces/Dave 4/CTPOT_test1/Libraries/XMCLib/inc\xmc_usic.h ****  *******************************************************************************/
 124:C:/Workspaces/Dave 4/CTPOT_test1/Libraries/XMCLib/inc\xmc_usic.h **** 
 125:C:/Workspaces/Dave 4/CTPOT_test1/Libraries/XMCLib/inc\xmc_usic.h **** #define XMC_USIC0 ((XMC_USIC_t *)USIC0_BASE)			/**< USIC0 module base address */
 126:C:/Workspaces/Dave 4/CTPOT_test1/Libraries/XMCLib/inc\xmc_usic.h **** #define XMC_USIC0_CH0 ((XMC_USIC_CH_t *)USIC0_CH0_BASE)	/**< USIC0 channel 0 base address */
 127:C:/Workspaces/Dave 4/CTPOT_test1/Libraries/XMCLib/inc\xmc_usic.h **** #define XMC_USIC0_CH1 ((XMC_USIC_CH_t *)USIC0_CH1_BASE)	/**< USIC0 channel 1 base address */
 128:C:/Workspaces/Dave 4/CTPOT_test1/Libraries/XMCLib/inc\xmc_usic.h **** 
 129:C:/Workspaces/Dave 4/CTPOT_test1/Libraries/XMCLib/inc\xmc_usic.h **** #if defined(USIC1)
 130:C:/Workspaces/Dave 4/CTPOT_test1/Libraries/XMCLib/inc\xmc_usic.h **** #define XMC_USIC1 ((XMC_USIC_t *)USIC1_BASE)			/**< USIC1 module base address */
 131:C:/Workspaces/Dave 4/CTPOT_test1/Libraries/XMCLib/inc\xmc_usic.h **** #define XMC_USIC1_CH0 ((XMC_USIC_CH_t *)USIC1_CH0_BASE)	/**< USIC1 channel 0 base address */
 132:C:/Workspaces/Dave 4/CTPOT_test1/Libraries/XMCLib/inc\xmc_usic.h **** #define XMC_USIC1_CH1 ((XMC_USIC_CH_t *)USIC1_CH1_BASE)	/**< USIC1 channel 1 base address */
 133:C:/Workspaces/Dave 4/CTPOT_test1/Libraries/XMCLib/inc\xmc_usic.h **** #endif
 134:C:/Workspaces/Dave 4/CTPOT_test1/Libraries/XMCLib/inc\xmc_usic.h **** 
 135:C:/Workspaces/Dave 4/CTPOT_test1/Libraries/XMCLib/inc\xmc_usic.h **** #if defined(USIC2)
 136:C:/Workspaces/Dave 4/CTPOT_test1/Libraries/XMCLib/inc\xmc_usic.h **** #define XMC_USIC2 ((XMC_USIC_t *)USIC2_BASE)			/**< USIC2 module base address */
 137:C:/Workspaces/Dave 4/CTPOT_test1/Libraries/XMCLib/inc\xmc_usic.h **** #define XMC_USIC2_CH0 ((XMC_USIC_CH_t *)USIC2_CH0_BASE)	/**< USIC2 channel 0 base address */
 138:C:/Workspaces/Dave 4/CTPOT_test1/Libraries/XMCLib/inc\xmc_usic.h **** #define XMC_USIC2_CH1 ((XMC_USIC_CH_t *)USIC2_CH1_BASE)	/**< USIC2 channel 1 base address */
 139:C:/Workspaces/Dave 4/CTPOT_test1/Libraries/XMCLib/inc\xmc_usic.h **** #endif
 140:C:/Workspaces/Dave 4/CTPOT_test1/Libraries/XMCLib/inc\xmc_usic.h **** 
 141:C:/Workspaces/Dave 4/CTPOT_test1/Libraries/XMCLib/inc\xmc_usic.h **** #define USIC_CH_DXCR_DSEL_Msk  USIC_CH_DX0CR_DSEL_Msk   /**< Common mask for DSEL bitfield mask in 
 142:C:/Workspaces/Dave 4/CTPOT_test1/Libraries/XMCLib/inc\xmc_usic.h **** #define USIC_CH_DXCR_DSEL_Pos  USIC_CH_DX0CR_DSEL_Pos   /**< Common mask for DSEL bitfield position
 143:C:/Workspaces/Dave 4/CTPOT_test1/Libraries/XMCLib/inc\xmc_usic.h **** #define USIC_CH_DXCR_SFSEL_Pos USIC_CH_DX0CR_SFSEL_Pos  /**< Common mask for SFSEL bitfield positio
 144:C:/Workspaces/Dave 4/CTPOT_test1/Libraries/XMCLib/inc\xmc_usic.h **** #define USIC_CH_DXCR_SFSEL_Msk USIC_CH_DX0CR_SFSEL_Msk  /**< Common mask for SFSEL bitfield mask in
 145:C:/Workspaces/Dave 4/CTPOT_test1/Libraries/XMCLib/inc\xmc_usic.h **** #define USIC_CH_DXCR_DPOL_Msk  USIC_CH_DX0CR_DPOL_Msk   /**< Common mask for DPOL bitfield mask in 
 146:C:/Workspaces/Dave 4/CTPOT_test1/Libraries/XMCLib/inc\xmc_usic.h **** #define USIC_CH_DXCR_DFEN_Msk  USIC_CH_DX0CR_DFEN_Msk   /**< Common mask for DFEN bitfield mask in 
 147:C:/Workspaces/Dave 4/CTPOT_test1/Libraries/XMCLib/inc\xmc_usic.h **** #define USIC_CH_DXCR_DSEN_Msk  USIC_CH_DX0CR_DSEN_Msk   /**< Common mask for DSEN bitfield mask in 
 148:C:/Workspaces/Dave 4/CTPOT_test1/Libraries/XMCLib/inc\xmc_usic.h **** #define USIC_CH_DXCR_CM_Pos    USIC_CH_DX0CR_CM_Pos     /**< Common mask for CM bitfield position i
 149:C:/Workspaces/Dave 4/CTPOT_test1/Libraries/XMCLib/inc\xmc_usic.h **** #define USIC_CH_DXCR_CM_Msk    USIC_CH_DX0CR_CM_Msk     /**< Common mask for CM bitfield mask in DX
 150:C:/Workspaces/Dave 4/CTPOT_test1/Libraries/XMCLib/inc\xmc_usic.h **** #define USIC_CH_DXCR_INSW_Msk  USIC_CH_DX0CR_INSW_Msk   /**< Common mask for INSW bitfield mask in 
 151:C:/Workspaces/Dave 4/CTPOT_test1/Libraries/XMCLib/inc\xmc_usic.h **** #define USIC_CH_DXCR_INSW_pos  USIC_CH_DX0CR_INSW_Pos   /**< Common mask for INSW bitfield position
 152:C:/Workspaces/Dave 4/CTPOT_test1/Libraries/XMCLib/inc\xmc_usic.h **** 
 153:C:/Workspaces/Dave 4/CTPOT_test1/Libraries/XMCLib/inc\xmc_usic.h **** #if UC_FAMILY == XMC1
 154:C:/Workspaces/Dave 4/CTPOT_test1/Libraries/XMCLib/inc\xmc_usic.h ****  #include "xmc1_usic_map.h"
 155:C:/Workspaces/Dave 4/CTPOT_test1/Libraries/XMCLib/inc\xmc_usic.h **** #endif
 156:C:/Workspaces/Dave 4/CTPOT_test1/Libraries/XMCLib/inc\xmc_usic.h **** 
 157:C:/Workspaces/Dave 4/CTPOT_test1/Libraries/XMCLib/inc\xmc_usic.h **** #if UC_FAMILY == XMC4
 158:C:/Workspaces/Dave 4/CTPOT_test1/Libraries/XMCLib/inc\xmc_usic.h ****  #include "xmc4_usic_map.h"
 159:C:/Workspaces/Dave 4/CTPOT_test1/Libraries/XMCLib/inc\xmc_usic.h **** #endif
 160:C:/Workspaces/Dave 4/CTPOT_test1/Libraries/XMCLib/inc\xmc_usic.h **** 
 161:C:/Workspaces/Dave 4/CTPOT_test1/Libraries/XMCLib/inc\xmc_usic.h **** /*******************************************************************************
 162:C:/Workspaces/Dave 4/CTPOT_test1/Libraries/XMCLib/inc\xmc_usic.h ****  * ENUMS
 163:C:/Workspaces/Dave 4/CTPOT_test1/Libraries/XMCLib/inc\xmc_usic.h ****  *******************************************************************************/
 164:C:/Workspaces/Dave 4/CTPOT_test1/Libraries/XMCLib/inc\xmc_usic.h **** 
 165:C:/Workspaces/Dave 4/CTPOT_test1/Libraries/XMCLib/inc\xmc_usic.h **** /**
 166:C:/Workspaces/Dave 4/CTPOT_test1/Libraries/XMCLib/inc\xmc_usic.h ****  * USIC channel driver status
 167:C:/Workspaces/Dave 4/CTPOT_test1/Libraries/XMCLib/inc\xmc_usic.h ****  */
 168:C:/Workspaces/Dave 4/CTPOT_test1/Libraries/XMCLib/inc\xmc_usic.h **** typedef enum XMC_USIC_CH_STATUS
 169:C:/Workspaces/Dave 4/CTPOT_test1/Libraries/XMCLib/inc\xmc_usic.h **** {
 170:C:/Workspaces/Dave 4/CTPOT_test1/Libraries/XMCLib/inc\xmc_usic.h ****   XMC_USIC_CH_STATUS_OK,    /**< USIC driver status : OK */
 171:C:/Workspaces/Dave 4/CTPOT_test1/Libraries/XMCLib/inc\xmc_usic.h ****   XMC_USIC_CH_STATUS_ERROR, /**< USIC driver status : ERROR */
 172:C:/Workspaces/Dave 4/CTPOT_test1/Libraries/XMCLib/inc\xmc_usic.h ****   XMC_USIC_CH_STATUS_BUSY   /**< USIC driver status : BUSY */
 173:C:/Workspaces/Dave 4/CTPOT_test1/Libraries/XMCLib/inc\xmc_usic.h **** } XMC_USIC_CH_STATUS_t;
 174:C:/Workspaces/Dave 4/CTPOT_test1/Libraries/XMCLib/inc\xmc_usic.h **** 
 175:C:/Workspaces/Dave 4/CTPOT_test1/Libraries/XMCLib/inc\xmc_usic.h **** /**
 176:C:/Workspaces/Dave 4/CTPOT_test1/Libraries/XMCLib/inc\xmc_usic.h **** * USIC channel kernel mode
 177:C:/Workspaces/Dave 4/CTPOT_test1/Libraries/XMCLib/inc\xmc_usic.h **** */
 178:C:/Workspaces/Dave 4/CTPOT_test1/Libraries/XMCLib/inc\xmc_usic.h **** typedef enum XMC_USIC_CH_KERNEL_MODE
 179:C:/Workspaces/Dave 4/CTPOT_test1/Libraries/XMCLib/inc\xmc_usic.h **** {
 180:C:/Workspaces/Dave 4/CTPOT_test1/Libraries/XMCLib/inc\xmc_usic.h ****   XMC_USIC_CH_KERNEL_MODE_RUN_0  = 0x0UL,  /**< Run mode 0 (transmission and reception possible)*/
 181:C:/Workspaces/Dave 4/CTPOT_test1/Libraries/XMCLib/inc\xmc_usic.h ****   XMC_USIC_CH_KERNEL_MODE_RUN_1  = 0x1UL << USIC_CH_KSCFG_NOMCFG_Pos,  /**< Run mode 1 (transmissio
 182:C:/Workspaces/Dave 4/CTPOT_test1/Libraries/XMCLib/inc\xmc_usic.h ****   XMC_USIC_CH_KERNEL_MODE_STOP_0 = 0x2UL << USIC_CH_KSCFG_NOMCFG_Pos,  /**< Stop mode 0 (no transmi
 183:C:/Workspaces/Dave 4/CTPOT_test1/Libraries/XMCLib/inc\xmc_usic.h ****   XMC_USIC_CH_KERNEL_MODE_STOP_1 = 0x3UL << USIC_CH_KSCFG_NOMCFG_Pos   /**< Stop mode 1 (both trans
 184:C:/Workspaces/Dave 4/CTPOT_test1/Libraries/XMCLib/inc\xmc_usic.h **** } XMC_USIC_CH_KERNEL_MODE_t;
 185:C:/Workspaces/Dave 4/CTPOT_test1/Libraries/XMCLib/inc\xmc_usic.h **** 
 186:C:/Workspaces/Dave 4/CTPOT_test1/Libraries/XMCLib/inc\xmc_usic.h **** /**
 187:C:/Workspaces/Dave 4/CTPOT_test1/Libraries/XMCLib/inc\xmc_usic.h ****  * USIC channel operating mode
 188:C:/Workspaces/Dave 4/CTPOT_test1/Libraries/XMCLib/inc\xmc_usic.h ****  */
 189:C:/Workspaces/Dave 4/CTPOT_test1/Libraries/XMCLib/inc\xmc_usic.h **** typedef enum XMC_USIC_CH_OPERATING_MODE
 190:C:/Workspaces/Dave 4/CTPOT_test1/Libraries/XMCLib/inc\xmc_usic.h **** {
 191:C:/Workspaces/Dave 4/CTPOT_test1/Libraries/XMCLib/inc\xmc_usic.h ****   XMC_USIC_CH_OPERATING_MODE_IDLE = 0x0UL, /**< USIC channel idle */
 192:C:/Workspaces/Dave 4/CTPOT_test1/Libraries/XMCLib/inc\xmc_usic.h ****   XMC_USIC_CH_OPERATING_MODE_SPI  = 0x1UL << USIC_CH_CCR_MODE_Pos, /**< SPI mode */
 193:C:/Workspaces/Dave 4/CTPOT_test1/Libraries/XMCLib/inc\xmc_usic.h ****   XMC_USIC_CH_OPERATING_MODE_UART = 0x2UL << USIC_CH_CCR_MODE_Pos, /**< UART mode */
 194:C:/Workspaces/Dave 4/CTPOT_test1/Libraries/XMCLib/inc\xmc_usic.h ****   XMC_USIC_CH_OPERATING_MODE_I2S  = 0x3UL << USIC_CH_CCR_MODE_Pos, /**< I2S mode */
 195:C:/Workspaces/Dave 4/CTPOT_test1/Libraries/XMCLib/inc\xmc_usic.h ****   XMC_USIC_CH_OPERATING_MODE_I2C  = 0x4UL << USIC_CH_CCR_MODE_Pos  /**< I2C mode */
 196:C:/Workspaces/Dave 4/CTPOT_test1/Libraries/XMCLib/inc\xmc_usic.h **** } XMC_USIC_CH_OPERATING_MODE_t;
 197:C:/Workspaces/Dave 4/CTPOT_test1/Libraries/XMCLib/inc\xmc_usic.h **** 
 198:C:/Workspaces/Dave 4/CTPOT_test1/Libraries/XMCLib/inc\xmc_usic.h **** /**
 199:C:/Workspaces/Dave 4/CTPOT_test1/Libraries/XMCLib/inc\xmc_usic.h ****  * USIC channel inputs
 200:C:/Workspaces/Dave 4/CTPOT_test1/Libraries/XMCLib/inc\xmc_usic.h ****  */
 201:C:/Workspaces/Dave 4/CTPOT_test1/Libraries/XMCLib/inc\xmc_usic.h **** typedef enum XMC_USIC_CH_INPUT
 202:C:/Workspaces/Dave 4/CTPOT_test1/Libraries/XMCLib/inc\xmc_usic.h **** {
 203:C:/Workspaces/Dave 4/CTPOT_test1/Libraries/XMCLib/inc\xmc_usic.h ****   XMC_USIC_CH_INPUT_DX0, /**< DX0 input */
 204:C:/Workspaces/Dave 4/CTPOT_test1/Libraries/XMCLib/inc\xmc_usic.h ****   XMC_USIC_CH_INPUT_DX1, /**< DX1 input */
 205:C:/Workspaces/Dave 4/CTPOT_test1/Libraries/XMCLib/inc\xmc_usic.h ****   XMC_USIC_CH_INPUT_DX2, /**< DX2 input */
 206:C:/Workspaces/Dave 4/CTPOT_test1/Libraries/XMCLib/inc\xmc_usic.h ****   XMC_USIC_CH_INPUT_DX3, /**< DX3 input */
 207:C:/Workspaces/Dave 4/CTPOT_test1/Libraries/XMCLib/inc\xmc_usic.h ****   XMC_USIC_CH_INPUT_DX4, /**< DX4 input */
 208:C:/Workspaces/Dave 4/CTPOT_test1/Libraries/XMCLib/inc\xmc_usic.h ****   XMC_USIC_CH_INPUT_DX5  /**< DX5 input */
 209:C:/Workspaces/Dave 4/CTPOT_test1/Libraries/XMCLib/inc\xmc_usic.h **** } XMC_USIC_CH_INPUT_t;
 210:C:/Workspaces/Dave 4/CTPOT_test1/Libraries/XMCLib/inc\xmc_usic.h **** 
 211:C:/Workspaces/Dave 4/CTPOT_test1/Libraries/XMCLib/inc\xmc_usic.h **** /**
 212:C:/Workspaces/Dave 4/CTPOT_test1/Libraries/XMCLib/inc\xmc_usic.h ****  * USIC channel input source sampling frequency
 213:C:/Workspaces/Dave 4/CTPOT_test1/Libraries/XMCLib/inc\xmc_usic.h ****  */
 214:C:/Workspaces/Dave 4/CTPOT_test1/Libraries/XMCLib/inc\xmc_usic.h **** typedef enum XMC_USIC_CH_INPUT_SAMPLING_FREQ
 215:C:/Workspaces/Dave 4/CTPOT_test1/Libraries/XMCLib/inc\xmc_usic.h **** {
 216:C:/Workspaces/Dave 4/CTPOT_test1/Libraries/XMCLib/inc\xmc_usic.h ****   XMC_USIC_CH_INPUT_SAMPLING_FREQ_FPERIPH            = 0x0UL, /**< Use fperiph frequency for input 
 217:C:/Workspaces/Dave 4/CTPOT_test1/Libraries/XMCLib/inc\xmc_usic.h ****   XMC_USIC_CH_INPUT_SAMPLING_FREQ_FRACTIONAL_DIVIDER = 0x1UL << USIC_CH_DXCR_SFSEL_Pos  /**< Use fF
 218:C:/Workspaces/Dave 4/CTPOT_test1/Libraries/XMCLib/inc\xmc_usic.h **** } XMC_USIC_CH_INPUT_SAMPLING_FREQ_t;
 219:C:/Workspaces/Dave 4/CTPOT_test1/Libraries/XMCLib/inc\xmc_usic.h **** 
 220:C:/Workspaces/Dave 4/CTPOT_test1/Libraries/XMCLib/inc\xmc_usic.h **** /**
 221:C:/Workspaces/Dave 4/CTPOT_test1/Libraries/XMCLib/inc\xmc_usic.h ****  * USIC channel input combination mode
 222:C:/Workspaces/Dave 4/CTPOT_test1/Libraries/XMCLib/inc\xmc_usic.h ****  */
 223:C:/Workspaces/Dave 4/CTPOT_test1/Libraries/XMCLib/inc\xmc_usic.h **** typedef enum XMC_USIC_CH_INPUT_COMBINATION_MODE
 224:C:/Workspaces/Dave 4/CTPOT_test1/Libraries/XMCLib/inc\xmc_usic.h **** {
 225:C:/Workspaces/Dave 4/CTPOT_test1/Libraries/XMCLib/inc\xmc_usic.h ****   XMC_USIC_CH_INPUT_COMBINATION_MODE_TRIGGER_DISABLED = 0x0UL, /**< The trigger activation is disab
 226:C:/Workspaces/Dave 4/CTPOT_test1/Libraries/XMCLib/inc\xmc_usic.h ****   XMC_USIC_CH_INPUT_COMBINATION_MODE_RISING_EDGE      = 0x1UL, /**< A rising edge activates DXnT*/
 227:C:/Workspaces/Dave 4/CTPOT_test1/Libraries/XMCLib/inc\xmc_usic.h ****   XMC_USIC_CH_INPUT_COMBINATION_MODE_FALLING_EDGE     = 0x2UL, /**< A falling edge activates DXnT*/
 228:C:/Workspaces/Dave 4/CTPOT_test1/Libraries/XMCLib/inc\xmc_usic.h ****   XMC_USIC_CH_INPUT_COMBINATION_MODE_BOTH_EDGES       = 0x3UL, /**< Both edges activate DXnT*/
 229:C:/Workspaces/Dave 4/CTPOT_test1/Libraries/XMCLib/inc\xmc_usic.h **** } XMC_USIC_CH_INPUT_COMBINATION_MODE_t;
 230:C:/Workspaces/Dave 4/CTPOT_test1/Libraries/XMCLib/inc\xmc_usic.h **** 
 231:C:/Workspaces/Dave 4/CTPOT_test1/Libraries/XMCLib/inc\xmc_usic.h **** /**
 232:C:/Workspaces/Dave 4/CTPOT_test1/Libraries/XMCLib/inc\xmc_usic.h ****  * USIC channel data transmission start modes.
 233:C:/Workspaces/Dave 4/CTPOT_test1/Libraries/XMCLib/inc\xmc_usic.h ****  * Data shifted out of the transmit pin depends on the value configured for the
 234:C:/Workspaces/Dave 4/CTPOT_test1/Libraries/XMCLib/inc\xmc_usic.h ****  * TDEN bitfield of the TCSR register. Following enum values are used for configuring
 235:C:/Workspaces/Dave 4/CTPOT_test1/Libraries/XMCLib/inc\xmc_usic.h ****  * the TCSR->TDEN bitfield.
 236:C:/Workspaces/Dave 4/CTPOT_test1/Libraries/XMCLib/inc\xmc_usic.h ****  */
 237:C:/Workspaces/Dave 4/CTPOT_test1/Libraries/XMCLib/inc\xmc_usic.h **** typedef enum XMC_USIC_CH_START_TRANSMISION_MODE
 238:C:/Workspaces/Dave 4/CTPOT_test1/Libraries/XMCLib/inc\xmc_usic.h **** {
 239:C:/Workspaces/Dave 4/CTPOT_test1/Libraries/XMCLib/inc\xmc_usic.h ****   XMC_USIC_CH_START_TRANSMISION_DISABLED      = 0x0U, /**< Passive data level is sent out on transm
 240:C:/Workspaces/Dave 4/CTPOT_test1/Libraries/XMCLib/inc\xmc_usic.h ****   XMC_USIC_CH_START_TRANSMISION_ON_TDV        = 0x1UL << USIC_CH_TCSR_TDEN_Pos, /**< Transmission o
 241:C:/Workspaces/Dave 4/CTPOT_test1/Libraries/XMCLib/inc\xmc_usic.h ****   XMC_USIC_CH_START_TRANSMISION_ON_TDV_DX2S_0 = 0x2UL << USIC_CH_TCSR_TDEN_Pos, /**< Transmission o
 242:C:/Workspaces/Dave 4/CTPOT_test1/Libraries/XMCLib/inc\xmc_usic.h ****   XMC_USIC_CH_START_TRANSMISION_ON_TDV_DX2S_1 = 0x3UL << USIC_CH_TCSR_TDEN_Pos  /**< Transmission o
 243:C:/Workspaces/Dave 4/CTPOT_test1/Libraries/XMCLib/inc\xmc_usic.h **** } XMC_USIC_CH_START_TRANSMISION_MODE_t;
 244:C:/Workspaces/Dave 4/CTPOT_test1/Libraries/XMCLib/inc\xmc_usic.h **** 
 245:C:/Workspaces/Dave 4/CTPOT_test1/Libraries/XMCLib/inc\xmc_usic.h **** /**
 246:C:/Workspaces/Dave 4/CTPOT_test1/Libraries/XMCLib/inc\xmc_usic.h ****  * USIC channel interrupt node pointers
 247:C:/Workspaces/Dave 4/CTPOT_test1/Libraries/XMCLib/inc\xmc_usic.h ****  */
 248:C:/Workspaces/Dave 4/CTPOT_test1/Libraries/XMCLib/inc\xmc_usic.h **** typedef enum XMC_USIC_CH_INTERRUPT_NODE_POINTER
 249:C:/Workspaces/Dave 4/CTPOT_test1/Libraries/XMCLib/inc\xmc_usic.h **** {
 250:C:/Workspaces/Dave 4/CTPOT_test1/Libraries/XMCLib/inc\xmc_usic.h ****   XMC_USIC_CH_INTERRUPT_NODE_POINTER_TRANSMIT_SHIFT      = USIC_CH_INPR_TSINP_Pos, /**< Node pointe
 251:C:/Workspaces/Dave 4/CTPOT_test1/Libraries/XMCLib/inc\xmc_usic.h ****   XMC_USIC_CH_INTERRUPT_NODE_POINTER_TRANSMIT_BUFFER     = USIC_CH_INPR_TBINP_Pos, /**< Node pointe
 252:C:/Workspaces/Dave 4/CTPOT_test1/Libraries/XMCLib/inc\xmc_usic.h ****   XMC_USIC_CH_INTERRUPT_NODE_POINTER_RECEIVE             = USIC_CH_INPR_RINP_Pos,  /**< Node pointe
 253:C:/Workspaces/Dave 4/CTPOT_test1/Libraries/XMCLib/inc\xmc_usic.h ****   XMC_USIC_CH_INTERRUPT_NODE_POINTER_ALTERNATE_RECEIVE   = USIC_CH_INPR_AINP_Pos,  /**< Node pointe
 254:C:/Workspaces/Dave 4/CTPOT_test1/Libraries/XMCLib/inc\xmc_usic.h ****   XMC_USIC_CH_INTERRUPT_NODE_POINTER_PROTOCOL            = USIC_CH_INPR_PINP_Pos   /**< Node pointe
 255:C:/Workspaces/Dave 4/CTPOT_test1/Libraries/XMCLib/inc\xmc_usic.h **** } XMC_USIC_CH_INTERRUPT_NODE_POINTER_t;
 256:C:/Workspaces/Dave 4/CTPOT_test1/Libraries/XMCLib/inc\xmc_usic.h **** 
 257:C:/Workspaces/Dave 4/CTPOT_test1/Libraries/XMCLib/inc\xmc_usic.h **** /**
 258:C:/Workspaces/Dave 4/CTPOT_test1/Libraries/XMCLib/inc\xmc_usic.h ****  * USIC channel events
 259:C:/Workspaces/Dave 4/CTPOT_test1/Libraries/XMCLib/inc\xmc_usic.h ****  */
 260:C:/Workspaces/Dave 4/CTPOT_test1/Libraries/XMCLib/inc\xmc_usic.h **** typedef enum XMC_USIC_CH_EVENT
 261:C:/Workspaces/Dave 4/CTPOT_test1/Libraries/XMCLib/inc\xmc_usic.h **** {
 262:C:/Workspaces/Dave 4/CTPOT_test1/Libraries/XMCLib/inc\xmc_usic.h ****   XMC_USIC_CH_EVENT_RECEIVE_START       = USIC_CH_CCR_RSIEN_Msk, /**< Receive start event */
 263:C:/Workspaces/Dave 4/CTPOT_test1/Libraries/XMCLib/inc\xmc_usic.h ****   XMC_USIC_CH_EVENT_DATA_LOST           = USIC_CH_CCR_DLIEN_Msk, /**< Data lost event */
 264:C:/Workspaces/Dave 4/CTPOT_test1/Libraries/XMCLib/inc\xmc_usic.h ****   XMC_USIC_CH_EVENT_TRANSMIT_SHIFT      = USIC_CH_CCR_TSIEN_Msk, /**< Transmit shift event */
 265:C:/Workspaces/Dave 4/CTPOT_test1/Libraries/XMCLib/inc\xmc_usic.h ****   XMC_USIC_CH_EVENT_TRANSMIT_BUFFER     = USIC_CH_CCR_TBIEN_Msk, /**< Transmit buffer event */
 266:C:/Workspaces/Dave 4/CTPOT_test1/Libraries/XMCLib/inc\xmc_usic.h ****   XMC_USIC_CH_EVENT_STANDARD_RECEIVE    = USIC_CH_CCR_RIEN_Msk,  /**< Receive event */
 267:C:/Workspaces/Dave 4/CTPOT_test1/Libraries/XMCLib/inc\xmc_usic.h ****   XMC_USIC_CH_EVENT_ALTERNATIVE_RECEIVE = USIC_CH_CCR_AIEN_Msk,  /**< Alternate receive event */
 268:C:/Workspaces/Dave 4/CTPOT_test1/Libraries/XMCLib/inc\xmc_usic.h ****   XMC_USIC_CH_EVENT_BAUD_RATE_GENERATOR = USIC_CH_CCR_BRGIEN_Msk /**< Baudrate generator event */
 269:C:/Workspaces/Dave 4/CTPOT_test1/Libraries/XMCLib/inc\xmc_usic.h **** } XMC_USIC_CH_EVENT_t;
 270:C:/Workspaces/Dave 4/CTPOT_test1/Libraries/XMCLib/inc\xmc_usic.h **** 
 271:C:/Workspaces/Dave 4/CTPOT_test1/Libraries/XMCLib/inc\xmc_usic.h **** /**
 272:C:/Workspaces/Dave 4/CTPOT_test1/Libraries/XMCLib/inc\xmc_usic.h **** * USIC channel parity mode
 273:C:/Workspaces/Dave 4/CTPOT_test1/Libraries/XMCLib/inc\xmc_usic.h **** */
 274:C:/Workspaces/Dave 4/CTPOT_test1/Libraries/XMCLib/inc\xmc_usic.h **** typedef enum XMC_USIC_CH_PARITY_MODE
 275:C:/Workspaces/Dave 4/CTPOT_test1/Libraries/XMCLib/inc\xmc_usic.h **** {
 276:C:/Workspaces/Dave 4/CTPOT_test1/Libraries/XMCLib/inc\xmc_usic.h ****   XMC_USIC_CH_PARITY_MODE_NONE     = 0x0UL,  /**< Disable parity mode */
 277:C:/Workspaces/Dave 4/CTPOT_test1/Libraries/XMCLib/inc\xmc_usic.h ****   XMC_USIC_CH_PARITY_MODE_EVEN     = 0x2UL << USIC_CH_CCR_PM_Pos,  /**< Enable even parity mode */
 278:C:/Workspaces/Dave 4/CTPOT_test1/Libraries/XMCLib/inc\xmc_usic.h ****   XMC_USIC_CH_PARITY_MODE_ODD      = 0x3UL << USIC_CH_CCR_PM_Pos   /**< Enable odd parity mode */
 279:C:/Workspaces/Dave 4/CTPOT_test1/Libraries/XMCLib/inc\xmc_usic.h **** } XMC_USIC_CH_PARITY_MODE_t;
 280:C:/Workspaces/Dave 4/CTPOT_test1/Libraries/XMCLib/inc\xmc_usic.h **** 
 281:C:/Workspaces/Dave 4/CTPOT_test1/Libraries/XMCLib/inc\xmc_usic.h **** /**
 282:C:/Workspaces/Dave 4/CTPOT_test1/Libraries/XMCLib/inc\xmc_usic.h **** * USIC channel data output mode
 283:C:/Workspaces/Dave 4/CTPOT_test1/Libraries/XMCLib/inc\xmc_usic.h **** */
 284:C:/Workspaces/Dave 4/CTPOT_test1/Libraries/XMCLib/inc\xmc_usic.h **** typedef enum XMC_USIC_CH_DATA_OUTPUT_MODE
 285:C:/Workspaces/Dave 4/CTPOT_test1/Libraries/XMCLib/inc\xmc_usic.h **** {
 286:C:/Workspaces/Dave 4/CTPOT_test1/Libraries/XMCLib/inc\xmc_usic.h ****   XMC_USIC_CH_DATA_OUTPUT_MODE_NORMAL   = 0x0UL,  /**< Data output normal mode */
 287:C:/Workspaces/Dave 4/CTPOT_test1/Libraries/XMCLib/inc\xmc_usic.h ****   XMC_USIC_CH_DATA_OUTPUT_MODE_INVERTED = 0x1UL << USIC_CH_SCTR_DOCFG_Pos   /**< Data output invert
 288:C:/Workspaces/Dave 4/CTPOT_test1/Libraries/XMCLib/inc\xmc_usic.h **** } XMC_USIC_CH_DATA_OUTPUT_MODE_t;
 289:C:/Workspaces/Dave 4/CTPOT_test1/Libraries/XMCLib/inc\xmc_usic.h **** 
 290:C:/Workspaces/Dave 4/CTPOT_test1/Libraries/XMCLib/inc\xmc_usic.h **** /**
 291:C:/Workspaces/Dave 4/CTPOT_test1/Libraries/XMCLib/inc\xmc_usic.h **** * USIC channel data transmit buffer status
 292:C:/Workspaces/Dave 4/CTPOT_test1/Libraries/XMCLib/inc\xmc_usic.h **** */
 293:C:/Workspaces/Dave 4/CTPOT_test1/Libraries/XMCLib/inc\xmc_usic.h **** typedef enum XMC_USIC_CH_TBUF_STATUS
 294:C:/Workspaces/Dave 4/CTPOT_test1/Libraries/XMCLib/inc\xmc_usic.h **** {
 295:C:/Workspaces/Dave 4/CTPOT_test1/Libraries/XMCLib/inc\xmc_usic.h ****   XMC_USIC_CH_TBUF_STATUS_IDLE = 0x0UL,                 /**< Transfer buffer is currently idle*/
 296:C:/Workspaces/Dave 4/CTPOT_test1/Libraries/XMCLib/inc\xmc_usic.h ****   XMC_USIC_CH_TBUF_STATUS_BUSY = USIC_CH_TCSR_TDV_Msk   /**< Transfer buffer is currently busy*/
 297:C:/Workspaces/Dave 4/CTPOT_test1/Libraries/XMCLib/inc\xmc_usic.h **** } XMC_USIC_CH_TBUF_STATUS_t;
 298:C:/Workspaces/Dave 4/CTPOT_test1/Libraries/XMCLib/inc\xmc_usic.h **** 
 299:C:/Workspaces/Dave 4/CTPOT_test1/Libraries/XMCLib/inc\xmc_usic.h **** 
 300:C:/Workspaces/Dave 4/CTPOT_test1/Libraries/XMCLib/inc\xmc_usic.h **** 
 301:C:/Workspaces/Dave 4/CTPOT_test1/Libraries/XMCLib/inc\xmc_usic.h **** /**
 302:C:/Workspaces/Dave 4/CTPOT_test1/Libraries/XMCLib/inc\xmc_usic.h **** * USIC channel data transmit buffer status modification
 303:C:/Workspaces/Dave 4/CTPOT_test1/Libraries/XMCLib/inc\xmc_usic.h **** */
 304:C:/Workspaces/Dave 4/CTPOT_test1/Libraries/XMCLib/inc\xmc_usic.h **** typedef enum XMC_USIC_CH_TBUF_STATUS_SET
 305:C:/Workspaces/Dave 4/CTPOT_test1/Libraries/XMCLib/inc\xmc_usic.h **** {
 306:C:/Workspaces/Dave 4/CTPOT_test1/Libraries/XMCLib/inc\xmc_usic.h ****   XMC_USIC_CH_TBUF_STATUS_SET_BUSY   = 0x1UL, /**< Set Transfer buffer status to busy*/
 307:C:/Workspaces/Dave 4/CTPOT_test1/Libraries/XMCLib/inc\xmc_usic.h ****   XMC_USIC_CH_TBUF_STATUS_SET_IDLE   = 0x2UL  /**< Set Transfer buffer status to idle*/
 308:C:/Workspaces/Dave 4/CTPOT_test1/Libraries/XMCLib/inc\xmc_usic.h **** } XMC_USIC_CH_TBUF_STATUS_SET_t;
 309:C:/Workspaces/Dave 4/CTPOT_test1/Libraries/XMCLib/inc\xmc_usic.h **** 
 310:C:/Workspaces/Dave 4/CTPOT_test1/Libraries/XMCLib/inc\xmc_usic.h **** /**
 311:C:/Workspaces/Dave 4/CTPOT_test1/Libraries/XMCLib/inc\xmc_usic.h **** * USIC channel receive buffer status
 312:C:/Workspaces/Dave 4/CTPOT_test1/Libraries/XMCLib/inc\xmc_usic.h **** */
 313:C:/Workspaces/Dave 4/CTPOT_test1/Libraries/XMCLib/inc\xmc_usic.h **** typedef enum XMC_USIC_CH_RBUF_STATUS
 314:C:/Workspaces/Dave 4/CTPOT_test1/Libraries/XMCLib/inc\xmc_usic.h **** {
 315:C:/Workspaces/Dave 4/CTPOT_test1/Libraries/XMCLib/inc\xmc_usic.h ****   XMC_USIC_CH_RBUF_STATUS_DATA_VALID0 = USIC_CH_RBUFSR_RDV0_Msk, /**< RBUF0 data has not yet been r
 316:C:/Workspaces/Dave 4/CTPOT_test1/Libraries/XMCLib/inc\xmc_usic.h ****   XMC_USIC_CH_RBUF_STATUS_DATA_VALID1 = USIC_CH_RBUFSR_RDV1_Msk  /**< RBUF1 data has not yet been r
 317:C:/Workspaces/Dave 4/CTPOT_test1/Libraries/XMCLib/inc\xmc_usic.h **** } XMC_USIC_CH_RBUF_STATUS_t;
 318:C:/Workspaces/Dave 4/CTPOT_test1/Libraries/XMCLib/inc\xmc_usic.h **** 
 319:C:/Workspaces/Dave 4/CTPOT_test1/Libraries/XMCLib/inc\xmc_usic.h **** /**
 320:C:/Workspaces/Dave 4/CTPOT_test1/Libraries/XMCLib/inc\xmc_usic.h ****  * USIC channel output signal passive data level
 321:C:/Workspaces/Dave 4/CTPOT_test1/Libraries/XMCLib/inc\xmc_usic.h **** */
 322:C:/Workspaces/Dave 4/CTPOT_test1/Libraries/XMCLib/inc\xmc_usic.h **** typedef enum XMC_USCI_CH_PASSIVE_DATA_LEVEL
 323:C:/Workspaces/Dave 4/CTPOT_test1/Libraries/XMCLib/inc\xmc_usic.h **** {
 324:C:/Workspaces/Dave 4/CTPOT_test1/Libraries/XMCLib/inc\xmc_usic.h ****   XMC_USIC_CH_PASSIVE_DATA_LEVEL0 = 0x0UL, /**< Passive level(idle mode signal level) 0 */
 325:C:/Workspaces/Dave 4/CTPOT_test1/Libraries/XMCLib/inc\xmc_usic.h ****   XMC_USIC_CH_PASSIVE_DATA_LEVEL1 = 0x1UL << USIC_CH_SCTR_PDL_Pos  /**< Passive level(idle mode sig
 326:C:/Workspaces/Dave 4/CTPOT_test1/Libraries/XMCLib/inc\xmc_usic.h **** } XMC_USIC_CH_PASSIVE_DATA_LEVEL_t;
 327:C:/Workspaces/Dave 4/CTPOT_test1/Libraries/XMCLib/inc\xmc_usic.h **** 
 328:C:/Workspaces/Dave 4/CTPOT_test1/Libraries/XMCLib/inc\xmc_usic.h **** /**
 329:C:/Workspaces/Dave 4/CTPOT_test1/Libraries/XMCLib/inc\xmc_usic.h **** * USIC channel receive FIFO size
 330:C:/Workspaces/Dave 4/CTPOT_test1/Libraries/XMCLib/inc\xmc_usic.h **** */
 331:C:/Workspaces/Dave 4/CTPOT_test1/Libraries/XMCLib/inc\xmc_usic.h **** typedef enum XMC_USIC_CH_FIFO_SIZE
 332:C:/Workspaces/Dave 4/CTPOT_test1/Libraries/XMCLib/inc\xmc_usic.h **** {
 333:C:/Workspaces/Dave 4/CTPOT_test1/Libraries/XMCLib/inc\xmc_usic.h ****   XMC_USIC_CH_FIFO_DISABLED     = 0x0U,  /**< FIFO Disabled */
 334:C:/Workspaces/Dave 4/CTPOT_test1/Libraries/XMCLib/inc\xmc_usic.h ****   XMC_USIC_CH_FIFO_SIZE_2WORDS  = 0x1U,  /**< FIFO size: 2 words */
 335:C:/Workspaces/Dave 4/CTPOT_test1/Libraries/XMCLib/inc\xmc_usic.h ****   XMC_USIC_CH_FIFO_SIZE_4WORDS  = 0x2U,  /**< FIFO size: 4 words */
 336:C:/Workspaces/Dave 4/CTPOT_test1/Libraries/XMCLib/inc\xmc_usic.h ****   XMC_USIC_CH_FIFO_SIZE_8WORDS  = 0x3U,  /**< FIFO size: 8 words */
 337:C:/Workspaces/Dave 4/CTPOT_test1/Libraries/XMCLib/inc\xmc_usic.h ****   XMC_USIC_CH_FIFO_SIZE_16WORDS = 0x4U,  /**< FIFO size: 16 words */
 338:C:/Workspaces/Dave 4/CTPOT_test1/Libraries/XMCLib/inc\xmc_usic.h ****   XMC_USIC_CH_FIFO_SIZE_32WORDS = 0x5U,  /**< FIFO size: 32 words */
 339:C:/Workspaces/Dave 4/CTPOT_test1/Libraries/XMCLib/inc\xmc_usic.h ****   XMC_USIC_CH_FIFO_SIZE_64WORDS = 0x6U   /**< FIFO size: 64 words */
 340:C:/Workspaces/Dave 4/CTPOT_test1/Libraries/XMCLib/inc\xmc_usic.h **** } XMC_USIC_CH_FIFO_SIZE_t;
 341:C:/Workspaces/Dave 4/CTPOT_test1/Libraries/XMCLib/inc\xmc_usic.h **** 
 342:C:/Workspaces/Dave 4/CTPOT_test1/Libraries/XMCLib/inc\xmc_usic.h **** /**
 343:C:/Workspaces/Dave 4/CTPOT_test1/Libraries/XMCLib/inc\xmc_usic.h **** * USIC channel transmit FIFO interrupt node pointers
 344:C:/Workspaces/Dave 4/CTPOT_test1/Libraries/XMCLib/inc\xmc_usic.h **** */
 345:C:/Workspaces/Dave 4/CTPOT_test1/Libraries/XMCLib/inc\xmc_usic.h **** typedef enum XMC_USIC_CH_TXFIFO_INTERRUPT_NODE_POINTER
 346:C:/Workspaces/Dave 4/CTPOT_test1/Libraries/XMCLib/inc\xmc_usic.h **** {
 347:C:/Workspaces/Dave 4/CTPOT_test1/Libraries/XMCLib/inc\xmc_usic.h ****   XMC_USIC_CH_TXFIFO_INTERRUPT_NODE_POINTER_STANDARD  = USIC_CH_TBCTR_STBINP_Pos,  /**< Node pointe
 348:C:/Workspaces/Dave 4/CTPOT_test1/Libraries/XMCLib/inc\xmc_usic.h ****   XMC_USIC_CH_TXFIFO_INTERRUPT_NODE_POINTER_ALTERNATE = USIC_CH_TBCTR_ATBINP_Pos   /**< Node pointe
 349:C:/Workspaces/Dave 4/CTPOT_test1/Libraries/XMCLib/inc\xmc_usic.h **** } XMC_USIC_CH_TXFIFO_INTERRUPT_NODE_POINTER_t;
 350:C:/Workspaces/Dave 4/CTPOT_test1/Libraries/XMCLib/inc\xmc_usic.h **** 
 351:C:/Workspaces/Dave 4/CTPOT_test1/Libraries/XMCLib/inc\xmc_usic.h **** /**
 352:C:/Workspaces/Dave 4/CTPOT_test1/Libraries/XMCLib/inc\xmc_usic.h **** * USIC channel transmit FIFO event configuration
 353:C:/Workspaces/Dave 4/CTPOT_test1/Libraries/XMCLib/inc\xmc_usic.h **** */
 354:C:/Workspaces/Dave 4/CTPOT_test1/Libraries/XMCLib/inc\xmc_usic.h **** typedef enum XMC_USIC_CH_TXFIFO_EVENT_CONF
 355:C:/Workspaces/Dave 4/CTPOT_test1/Libraries/XMCLib/inc\xmc_usic.h **** {
 356:C:/Workspaces/Dave 4/CTPOT_test1/Libraries/XMCLib/inc\xmc_usic.h ****   XMC_USIC_CH_TXFIFO_EVENT_CONF_STANDARD  = USIC_CH_TBCTR_STBIEN_Msk,   /**< Enable FIFO standard t
 357:C:/Workspaces/Dave 4/CTPOT_test1/Libraries/XMCLib/inc\xmc_usic.h ****   XMC_USIC_CH_TXFIFO_EVENT_CONF_ERROR     = (int32_t)USIC_CH_TBCTR_TBERIEN_Msk  /**< Enable transmi
 358:C:/Workspaces/Dave 4/CTPOT_test1/Libraries/XMCLib/inc\xmc_usic.h **** } XMC_USIC_CH_TXFIFO_EVENT_CONF_t;
 359:C:/Workspaces/Dave 4/CTPOT_test1/Libraries/XMCLib/inc\xmc_usic.h **** 
 360:C:/Workspaces/Dave 4/CTPOT_test1/Libraries/XMCLib/inc\xmc_usic.h **** /**
 361:C:/Workspaces/Dave 4/CTPOT_test1/Libraries/XMCLib/inc\xmc_usic.h **** * USIC channel transmit FIFO status
 362:C:/Workspaces/Dave 4/CTPOT_test1/Libraries/XMCLib/inc\xmc_usic.h **** */
 363:C:/Workspaces/Dave 4/CTPOT_test1/Libraries/XMCLib/inc\xmc_usic.h **** typedef enum XMC_USIC_CH_TXFIFO_EVENT
 364:C:/Workspaces/Dave 4/CTPOT_test1/Libraries/XMCLib/inc\xmc_usic.h **** {
 365:C:/Workspaces/Dave 4/CTPOT_test1/Libraries/XMCLib/inc\xmc_usic.h ****   XMC_USIC_CH_TXFIFO_EVENT_STANDARD = USIC_CH_TRBSR_STBI_Msk,    /**< Transmit FIFO status: Standar
 366:C:/Workspaces/Dave 4/CTPOT_test1/Libraries/XMCLib/inc\xmc_usic.h ****   XMC_USIC_CH_TXFIFO_EVENT_ERROR    = USIC_CH_TRBSR_TBERI_Msk    /**< Transmit FIFO status: Error e
 367:C:/Workspaces/Dave 4/CTPOT_test1/Libraries/XMCLib/inc\xmc_usic.h **** } XMC_USIC_CH_TXFIFO_EVENT_t;
 368:C:/Workspaces/Dave 4/CTPOT_test1/Libraries/XMCLib/inc\xmc_usic.h **** 
 369:C:/Workspaces/Dave 4/CTPOT_test1/Libraries/XMCLib/inc\xmc_usic.h **** /**
 370:C:/Workspaces/Dave 4/CTPOT_test1/Libraries/XMCLib/inc\xmc_usic.h **** * USIC channel receive FIFO interrupt node pointers
 371:C:/Workspaces/Dave 4/CTPOT_test1/Libraries/XMCLib/inc\xmc_usic.h **** */
 372:C:/Workspaces/Dave 4/CTPOT_test1/Libraries/XMCLib/inc\xmc_usic.h **** typedef enum XMC_USIC_CH_RXFIFO_INTERRUPT_NODE_POINTER
 373:C:/Workspaces/Dave 4/CTPOT_test1/Libraries/XMCLib/inc\xmc_usic.h **** {
 374:C:/Workspaces/Dave 4/CTPOT_test1/Libraries/XMCLib/inc\xmc_usic.h ****   XMC_USIC_CH_RXFIFO_INTERRUPT_NODE_POINTER_STANDARD  = USIC_CH_RBCTR_SRBINP_Pos, /**< Node pointer
 375:C:/Workspaces/Dave 4/CTPOT_test1/Libraries/XMCLib/inc\xmc_usic.h ****   XMC_USIC_CH_RXFIFO_INTERRUPT_NODE_POINTER_ALTERNATE = USIC_CH_RBCTR_ARBINP_Pos  /**< Node pointer
 376:C:/Workspaces/Dave 4/CTPOT_test1/Libraries/XMCLib/inc\xmc_usic.h **** } XMC_USIC_CH_RXFIFO_INTERRUPT_NODE_POINTER_t;
 377:C:/Workspaces/Dave 4/CTPOT_test1/Libraries/XMCLib/inc\xmc_usic.h **** 
 378:C:/Workspaces/Dave 4/CTPOT_test1/Libraries/XMCLib/inc\xmc_usic.h **** /**
 379:C:/Workspaces/Dave 4/CTPOT_test1/Libraries/XMCLib/inc\xmc_usic.h **** * USIC channel receive FIFO event configuration
 380:C:/Workspaces/Dave 4/CTPOT_test1/Libraries/XMCLib/inc\xmc_usic.h **** */
 381:C:/Workspaces/Dave 4/CTPOT_test1/Libraries/XMCLib/inc\xmc_usic.h **** typedef enum XMC_USIC_CH_RXFIFO_EVENT_CONF
 382:C:/Workspaces/Dave 4/CTPOT_test1/Libraries/XMCLib/inc\xmc_usic.h **** {
 383:C:/Workspaces/Dave 4/CTPOT_test1/Libraries/XMCLib/inc\xmc_usic.h ****   XMC_USIC_CH_RXFIFO_EVENT_CONF_STANDARD  = USIC_CH_RBCTR_SRBIEN_Msk,   /**< Enable FIFO standard r
 384:C:/Workspaces/Dave 4/CTPOT_test1/Libraries/XMCLib/inc\xmc_usic.h ****   XMC_USIC_CH_RXFIFO_EVENT_CONF_ERROR     = (int32_t)USIC_CH_RBCTR_RBERIEN_Msk,  /**< Enable receiv
 385:C:/Workspaces/Dave 4/CTPOT_test1/Libraries/XMCLib/inc\xmc_usic.h ****   XMC_USIC_CH_RXFIFO_EVENT_CONF_ALTERNATE = USIC_CH_RBCTR_ARBIEN_Msk   /**< Enable FIFO alternative
 386:C:/Workspaces/Dave 4/CTPOT_test1/Libraries/XMCLib/inc\xmc_usic.h **** } XMC_USIC_CH_RXFIFO_EVENT_CONF_t;
 387:C:/Workspaces/Dave 4/CTPOT_test1/Libraries/XMCLib/inc\xmc_usic.h **** 
 388:C:/Workspaces/Dave 4/CTPOT_test1/Libraries/XMCLib/inc\xmc_usic.h **** /**
 389:C:/Workspaces/Dave 4/CTPOT_test1/Libraries/XMCLib/inc\xmc_usic.h **** * USIC channel receive FIFO status
 390:C:/Workspaces/Dave 4/CTPOT_test1/Libraries/XMCLib/inc\xmc_usic.h **** */
 391:C:/Workspaces/Dave 4/CTPOT_test1/Libraries/XMCLib/inc\xmc_usic.h **** typedef enum XMC_USIC_CH_RXFIFO_EVENT
 392:C:/Workspaces/Dave 4/CTPOT_test1/Libraries/XMCLib/inc\xmc_usic.h **** {
 393:C:/Workspaces/Dave 4/CTPOT_test1/Libraries/XMCLib/inc\xmc_usic.h ****   XMC_USIC_CH_RXFIFO_EVENT_STANDARD  = USIC_CH_TRBSR_SRBI_Msk,   /**< Receive FIFO status: Standard
 394:C:/Workspaces/Dave 4/CTPOT_test1/Libraries/XMCLib/inc\xmc_usic.h ****   XMC_USIC_CH_RXFIFO_EVENT_ERROR     = USIC_CH_TRBSR_RBERI_Msk,  /**< Receive FIFO status: Error ev
 395:C:/Workspaces/Dave 4/CTPOT_test1/Libraries/XMCLib/inc\xmc_usic.h ****   XMC_USIC_CH_RXFIFO_EVENT_ALTERNATE = USIC_CH_TRBSR_ARBI_Msk    /**< Receive FIFO status: Alternat
 396:C:/Workspaces/Dave 4/CTPOT_test1/Libraries/XMCLib/inc\xmc_usic.h **** } XMC_USIC_CH_RXFIFO_EVENT_t;
 397:C:/Workspaces/Dave 4/CTPOT_test1/Libraries/XMCLib/inc\xmc_usic.h **** 
 398:C:/Workspaces/Dave 4/CTPOT_test1/Libraries/XMCLib/inc\xmc_usic.h **** /**
 399:C:/Workspaces/Dave 4/CTPOT_test1/Libraries/XMCLib/inc\xmc_usic.h **** * USIC channel baudrate generator clock source
 400:C:/Workspaces/Dave 4/CTPOT_test1/Libraries/XMCLib/inc\xmc_usic.h **** */
 401:C:/Workspaces/Dave 4/CTPOT_test1/Libraries/XMCLib/inc\xmc_usic.h **** typedef enum XMC_USIC_CH_BRG_CLOCK_SOURCE
 402:C:/Workspaces/Dave 4/CTPOT_test1/Libraries/XMCLib/inc\xmc_usic.h **** {
 403:C:/Workspaces/Dave 4/CTPOT_test1/Libraries/XMCLib/inc\xmc_usic.h ****   XMC_USIC_CH_BRG_CLOCK_SOURCE_DIVIDER = 0x0UL, /**< Baudrate generator clock source : Source divid
 404:C:/Workspaces/Dave 4/CTPOT_test1/Libraries/XMCLib/inc\xmc_usic.h ****   XMC_USIC_CH_BRG_CLOCK_SOURCE_DX1T    = 0x2UL << USIC_CH_BRG_CLKSEL_Pos  /**< Baudrate generator c
 405:C:/Workspaces/Dave 4/CTPOT_test1/Libraries/XMCLib/inc\xmc_usic.h **** } XMC_USIC_CH_BRG_CLOCK_SOURCE_t;
 406:C:/Workspaces/Dave 4/CTPOT_test1/Libraries/XMCLib/inc\xmc_usic.h **** 
 407:C:/Workspaces/Dave 4/CTPOT_test1/Libraries/XMCLib/inc\xmc_usic.h **** /**
 408:C:/Workspaces/Dave 4/CTPOT_test1/Libraries/XMCLib/inc\xmc_usic.h **** * USIC channel baudrate generator divider mode
 409:C:/Workspaces/Dave 4/CTPOT_test1/Libraries/XMCLib/inc\xmc_usic.h **** */
 410:C:/Workspaces/Dave 4/CTPOT_test1/Libraries/XMCLib/inc\xmc_usic.h **** typedef enum XMC_USIC_CH_BRG_CLOCK_DIVIDER_MODE
 411:C:/Workspaces/Dave 4/CTPOT_test1/Libraries/XMCLib/inc\xmc_usic.h **** {
 412:C:/Workspaces/Dave 4/CTPOT_test1/Libraries/XMCLib/inc\xmc_usic.h ****   XMC_USIC_CH_BRG_CLOCK_DIVIDER_MODE_DISABLED   = 0x0UL, /**< Baudrate generator clock divider: Dis
 413:C:/Workspaces/Dave 4/CTPOT_test1/Libraries/XMCLib/inc\xmc_usic.h ****   XMC_USIC_CH_BRG_CLOCK_DIVIDER_MODE_NORMAL     = 0x1UL << USIC_CH_FDR_DM_Pos, /**< Baudrate genera
 414:C:/Workspaces/Dave 4/CTPOT_test1/Libraries/XMCLib/inc\xmc_usic.h ****   XMC_USIC_CH_BRG_CLOCK_DIVIDER_MODE_FRACTIONAL = 0x2UL << USIC_CH_FDR_DM_Pos  /**< Baudrate genera
 415:C:/Workspaces/Dave 4/CTPOT_test1/Libraries/XMCLib/inc\xmc_usic.h **** } XMC_USIC_CH_BRG_CLOCK_DIVIDER_MODE_t;
 416:C:/Workspaces/Dave 4/CTPOT_test1/Libraries/XMCLib/inc\xmc_usic.h **** 
 417:C:/Workspaces/Dave 4/CTPOT_test1/Libraries/XMCLib/inc\xmc_usic.h **** /**
 418:C:/Workspaces/Dave 4/CTPOT_test1/Libraries/XMCLib/inc\xmc_usic.h **** * USIC channel baudrate generator master clock passive level
 419:C:/Workspaces/Dave 4/CTPOT_test1/Libraries/XMCLib/inc\xmc_usic.h **** */
 420:C:/Workspaces/Dave 4/CTPOT_test1/Libraries/XMCLib/inc\xmc_usic.h **** typedef enum XMC_USIC_CH_BRG_MASTER_CLOCK_PASSIVE_LEVEL
 421:C:/Workspaces/Dave 4/CTPOT_test1/Libraries/XMCLib/inc\xmc_usic.h **** {
 422:C:/Workspaces/Dave 4/CTPOT_test1/Libraries/XMCLib/inc\xmc_usic.h ****   XMC_USIC_CH_BRG_MASTER_CLOCK_PASSIVE_LEVEL_0 = 0x0UL, /**< Baudrate generator master clock passiv
 423:C:/Workspaces/Dave 4/CTPOT_test1/Libraries/XMCLib/inc\xmc_usic.h ****   XMC_USIC_CH_BRG_MASTER_CLOCK_PASSIVE_LEVEL_1 = 0x1UL << USIC_CH_BRG_MCLKCFG_Pos  /**< Baudrate ge
 424:C:/Workspaces/Dave 4/CTPOT_test1/Libraries/XMCLib/inc\xmc_usic.h **** } XMC_USIC_CH_BRG_MASTER_CLOCK_PASSIVE_LEVEL_t;
 425:C:/Workspaces/Dave 4/CTPOT_test1/Libraries/XMCLib/inc\xmc_usic.h **** 
 426:C:/Workspaces/Dave 4/CTPOT_test1/Libraries/XMCLib/inc\xmc_usic.h **** /**
 427:C:/Workspaces/Dave 4/CTPOT_test1/Libraries/XMCLib/inc\xmc_usic.h **** * USIC channel baudrate generator shift clock passive level
 428:C:/Workspaces/Dave 4/CTPOT_test1/Libraries/XMCLib/inc\xmc_usic.h **** */
 429:C:/Workspaces/Dave 4/CTPOT_test1/Libraries/XMCLib/inc\xmc_usic.h **** typedef enum XMC_USIC_CH_BRG_SHIFT_CLOCK_PASSIVE_LEVEL
 430:C:/Workspaces/Dave 4/CTPOT_test1/Libraries/XMCLib/inc\xmc_usic.h **** {
 431:C:/Workspaces/Dave 4/CTPOT_test1/Libraries/XMCLib/inc\xmc_usic.h ****   XMC_USIC_CH_BRG_SHIFT_CLOCK_PASSIVE_LEVEL_0_DELAY_DISABLED = 0x0UL, /**< Shift clock passive leve
 432:C:/Workspaces/Dave 4/CTPOT_test1/Libraries/XMCLib/inc\xmc_usic.h ****   XMC_USIC_CH_BRG_SHIFT_CLOCK_PASSIVE_LEVEL_1_DELAY_DISABLED = 0x1UL << USIC_CH_BRG_SCLKCFG_Pos, /*
 433:C:/Workspaces/Dave 4/CTPOT_test1/Libraries/XMCLib/inc\xmc_usic.h ****   XMC_USIC_CH_BRG_SHIFT_CLOCK_PASSIVE_LEVEL_0_DELAY_ENABLED  = (int32_t)(0x2UL << USIC_CH_BRG_SCLKC
 434:C:/Workspaces/Dave 4/CTPOT_test1/Libraries/XMCLib/inc\xmc_usic.h ****   XMC_USIC_CH_BRG_SHIFT_CLOCK_PASSIVE_LEVEL_1_DELAY_ENABLED  = (int32_t)(0x3UL << USIC_CH_BRG_SCLKC
 435:C:/Workspaces/Dave 4/CTPOT_test1/Libraries/XMCLib/inc\xmc_usic.h **** } XMC_USIC_CH_BRG_SHIFT_CLOCK_PASSIVE_LEVEL_t;
 436:C:/Workspaces/Dave 4/CTPOT_test1/Libraries/XMCLib/inc\xmc_usic.h **** 
 437:C:/Workspaces/Dave 4/CTPOT_test1/Libraries/XMCLib/inc\xmc_usic.h **** /**
 438:C:/Workspaces/Dave 4/CTPOT_test1/Libraries/XMCLib/inc\xmc_usic.h **** * USIC channel baudrate generator shift clock output
 439:C:/Workspaces/Dave 4/CTPOT_test1/Libraries/XMCLib/inc\xmc_usic.h **** */
 440:C:/Workspaces/Dave 4/CTPOT_test1/Libraries/XMCLib/inc\xmc_usic.h **** typedef enum XMC_USIC_CH_BRG_SHIFT_CLOCK_OUTPUT
 441:C:/Workspaces/Dave 4/CTPOT_test1/Libraries/XMCLib/inc\xmc_usic.h **** {
 442:C:/Workspaces/Dave 4/CTPOT_test1/Libraries/XMCLib/inc\xmc_usic.h ****   XMC_USIC_CH_BRG_SHIFT_CLOCK_OUTPUT_SCLK = 0x0UL, /**< Baudrate generator shift clock output: SCL.
 443:C:/Workspaces/Dave 4/CTPOT_test1/Libraries/XMCLib/inc\xmc_usic.h ****   XMC_USIC_CH_BRG_SHIFT_CLOCK_OUTPUT_DX1 = 0x1UL << USIC_CH_BRG_SCLKOSEL_Pos   /**< Baudrate genera
 444:C:/Workspaces/Dave 4/CTPOT_test1/Libraries/XMCLib/inc\xmc_usic.h **** } XMC_USIC_CH_BRG_SHIFT_CLOCK_OUTPUT_t;
 445:C:/Workspaces/Dave 4/CTPOT_test1/Libraries/XMCLib/inc\xmc_usic.h **** 
 446:C:/Workspaces/Dave 4/CTPOT_test1/Libraries/XMCLib/inc\xmc_usic.h **** /**
 447:C:/Workspaces/Dave 4/CTPOT_test1/Libraries/XMCLib/inc\xmc_usic.h **** * USIC channel shift direction.
 448:C:/Workspaces/Dave 4/CTPOT_test1/Libraries/XMCLib/inc\xmc_usic.h **** * Defines the shift direction of the data words for transmission and reception
 449:C:/Workspaces/Dave 4/CTPOT_test1/Libraries/XMCLib/inc\xmc_usic.h **** */
 450:C:/Workspaces/Dave 4/CTPOT_test1/Libraries/XMCLib/inc\xmc_usic.h **** typedef enum XMC_USIC_CH_SHIFT_DIRECTION
 451:C:/Workspaces/Dave 4/CTPOT_test1/Libraries/XMCLib/inc\xmc_usic.h **** {
 452:C:/Workspaces/Dave 4/CTPOT_test1/Libraries/XMCLib/inc\xmc_usic.h ****   XMC_USIC_CH_SHIFT_DIRECTION_LSB_FIRST = 0x0UL, /**< Shift LSB first. The first data bit of a data
 453:C:/Workspaces/Dave 4/CTPOT_test1/Libraries/XMCLib/inc\xmc_usic.h ****   XMC_USIC_CH_SHIFT_DIRECTION_MSB_FIRST = 0x1UL << USIC_CH_SCTR_SDIR_Msk /**< Shift MSB first. The 
 454:C:/Workspaces/Dave 4/CTPOT_test1/Libraries/XMCLib/inc\xmc_usic.h **** } XMC_USIC_CH_SHIFT_DIRECTION_t;
 455:C:/Workspaces/Dave 4/CTPOT_test1/Libraries/XMCLib/inc\xmc_usic.h **** 
 456:C:/Workspaces/Dave 4/CTPOT_test1/Libraries/XMCLib/inc\xmc_usic.h **** 
 457:C:/Workspaces/Dave 4/CTPOT_test1/Libraries/XMCLib/inc\xmc_usic.h **** /*******************************************************************************
 458:C:/Workspaces/Dave 4/CTPOT_test1/Libraries/XMCLib/inc\xmc_usic.h ****  * DATA STRUCTURES
 459:C:/Workspaces/Dave 4/CTPOT_test1/Libraries/XMCLib/inc\xmc_usic.h ****  *******************************************************************************/
 460:C:/Workspaces/Dave 4/CTPOT_test1/Libraries/XMCLib/inc\xmc_usic.h **** 
 461:C:/Workspaces/Dave 4/CTPOT_test1/Libraries/XMCLib/inc\xmc_usic.h **** /*Anonymous structure/union guard start*/
 462:C:/Workspaces/Dave 4/CTPOT_test1/Libraries/XMCLib/inc\xmc_usic.h **** #if defined(__CC_ARM)
 463:C:/Workspaces/Dave 4/CTPOT_test1/Libraries/XMCLib/inc\xmc_usic.h ****   #pragma push
 464:C:/Workspaces/Dave 4/CTPOT_test1/Libraries/XMCLib/inc\xmc_usic.h ****   #pragma anon_unions
 465:C:/Workspaces/Dave 4/CTPOT_test1/Libraries/XMCLib/inc\xmc_usic.h **** #elif defined(__TASKING__)
 466:C:/Workspaces/Dave 4/CTPOT_test1/Libraries/XMCLib/inc\xmc_usic.h ****   #pragma warning 586
 467:C:/Workspaces/Dave 4/CTPOT_test1/Libraries/XMCLib/inc\xmc_usic.h **** #endif
 468:C:/Workspaces/Dave 4/CTPOT_test1/Libraries/XMCLib/inc\xmc_usic.h **** 
 469:C:/Workspaces/Dave 4/CTPOT_test1/Libraries/XMCLib/inc\xmc_usic.h **** /**
 470:C:/Workspaces/Dave 4/CTPOT_test1/Libraries/XMCLib/inc\xmc_usic.h ****  * USIC module structure
 471:C:/Workspaces/Dave 4/CTPOT_test1/Libraries/XMCLib/inc\xmc_usic.h ****  */
 472:C:/Workspaces/Dave 4/CTPOT_test1/Libraries/XMCLib/inc\xmc_usic.h **** typedef USIC_GLOBAL_TypeDef XMC_USIC_t;
 473:C:/Workspaces/Dave 4/CTPOT_test1/Libraries/XMCLib/inc\xmc_usic.h **** 
 474:C:/Workspaces/Dave 4/CTPOT_test1/Libraries/XMCLib/inc\xmc_usic.h **** /**
 475:C:/Workspaces/Dave 4/CTPOT_test1/Libraries/XMCLib/inc\xmc_usic.h ****  * USIC channel structure.<br> The members of the structure are same as in the device header file, 
 476:C:/Workspaces/Dave 4/CTPOT_test1/Libraries/XMCLib/inc\xmc_usic.h ****  * except for some registers.
 477:C:/Workspaces/Dave 4/CTPOT_test1/Libraries/XMCLib/inc\xmc_usic.h ****  * DX0CR, DX1CR, DX2CR, DX3CR, DX4CR and DX5CR are replaced with the array DXCR[6].
 478:C:/Workspaces/Dave 4/CTPOT_test1/Libraries/XMCLib/inc\xmc_usic.h ****  * TBUF0 to TBUF31 are replaced with TBUF[32].
 479:C:/Workspaces/Dave 4/CTPOT_test1/Libraries/XMCLib/inc\xmc_usic.h ****  * IN0 to IN31 are replaced with IN[32].
 480:C:/Workspaces/Dave 4/CTPOT_test1/Libraries/XMCLib/inc\xmc_usic.h ****  */
 481:C:/Workspaces/Dave 4/CTPOT_test1/Libraries/XMCLib/inc\xmc_usic.h **** typedef struct XMC_USIC_CH
 482:C:/Workspaces/Dave 4/CTPOT_test1/Libraries/XMCLib/inc\xmc_usic.h **** {
 483:C:/Workspaces/Dave 4/CTPOT_test1/Libraries/XMCLib/inc\xmc_usic.h ****   __I  uint32_t  RESERVED0;
 484:C:/Workspaces/Dave 4/CTPOT_test1/Libraries/XMCLib/inc\xmc_usic.h ****   __I  uint32_t  CCFG;			/**< Channel configuration register*/
 485:C:/Workspaces/Dave 4/CTPOT_test1/Libraries/XMCLib/inc\xmc_usic.h ****   __I  uint32_t  RESERVED1;
 486:C:/Workspaces/Dave 4/CTPOT_test1/Libraries/XMCLib/inc\xmc_usic.h ****   __IO uint32_t  KSCFG;			/**< Kernel state configuration register*/
 487:C:/Workspaces/Dave 4/CTPOT_test1/Libraries/XMCLib/inc\xmc_usic.h ****   __IO uint32_t  FDR;			/**< Fractional divider configuration register*/
 488:C:/Workspaces/Dave 4/CTPOT_test1/Libraries/XMCLib/inc\xmc_usic.h ****   __IO uint32_t  BRG;			/**< Baud rate generator register*/
 489:C:/Workspaces/Dave 4/CTPOT_test1/Libraries/XMCLib/inc\xmc_usic.h ****   __IO uint32_t  INPR;			/**< Interrupt node pointer register*/
 490:C:/Workspaces/Dave 4/CTPOT_test1/Libraries/XMCLib/inc\xmc_usic.h ****   __IO uint32_t  DXCR[6];		/**< Input control registers DX0 to DX5.*/
 491:C:/Workspaces/Dave 4/CTPOT_test1/Libraries/XMCLib/inc\xmc_usic.h ****   __IO uint32_t  SCTR;			/**< Shift control register*/
 492:C:/Workspaces/Dave 4/CTPOT_test1/Libraries/XMCLib/inc\xmc_usic.h ****   __IO uint32_t  TCSR;
 493:C:/Workspaces/Dave 4/CTPOT_test1/Libraries/XMCLib/inc\xmc_usic.h **** 
 494:C:/Workspaces/Dave 4/CTPOT_test1/Libraries/XMCLib/inc\xmc_usic.h ****   union {
 495:C:/Workspaces/Dave 4/CTPOT_test1/Libraries/XMCLib/inc\xmc_usic.h ****     __IO uint32_t  PCR_IICMode;	/**< I2C protocol configuration register*/
 496:C:/Workspaces/Dave 4/CTPOT_test1/Libraries/XMCLib/inc\xmc_usic.h ****     __IO uint32_t  PCR_IISMode; /**< I2S protocol configuration register*/
 497:C:/Workspaces/Dave 4/CTPOT_test1/Libraries/XMCLib/inc\xmc_usic.h ****     __IO uint32_t  PCR_SSCMode;	/**< SPI protocol configuration register*/
 498:C:/Workspaces/Dave 4/CTPOT_test1/Libraries/XMCLib/inc\xmc_usic.h ****     __IO uint32_t  PCR;			/**< Protocol configuration register*/
 499:C:/Workspaces/Dave 4/CTPOT_test1/Libraries/XMCLib/inc\xmc_usic.h ****     __IO uint32_t  PCR_ASCMode;	/**< UART protocol configuration register*/
 500:C:/Workspaces/Dave 4/CTPOT_test1/Libraries/XMCLib/inc\xmc_usic.h ****   };
 501:C:/Workspaces/Dave 4/CTPOT_test1/Libraries/XMCLib/inc\xmc_usic.h ****   __IO uint32_t  CCR;			/**< Channel control register*/
 502:C:/Workspaces/Dave 4/CTPOT_test1/Libraries/XMCLib/inc\xmc_usic.h ****   __IO uint32_t  CMTR;			/**< Capture mode timer register*/
 503:C:/Workspaces/Dave 4/CTPOT_test1/Libraries/XMCLib/inc\xmc_usic.h **** 
 504:C:/Workspaces/Dave 4/CTPOT_test1/Libraries/XMCLib/inc\xmc_usic.h ****   union {
 505:C:/Workspaces/Dave 4/CTPOT_test1/Libraries/XMCLib/inc\xmc_usic.h ****     __IO uint32_t  PSR_IICMode;	/**< I2C protocol status register*/
 506:C:/Workspaces/Dave 4/CTPOT_test1/Libraries/XMCLib/inc\xmc_usic.h ****     __IO uint32_t  PSR_IISMode;	/**< I2S protocol status register*/
 507:C:/Workspaces/Dave 4/CTPOT_test1/Libraries/XMCLib/inc\xmc_usic.h ****     __IO uint32_t  PSR_SSCMode;	/**< SPI protocol status register*/
 508:C:/Workspaces/Dave 4/CTPOT_test1/Libraries/XMCLib/inc\xmc_usic.h ****     __IO uint32_t  PSR;			/**< Protocol status register*/
 509:C:/Workspaces/Dave 4/CTPOT_test1/Libraries/XMCLib/inc\xmc_usic.h ****     __IO uint32_t  PSR_ASCMode;	/**< UART protocol status register*/
 510:C:/Workspaces/Dave 4/CTPOT_test1/Libraries/XMCLib/inc\xmc_usic.h ****   };
 511:C:/Workspaces/Dave 4/CTPOT_test1/Libraries/XMCLib/inc\xmc_usic.h ****   __O  uint32_t  PSCR;			/**< Protocol status clear register*/
 512:C:/Workspaces/Dave 4/CTPOT_test1/Libraries/XMCLib/inc\xmc_usic.h ****   __I  uint32_t  RBUFSR;		/**< Receive buffer status register*/
 513:C:/Workspaces/Dave 4/CTPOT_test1/Libraries/XMCLib/inc\xmc_usic.h ****   __I  uint32_t  RBUF;			/**< Receive buffer register*/
 514:C:/Workspaces/Dave 4/CTPOT_test1/Libraries/XMCLib/inc\xmc_usic.h ****   __I  uint32_t  RBUFD;			/**< Debug mode receive buffer register*/
 515:C:/Workspaces/Dave 4/CTPOT_test1/Libraries/XMCLib/inc\xmc_usic.h ****   __I  uint32_t  RBUF0;			/**< Receive buffer 0*/
 516:C:/Workspaces/Dave 4/CTPOT_test1/Libraries/XMCLib/inc\xmc_usic.h ****   __I  uint32_t  RBUF1;			/**< Receive buffer 1*/
 517:C:/Workspaces/Dave 4/CTPOT_test1/Libraries/XMCLib/inc\xmc_usic.h ****   __I  uint32_t  RBUF01SR;		/**< Receive buffer status register*/
 518:C:/Workspaces/Dave 4/CTPOT_test1/Libraries/XMCLib/inc\xmc_usic.h ****   __O  uint32_t  FMR;			/**< Flag modification register*/
 519:C:/Workspaces/Dave 4/CTPOT_test1/Libraries/XMCLib/inc\xmc_usic.h ****   __I  uint32_t  RESERVED2[5];
 520:C:/Workspaces/Dave 4/CTPOT_test1/Libraries/XMCLib/inc\xmc_usic.h ****   __IO uint32_t  TBUF[32];		/**< Tranmsit buffer registers*/
 521:C:/Workspaces/Dave 4/CTPOT_test1/Libraries/XMCLib/inc\xmc_usic.h ****   __IO uint32_t  BYP;			/**< FIFO bypass register*/
 522:C:/Workspaces/Dave 4/CTPOT_test1/Libraries/XMCLib/inc\xmc_usic.h ****   __IO uint32_t  BYPCR;			/**< FIFO bypass control register*/
 523:C:/Workspaces/Dave 4/CTPOT_test1/Libraries/XMCLib/inc\xmc_usic.h ****   __IO uint32_t  TBCTR;			/**< Transmit FIFO control register*/
 524:C:/Workspaces/Dave 4/CTPOT_test1/Libraries/XMCLib/inc\xmc_usic.h ****   __IO uint32_t  RBCTR;			/**< Receive FIFO control register*/
 525:C:/Workspaces/Dave 4/CTPOT_test1/Libraries/XMCLib/inc\xmc_usic.h ****   __I  uint32_t  TRBPTR;		/**< Transmit/recive buffer pointer register*/
 526:C:/Workspaces/Dave 4/CTPOT_test1/Libraries/XMCLib/inc\xmc_usic.h ****   __IO uint32_t  TRBSR;			/**< Transmit/receive buffer status register*/
 527:C:/Workspaces/Dave 4/CTPOT_test1/Libraries/XMCLib/inc\xmc_usic.h ****   __O  uint32_t  TRBSCR;		/**< Transmit/receive buffer status clear register*/
 528:C:/Workspaces/Dave 4/CTPOT_test1/Libraries/XMCLib/inc\xmc_usic.h ****   __I  uint32_t  OUTR;			/**< Receive FIFO output register*/
 529:C:/Workspaces/Dave 4/CTPOT_test1/Libraries/XMCLib/inc\xmc_usic.h ****   __I  uint32_t  OUTDR;			/**< Receive FIFO debug output register*/
 530:C:/Workspaces/Dave 4/CTPOT_test1/Libraries/XMCLib/inc\xmc_usic.h ****   __I  uint32_t  RESERVED3[23];
 531:C:/Workspaces/Dave 4/CTPOT_test1/Libraries/XMCLib/inc\xmc_usic.h ****   __O  uint32_t  IN[32];		/**< Transmit FIFO input register*/
 532:C:/Workspaces/Dave 4/CTPOT_test1/Libraries/XMCLib/inc\xmc_usic.h **** } XMC_USIC_CH_t;
 533:C:/Workspaces/Dave 4/CTPOT_test1/Libraries/XMCLib/inc\xmc_usic.h **** 
 534:C:/Workspaces/Dave 4/CTPOT_test1/Libraries/XMCLib/inc\xmc_usic.h **** 
 535:C:/Workspaces/Dave 4/CTPOT_test1/Libraries/XMCLib/inc\xmc_usic.h **** /*Anonymous structure/union guard end*/
 536:C:/Workspaces/Dave 4/CTPOT_test1/Libraries/XMCLib/inc\xmc_usic.h **** #if defined(__CC_ARM)
 537:C:/Workspaces/Dave 4/CTPOT_test1/Libraries/XMCLib/inc\xmc_usic.h ****   #pragma pop
 538:C:/Workspaces/Dave 4/CTPOT_test1/Libraries/XMCLib/inc\xmc_usic.h **** #elif defined(__TASKING__)
 539:C:/Workspaces/Dave 4/CTPOT_test1/Libraries/XMCLib/inc\xmc_usic.h ****   #pragma warning restore
 540:C:/Workspaces/Dave 4/CTPOT_test1/Libraries/XMCLib/inc\xmc_usic.h **** #endif
 541:C:/Workspaces/Dave 4/CTPOT_test1/Libraries/XMCLib/inc\xmc_usic.h **** 
 542:C:/Workspaces/Dave 4/CTPOT_test1/Libraries/XMCLib/inc\xmc_usic.h **** /*******************************************************************************
 543:C:/Workspaces/Dave 4/CTPOT_test1/Libraries/XMCLib/inc\xmc_usic.h ****  * API PROTOTYPES
 544:C:/Workspaces/Dave 4/CTPOT_test1/Libraries/XMCLib/inc\xmc_usic.h ****  ******************************************************************************/
 545:C:/Workspaces/Dave 4/CTPOT_test1/Libraries/XMCLib/inc\xmc_usic.h **** 
 546:C:/Workspaces/Dave 4/CTPOT_test1/Libraries/XMCLib/inc\xmc_usic.h **** #ifdef __cplusplus
 547:C:/Workspaces/Dave 4/CTPOT_test1/Libraries/XMCLib/inc\xmc_usic.h **** extern "C" {
 548:C:/Workspaces/Dave 4/CTPOT_test1/Libraries/XMCLib/inc\xmc_usic.h **** #endif
 549:C:/Workspaces/Dave 4/CTPOT_test1/Libraries/XMCLib/inc\xmc_usic.h **** 
 550:C:/Workspaces/Dave 4/CTPOT_test1/Libraries/XMCLib/inc\xmc_usic.h **** __STATIC_INLINE bool XMC_USIC_IsModuleValid(const XMC_USIC_t *const module)
 551:C:/Workspaces/Dave 4/CTPOT_test1/Libraries/XMCLib/inc\xmc_usic.h **** {
 552:C:/Workspaces/Dave 4/CTPOT_test1/Libraries/XMCLib/inc\xmc_usic.h ****   bool tmp;
 553:C:/Workspaces/Dave 4/CTPOT_test1/Libraries/XMCLib/inc\xmc_usic.h **** 
 554:C:/Workspaces/Dave 4/CTPOT_test1/Libraries/XMCLib/inc\xmc_usic.h ****   tmp = (module == XMC_USIC0);
 555:C:/Workspaces/Dave 4/CTPOT_test1/Libraries/XMCLib/inc\xmc_usic.h **** #if defined(XMC_USIC1)  
 556:C:/Workspaces/Dave 4/CTPOT_test1/Libraries/XMCLib/inc\xmc_usic.h ****   tmp = tmp || (module == XMC_USIC1);
 557:C:/Workspaces/Dave 4/CTPOT_test1/Libraries/XMCLib/inc\xmc_usic.h **** #endif
 558:C:/Workspaces/Dave 4/CTPOT_test1/Libraries/XMCLib/inc\xmc_usic.h **** #if defined(XMC_USIC2)  
 559:C:/Workspaces/Dave 4/CTPOT_test1/Libraries/XMCLib/inc\xmc_usic.h ****   tmp = tmp || (module == XMC_USIC2);
 560:C:/Workspaces/Dave 4/CTPOT_test1/Libraries/XMCLib/inc\xmc_usic.h **** #endif
 561:C:/Workspaces/Dave 4/CTPOT_test1/Libraries/XMCLib/inc\xmc_usic.h **** 
 562:C:/Workspaces/Dave 4/CTPOT_test1/Libraries/XMCLib/inc\xmc_usic.h ****   return tmp;
 563:C:/Workspaces/Dave 4/CTPOT_test1/Libraries/XMCLib/inc\xmc_usic.h **** }
 564:C:/Workspaces/Dave 4/CTPOT_test1/Libraries/XMCLib/inc\xmc_usic.h **** 
 565:C:/Workspaces/Dave 4/CTPOT_test1/Libraries/XMCLib/inc\xmc_usic.h **** __STATIC_INLINE bool XMC_USIC_IsChannelValid(const XMC_USIC_CH_t *const channel)
 566:C:/Workspaces/Dave 4/CTPOT_test1/Libraries/XMCLib/inc\xmc_usic.h **** {
 567:C:/Workspaces/Dave 4/CTPOT_test1/Libraries/XMCLib/inc\xmc_usic.h ****   bool tmp;
 568:C:/Workspaces/Dave 4/CTPOT_test1/Libraries/XMCLib/inc\xmc_usic.h **** 
 569:C:/Workspaces/Dave 4/CTPOT_test1/Libraries/XMCLib/inc\xmc_usic.h ****   tmp = ((channel == XMC_USIC0_CH0) || (channel == XMC_USIC0_CH1));
 570:C:/Workspaces/Dave 4/CTPOT_test1/Libraries/XMCLib/inc\xmc_usic.h **** #if defined(XMC_USIC1)  
 571:C:/Workspaces/Dave 4/CTPOT_test1/Libraries/XMCLib/inc\xmc_usic.h ****   tmp = tmp || ((channel == XMC_USIC1_CH0) || (channel == XMC_USIC1_CH1));
 572:C:/Workspaces/Dave 4/CTPOT_test1/Libraries/XMCLib/inc\xmc_usic.h **** #endif
 573:C:/Workspaces/Dave 4/CTPOT_test1/Libraries/XMCLib/inc\xmc_usic.h **** #if defined(XMC_USIC2)  
 574:C:/Workspaces/Dave 4/CTPOT_test1/Libraries/XMCLib/inc\xmc_usic.h ****   tmp = tmp || ((channel == XMC_USIC2_CH0) || (channel == XMC_USIC2_CH1));
 575:C:/Workspaces/Dave 4/CTPOT_test1/Libraries/XMCLib/inc\xmc_usic.h **** #endif
 576:C:/Workspaces/Dave 4/CTPOT_test1/Libraries/XMCLib/inc\xmc_usic.h **** 
 577:C:/Workspaces/Dave 4/CTPOT_test1/Libraries/XMCLib/inc\xmc_usic.h ****   return tmp;
 578:C:/Workspaces/Dave 4/CTPOT_test1/Libraries/XMCLib/inc\xmc_usic.h **** }
 579:C:/Workspaces/Dave 4/CTPOT_test1/Libraries/XMCLib/inc\xmc_usic.h **** 
 580:C:/Workspaces/Dave 4/CTPOT_test1/Libraries/XMCLib/inc\xmc_usic.h **** /* Common APIs */
 581:C:/Workspaces/Dave 4/CTPOT_test1/Libraries/XMCLib/inc\xmc_usic.h **** 
 582:C:/Workspaces/Dave 4/CTPOT_test1/Libraries/XMCLib/inc\xmc_usic.h **** /**
 583:C:/Workspaces/Dave 4/CTPOT_test1/Libraries/XMCLib/inc\xmc_usic.h ****  * @param  usic Pointer to USIC module handler of type @ref XMC_USIC_t.\n
 584:C:/Workspaces/Dave 4/CTPOT_test1/Libraries/XMCLib/inc\xmc_usic.h ****  * 				\b Range: @ref XMC_USIC0 to @ref XMC_USIC2 based on device support.
 585:C:/Workspaces/Dave 4/CTPOT_test1/Libraries/XMCLib/inc\xmc_usic.h ****  * @return None
 586:C:/Workspaces/Dave 4/CTPOT_test1/Libraries/XMCLib/inc\xmc_usic.h ****  * 
 587:C:/Workspaces/Dave 4/CTPOT_test1/Libraries/XMCLib/inc\xmc_usic.h ****  * \par<b>Description</b><br>
 588:C:/Workspaces/Dave 4/CTPOT_test1/Libraries/XMCLib/inc\xmc_usic.h ****  * Enables the USIC module.\n\n
 589:C:/Workspaces/Dave 4/CTPOT_test1/Libraries/XMCLib/inc\xmc_usic.h ****  * Enables the clock for the USIC module by following the
 590:C:/Workspaces/Dave 4/CTPOT_test1/Libraries/XMCLib/inc\xmc_usic.h ****  * clock enabling sequence for the selected device.
 591:C:/Workspaces/Dave 4/CTPOT_test1/Libraries/XMCLib/inc\xmc_usic.h ****  *
 592:C:/Workspaces/Dave 4/CTPOT_test1/Libraries/XMCLib/inc\xmc_usic.h ****  * \par<b>Related APIs:</b><BR>
 593:C:/Workspaces/Dave 4/CTPOT_test1/Libraries/XMCLib/inc\xmc_usic.h ****  * XMC_USIC_CH_Enable(), XMC_USIC_Disable() \n\n\n
 594:C:/Workspaces/Dave 4/CTPOT_test1/Libraries/XMCLib/inc\xmc_usic.h ****  */
 595:C:/Workspaces/Dave 4/CTPOT_test1/Libraries/XMCLib/inc\xmc_usic.h **** void XMC_USIC_Enable(XMC_USIC_t *const usic);
 596:C:/Workspaces/Dave 4/CTPOT_test1/Libraries/XMCLib/inc\xmc_usic.h **** /**
 597:C:/Workspaces/Dave 4/CTPOT_test1/Libraries/XMCLib/inc\xmc_usic.h ****  * @param  usic Pointer to USIC module handler of type @ref XMC_USIC_t.\n
 598:C:/Workspaces/Dave 4/CTPOT_test1/Libraries/XMCLib/inc\xmc_usic.h ****  * 				\b Range: @ref XMC_USIC0 to @ref XMC_USIC2 based on device support.
 599:C:/Workspaces/Dave 4/CTPOT_test1/Libraries/XMCLib/inc\xmc_usic.h ****  * @return None
 600:C:/Workspaces/Dave 4/CTPOT_test1/Libraries/XMCLib/inc\xmc_usic.h ****  *
 601:C:/Workspaces/Dave 4/CTPOT_test1/Libraries/XMCLib/inc\xmc_usic.h ****  * \par<b>Description</b><br>
 602:C:/Workspaces/Dave 4/CTPOT_test1/Libraries/XMCLib/inc\xmc_usic.h ****  * Disables the USIC module.\n\n
 603:C:/Workspaces/Dave 4/CTPOT_test1/Libraries/XMCLib/inc\xmc_usic.h ****  * Disables the clock for the USIC module by following the clock
 604:C:/Workspaces/Dave 4/CTPOT_test1/Libraries/XMCLib/inc\xmc_usic.h ****  * disabling sequence for the selected device.
 605:C:/Workspaces/Dave 4/CTPOT_test1/Libraries/XMCLib/inc\xmc_usic.h ****  *
 606:C:/Workspaces/Dave 4/CTPOT_test1/Libraries/XMCLib/inc\xmc_usic.h ****  * \par<b>Related APIs:</b><BR>
 607:C:/Workspaces/Dave 4/CTPOT_test1/Libraries/XMCLib/inc\xmc_usic.h ****  * XMC_USIC_CH_Disable(), XMC_USIC_Enable() \n\n\n
 608:C:/Workspaces/Dave 4/CTPOT_test1/Libraries/XMCLib/inc\xmc_usic.h ****  */
 609:C:/Workspaces/Dave 4/CTPOT_test1/Libraries/XMCLib/inc\xmc_usic.h **** void XMC_USIC_Disable(XMC_USIC_t *const usic);
 610:C:/Workspaces/Dave 4/CTPOT_test1/Libraries/XMCLib/inc\xmc_usic.h **** /**
 611:C:/Workspaces/Dave 4/CTPOT_test1/Libraries/XMCLib/inc\xmc_usic.h ****  * @param  channel Pointer to USIC channel handler of type @ref XMC_USIC_CH_t \n
 612:C:/Workspaces/Dave 4/CTPOT_test1/Libraries/XMCLib/inc\xmc_usic.h ****  * 				   \b Range: @ref XMC_USIC0_CH0, @ref XMC_USIC0_CH1 to @ref XMC_USIC2_CH1 based on device su
 613:C:/Workspaces/Dave 4/CTPOT_test1/Libraries/XMCLib/inc\xmc_usic.h ****  * @return None
 614:C:/Workspaces/Dave 4/CTPOT_test1/Libraries/XMCLib/inc\xmc_usic.h ****  *
 615:C:/Workspaces/Dave 4/CTPOT_test1/Libraries/XMCLib/inc\xmc_usic.h ****  * \par<b>Description</b><br>
 616:C:/Workspaces/Dave 4/CTPOT_test1/Libraries/XMCLib/inc\xmc_usic.h ****  * Enables the USIC channel. \n\n
 617:C:/Workspaces/Dave 4/CTPOT_test1/Libraries/XMCLib/inc\xmc_usic.h ****  * USIC channel is enabled by setting the module enable bit in KSCFG register bitfield MODEN.
 618:C:/Workspaces/Dave 4/CTPOT_test1/Libraries/XMCLib/inc\xmc_usic.h ****  * On enabling, the channel is set to idle mode.
 619:C:/Workspaces/Dave 4/CTPOT_test1/Libraries/XMCLib/inc\xmc_usic.h ****  *
 620:C:/Workspaces/Dave 4/CTPOT_test1/Libraries/XMCLib/inc\xmc_usic.h ****  * \par<b>Related APIs:</b><BR>
 621:C:/Workspaces/Dave 4/CTPOT_test1/Libraries/XMCLib/inc\xmc_usic.h ****  * XMC_USIC_CH_Disable(), XMC_USIC_Enable() \n\n\n
 622:C:/Workspaces/Dave 4/CTPOT_test1/Libraries/XMCLib/inc\xmc_usic.h ****  */
 623:C:/Workspaces/Dave 4/CTPOT_test1/Libraries/XMCLib/inc\xmc_usic.h **** void XMC_USIC_CH_Enable(XMC_USIC_CH_t *const channel);
 624:C:/Workspaces/Dave 4/CTPOT_test1/Libraries/XMCLib/inc\xmc_usic.h **** /**
 625:C:/Workspaces/Dave 4/CTPOT_test1/Libraries/XMCLib/inc\xmc_usic.h ****  * @param  channel Pointer to USIC channel handler of type @ref XMC_USIC_CH_t \n
 626:C:/Workspaces/Dave 4/CTPOT_test1/Libraries/XMCLib/inc\xmc_usic.h ****  * 				   \b Range: @ref XMC_USIC0_CH0, @ref XMC_USIC0_CH1 to @ref XMC_USIC2_CH1 based on device su
 627:C:/Workspaces/Dave 4/CTPOT_test1/Libraries/XMCLib/inc\xmc_usic.h ****  * @return None
 628:C:/Workspaces/Dave 4/CTPOT_test1/Libraries/XMCLib/inc\xmc_usic.h ****  *
 629:C:/Workspaces/Dave 4/CTPOT_test1/Libraries/XMCLib/inc\xmc_usic.h ****  * \par<b>Description</b><br>
 630:C:/Workspaces/Dave 4/CTPOT_test1/Libraries/XMCLib/inc\xmc_usic.h ****  * Disables the USIC channel.\n\n
 631:C:/Workspaces/Dave 4/CTPOT_test1/Libraries/XMCLib/inc\xmc_usic.h ****  * USIC channel is disabled by setting the module enable bit(MDEN) to 0 in the register KSCFG.
 632:C:/Workspaces/Dave 4/CTPOT_test1/Libraries/XMCLib/inc\xmc_usic.h ****  *
 633:C:/Workspaces/Dave 4/CTPOT_test1/Libraries/XMCLib/inc\xmc_usic.h ****  * \par<b>Related APIs:</b><BR>
 634:C:/Workspaces/Dave 4/CTPOT_test1/Libraries/XMCLib/inc\xmc_usic.h ****  * XMC_USIC_CH_Enable(), XMC_USIC_Disable() \n\n\n
 635:C:/Workspaces/Dave 4/CTPOT_test1/Libraries/XMCLib/inc\xmc_usic.h ****  */
 636:C:/Workspaces/Dave 4/CTPOT_test1/Libraries/XMCLib/inc\xmc_usic.h **** void XMC_USIC_CH_Disable(XMC_USIC_CH_t *const channel);
 637:C:/Workspaces/Dave 4/CTPOT_test1/Libraries/XMCLib/inc\xmc_usic.h **** 
 638:C:/Workspaces/Dave 4/CTPOT_test1/Libraries/XMCLib/inc\xmc_usic.h **** /**
 639:C:/Workspaces/Dave 4/CTPOT_test1/Libraries/XMCLib/inc\xmc_usic.h ****  * @param  channel Pointer to USIC channel handler of type @ref XMC_USIC_CH_t \n
 640:C:/Workspaces/Dave 4/CTPOT_test1/Libraries/XMCLib/inc\xmc_usic.h ****  * 				   \b Range: @ref XMC_USIC0_CH0, @ref XMC_USIC0_CH1 to @ref XMC_USIC2_CH1 based on device su
 641:C:/Workspaces/Dave 4/CTPOT_test1/Libraries/XMCLib/inc\xmc_usic.h ****  * @param  rate Desired baudrate. \b Range: minimum value = 100, maximum value depends on the perip
 642:C:/Workspaces/Dave 4/CTPOT_test1/Libraries/XMCLib/inc\xmc_usic.h ****  * 				and \a oversampling. Maximum baudrate can be derived using the formula: (fperiph * 1023)/(10
 643:C:/Workspaces/Dave 4/CTPOT_test1/Libraries/XMCLib/inc\xmc_usic.h ****  * @param  oversampling Required oversampling. The value indicates the number of time quanta for on
 644:C:/Workspaces/Dave 4/CTPOT_test1/Libraries/XMCLib/inc\xmc_usic.h ****  * 						This can be related to the number of samples for each logic state of the data signal. \n
 645:C:/Workspaces/Dave 4/CTPOT_test1/Libraries/XMCLib/inc\xmc_usic.h ****  * 						\b Range: 1 to 32. Value should be chosen based on the protocol used.
 646:C:/Workspaces/Dave 4/CTPOT_test1/Libraries/XMCLib/inc\xmc_usic.h ****  * @return Status indicating the baudrate configuration.\n
 647:C:/Workspaces/Dave 4/CTPOT_test1/Libraries/XMCLib/inc\xmc_usic.h ****  * 			\b Range: @ref XMC_USIC_CH_STATUS_OK if baudrate is successfully configured,
 648:C:/Workspaces/Dave 4/CTPOT_test1/Libraries/XMCLib/inc\xmc_usic.h ****  * 					  @ref XMC_USIC_CH_STATUS_ERROR if desired baudrate or oversampling is invalid.
 649:C:/Workspaces/Dave 4/CTPOT_test1/Libraries/XMCLib/inc\xmc_usic.h ****  *
 650:C:/Workspaces/Dave 4/CTPOT_test1/Libraries/XMCLib/inc\xmc_usic.h ****  * \par<b>Description</b><br>
 651:C:/Workspaces/Dave 4/CTPOT_test1/Libraries/XMCLib/inc\xmc_usic.h ****  * Configures the baudrate of the USIC channel. \n\n
 652:C:/Workspaces/Dave 4/CTPOT_test1/Libraries/XMCLib/inc\xmc_usic.h ****  * Baudrate is configured by considering the peripheral frequency and the desired baudrate.
 653:C:/Workspaces/Dave 4/CTPOT_test1/Libraries/XMCLib/inc\xmc_usic.h ****  * Optimum values of FDR->STEP and BRG->PDIV are calulated and used for generating the desired
 654:C:/Workspaces/Dave 4/CTPOT_test1/Libraries/XMCLib/inc\xmc_usic.h ****  * baudrate.
 655:C:/Workspaces/Dave 4/CTPOT_test1/Libraries/XMCLib/inc\xmc_usic.h ****  *
 656:C:/Workspaces/Dave 4/CTPOT_test1/Libraries/XMCLib/inc\xmc_usic.h ****  * \par<b>Related APIs:</b><BR>
 657:C:/Workspaces/Dave 4/CTPOT_test1/Libraries/XMCLib/inc\xmc_usic.h ****  * XMC_USIC_CH_SetStartTransmisionMode(), XMC_USIC_CH_SetInputSource() \n\n\n
 658:C:/Workspaces/Dave 4/CTPOT_test1/Libraries/XMCLib/inc\xmc_usic.h ****  */
 659:C:/Workspaces/Dave 4/CTPOT_test1/Libraries/XMCLib/inc\xmc_usic.h **** XMC_USIC_CH_STATUS_t XMC_USIC_CH_SetBaudrate(XMC_USIC_CH_t *const channel, uint32_t rate, uint32_t 
 660:C:/Workspaces/Dave 4/CTPOT_test1/Libraries/XMCLib/inc\xmc_usic.h **** 
 661:C:/Workspaces/Dave 4/CTPOT_test1/Libraries/XMCLib/inc\xmc_usic.h **** /**
 662:C:/Workspaces/Dave 4/CTPOT_test1/Libraries/XMCLib/inc\xmc_usic.h ****  * @param  channel Pointer to USIC channel handler of type @ref XMC_USIC_CH_t \n
 663:C:/Workspaces/Dave 4/CTPOT_test1/Libraries/XMCLib/inc\xmc_usic.h ****  * 				   \b Range: @ref XMC_USIC0_CH0, @ref XMC_USIC0_CH1 to @ref XMC_USIC2_CH1 based on device su
 664:C:/Workspaces/Dave 4/CTPOT_test1/Libraries/XMCLib/inc\xmc_usic.h ****  * @param  pdiv Desired divider for the external frequency input. \b Range: minimum value = 1, maxi
 665:C:/Workspaces/Dave 4/CTPOT_test1/Libraries/XMCLib/inc\xmc_usic.h ****  * @param  oversampling Required oversampling. The value indicates the number of time quanta for on
 666:C:/Workspaces/Dave 4/CTPOT_test1/Libraries/XMCLib/inc\xmc_usic.h ****  * 						This can be related to the number of samples for each logic state of the data signal. \n
 667:C:/Workspaces/Dave 4/CTPOT_test1/Libraries/XMCLib/inc\xmc_usic.h ****  * 						\b Range: 1 to 32. Value should be chosen based on the protocol used.
 668:C:/Workspaces/Dave 4/CTPOT_test1/Libraries/XMCLib/inc\xmc_usic.h ****  * @param  combination_mode Selects which edge of the synchronized(and optionally filtered) signal 
 669:C:/Workspaces/Dave 4/CTPOT_test1/Libraries/XMCLib/inc\xmc_usic.h ****  *                          output DXnT of the input stage.
 670:C:/Workspaces/Dave 4/CTPOT_test1/Libraries/XMCLib/inc\xmc_usic.h ****  *
 671:C:/Workspaces/Dave 4/CTPOT_test1/Libraries/XMCLib/inc\xmc_usic.h ****  * @return None
 672:C:/Workspaces/Dave 4/CTPOT_test1/Libraries/XMCLib/inc\xmc_usic.h ****  *
 673:C:/Workspaces/Dave 4/CTPOT_test1/Libraries/XMCLib/inc\xmc_usic.h ****  * \par<b>Description</b><br>
 674:C:/Workspaces/Dave 4/CTPOT_test1/Libraries/XMCLib/inc\xmc_usic.h ****  * Enables the external frequency input for the Baudrate Generator and configures the divider, over
 675:C:/Workspaces/Dave 4/CTPOT_test1/Libraries/XMCLib/inc\xmc_usic.h ****  * the combination mode of the USIC channel. \n\n
 676:C:/Workspaces/Dave 4/CTPOT_test1/Libraries/XMCLib/inc\xmc_usic.h ****  *
 677:C:/Workspaces/Dave 4/CTPOT_test1/Libraries/XMCLib/inc\xmc_usic.h ****  * \par<b>Related APIs:</b><BR>
 678:C:/Workspaces/Dave 4/CTPOT_test1/Libraries/XMCLib/inc\xmc_usic.h ****  * XMC_USIC_CH_SetBRGInputClockSource(), XMC_USIC_CH_SetInputTriggerCombinationMode() \n\n\n
 679:C:/Workspaces/Dave 4/CTPOT_test1/Libraries/XMCLib/inc\xmc_usic.h ****  */
 680:C:/Workspaces/Dave 4/CTPOT_test1/Libraries/XMCLib/inc\xmc_usic.h **** void XMC_USIC_CH_ConfigExternalInputSignalToBRG(XMC_USIC_CH_t *const channel,
 681:C:/Workspaces/Dave 4/CTPOT_test1/Libraries/XMCLib/inc\xmc_usic.h **** 		                                         const uint16_t pdiv,
 682:C:/Workspaces/Dave 4/CTPOT_test1/Libraries/XMCLib/inc\xmc_usic.h **** 												 const uint32_t oversampling,
 683:C:/Workspaces/Dave 4/CTPOT_test1/Libraries/XMCLib/inc\xmc_usic.h **** 												 const XMC_USIC_CH_INPUT_COMBINATION_MODE_t combination_mode);
 684:C:/Workspaces/Dave 4/CTPOT_test1/Libraries/XMCLib/inc\xmc_usic.h **** 
 685:C:/Workspaces/Dave 4/CTPOT_test1/Libraries/XMCLib/inc\xmc_usic.h **** /**
 686:C:/Workspaces/Dave 4/CTPOT_test1/Libraries/XMCLib/inc\xmc_usic.h ****  * @param  channel Pointer to USIC channel handler of type @ref XMC_USIC_CH_t \n
 687:C:/Workspaces/Dave 4/CTPOT_test1/Libraries/XMCLib/inc\xmc_usic.h ****  * 				   \b Range: @ref XMC_USIC0_CH0, @ref XMC_USIC0_CH1 to @ref XMC_USIC2_CH1 based on device su
 688:C:/Workspaces/Dave 4/CTPOT_test1/Libraries/XMCLib/inc\xmc_usic.h ****  * @param  input USIC channel input stage of type @ref XMC_USIC_CH_INPUT_t. \n
 689:C:/Workspaces/Dave 4/CTPOT_test1/Libraries/XMCLib/inc\xmc_usic.h ****  * 				 \b Range: @ref XMC_USIC_CH_INPUT_DX0 to @ref XMC_USIC_CH_INPUT_DX5
 690:C:/Workspaces/Dave 4/CTPOT_test1/Libraries/XMCLib/inc\xmc_usic.h ****  * @param  source Input source select for the input stage. The table below maps the enum value with
 691:C:/Workspaces/Dave 4/CTPOT_test1/Libraries/XMCLib/inc\xmc_usic.h ****  * <table><tr><td>0</td><td>DXnA</td></tr><tr><td>1</td><td>DXnB</td></tr><tr><td>2</td><td>DXnC</t
 692:C:/Workspaces/Dave 4/CTPOT_test1/Libraries/XMCLib/inc\xmc_usic.h ****  * <tr><td>4</td><td>DXnE</td></tr><tr><td>5</td><td>DXnF</td></tr><tr><td>6</td><td>DXnG</td></tr>
 693:C:/Workspaces/Dave 4/CTPOT_test1/Libraries/XMCLib/inc\xmc_usic.h ****  * </tr></table>
 694:C:/Workspaces/Dave 4/CTPOT_test1/Libraries/XMCLib/inc\xmc_usic.h ****  * @return None
 695:C:/Workspaces/Dave 4/CTPOT_test1/Libraries/XMCLib/inc\xmc_usic.h ****  *
 696:C:/Workspaces/Dave 4/CTPOT_test1/Libraries/XMCLib/inc\xmc_usic.h ****  * \par<b>Description</b><br>
 697:C:/Workspaces/Dave 4/CTPOT_test1/Libraries/XMCLib/inc\xmc_usic.h ****  * Selects the data source for USIC input stage.\n\n
 698:C:/Workspaces/Dave 4/CTPOT_test1/Libraries/XMCLib/inc\xmc_usic.h ****  * Selects the input data signal source among DXnA, DXnB.. DXnG for the input stage. The API can be
 699:C:/Workspaces/Dave 4/CTPOT_test1/Libraries/XMCLib/inc\xmc_usic.h ****  * like DX0CR, DX1CR etc. 
 700:C:/Workspaces/Dave 4/CTPOT_test1/Libraries/XMCLib/inc\xmc_usic.h ****  *  
 701:C:/Workspaces/Dave 4/CTPOT_test1/Libraries/XMCLib/inc\xmc_usic.h ****  * \par<b>Related APIs:</b><BR>
 702:C:/Workspaces/Dave 4/CTPOT_test1/Libraries/XMCLib/inc\xmc_usic.h ****  * XMC_USIC_CH_EnableInputInversion(), XMC_USIC_CH_EnableInputDigitalFilter(), XMC_USIC_CH_EnableIn
 703:C:/Workspaces/Dave 4/CTPOT_test1/Libraries/XMCLib/inc\xmc_usic.h ****  * XMC_USIC_CH_SetInputSamplingFreq()\n\n\n
 704:C:/Workspaces/Dave 4/CTPOT_test1/Libraries/XMCLib/inc\xmc_usic.h ****  */
 705:C:/Workspaces/Dave 4/CTPOT_test1/Libraries/XMCLib/inc\xmc_usic.h **** __STATIC_INLINE void XMC_USIC_CH_SetInputSource(XMC_USIC_CH_t *const channel, const XMC_USIC_CH_INP
 706:C:/Workspaces/Dave 4/CTPOT_test1/Libraries/XMCLib/inc\xmc_usic.h **** {
 707:C:/Workspaces/Dave 4/CTPOT_test1/Libraries/XMCLib/inc\xmc_usic.h ****   channel->DXCR[input] = (uint32_t)((channel->DXCR[input] & (uint32_t)(~USIC_CH_DXCR_DSEL_Msk)) |
 708:C:/Workspaces/Dave 4/CTPOT_test1/Libraries/XMCLib/inc\xmc_usic.h ****                          ((uint32_t)source << USIC_CH_DXCR_DSEL_Pos));
 709:C:/Workspaces/Dave 4/CTPOT_test1/Libraries/XMCLib/inc\xmc_usic.h **** }
 710:C:/Workspaces/Dave 4/CTPOT_test1/Libraries/XMCLib/inc\xmc_usic.h **** /**
 711:C:/Workspaces/Dave 4/CTPOT_test1/Libraries/XMCLib/inc\xmc_usic.h ****  * @param  channel Pointer to USIC channel handler of type @ref XMC_USIC_CH_t \n
 712:C:/Workspaces/Dave 4/CTPOT_test1/Libraries/XMCLib/inc\xmc_usic.h ****  * 				   \b Range: @ref XMC_USIC0_CH0, @ref XMC_USIC0_CH1 to @ref XMC_USIC2_CH1 based on device su
 713:C:/Workspaces/Dave 4/CTPOT_test1/Libraries/XMCLib/inc\xmc_usic.h ****  * @param  input USIC channel input stage of type @ref XMC_USIC_CH_INPUT_t. \n
 714:C:/Workspaces/Dave 4/CTPOT_test1/Libraries/XMCLib/inc\xmc_usic.h ****  * 				 \b Range: @ref XMC_USIC_CH_INPUT_DX0 to @ref XMC_USIC_CH_INPUT_DX5
 715:C:/Workspaces/Dave 4/CTPOT_test1/Libraries/XMCLib/inc\xmc_usic.h ****  * @return None
 716:C:/Workspaces/Dave 4/CTPOT_test1/Libraries/XMCLib/inc\xmc_usic.h ****  *
 717:C:/Workspaces/Dave 4/CTPOT_test1/Libraries/XMCLib/inc\xmc_usic.h ****  * \par<b>Description</b><br>
 718:C:/Workspaces/Dave 4/CTPOT_test1/Libraries/XMCLib/inc\xmc_usic.h ****  * The input of the data shift unit is controlled by the
 719:C:/Workspaces/Dave 4/CTPOT_test1/Libraries/XMCLib/inc\xmc_usic.h ****  * protocol pre-processor. \n\n
 720:C:/Workspaces/Dave 4/CTPOT_test1/Libraries/XMCLib/inc\xmc_usic.h ****  *
 721:C:/Workspaces/Dave 4/CTPOT_test1/Libraries/XMCLib/inc\xmc_usic.h ****  * \par<b>Related APIs:</b><BR>
 722:C:/Workspaces/Dave 4/CTPOT_test1/Libraries/XMCLib/inc\xmc_usic.h ****  * XMC_USIC_CH_ConnectInputDataShiftToDataInput()\n\n\n
 723:C:/Workspaces/Dave 4/CTPOT_test1/Libraries/XMCLib/inc\xmc_usic.h ****  */
 724:C:/Workspaces/Dave 4/CTPOT_test1/Libraries/XMCLib/inc\xmc_usic.h **** __STATIC_INLINE void XMC_USIC_CH_ConnectInputDataShiftToPPP(XMC_USIC_CH_t *const channel, const XMC
 725:C:/Workspaces/Dave 4/CTPOT_test1/Libraries/XMCLib/inc\xmc_usic.h **** {
 726:C:/Workspaces/Dave 4/CTPOT_test1/Libraries/XMCLib/inc\xmc_usic.h ****   channel->DXCR[input] &=(uint32_t)~USIC_CH_DXCR_INSW_Msk;
 727:C:/Workspaces/Dave 4/CTPOT_test1/Libraries/XMCLib/inc\xmc_usic.h **** }
 728:C:/Workspaces/Dave 4/CTPOT_test1/Libraries/XMCLib/inc\xmc_usic.h **** 
 729:C:/Workspaces/Dave 4/CTPOT_test1/Libraries/XMCLib/inc\xmc_usic.h **** /**
 730:C:/Workspaces/Dave 4/CTPOT_test1/Libraries/XMCLib/inc\xmc_usic.h ****  * @param  channel Pointer to USIC channel handler of type @ref XMC_USIC_CH_t \n
 731:C:/Workspaces/Dave 4/CTPOT_test1/Libraries/XMCLib/inc\xmc_usic.h ****  * 				   \b Range: @ref XMC_USIC0_CH0, @ref XMC_USIC0_CH1 to @ref XMC_USIC2_CH1 based on device su
 732:C:/Workspaces/Dave 4/CTPOT_test1/Libraries/XMCLib/inc\xmc_usic.h ****  * @param  input USIC channel input stage of type @ref XMC_USIC_CH_INPUT_t. \n
 733:C:/Workspaces/Dave 4/CTPOT_test1/Libraries/XMCLib/inc\xmc_usic.h ****  * 				 \b Range: @ref XMC_USIC_CH_INPUT_DX0 to @ref XMC_USIC_CH_INPUT_DX5
 734:C:/Workspaces/Dave 4/CTPOT_test1/Libraries/XMCLib/inc\xmc_usic.h ****  * @return None
 735:C:/Workspaces/Dave 4/CTPOT_test1/Libraries/XMCLib/inc\xmc_usic.h ****  *
 736:C:/Workspaces/Dave 4/CTPOT_test1/Libraries/XMCLib/inc\xmc_usic.h ****  * \par<b>Description</b><br>
 737:C:/Workspaces/Dave 4/CTPOT_test1/Libraries/XMCLib/inc\xmc_usic.h ****  * The input of the data shift unit is connected to
 738:C:/Workspaces/Dave 4/CTPOT_test1/Libraries/XMCLib/inc\xmc_usic.h ****  * the selected data input line. \n\n
 739:C:/Workspaces/Dave 4/CTPOT_test1/Libraries/XMCLib/inc\xmc_usic.h ****  *
 740:C:/Workspaces/Dave 4/CTPOT_test1/Libraries/XMCLib/inc\xmc_usic.h ****  * This setting is used
 741:C:/Workspaces/Dave 4/CTPOT_test1/Libraries/XMCLib/inc\xmc_usic.h ****  * if the signals are directly derived from an input
 742:C:/Workspaces/Dave 4/CTPOT_test1/Libraries/XMCLib/inc\xmc_usic.h ****  * pin without treatment by the protocol preprocessor.
 743:C:/Workspaces/Dave 4/CTPOT_test1/Libraries/XMCLib/inc\xmc_usic.h ****  * \par<b>Related APIs:</b><BR>
 744:C:/Workspaces/Dave 4/CTPOT_test1/Libraries/XMCLib/inc\xmc_usic.h ****  * XMC_USIC_CH_ConnectInputDataShiftToPPP()\n\n\n
 745:C:/Workspaces/Dave 4/CTPOT_test1/Libraries/XMCLib/inc\xmc_usic.h ****  */
 746:C:/Workspaces/Dave 4/CTPOT_test1/Libraries/XMCLib/inc\xmc_usic.h **** __STATIC_INLINE void XMC_USIC_CH_ConnectInputDataShiftToDataInput(XMC_USIC_CH_t *const channel, con
 747:C:/Workspaces/Dave 4/CTPOT_test1/Libraries/XMCLib/inc\xmc_usic.h **** {
 748:C:/Workspaces/Dave 4/CTPOT_test1/Libraries/XMCLib/inc\xmc_usic.h ****   channel->DXCR[input] |= USIC_CH_DXCR_INSW_Msk;
 749:C:/Workspaces/Dave 4/CTPOT_test1/Libraries/XMCLib/inc\xmc_usic.h **** }
 750:C:/Workspaces/Dave 4/CTPOT_test1/Libraries/XMCLib/inc\xmc_usic.h **** 
 751:C:/Workspaces/Dave 4/CTPOT_test1/Libraries/XMCLib/inc\xmc_usic.h **** /**
 752:C:/Workspaces/Dave 4/CTPOT_test1/Libraries/XMCLib/inc\xmc_usic.h ****  * @param  channel Pointer to USIC channel handler of type @ref XMC_USIC_CH_t \n
 753:C:/Workspaces/Dave 4/CTPOT_test1/Libraries/XMCLib/inc\xmc_usic.h ****  * 				   \b Range: @ref XMC_USIC0_CH0, @ref XMC_USIC0_CH1 to @ref XMC_USIC2_CH1 based on device su
 754:C:/Workspaces/Dave 4/CTPOT_test1/Libraries/XMCLib/inc\xmc_usic.h ****  * @param  input USIC channel input stage of type @ref XMC_USIC_CH_INPUT_t. \n
 755:C:/Workspaces/Dave 4/CTPOT_test1/Libraries/XMCLib/inc\xmc_usic.h ****  * 				 \b Range: @ref XMC_USIC_CH_INPUT_DX0 to @ref XMC_USIC_CH_INPUT_DX5
 756:C:/Workspaces/Dave 4/CTPOT_test1/Libraries/XMCLib/inc\xmc_usic.h ****  * @return None
 757:C:/Workspaces/Dave 4/CTPOT_test1/Libraries/XMCLib/inc\xmc_usic.h ****  *
 758:C:/Workspaces/Dave 4/CTPOT_test1/Libraries/XMCLib/inc\xmc_usic.h ****  * \par<b>Description</b><br>
 759:C:/Workspaces/Dave 4/CTPOT_test1/Libraries/XMCLib/inc\xmc_usic.h ****  * Enables input inversion for USIC channel input data signal. \n\n
 760:C:/Workspaces/Dave 4/CTPOT_test1/Libraries/XMCLib/inc\xmc_usic.h ****  *
 761:C:/Workspaces/Dave 4/CTPOT_test1/Libraries/XMCLib/inc\xmc_usic.h ****  * Polarity of the input source can be changed to provide inverted data input.
 762:C:/Workspaces/Dave 4/CTPOT_test1/Libraries/XMCLib/inc\xmc_usic.h ****  * \par<b>Related APIs:</b><BR>
 763:C:/Workspaces/Dave 4/CTPOT_test1/Libraries/XMCLib/inc\xmc_usic.h ****  * XMC_USIC_CH_DisableInputInversion()\n\n\n
 764:C:/Workspaces/Dave 4/CTPOT_test1/Libraries/XMCLib/inc\xmc_usic.h ****  */
 765:C:/Workspaces/Dave 4/CTPOT_test1/Libraries/XMCLib/inc\xmc_usic.h **** __STATIC_INLINE void XMC_USIC_CH_EnableInputInversion(XMC_USIC_CH_t *const channel, const XMC_USIC_
 766:C:/Workspaces/Dave 4/CTPOT_test1/Libraries/XMCLib/inc\xmc_usic.h **** {
 767:C:/Workspaces/Dave 4/CTPOT_test1/Libraries/XMCLib/inc\xmc_usic.h ****   channel->DXCR[input] |= USIC_CH_DXCR_DPOL_Msk;
 768:C:/Workspaces/Dave 4/CTPOT_test1/Libraries/XMCLib/inc\xmc_usic.h **** }
 769:C:/Workspaces/Dave 4/CTPOT_test1/Libraries/XMCLib/inc\xmc_usic.h **** 
 770:C:/Workspaces/Dave 4/CTPOT_test1/Libraries/XMCLib/inc\xmc_usic.h **** /**
 771:C:/Workspaces/Dave 4/CTPOT_test1/Libraries/XMCLib/inc\xmc_usic.h ****  * @param  channel Pointer to USIC channel handler of type @ref XMC_USIC_CH_t \n
 772:C:/Workspaces/Dave 4/CTPOT_test1/Libraries/XMCLib/inc\xmc_usic.h ****  * 				   \b Range: @ref XMC_USIC0_CH0, @ref XMC_USIC0_CH1 to @ref XMC_USIC2_CH1 based on device su
 773:C:/Workspaces/Dave 4/CTPOT_test1/Libraries/XMCLib/inc\xmc_usic.h ****  * @param  input USIC channel input stage of type @ref XMC_USIC_CH_INPUT_t. \n
 774:C:/Workspaces/Dave 4/CTPOT_test1/Libraries/XMCLib/inc\xmc_usic.h ****  * 				 \b Range: @ref XMC_USIC_CH_INPUT_DX0 to @ref XMC_USIC_CH_INPUT_DX5
 775:C:/Workspaces/Dave 4/CTPOT_test1/Libraries/XMCLib/inc\xmc_usic.h ****  * @return None
 776:C:/Workspaces/Dave 4/CTPOT_test1/Libraries/XMCLib/inc\xmc_usic.h ****  *
 777:C:/Workspaces/Dave 4/CTPOT_test1/Libraries/XMCLib/inc\xmc_usic.h ****  * \par<b>Description</b><br>
 778:C:/Workspaces/Dave 4/CTPOT_test1/Libraries/XMCLib/inc\xmc_usic.h ****  * Disables input inversion for USIC channel. \n\n
 779:C:/Workspaces/Dave 4/CTPOT_test1/Libraries/XMCLib/inc\xmc_usic.h ****  *
 780:C:/Workspaces/Dave 4/CTPOT_test1/Libraries/XMCLib/inc\xmc_usic.h ****  * Resets the input data polarity for the USIC channel input data signal.
 781:C:/Workspaces/Dave 4/CTPOT_test1/Libraries/XMCLib/inc\xmc_usic.h ****  * \par<b>Related APIs:</b><BR>
 782:C:/Workspaces/Dave 4/CTPOT_test1/Libraries/XMCLib/inc\xmc_usic.h ****  * XMC_USIC_CH_EnableInputInversion()\n\n\n
 783:C:/Workspaces/Dave 4/CTPOT_test1/Libraries/XMCLib/inc\xmc_usic.h ****  */
 784:C:/Workspaces/Dave 4/CTPOT_test1/Libraries/XMCLib/inc\xmc_usic.h **** __STATIC_INLINE void XMC_USIC_CH_DisableInputInversion(XMC_USIC_CH_t *const channel, const XMC_USIC
 785:C:/Workspaces/Dave 4/CTPOT_test1/Libraries/XMCLib/inc\xmc_usic.h **** {
 786:C:/Workspaces/Dave 4/CTPOT_test1/Libraries/XMCLib/inc\xmc_usic.h ****   channel->DXCR[input] &=(uint32_t)~USIC_CH_DXCR_DPOL_Msk;
 787:C:/Workspaces/Dave 4/CTPOT_test1/Libraries/XMCLib/inc\xmc_usic.h **** }
 788:C:/Workspaces/Dave 4/CTPOT_test1/Libraries/XMCLib/inc\xmc_usic.h **** 
 789:C:/Workspaces/Dave 4/CTPOT_test1/Libraries/XMCLib/inc\xmc_usic.h **** /**
 790:C:/Workspaces/Dave 4/CTPOT_test1/Libraries/XMCLib/inc\xmc_usic.h ****  * @param  channel Pointer to USIC channel handler of type @ref XMC_USIC_CH_t \n
 791:C:/Workspaces/Dave 4/CTPOT_test1/Libraries/XMCLib/inc\xmc_usic.h ****  * 				   \b Range: @ref XMC_USIC0_CH0, @ref XMC_USIC0_CH1 to @ref XMC_USIC2_CH1 based on device su
 792:C:/Workspaces/Dave 4/CTPOT_test1/Libraries/XMCLib/inc\xmc_usic.h ****  * @return None
 793:C:/Workspaces/Dave 4/CTPOT_test1/Libraries/XMCLib/inc\xmc_usic.h ****  *
 794:C:/Workspaces/Dave 4/CTPOT_test1/Libraries/XMCLib/inc\xmc_usic.h ****  * \par<b>Description</b><br>
 795:C:/Workspaces/Dave 4/CTPOT_test1/Libraries/XMCLib/inc\xmc_usic.h ****  * Enables delay compensation. \n\n
 796:C:/Workspaces/Dave 4/CTPOT_test1/Libraries/XMCLib/inc\xmc_usic.h ****  *
 797:C:/Workspaces/Dave 4/CTPOT_test1/Libraries/XMCLib/inc\xmc_usic.h ****  * Delay compensation can be applied to the receive path.
 798:C:/Workspaces/Dave 4/CTPOT_test1/Libraries/XMCLib/inc\xmc_usic.h ****  * \par<b>Related APIs:</b><BR>
 799:C:/Workspaces/Dave 4/CTPOT_test1/Libraries/XMCLib/inc\xmc_usic.h ****  * XMC_USIC_CH_DisableDelayCompensation()\n\n\n
 800:C:/Workspaces/Dave 4/CTPOT_test1/Libraries/XMCLib/inc\xmc_usic.h ****  */
 801:C:/Workspaces/Dave 4/CTPOT_test1/Libraries/XMCLib/inc\xmc_usic.h **** __STATIC_INLINE void XMC_USIC_CH_EnableDelayCompensation(XMC_USIC_CH_t *const channel)
 802:C:/Workspaces/Dave 4/CTPOT_test1/Libraries/XMCLib/inc\xmc_usic.h **** {
 803:C:/Workspaces/Dave 4/CTPOT_test1/Libraries/XMCLib/inc\xmc_usic.h ****   channel->DXCR[1U] |= USIC_CH_DX1CR_DCEN_Msk;
 804:C:/Workspaces/Dave 4/CTPOT_test1/Libraries/XMCLib/inc\xmc_usic.h **** }
 805:C:/Workspaces/Dave 4/CTPOT_test1/Libraries/XMCLib/inc\xmc_usic.h **** 
 806:C:/Workspaces/Dave 4/CTPOT_test1/Libraries/XMCLib/inc\xmc_usic.h **** /**
 807:C:/Workspaces/Dave 4/CTPOT_test1/Libraries/XMCLib/inc\xmc_usic.h ****  * @param  channel Pointer to USIC channel handler of type @ref XMC_USIC_CH_t \n
 808:C:/Workspaces/Dave 4/CTPOT_test1/Libraries/XMCLib/inc\xmc_usic.h ****  * 				   \b Range: @ref XMC_USIC0_CH0, @ref XMC_USIC0_CH1 to @ref XMC_USIC2_CH1 based on device su
 809:C:/Workspaces/Dave 4/CTPOT_test1/Libraries/XMCLib/inc\xmc_usic.h ****  * @return None
 810:C:/Workspaces/Dave 4/CTPOT_test1/Libraries/XMCLib/inc\xmc_usic.h ****  *
 811:C:/Workspaces/Dave 4/CTPOT_test1/Libraries/XMCLib/inc\xmc_usic.h ****  * \par<b>Description</b><br>
 812:C:/Workspaces/Dave 4/CTPOT_test1/Libraries/XMCLib/inc\xmc_usic.h ****  * Disables delay compensation.. \n\n
 813:C:/Workspaces/Dave 4/CTPOT_test1/Libraries/XMCLib/inc\xmc_usic.h ****  *
 814:C:/Workspaces/Dave 4/CTPOT_test1/Libraries/XMCLib/inc\xmc_usic.h ****  * \par<b>Related APIs:</b><BR>
 815:C:/Workspaces/Dave 4/CTPOT_test1/Libraries/XMCLib/inc\xmc_usic.h ****  * XMC_USIC_CH_EnableDelayCompensation()\n\n\n
 816:C:/Workspaces/Dave 4/CTPOT_test1/Libraries/XMCLib/inc\xmc_usic.h ****  */
 817:C:/Workspaces/Dave 4/CTPOT_test1/Libraries/XMCLib/inc\xmc_usic.h **** __STATIC_INLINE void XMC_USIC_CH_DisableDelayCompensation(XMC_USIC_CH_t *const channel)
 818:C:/Workspaces/Dave 4/CTPOT_test1/Libraries/XMCLib/inc\xmc_usic.h **** {
 819:C:/Workspaces/Dave 4/CTPOT_test1/Libraries/XMCLib/inc\xmc_usic.h ****   channel->DXCR[1U] &=(uint32_t)~USIC_CH_DX1CR_DCEN_Msk;
 820:C:/Workspaces/Dave 4/CTPOT_test1/Libraries/XMCLib/inc\xmc_usic.h **** }
 821:C:/Workspaces/Dave 4/CTPOT_test1/Libraries/XMCLib/inc\xmc_usic.h **** 
 822:C:/Workspaces/Dave 4/CTPOT_test1/Libraries/XMCLib/inc\xmc_usic.h **** /**
 823:C:/Workspaces/Dave 4/CTPOT_test1/Libraries/XMCLib/inc\xmc_usic.h ****  * @param  channel Pointer to USIC channel handler of type @ref XMC_USIC_CH_t \n
 824:C:/Workspaces/Dave 4/CTPOT_test1/Libraries/XMCLib/inc\xmc_usic.h ****  * 				   \b Range: @ref XMC_USIC0_CH0, @ref XMC_USIC0_CH1 to @ref XMC_USIC2_CH1 based on device su
 825:C:/Workspaces/Dave 4/CTPOT_test1/Libraries/XMCLib/inc\xmc_usic.h ****  * @param  input USIC channel input stage of type @ref XMC_USIC_CH_INPUT_t. \n
 826:C:/Workspaces/Dave 4/CTPOT_test1/Libraries/XMCLib/inc\xmc_usic.h ****  * 				 \b Range: @ref XMC_USIC_CH_INPUT_DX0 to @ref XMC_USIC_CH_INPUT_DX5
 827:C:/Workspaces/Dave 4/CTPOT_test1/Libraries/XMCLib/inc\xmc_usic.h ****  * @return None
 828:C:/Workspaces/Dave 4/CTPOT_test1/Libraries/XMCLib/inc\xmc_usic.h ****  *
 829:C:/Workspaces/Dave 4/CTPOT_test1/Libraries/XMCLib/inc\xmc_usic.h ****  * \par<b>Description</b><br>
 830:C:/Workspaces/Dave 4/CTPOT_test1/Libraries/XMCLib/inc\xmc_usic.h ****  * Enables the input digital filter for USIC channel input data signal. \n\n
 831:C:/Workspaces/Dave 4/CTPOT_test1/Libraries/XMCLib/inc\xmc_usic.h ****  * Input data signal from the selected multiplexer will be digitally filtered.
 832:C:/Workspaces/Dave 4/CTPOT_test1/Libraries/XMCLib/inc\xmc_usic.h ****  *
 833:C:/Workspaces/Dave 4/CTPOT_test1/Libraries/XMCLib/inc\xmc_usic.h ****  * \par<b>Related APIs:</b><BR>
 834:C:/Workspaces/Dave 4/CTPOT_test1/Libraries/XMCLib/inc\xmc_usic.h ****  * XMC_USIC_CH_DisableInputDigitalFilter()\n\n\n
 835:C:/Workspaces/Dave 4/CTPOT_test1/Libraries/XMCLib/inc\xmc_usic.h ****  */
 836:C:/Workspaces/Dave 4/CTPOT_test1/Libraries/XMCLib/inc\xmc_usic.h **** __STATIC_INLINE void XMC_USIC_CH_EnableInputDigitalFilter(XMC_USIC_CH_t *const channel, const XMC_U
 837:C:/Workspaces/Dave 4/CTPOT_test1/Libraries/XMCLib/inc\xmc_usic.h **** {
 838:C:/Workspaces/Dave 4/CTPOT_test1/Libraries/XMCLib/inc\xmc_usic.h ****   channel->DXCR[input] |= (uint32_t)USIC_CH_DXCR_DFEN_Msk;
 839:C:/Workspaces/Dave 4/CTPOT_test1/Libraries/XMCLib/inc\xmc_usic.h **** }
 840:C:/Workspaces/Dave 4/CTPOT_test1/Libraries/XMCLib/inc\xmc_usic.h **** /**
 841:C:/Workspaces/Dave 4/CTPOT_test1/Libraries/XMCLib/inc\xmc_usic.h ****  * @param  channel Pointer to USIC channel handler of type @ref XMC_USIC_CH_t \n
 842:C:/Workspaces/Dave 4/CTPOT_test1/Libraries/XMCLib/inc\xmc_usic.h ****  * 				   \b Range: @ref XMC_USIC0_CH0, @ref XMC_USIC0_CH1 to @ref XMC_USIC2_CH1 based on device su
 843:C:/Workspaces/Dave 4/CTPOT_test1/Libraries/XMCLib/inc\xmc_usic.h ****  * @param  input USIC channel input stage of type @ref XMC_USIC_CH_INPUT_t. \n
 844:C:/Workspaces/Dave 4/CTPOT_test1/Libraries/XMCLib/inc\xmc_usic.h ****  * 				 \b Range: @ref XMC_USIC_CH_INPUT_DX0 to @ref XMC_USIC_CH_INPUT_DX5
 845:C:/Workspaces/Dave 4/CTPOT_test1/Libraries/XMCLib/inc\xmc_usic.h ****  * @return None
 846:C:/Workspaces/Dave 4/CTPOT_test1/Libraries/XMCLib/inc\xmc_usic.h ****  *
 847:C:/Workspaces/Dave 4/CTPOT_test1/Libraries/XMCLib/inc\xmc_usic.h ****  * \par<b>Description</b><br>
 848:C:/Workspaces/Dave 4/CTPOT_test1/Libraries/XMCLib/inc\xmc_usic.h ****  * Disables the input digital filter for USIC channel input data signal. \n\n
 849:C:/Workspaces/Dave 4/CTPOT_test1/Libraries/XMCLib/inc\xmc_usic.h ****  * Input data signal from the selected multiplexer will not be digitally filtered.
 850:C:/Workspaces/Dave 4/CTPOT_test1/Libraries/XMCLib/inc\xmc_usic.h ****  *
 851:C:/Workspaces/Dave 4/CTPOT_test1/Libraries/XMCLib/inc\xmc_usic.h ****  * \par<b>Related APIs:</b><BR>
 852:C:/Workspaces/Dave 4/CTPOT_test1/Libraries/XMCLib/inc\xmc_usic.h ****  * XMC_USIC_CH_EnableInputDigitalFilter()\n\n\n
 853:C:/Workspaces/Dave 4/CTPOT_test1/Libraries/XMCLib/inc\xmc_usic.h ****  */
 854:C:/Workspaces/Dave 4/CTPOT_test1/Libraries/XMCLib/inc\xmc_usic.h **** __STATIC_INLINE void XMC_USIC_CH_DisableInputDigitalFilter(XMC_USIC_CH_t *const channel, const XMC_
 855:C:/Workspaces/Dave 4/CTPOT_test1/Libraries/XMCLib/inc\xmc_usic.h **** {
 856:C:/Workspaces/Dave 4/CTPOT_test1/Libraries/XMCLib/inc\xmc_usic.h ****   channel->DXCR[input] &=(uint32_t)~USIC_CH_DXCR_DFEN_Msk;
 857:C:/Workspaces/Dave 4/CTPOT_test1/Libraries/XMCLib/inc\xmc_usic.h **** }
 858:C:/Workspaces/Dave 4/CTPOT_test1/Libraries/XMCLib/inc\xmc_usic.h **** /**
 859:C:/Workspaces/Dave 4/CTPOT_test1/Libraries/XMCLib/inc\xmc_usic.h ****  * @param  channel Pointer to USIC channel handler of type @ref XMC_USIC_CH_t \n
 860:C:/Workspaces/Dave 4/CTPOT_test1/Libraries/XMCLib/inc\xmc_usic.h ****  * 				   \b Range: @ref XMC_USIC0_CH0, @ref XMC_USIC0_CH1 to @ref XMC_USIC2_CH1 based on device su
 861:C:/Workspaces/Dave 4/CTPOT_test1/Libraries/XMCLib/inc\xmc_usic.h ****  * @param  input USIC channel input stage of type @ref XMC_USIC_CH_INPUT_t. \n
 862:C:/Workspaces/Dave 4/CTPOT_test1/Libraries/XMCLib/inc\xmc_usic.h ****  * 				 \b Range: @ref XMC_USIC_CH_INPUT_DX0 to @ref XMC_USIC_CH_INPUT_DX5
 863:C:/Workspaces/Dave 4/CTPOT_test1/Libraries/XMCLib/inc\xmc_usic.h ****  * @return None
 864:C:/Workspaces/Dave 4/CTPOT_test1/Libraries/XMCLib/inc\xmc_usic.h ****  *
 865:C:/Workspaces/Dave 4/CTPOT_test1/Libraries/XMCLib/inc\xmc_usic.h ****  * \par<b>Description</b><br>
 866:C:/Workspaces/Dave 4/CTPOT_test1/Libraries/XMCLib/inc\xmc_usic.h ****  * Enables input synchronization for the USIC channel input data signal. \n\n
 867:C:/Workspaces/Dave 4/CTPOT_test1/Libraries/XMCLib/inc\xmc_usic.h ****  * Input data signal from the selected multiplexer will be synchronized with fPERIPH.
 868:C:/Workspaces/Dave 4/CTPOT_test1/Libraries/XMCLib/inc\xmc_usic.h ****  * A noisy signal can be synchronized and filtered by enabling the digital filter.
 869:C:/Workspaces/Dave 4/CTPOT_test1/Libraries/XMCLib/inc\xmc_usic.h ****  *
 870:C:/Workspaces/Dave 4/CTPOT_test1/Libraries/XMCLib/inc\xmc_usic.h ****  * \par<b>Related APIs:</b><BR>
 871:C:/Workspaces/Dave 4/CTPOT_test1/Libraries/XMCLib/inc\xmc_usic.h ****  * XMC_USIC_CH_DisableInputSync(), XMC_USIC_CH_EnableInputDigitalFilter()\n\n\n
 872:C:/Workspaces/Dave 4/CTPOT_test1/Libraries/XMCLib/inc\xmc_usic.h ****  */
 873:C:/Workspaces/Dave 4/CTPOT_test1/Libraries/XMCLib/inc\xmc_usic.h **** __STATIC_INLINE void XMC_USIC_CH_EnableInputSync(XMC_USIC_CH_t *const channel, const XMC_USIC_CH_IN
 874:C:/Workspaces/Dave 4/CTPOT_test1/Libraries/XMCLib/inc\xmc_usic.h **** {
 875:C:/Workspaces/Dave 4/CTPOT_test1/Libraries/XMCLib/inc\xmc_usic.h ****   channel->DXCR[input] |=(uint32_t)USIC_CH_DXCR_DSEN_Msk;
 876:C:/Workspaces/Dave 4/CTPOT_test1/Libraries/XMCLib/inc\xmc_usic.h **** }
 877:C:/Workspaces/Dave 4/CTPOT_test1/Libraries/XMCLib/inc\xmc_usic.h **** /**
 878:C:/Workspaces/Dave 4/CTPOT_test1/Libraries/XMCLib/inc\xmc_usic.h ****  * @param  channel Pointer to USIC channel handler of type @ref XMC_USIC_CH_t \n
 879:C:/Workspaces/Dave 4/CTPOT_test1/Libraries/XMCLib/inc\xmc_usic.h ****  * 				   \b Range: @ref XMC_USIC0_CH0, @ref XMC_USIC0_CH1 to @ref XMC_USIC2_CH1 based on device su
 880:C:/Workspaces/Dave 4/CTPOT_test1/Libraries/XMCLib/inc\xmc_usic.h ****  * @param  input USIC channel input stage of type @ref XMC_USIC_CH_INPUT_t. \n
 881:C:/Workspaces/Dave 4/CTPOT_test1/Libraries/XMCLib/inc\xmc_usic.h ****  * 				 \b Range: @ref XMC_USIC_CH_INPUT_DX0 to @ref XMC_USIC_CH_INPUT_DX5
 882:C:/Workspaces/Dave 4/CTPOT_test1/Libraries/XMCLib/inc\xmc_usic.h ****  * @return None
 883:C:/Workspaces/Dave 4/CTPOT_test1/Libraries/XMCLib/inc\xmc_usic.h ****  *
 884:C:/Workspaces/Dave 4/CTPOT_test1/Libraries/XMCLib/inc\xmc_usic.h ****  * \par<b>Description</b><br>
 885:C:/Workspaces/Dave 4/CTPOT_test1/Libraries/XMCLib/inc\xmc_usic.h ****  * Disables input synchronization for the USIC channel input data signal. \n\n
 886:C:/Workspaces/Dave 4/CTPOT_test1/Libraries/XMCLib/inc\xmc_usic.h ****  * Input data signal from the selected multiplexer will not be synchronized.
 887:C:/Workspaces/Dave 4/CTPOT_test1/Libraries/XMCLib/inc\xmc_usic.h ****  *
 888:C:/Workspaces/Dave 4/CTPOT_test1/Libraries/XMCLib/inc\xmc_usic.h ****  * \par<b>Related APIs:</b><BR>
 889:C:/Workspaces/Dave 4/CTPOT_test1/Libraries/XMCLib/inc\xmc_usic.h ****  * XMC_USIC_CH_EnableInputSync(), XMC_USIC_CH_DisableInputDigitalFilter() \n\n\n
 890:C:/Workspaces/Dave 4/CTPOT_test1/Libraries/XMCLib/inc\xmc_usic.h ****  */
 891:C:/Workspaces/Dave 4/CTPOT_test1/Libraries/XMCLib/inc\xmc_usic.h **** __STATIC_INLINE void XMC_USIC_CH_DisableInputSync(XMC_USIC_CH_t *const channel, const XMC_USIC_CH_I
 892:C:/Workspaces/Dave 4/CTPOT_test1/Libraries/XMCLib/inc\xmc_usic.h **** {
 893:C:/Workspaces/Dave 4/CTPOT_test1/Libraries/XMCLib/inc\xmc_usic.h ****   channel->DXCR[input] &=(uint32_t)~USIC_CH_DXCR_DSEN_Msk;
 894:C:/Workspaces/Dave 4/CTPOT_test1/Libraries/XMCLib/inc\xmc_usic.h **** }
 895:C:/Workspaces/Dave 4/CTPOT_test1/Libraries/XMCLib/inc\xmc_usic.h **** /**
 896:C:/Workspaces/Dave 4/CTPOT_test1/Libraries/XMCLib/inc\xmc_usic.h ****  * @param  channel Pointer to USIC channel handler of type @ref XMC_USIC_CH_t \n
 897:C:/Workspaces/Dave 4/CTPOT_test1/Libraries/XMCLib/inc\xmc_usic.h ****  * 				   \b Range: @ref XMC_USIC0_CH0, @ref XMC_USIC0_CH1 to @ref XMC_USIC2_CH1 based on device su
 898:C:/Workspaces/Dave 4/CTPOT_test1/Libraries/XMCLib/inc\xmc_usic.h ****  * @param  input USIC channel input stage of type @ref XMC_USIC_CH_INPUT_t. \n
 899:C:/Workspaces/Dave 4/CTPOT_test1/Libraries/XMCLib/inc\xmc_usic.h ****  * 				 \b Range: @ref XMC_USIC_CH_INPUT_DX0 to @ref XMC_USIC_CH_INPUT_DX5
 900:C:/Workspaces/Dave 4/CTPOT_test1/Libraries/XMCLib/inc\xmc_usic.h ****  * @param  sampling_freq Sampling frequency value of type \a XMC_USIC_CH_INPUT_SAMPLING_FREQ_t.
 901:C:/Workspaces/Dave 4/CTPOT_test1/Libraries/XMCLib/inc\xmc_usic.h ****  * @return None
 902:C:/Workspaces/Dave 4/CTPOT_test1/Libraries/XMCLib/inc\xmc_usic.h ****  *
 903:C:/Workspaces/Dave 4/CTPOT_test1/Libraries/XMCLib/inc\xmc_usic.h ****  * \par<b>Description</b><br>
 904:C:/Workspaces/Dave 4/CTPOT_test1/Libraries/XMCLib/inc\xmc_usic.h ****  * Sets sampling frequency for USIC channel input data signal. \n\n
 905:C:/Workspaces/Dave 4/CTPOT_test1/Libraries/XMCLib/inc\xmc_usic.h ****  *
 906:C:/Workspaces/Dave 4/CTPOT_test1/Libraries/XMCLib/inc\xmc_usic.h ****  * \par<b>Related APIs:</b><BR>
 907:C:/Workspaces/Dave 4/CTPOT_test1/Libraries/XMCLib/inc\xmc_usic.h ****  * XMC_USIC_CH_SetInputSource(), XMC_USIC_CH_EnableInputSync(), XMC_USIC_CH_EnableInputDigitalFilte
 908:C:/Workspaces/Dave 4/CTPOT_test1/Libraries/XMCLib/inc\xmc_usic.h ****  */
 909:C:/Workspaces/Dave 4/CTPOT_test1/Libraries/XMCLib/inc\xmc_usic.h **** __STATIC_INLINE void XMC_USIC_CH_SetInputSamplingFreq(XMC_USIC_CH_t *const channel,
 910:C:/Workspaces/Dave 4/CTPOT_test1/Libraries/XMCLib/inc\xmc_usic.h **** 		                                              const XMC_USIC_CH_INPUT_t input,
 911:C:/Workspaces/Dave 4/CTPOT_test1/Libraries/XMCLib/inc\xmc_usic.h **** 		                                              const XMC_USIC_CH_INPUT_SAMPLING_FREQ_t sampling_fr
 912:C:/Workspaces/Dave 4/CTPOT_test1/Libraries/XMCLib/inc\xmc_usic.h **** {
 913:C:/Workspaces/Dave 4/CTPOT_test1/Libraries/XMCLib/inc\xmc_usic.h ****   channel->DXCR[input] = (uint32_t)(channel->DXCR[input] & (~USIC_CH_DXCR_SFSEL_Msk)) |
 914:C:/Workspaces/Dave 4/CTPOT_test1/Libraries/XMCLib/inc\xmc_usic.h ****                          ((uint32_t)sampling_freq);
 915:C:/Workspaces/Dave 4/CTPOT_test1/Libraries/XMCLib/inc\xmc_usic.h **** }
 916:C:/Workspaces/Dave 4/CTPOT_test1/Libraries/XMCLib/inc\xmc_usic.h **** 
 917:C:/Workspaces/Dave 4/CTPOT_test1/Libraries/XMCLib/inc\xmc_usic.h **** /**
 918:C:/Workspaces/Dave 4/CTPOT_test1/Libraries/XMCLib/inc\xmc_usic.h ****  * @param  channel Pointer to USIC channel handler of type @ref XMC_USIC_CH_t \n
 919:C:/Workspaces/Dave 4/CTPOT_test1/Libraries/XMCLib/inc\xmc_usic.h ****  * 				   \b Range: @ref XMC_USIC0_CH0, @ref XMC_USIC0_CH1 to @ref XMC_USIC2_CH1 based on device su
 920:C:/Workspaces/Dave 4/CTPOT_test1/Libraries/XMCLib/inc\xmc_usic.h ****  * @param  input USIC channel input stage of type @ref XMC_USIC_CH_INPUT_t. \n
 921:C:/Workspaces/Dave 4/CTPOT_test1/Libraries/XMCLib/inc\xmc_usic.h ****  * 				 \b Range: @ref XMC_USIC_CH_INPUT_DX0 to @ref XMC_USIC_CH_INPUT_DX5
 922:C:/Workspaces/Dave 4/CTPOT_test1/Libraries/XMCLib/inc\xmc_usic.h ****  * @param  combination_mode Combination mode value of type \a XMC_USIC_CH_INPUT_COMBINATION_MODE_t.
 923:C:/Workspaces/Dave 4/CTPOT_test1/Libraries/XMCLib/inc\xmc_usic.h ****  * @return None
 924:C:/Workspaces/Dave 4/CTPOT_test1/Libraries/XMCLib/inc\xmc_usic.h ****  *
 925:C:/Workspaces/Dave 4/CTPOT_test1/Libraries/XMCLib/inc\xmc_usic.h ****  * \par<b>Description</b><br>
 926:C:/Workspaces/Dave 4/CTPOT_test1/Libraries/XMCLib/inc\xmc_usic.h ****  * Selects which edge of the synchronized signal DXnS activates the trigger output DXnT of the inpu
 927:C:/Workspaces/Dave 4/CTPOT_test1/Libraries/XMCLib/inc\xmc_usic.h ****  *
 928:C:/Workspaces/Dave 4/CTPOT_test1/Libraries/XMCLib/inc\xmc_usic.h ****  * \par<b>Related APIs:</b><BR>
 929:C:/Workspaces/Dave 4/CTPOT_test1/Libraries/XMCLib/inc\xmc_usic.h ****  * XMC_USIC_CH_SetInputSource(), XMC_USIC_CH_EnableInputSync(), XMC_USIC_CH_EnableInputDigitalFilte
 930:C:/Workspaces/Dave 4/CTPOT_test1/Libraries/XMCLib/inc\xmc_usic.h ****  */
 931:C:/Workspaces/Dave 4/CTPOT_test1/Libraries/XMCLib/inc\xmc_usic.h **** __STATIC_INLINE void XMC_USIC_CH_SetInputTriggerCombinationMode(XMC_USIC_CH_t *const channel,
 932:C:/Workspaces/Dave 4/CTPOT_test1/Libraries/XMCLib/inc\xmc_usic.h **** 		                                                        const XMC_USIC_CH_INPUT_t input,
 933:C:/Workspaces/Dave 4/CTPOT_test1/Libraries/XMCLib/inc\xmc_usic.h **** 		                                                        const XMC_USIC_CH_INPUT_COMBINATION_MODE_
 934:C:/Workspaces/Dave 4/CTPOT_test1/Libraries/XMCLib/inc\xmc_usic.h **** {
 935:C:/Workspaces/Dave 4/CTPOT_test1/Libraries/XMCLib/inc\xmc_usic.h ****   channel->DXCR[input] = (uint32_t)(channel->DXCR[input] & (~USIC_CH_DXCR_CM_Msk)) |
 936:C:/Workspaces/Dave 4/CTPOT_test1/Libraries/XMCLib/inc\xmc_usic.h ****                          ((uint32_t)combination_mode << USIC_CH_DXCR_CM_Pos);
 937:C:/Workspaces/Dave 4/CTPOT_test1/Libraries/XMCLib/inc\xmc_usic.h **** }
 938:C:/Workspaces/Dave 4/CTPOT_test1/Libraries/XMCLib/inc\xmc_usic.h **** 
 939:C:/Workspaces/Dave 4/CTPOT_test1/Libraries/XMCLib/inc\xmc_usic.h **** /**
 940:C:/Workspaces/Dave 4/CTPOT_test1/Libraries/XMCLib/inc\xmc_usic.h ****  * @param  channel Pointer to USIC channel handler of type @ref XMC_USIC_CH_t \n
 941:C:/Workspaces/Dave 4/CTPOT_test1/Libraries/XMCLib/inc\xmc_usic.h ****  * 				   \b Range: @ref XMC_USIC0_CH0, @ref XMC_USIC0_CH1 to @ref XMC_USIC2_CH1 based on device su
 942:C:/Workspaces/Dave 4/CTPOT_test1/Libraries/XMCLib/inc\xmc_usic.h ****  * @param  clock_source clock source for the BRG.
 943:C:/Workspaces/Dave 4/CTPOT_test1/Libraries/XMCLib/inc\xmc_usic.h ****  * @return None
 944:C:/Workspaces/Dave 4/CTPOT_test1/Libraries/XMCLib/inc\xmc_usic.h ****  *
 945:C:/Workspaces/Dave 4/CTPOT_test1/Libraries/XMCLib/inc\xmc_usic.h ****  * \par<b>Description</b><br>
 946:C:/Workspaces/Dave 4/CTPOT_test1/Libraries/XMCLib/inc\xmc_usic.h ****  * Sets the clock source for the BRG. \n\n
 947:C:/Workspaces/Dave 4/CTPOT_test1/Libraries/XMCLib/inc\xmc_usic.h ****  *
 948:C:/Workspaces/Dave 4/CTPOT_test1/Libraries/XMCLib/inc\xmc_usic.h ****  * \par<b>Related APIs:</b><BR>
 949:C:/Workspaces/Dave 4/CTPOT_test1/Libraries/XMCLib/inc\xmc_usic.h ****  * XMC_USIC_CH_SetInputTriggerCombinationMode(), XMC_USIC_CH_SetExternalClockBRGDivider()\n\n\n
 950:C:/Workspaces/Dave 4/CTPOT_test1/Libraries/XMCLib/inc\xmc_usic.h ****  */
 951:C:/Workspaces/Dave 4/CTPOT_test1/Libraries/XMCLib/inc\xmc_usic.h **** __STATIC_INLINE void XMC_USIC_CH_SetBRGInputClockSource(XMC_USIC_CH_t *const channel, const XMC_USI
 952:C:/Workspaces/Dave 4/CTPOT_test1/Libraries/XMCLib/inc\xmc_usic.h **** {
 953:C:/Workspaces/Dave 4/CTPOT_test1/Libraries/XMCLib/inc\xmc_usic.h ****   channel->BRG = (uint32_t)(channel->BRG & (~USIC_CH_BRG_CLKSEL_Msk)) | (uint32_t)(clock_source);
 954:C:/Workspaces/Dave 4/CTPOT_test1/Libraries/XMCLib/inc\xmc_usic.h **** }
 955:C:/Workspaces/Dave 4/CTPOT_test1/Libraries/XMCLib/inc\xmc_usic.h **** 
 956:C:/Workspaces/Dave 4/CTPOT_test1/Libraries/XMCLib/inc\xmc_usic.h **** /**
 957:C:/Workspaces/Dave 4/CTPOT_test1/Libraries/XMCLib/inc\xmc_usic.h ****  * @param channel Pointer to USIC channel handler of type @ref XMC_USIC_CH_t \n
 958:C:/Workspaces/Dave 4/CTPOT_test1/Libraries/XMCLib/inc\xmc_usic.h ****  * 				   \b Range: @ref XMC_USIC0_CH0, @ref XMC_USIC0_CH1 to @ref XMC_USIC2_CH1 based on device su
 959:C:/Workspaces/Dave 4/CTPOT_test1/Libraries/XMCLib/inc\xmc_usic.h ****  * @param data Data to be transmitted. \n
 960:C:/Workspaces/Dave 4/CTPOT_test1/Libraries/XMCLib/inc\xmc_usic.h ****  *           \b Range: 16bit unsigned data. minimum= 0, maximum= 65535
 961:C:/Workspaces/Dave 4/CTPOT_test1/Libraries/XMCLib/inc\xmc_usic.h ****  * @return None
 962:C:/Workspaces/Dave 4/CTPOT_test1/Libraries/XMCLib/inc\xmc_usic.h ****  *
 963:C:/Workspaces/Dave 4/CTPOT_test1/Libraries/XMCLib/inc\xmc_usic.h ****  * \par<b>Description</b><br>
 964:C:/Workspaces/Dave 4/CTPOT_test1/Libraries/XMCLib/inc\xmc_usic.h ****  * Writes data into the transmit buffer. \n\n
 965:C:/Workspaces/Dave 4/CTPOT_test1/Libraries/XMCLib/inc\xmc_usic.h ****  * The data provided is placed in TBUF[0U].
 966:C:/Workspaces/Dave 4/CTPOT_test1/Libraries/XMCLib/inc\xmc_usic.h ****  *
 967:C:/Workspaces/Dave 4/CTPOT_test1/Libraries/XMCLib/inc\xmc_usic.h ****  *
 968:C:/Workspaces/Dave 4/CTPOT_test1/Libraries/XMCLib/inc\xmc_usic.h ****  * \par<b>Related APIs:</b><BR>
 969:C:/Workspaces/Dave 4/CTPOT_test1/Libraries/XMCLib/inc\xmc_usic.h ****  * XMC_USIC_CH_WriteToTBUFTCI() \n\n\n
 970:C:/Workspaces/Dave 4/CTPOT_test1/Libraries/XMCLib/inc\xmc_usic.h ****  */
 971:C:/Workspaces/Dave 4/CTPOT_test1/Libraries/XMCLib/inc\xmc_usic.h **** __STATIC_INLINE void XMC_USIC_CH_WriteToTBUF(XMC_USIC_CH_t *const channel, const uint16_t data)
 972:C:/Workspaces/Dave 4/CTPOT_test1/Libraries/XMCLib/inc\xmc_usic.h **** {
 973:C:/Workspaces/Dave 4/CTPOT_test1/Libraries/XMCLib/inc\xmc_usic.h ****   channel->TBUF[0U] = data;
 974:C:/Workspaces/Dave 4/CTPOT_test1/Libraries/XMCLib/inc\xmc_usic.h **** }
 975:C:/Workspaces/Dave 4/CTPOT_test1/Libraries/XMCLib/inc\xmc_usic.h **** 
 976:C:/Workspaces/Dave 4/CTPOT_test1/Libraries/XMCLib/inc\xmc_usic.h **** /**
 977:C:/Workspaces/Dave 4/CTPOT_test1/Libraries/XMCLib/inc\xmc_usic.h ****  * @param channel Pointer to USIC channel handler of type @ref XMC_USIC_CH_t \n
 978:C:/Workspaces/Dave 4/CTPOT_test1/Libraries/XMCLib/inc\xmc_usic.h ****  * 				   \b Range: @ref XMC_USIC0_CH0, @ref XMC_USIC0_CH1 to @ref XMC_USIC2_CH1 based on device su
 979:C:/Workspaces/Dave 4/CTPOT_test1/Libraries/XMCLib/inc\xmc_usic.h ****  * @param data Data to be transmitted.
 980:C:/Workspaces/Dave 4/CTPOT_test1/Libraries/XMCLib/inc\xmc_usic.h ****  * @param transmit_control_information transmit control information to be configured while transmit
 981:C:/Workspaces/Dave 4/CTPOT_test1/Libraries/XMCLib/inc\xmc_usic.h ****  * 			\b Range: minimum= 0, maximum= 31.
 982:C:/Workspaces/Dave 4/CTPOT_test1/Libraries/XMCLib/inc\xmc_usic.h ****  * @return None
 983:C:/Workspaces/Dave 4/CTPOT_test1/Libraries/XMCLib/inc\xmc_usic.h ****  *
 984:C:/Workspaces/Dave 4/CTPOT_test1/Libraries/XMCLib/inc\xmc_usic.h ****  * \par<b>Description</b><br>
 985:C:/Workspaces/Dave 4/CTPOT_test1/Libraries/XMCLib/inc\xmc_usic.h ****  * Writes data to the transmit buffer in a control mode. \n\n
 986:C:/Workspaces/Dave 4/CTPOT_test1/Libraries/XMCLib/inc\xmc_usic.h ****  * When the respective control mode is enabled , this API can be used.
 987:C:/Workspaces/Dave 4/CTPOT_test1/Libraries/XMCLib/inc\xmc_usic.h ****  *
 988:C:/Workspaces/Dave 4/CTPOT_test1/Libraries/XMCLib/inc\xmc_usic.h ****  *
 989:C:/Workspaces/Dave 4/CTPOT_test1/Libraries/XMCLib/inc\xmc_usic.h ****  * \par<b>Related APIs:</b><BR>
 990:C:/Workspaces/Dave 4/CTPOT_test1/Libraries/XMCLib/inc\xmc_usic.h ****  * XMC_USIC_CH_WriteToTBUF() \n\n\n
 991:C:/Workspaces/Dave 4/CTPOT_test1/Libraries/XMCLib/inc\xmc_usic.h ****  */
 992:C:/Workspaces/Dave 4/CTPOT_test1/Libraries/XMCLib/inc\xmc_usic.h **** __STATIC_INLINE void XMC_USIC_CH_WriteToTBUFTCI(XMC_USIC_CH_t *const channel,
 993:C:/Workspaces/Dave 4/CTPOT_test1/Libraries/XMCLib/inc\xmc_usic.h ****                                              const uint16_t data,
 994:C:/Workspaces/Dave 4/CTPOT_test1/Libraries/XMCLib/inc\xmc_usic.h ****                                              const uint32_t transmit_control_information)
 995:C:/Workspaces/Dave 4/CTPOT_test1/Libraries/XMCLib/inc\xmc_usic.h **** {
 996:C:/Workspaces/Dave 4/CTPOT_test1/Libraries/XMCLib/inc\xmc_usic.h ****   channel->TBUF[transmit_control_information] = data;
 997:C:/Workspaces/Dave 4/CTPOT_test1/Libraries/XMCLib/inc\xmc_usic.h **** }
 998:C:/Workspaces/Dave 4/CTPOT_test1/Libraries/XMCLib/inc\xmc_usic.h **** 
 999:C:/Workspaces/Dave 4/CTPOT_test1/Libraries/XMCLib/inc\xmc_usic.h **** /**
1000:C:/Workspaces/Dave 4/CTPOT_test1/Libraries/XMCLib/inc\xmc_usic.h ****  * @param  channel Pointer to USIC channel handler of type @ref XMC_USIC_CH_t \n
1001:C:/Workspaces/Dave 4/CTPOT_test1/Libraries/XMCLib/inc\xmc_usic.h ****  * 				   \b Range: @ref XMC_USIC0_CH0, @ref XMC_USIC0_CH1 to @ref XMC_USIC2_CH1 based on device su
1002:C:/Workspaces/Dave 4/CTPOT_test1/Libraries/XMCLib/inc\xmc_usic.h ****  * @param  word_length Number of bits to be configured for a data word. \n
1003:C:/Workspaces/Dave 4/CTPOT_test1/Libraries/XMCLib/inc\xmc_usic.h ****  * 					   \b Range: minimum= 1, maximum= 16. \n
1004:C:/Workspaces/Dave 4/CTPOT_test1/Libraries/XMCLib/inc\xmc_usic.h ****  * 					   e.g: For word length of 8, \a word_length should be provided as 8.
1005:C:/Workspaces/Dave 4/CTPOT_test1/Libraries/XMCLib/inc\xmc_usic.h ****  * @return None
1006:C:/Workspaces/Dave 4/CTPOT_test1/Libraries/XMCLib/inc\xmc_usic.h ****  *
1007:C:/Workspaces/Dave 4/CTPOT_test1/Libraries/XMCLib/inc\xmc_usic.h ****  * \par<b>Description</b><br>
1008:C:/Workspaces/Dave 4/CTPOT_test1/Libraries/XMCLib/inc\xmc_usic.h ****  * Sets the data word length in number of bits. \n\n
1009:C:/Workspaces/Dave 4/CTPOT_test1/Libraries/XMCLib/inc\xmc_usic.h ****  * Sets the number of bits to represent a data word. Frame length should be a multiple of word leng
1010:C:/Workspaces/Dave 4/CTPOT_test1/Libraries/XMCLib/inc\xmc_usic.h ****  *
1011:C:/Workspaces/Dave 4/CTPOT_test1/Libraries/XMCLib/inc\xmc_usic.h ****  * \par<b>Related APIs:</b><BR>
1012:C:/Workspaces/Dave 4/CTPOT_test1/Libraries/XMCLib/inc\xmc_usic.h ****  * XMC_USIC_CH_SetFrameLength()\n\n\n
1013:C:/Workspaces/Dave 4/CTPOT_test1/Libraries/XMCLib/inc\xmc_usic.h ****  */
1014:C:/Workspaces/Dave 4/CTPOT_test1/Libraries/XMCLib/inc\xmc_usic.h **** __STATIC_INLINE void XMC_USIC_CH_SetWordLength(XMC_USIC_CH_t *const channel, const uint8_t word_len
1015:C:/Workspaces/Dave 4/CTPOT_test1/Libraries/XMCLib/inc\xmc_usic.h **** {
1016:C:/Workspaces/Dave 4/CTPOT_test1/Libraries/XMCLib/inc\xmc_usic.h ****   channel->SCTR = (uint32_t)(channel->SCTR & (~USIC_CH_SCTR_WLE_Msk)) |
1017:C:/Workspaces/Dave 4/CTPOT_test1/Libraries/XMCLib/inc\xmc_usic.h ****                   (uint32_t)(((uint32_t)word_length - 1UL)  << USIC_CH_SCTR_WLE_Pos);
1018:C:/Workspaces/Dave 4/CTPOT_test1/Libraries/XMCLib/inc\xmc_usic.h **** }
1019:C:/Workspaces/Dave 4/CTPOT_test1/Libraries/XMCLib/inc\xmc_usic.h **** 
1020:C:/Workspaces/Dave 4/CTPOT_test1/Libraries/XMCLib/inc\xmc_usic.h **** /**
1021:C:/Workspaces/Dave 4/CTPOT_test1/Libraries/XMCLib/inc\xmc_usic.h ****  * @param  channel Pointer to USIC channel handler of type @ref XMC_USIC_CH_t \n
1022:C:/Workspaces/Dave 4/CTPOT_test1/Libraries/XMCLib/inc\xmc_usic.h ****  *           \b Range: @ref XMC_USIC0_CH0, @ref XMC_USIC0_CH1 to @ref XMC_USIC2_CH1 based on device
1023:C:/Workspaces/Dave 4/CTPOT_test1/Libraries/XMCLib/inc\xmc_usic.h ****  * @param  word_length Number of bits to be configured for a data word. \n
1024:C:/Workspaces/Dave 4/CTPOT_test1/Libraries/XMCLib/inc\xmc_usic.h ****  *             \b Range: minimum= 1, maximum= 16. \n
1025:C:/Workspaces/Dave 4/CTPOT_test1/Libraries/XMCLib/inc\xmc_usic.h ****  *             e.g: For word length of 8, \a word_length should be provided as 8.
1026:C:/Workspaces/Dave 4/CTPOT_test1/Libraries/XMCLib/inc\xmc_usic.h ****  * @return None
1027:C:/Workspaces/Dave 4/CTPOT_test1/Libraries/XMCLib/inc\xmc_usic.h ****  *
1028:C:/Workspaces/Dave 4/CTPOT_test1/Libraries/XMCLib/inc\xmc_usic.h ****  * \par<b>Description</b><br>
1029:C:/Workspaces/Dave 4/CTPOT_test1/Libraries/XMCLib/inc\xmc_usic.h ****  * Sets the data word length in number of bits. \n\n
1030:C:/Workspaces/Dave 4/CTPOT_test1/Libraries/XMCLib/inc\xmc_usic.h ****  * Sets the number of bits to represent a data word. Frame length should be a multiple of word leng
1031:C:/Workspaces/Dave 4/CTPOT_test1/Libraries/XMCLib/inc\xmc_usic.h ****  *
1032:C:/Workspaces/Dave 4/CTPOT_test1/Libraries/XMCLib/inc\xmc_usic.h ****  * \par<b>Related APIs:</b><BR>
1033:C:/Workspaces/Dave 4/CTPOT_test1/Libraries/XMCLib/inc\xmc_usic.h ****  * XMC_USIC_CH_SetFrameLength()\n\n\n
1034:C:/Workspaces/Dave 4/CTPOT_test1/Libraries/XMCLib/inc\xmc_usic.h ****  */
1035:C:/Workspaces/Dave 4/CTPOT_test1/Libraries/XMCLib/inc\xmc_usic.h **** __STATIC_INLINE void XMC_USIC_CH_SetShiftDirection(XMC_USIC_CH_t *const channel, const XMC_USIC_CH_
1036:C:/Workspaces/Dave 4/CTPOT_test1/Libraries/XMCLib/inc\xmc_usic.h **** {
1037:C:/Workspaces/Dave 4/CTPOT_test1/Libraries/XMCLib/inc\xmc_usic.h ****   channel->SCTR = (uint32_t)(channel->SCTR & (~USIC_CH_SCTR_SDIR_Msk)) | (uint32_t)shift_direction;
1038:C:/Workspaces/Dave 4/CTPOT_test1/Libraries/XMCLib/inc\xmc_usic.h **** }
1039:C:/Workspaces/Dave 4/CTPOT_test1/Libraries/XMCLib/inc\xmc_usic.h **** 
1040:C:/Workspaces/Dave 4/CTPOT_test1/Libraries/XMCLib/inc\xmc_usic.h **** 
1041:C:/Workspaces/Dave 4/CTPOT_test1/Libraries/XMCLib/inc\xmc_usic.h **** /**
1042:C:/Workspaces/Dave 4/CTPOT_test1/Libraries/XMCLib/inc\xmc_usic.h ****  * @param  channel Pointer to USIC channel handler of type @ref XMC_USIC_CH_t \n
1043:C:/Workspaces/Dave 4/CTPOT_test1/Libraries/XMCLib/inc\xmc_usic.h ****  *           \b Range: @ref XMC_USIC0_CH0, @ref XMC_USIC0_CH1 to @ref XMC_USIC2_CH1 based on device
1044:C:/Workspaces/Dave 4/CTPOT_test1/Libraries/XMCLib/inc\xmc_usic.h ****  * @return Captured counter value 
1045:C:/Workspaces/Dave 4/CTPOT_test1/Libraries/XMCLib/inc\xmc_usic.h ****  *
1046:C:/Workspaces/Dave 4/CTPOT_test1/Libraries/XMCLib/inc\xmc_usic.h ****  *
1047:C:/Workspaces/Dave 4/CTPOT_test1/Libraries/XMCLib/inc\xmc_usic.h ****  * \par<b>Description</b><br>
1048:C:/Workspaces/Dave 4/CTPOT_test1/Libraries/XMCLib/inc\xmc_usic.h ****  * The value of the counter is captured if one of the trigger signals DX0T or DX1T are activated by
1049:C:/Workspaces/Dave 4/CTPOT_test1/Libraries/XMCLib/inc\xmc_usic.h ****  */
1050:C:/Workspaces/Dave 4/CTPOT_test1/Libraries/XMCLib/inc\xmc_usic.h **** __STATIC_INLINE uint32_t XMC_USIC_CH_GetCaptureTimerValue(const XMC_USIC_CH_t *const channel)
1051:C:/Workspaces/Dave 4/CTPOT_test1/Libraries/XMCLib/inc\xmc_usic.h **** {
1052:C:/Workspaces/Dave 4/CTPOT_test1/Libraries/XMCLib/inc\xmc_usic.h ****   return channel->CMTR;
1053:C:/Workspaces/Dave 4/CTPOT_test1/Libraries/XMCLib/inc\xmc_usic.h **** }
1054:C:/Workspaces/Dave 4/CTPOT_test1/Libraries/XMCLib/inc\xmc_usic.h **** 
1055:C:/Workspaces/Dave 4/CTPOT_test1/Libraries/XMCLib/inc\xmc_usic.h **** /**
1056:C:/Workspaces/Dave 4/CTPOT_test1/Libraries/XMCLib/inc\xmc_usic.h ****  * @param  channel Pointer to USIC channel handler of type @ref XMC_USIC_CH_t \n
1057:C:/Workspaces/Dave 4/CTPOT_test1/Libraries/XMCLib/inc\xmc_usic.h ****  *           \b Range: @ref XMC_USIC0_CH0, @ref XMC_USIC0_CH1 to @ref XMC_USIC2_CH1 based on device
1058:C:/Workspaces/Dave 4/CTPOT_test1/Libraries/XMCLib/inc\xmc_usic.h ****  * @param  mode divider mode ::XMC_USIC_CH_BRG_CLOCK_DIVIDER_MODE_t \n
1059:C:/Workspaces/Dave 4/CTPOT_test1/Libraries/XMCLib/inc\xmc_usic.h ****  * @param  step divider \n
1060:C:/Workspaces/Dave 4/CTPOT_test1/Libraries/XMCLib/inc\xmc_usic.h ****  *             \b XMC_USIC_CH_BRG_CLOCK_DIVIDER_MODE_NORMAL resulting divider = 1023 - step \n
1061:C:/Workspaces/Dave 4/CTPOT_test1/Libraries/XMCLib/inc\xmc_usic.h ****  *             \b XMC_USIC_CH_BRG_CLOCK_DIVIDER_MODE_FRACTIONAL resulting divider = 1023 / step \n
1062:C:/Workspaces/Dave 4/CTPOT_test1/Libraries/XMCLib/inc\xmc_usic.h ****  * 
1063:C:/Workspaces/Dave 4/CTPOT_test1/Libraries/XMCLib/inc\xmc_usic.h ****  * @return None
1064:C:/Workspaces/Dave 4/CTPOT_test1/Libraries/XMCLib/inc\xmc_usic.h ****  * 
1065:C:/Workspaces/Dave 4/CTPOT_test1/Libraries/XMCLib/inc\xmc_usic.h ****  * \par<b>Description</b><br>
1066:C:/Workspaces/Dave 4/CTPOT_test1/Libraries/XMCLib/inc\xmc_usic.h ****  * The fractional divider generates its output frequency fFD by either dividing the input frequency
1067:C:/Workspaces/Dave 4/CTPOT_test1/Libraries/XMCLib/inc\xmc_usic.h ****  *
1068:C:/Workspaces/Dave 4/CTPOT_test1/Libraries/XMCLib/inc\xmc_usic.h ****  */
1069:C:/Workspaces/Dave 4/CTPOT_test1/Libraries/XMCLib/inc\xmc_usic.h **** __STATIC_INLINE void XMC_USIC_CH_SetFractionalDivider(XMC_USIC_CH_t *const channel, const XMC_USIC_
1070:C:/Workspaces/Dave 4/CTPOT_test1/Libraries/XMCLib/inc\xmc_usic.h **** {
1071:C:/Workspaces/Dave 4/CTPOT_test1/Libraries/XMCLib/inc\xmc_usic.h ****   channel->FDR = mode | step;
1072:C:/Workspaces/Dave 4/CTPOT_test1/Libraries/XMCLib/inc\xmc_usic.h **** }
1073:C:/Workspaces/Dave 4/CTPOT_test1/Libraries/XMCLib/inc\xmc_usic.h **** 
1074:C:/Workspaces/Dave 4/CTPOT_test1/Libraries/XMCLib/inc\xmc_usic.h **** /**
1075:C:/Workspaces/Dave 4/CTPOT_test1/Libraries/XMCLib/inc\xmc_usic.h ****  * @param  channel Pointer to USIC channel handler of type @ref XMC_USIC_CH_t \n
1076:C:/Workspaces/Dave 4/CTPOT_test1/Libraries/XMCLib/inc\xmc_usic.h ****  * 				   \b Range: @ref XMC_USIC0_CH0, @ref XMC_USIC0_CH1 to @ref XMC_USIC2_CH1 based on device su
1077:C:/Workspaces/Dave 4/CTPOT_test1/Libraries/XMCLib/inc\xmc_usic.h ****  * @param  frame_length Number of bits in a frame. \n
1078:C:/Workspaces/Dave 4/CTPOT_test1/Libraries/XMCLib/inc\xmc_usic.h ****  * 						\b Range: minimum= 1, maximum= 0x3f. The maximum value for fixed frame size is 0x3f. \n
1079:C:/Workspaces/Dave 4/CTPOT_test1/Libraries/XMCLib/inc\xmc_usic.h ****  * 						e.g: For a frame length of 16, \a frame_length should be provided as 16.
1080:C:/Workspaces/Dave 4/CTPOT_test1/Libraries/XMCLib/inc\xmc_usic.h ****  * @return None
1081:C:/Workspaces/Dave 4/CTPOT_test1/Libraries/XMCLib/inc\xmc_usic.h ****  *
1082:C:/Workspaces/Dave 4/CTPOT_test1/Libraries/XMCLib/inc\xmc_usic.h ****  * \par<b>Description</b><br>
1083:C:/Workspaces/Dave 4/CTPOT_test1/Libraries/XMCLib/inc\xmc_usic.h ****  * Define the data frame length.\n\n
1084:C:/Workspaces/Dave 4/CTPOT_test1/Libraries/XMCLib/inc\xmc_usic.h ****  * Set the number of bits to be serially transmitted in a frame.
1085:C:/Workspaces/Dave 4/CTPOT_test1/Libraries/XMCLib/inc\xmc_usic.h ****  * The frame length should be multiples of word length. If the value is set to 0x40, the frame leng
1086:C:/Workspaces/Dave 4/CTPOT_test1/Libraries/XMCLib/inc\xmc_usic.h ****  * has to be controlled explicitly. 
1087:C:/Workspaces/Dave 4/CTPOT_test1/Libraries/XMCLib/inc\xmc_usic.h ****  *
1088:C:/Workspaces/Dave 4/CTPOT_test1/Libraries/XMCLib/inc\xmc_usic.h ****  * \par<b>Related APIs:</b><BR>
1089:C:/Workspaces/Dave 4/CTPOT_test1/Libraries/XMCLib/inc\xmc_usic.h ****  * XMC_USIC_CH_SetWordLength(), XMC_USIC_CH_EnableFrameLengthControl() \n\n\n
1090:C:/Workspaces/Dave 4/CTPOT_test1/Libraries/XMCLib/inc\xmc_usic.h ****  */
1091:C:/Workspaces/Dave 4/CTPOT_test1/Libraries/XMCLib/inc\xmc_usic.h **** __STATIC_INLINE void XMC_USIC_CH_SetFrameLength(XMC_USIC_CH_t *const channel, const uint8_t frame_l
1092:C:/Workspaces/Dave 4/CTPOT_test1/Libraries/XMCLib/inc\xmc_usic.h **** {
1093:C:/Workspaces/Dave 4/CTPOT_test1/Libraries/XMCLib/inc\xmc_usic.h ****   channel->SCTR = (uint32_t)(channel->SCTR & (~USIC_CH_SCTR_FLE_Msk)) |
1094:C:/Workspaces/Dave 4/CTPOT_test1/Libraries/XMCLib/inc\xmc_usic.h ****                   (((uint32_t)frame_length - 0x1U)  << USIC_CH_SCTR_FLE_Pos);
1095:C:/Workspaces/Dave 4/CTPOT_test1/Libraries/XMCLib/inc\xmc_usic.h **** }
1096:C:/Workspaces/Dave 4/CTPOT_test1/Libraries/XMCLib/inc\xmc_usic.h **** 
1097:C:/Workspaces/Dave 4/CTPOT_test1/Libraries/XMCLib/inc\xmc_usic.h **** /**
1098:C:/Workspaces/Dave 4/CTPOT_test1/Libraries/XMCLib/inc\xmc_usic.h ****  * @param channel Pointer to USIC channel handler of type @ref XMC_USIC_CH_t \n
1099:C:/Workspaces/Dave 4/CTPOT_test1/Libraries/XMCLib/inc\xmc_usic.h ****  * 				   \b Range: @ref XMC_USIC0_CH0, @ref XMC_USIC0_CH1 to @ref XMC_USIC2_CH1 based on device su
1100:C:/Workspaces/Dave 4/CTPOT_test1/Libraries/XMCLib/inc\xmc_usic.h ****  * @param event Bit mask of the channel events to be enabled. Use @ref XMC_USIC_CH_EVENT_t for the 
1101:C:/Workspaces/Dave 4/CTPOT_test1/Libraries/XMCLib/inc\xmc_usic.h ****  * 				\b Range: @ref XMC_USIC_CH_EVENT_RECEIVE_START, @ref XMC_USIC_CH_EVENT_DATA_LOST etc. Multip
1102:C:/Workspaces/Dave 4/CTPOT_test1/Libraries/XMCLib/inc\xmc_usic.h ****  * 				can be combined using \a OR operation.
1103:C:/Workspaces/Dave 4/CTPOT_test1/Libraries/XMCLib/inc\xmc_usic.h ****  * @return None
1104:C:/Workspaces/Dave 4/CTPOT_test1/Libraries/XMCLib/inc\xmc_usic.h ****  *
1105:C:/Workspaces/Dave 4/CTPOT_test1/Libraries/XMCLib/inc\xmc_usic.h ****  * \par<b>Description</b><br>
1106:C:/Workspaces/Dave 4/CTPOT_test1/Libraries/XMCLib/inc\xmc_usic.h ****  * Enable the channel interrupt events.\n\n
1107:C:/Workspaces/Dave 4/CTPOT_test1/Libraries/XMCLib/inc\xmc_usic.h ****  * Common channel events related to serial communication can be configured using this API.
1108:C:/Workspaces/Dave 4/CTPOT_test1/Libraries/XMCLib/inc\xmc_usic.h ****  * Multiple events can be combined using the bitwise OR operation and configured in one function ca
1109:C:/Workspaces/Dave 4/CTPOT_test1/Libraries/XMCLib/inc\xmc_usic.h ****  * XMC_USIC_CH_EVENT_t enumerates multiple protocol event bitmasks. These enumerations can be used 
1110:C:/Workspaces/Dave 4/CTPOT_test1/Libraries/XMCLib/inc\xmc_usic.h ****  *
1111:C:/Workspaces/Dave 4/CTPOT_test1/Libraries/XMCLib/inc\xmc_usic.h ****  * \par<b>Related APIs:</b><BR>
1112:C:/Workspaces/Dave 4/CTPOT_test1/Libraries/XMCLib/inc\xmc_usic.h ****  * XMC_USIC_CH_DisableEvent(), XMC_USIC_CH_SetInterruptNodePointer() \n\n\n
1113:C:/Workspaces/Dave 4/CTPOT_test1/Libraries/XMCLib/inc\xmc_usic.h ****  */
1114:C:/Workspaces/Dave 4/CTPOT_test1/Libraries/XMCLib/inc\xmc_usic.h **** __STATIC_INLINE void XMC_USIC_CH_EnableEvent(XMC_USIC_CH_t *const channel, const uint32_t event)
1115:C:/Workspaces/Dave 4/CTPOT_test1/Libraries/XMCLib/inc\xmc_usic.h **** {
1116:C:/Workspaces/Dave 4/CTPOT_test1/Libraries/XMCLib/inc\xmc_usic.h ****   channel->CCR |= event;
1117:C:/Workspaces/Dave 4/CTPOT_test1/Libraries/XMCLib/inc\xmc_usic.h **** }
1118:C:/Workspaces/Dave 4/CTPOT_test1/Libraries/XMCLib/inc\xmc_usic.h **** 
1119:C:/Workspaces/Dave 4/CTPOT_test1/Libraries/XMCLib/inc\xmc_usic.h **** /**
1120:C:/Workspaces/Dave 4/CTPOT_test1/Libraries/XMCLib/inc\xmc_usic.h ****  * @param channel Pointer to USIC channel handler of type @ref XMC_USIC_CH_t \n
1121:C:/Workspaces/Dave 4/CTPOT_test1/Libraries/XMCLib/inc\xmc_usic.h ****  * 				  \b Range: @ref XMC_USIC0_CH0, @ref XMC_USIC0_CH1 to @ref XMC_USIC2_CH1 based on device sup
1122:C:/Workspaces/Dave 4/CTPOT_test1/Libraries/XMCLib/inc\xmc_usic.h ****  * @param event Bit mask of the channel events to be disabled. Use @ref XMC_USIC_CH_EVENT_t for the
1123:C:/Workspaces/Dave 4/CTPOT_test1/Libraries/XMCLib/inc\xmc_usic.h ****  * 				\b Range: @ref XMC_USIC_CH_EVENT_RECEIVE_START, @ref XMC_USIC_CH_EVENT_DATA_LOST etc. Multip
1124:C:/Workspaces/Dave 4/CTPOT_test1/Libraries/XMCLib/inc\xmc_usic.h ****  * 				can be combined using \a OR operation.
1125:C:/Workspaces/Dave 4/CTPOT_test1/Libraries/XMCLib/inc\xmc_usic.h ****  * @return None
1126:C:/Workspaces/Dave 4/CTPOT_test1/Libraries/XMCLib/inc\xmc_usic.h ****  *
1127:C:/Workspaces/Dave 4/CTPOT_test1/Libraries/XMCLib/inc\xmc_usic.h ****  * \par<b>Description</b><br>
1128:C:/Workspaces/Dave 4/CTPOT_test1/Libraries/XMCLib/inc\xmc_usic.h ****  * Disable the channel interrupt events. \n\n
1129:C:/Workspaces/Dave 4/CTPOT_test1/Libraries/XMCLib/inc\xmc_usic.h ****  * Multiple events can be combined using the bitwise OR operation and configured in one function ca
1130:C:/Workspaces/Dave 4/CTPOT_test1/Libraries/XMCLib/inc\xmc_usic.h ****  * XMC_USIC_CH_EVENT_t enumerates multiple protocol event bitmasks. These enumerations can be used 
1131:C:/Workspaces/Dave 4/CTPOT_test1/Libraries/XMCLib/inc\xmc_usic.h ****  *
1132:C:/Workspaces/Dave 4/CTPOT_test1/Libraries/XMCLib/inc\xmc_usic.h ****  * \par<b>Related APIs:</b><BR>
1133:C:/Workspaces/Dave 4/CTPOT_test1/Libraries/XMCLib/inc\xmc_usic.h ****  * XMC_USIC_CH_EnableEvent(), XMC_USIC_CH_SetInterruptNodePointer() \n\n\n
1134:C:/Workspaces/Dave 4/CTPOT_test1/Libraries/XMCLib/inc\xmc_usic.h **** */
1135:C:/Workspaces/Dave 4/CTPOT_test1/Libraries/XMCLib/inc\xmc_usic.h **** __STATIC_INLINE void XMC_USIC_CH_DisableEvent(XMC_USIC_CH_t *const channel, const uint32_t event)
1136:C:/Workspaces/Dave 4/CTPOT_test1/Libraries/XMCLib/inc\xmc_usic.h **** {
1137:C:/Workspaces/Dave 4/CTPOT_test1/Libraries/XMCLib/inc\xmc_usic.h ****   channel->CCR &= (uint32_t)~event;
1138:C:/Workspaces/Dave 4/CTPOT_test1/Libraries/XMCLib/inc\xmc_usic.h **** }
1139:C:/Workspaces/Dave 4/CTPOT_test1/Libraries/XMCLib/inc\xmc_usic.h **** 
1140:C:/Workspaces/Dave 4/CTPOT_test1/Libraries/XMCLib/inc\xmc_usic.h **** /**
1141:C:/Workspaces/Dave 4/CTPOT_test1/Libraries/XMCLib/inc\xmc_usic.h ****  * @param channel Pointer to USIC channel handler of type @ref XMC_USIC_CH_t \n
1142:C:/Workspaces/Dave 4/CTPOT_test1/Libraries/XMCLib/inc\xmc_usic.h ****  * 				  \b Range: @ref XMC_USIC0_CH0, @ref XMC_USIC0_CH1 to @ref XMC_USIC2_CH1 based on device sup
1143:C:/Workspaces/Dave 4/CTPOT_test1/Libraries/XMCLib/inc\xmc_usic.h ****  * @param  interrupt_node Interrupt node pointer to be configured. \n
1144:C:/Workspaces/Dave 4/CTPOT_test1/Libraries/XMCLib/inc\xmc_usic.h ****  * 						  \b Range: @ref XMC_USIC_CH_INTERRUPT_NODE_POINTER_TRANSMIT_SHIFT,
1145:C:/Workspaces/Dave 4/CTPOT_test1/Libraries/XMCLib/inc\xmc_usic.h ****  * 						  			@ref XMC_USIC_CH_INTERRUPT_NODE_POINTER_TRANSMIT_BUFFER etc.
1146:C:/Workspaces/Dave 4/CTPOT_test1/Libraries/XMCLib/inc\xmc_usic.h ****  * @param service_request Service request number.\n
1147:C:/Workspaces/Dave 4/CTPOT_test1/Libraries/XMCLib/inc\xmc_usic.h ****  * 						  \b Range: 0 to 5.
1148:C:/Workspaces/Dave 4/CTPOT_test1/Libraries/XMCLib/inc\xmc_usic.h ****  * @return None
1149:C:/Workspaces/Dave 4/CTPOT_test1/Libraries/XMCLib/inc\xmc_usic.h ****  *
1150:C:/Workspaces/Dave 4/CTPOT_test1/Libraries/XMCLib/inc\xmc_usic.h ****  * \par<b>Description</b><br>
1151:C:/Workspaces/Dave 4/CTPOT_test1/Libraries/XMCLib/inc\xmc_usic.h ****  * Sets the interrupt node for USIC channel events. \n\n
1152:C:/Workspaces/Dave 4/CTPOT_test1/Libraries/XMCLib/inc\xmc_usic.h ****  * For an event to generate interrupt, node pointer should be configured with service request(SR0, 
1153:C:/Workspaces/Dave 4/CTPOT_test1/Libraries/XMCLib/inc\xmc_usic.h ****  * The NVIC node gets linked to the interrupt event by doing so.<br>
1154:C:/Workspaces/Dave 4/CTPOT_test1/Libraries/XMCLib/inc\xmc_usic.h ****  * Note: NVIC node should be separately enabled to generate the interrupt.
1155:C:/Workspaces/Dave 4/CTPOT_test1/Libraries/XMCLib/inc\xmc_usic.h ****  *
1156:C:/Workspaces/Dave 4/CTPOT_test1/Libraries/XMCLib/inc\xmc_usic.h ****  * \par<b>Related APIs:</b><BR>
1157:C:/Workspaces/Dave 4/CTPOT_test1/Libraries/XMCLib/inc\xmc_usic.h ****  * XMC_USIC_CH_EnableEvent() \n\n\n
1158:C:/Workspaces/Dave 4/CTPOT_test1/Libraries/XMCLib/inc\xmc_usic.h ****  */
1159:C:/Workspaces/Dave 4/CTPOT_test1/Libraries/XMCLib/inc\xmc_usic.h **** void XMC_USIC_CH_SetInterruptNodePointer(XMC_USIC_CH_t *const channel,
1160:C:/Workspaces/Dave 4/CTPOT_test1/Libraries/XMCLib/inc\xmc_usic.h ****                                          const XMC_USIC_CH_INTERRUPT_NODE_POINTER_t interrupt_node,
1161:C:/Workspaces/Dave 4/CTPOT_test1/Libraries/XMCLib/inc\xmc_usic.h ****                                          const uint32_t service_request);
1162:C:/Workspaces/Dave 4/CTPOT_test1/Libraries/XMCLib/inc\xmc_usic.h **** 
1163:C:/Workspaces/Dave 4/CTPOT_test1/Libraries/XMCLib/inc\xmc_usic.h **** /**
1164:C:/Workspaces/Dave 4/CTPOT_test1/Libraries/XMCLib/inc\xmc_usic.h ****  * @param  channel Pointer to USIC channel handler of type @ref XMC_USIC_CH_t \n
1165:C:/Workspaces/Dave 4/CTPOT_test1/Libraries/XMCLib/inc\xmc_usic.h ****  * 				   \b Range: @ref XMC_USIC0_CH0, @ref XMC_USIC0_CH1 to @ref XMC_USIC2_CH1 based on device su
1166:C:/Workspaces/Dave 4/CTPOT_test1/Libraries/XMCLib/inc\xmc_usic.h ****  * @return Stataus @ref XMC_USIC_CH_TBUF_STATUS_IDLE if transmit buffer is free,
1167:C:/Workspaces/Dave 4/CTPOT_test1/Libraries/XMCLib/inc\xmc_usic.h ****  *                 @ref XMC_USIC_CH_TBUF_STATUS_BUSY if transmit buffer is busy.
1168:C:/Workspaces/Dave 4/CTPOT_test1/Libraries/XMCLib/inc\xmc_usic.h ****  *
1169:C:/Workspaces/Dave 4/CTPOT_test1/Libraries/XMCLib/inc\xmc_usic.h ****  * \par<b>Description</b><br>
1170:C:/Workspaces/Dave 4/CTPOT_test1/Libraries/XMCLib/inc\xmc_usic.h ****  * Gets transmit buffer status. \n\n
1171:C:/Workspaces/Dave 4/CTPOT_test1/Libraries/XMCLib/inc\xmc_usic.h ****  * Status indicates whether the transmit buffer is free, or busy transmitting data.
1172:C:/Workspaces/Dave 4/CTPOT_test1/Libraries/XMCLib/inc\xmc_usic.h ****  * The status depends on the value of TDV flag in TCSR register.
1173:C:/Workspaces/Dave 4/CTPOT_test1/Libraries/XMCLib/inc\xmc_usic.h ****  * This status can be used while transmitting data. Transmit data when the transmit buffer
1174:C:/Workspaces/Dave 4/CTPOT_test1/Libraries/XMCLib/inc\xmc_usic.h ****  * status is @ref XMC_USIC_CH_TBUF_STATUS_IDLE.
1175:C:/Workspaces/Dave 4/CTPOT_test1/Libraries/XMCLib/inc\xmc_usic.h ****  *
1176:C:/Workspaces/Dave 4/CTPOT_test1/Libraries/XMCLib/inc\xmc_usic.h ****  * \par<b>Related APIs:</b><BR>
1177:C:/Workspaces/Dave 4/CTPOT_test1/Libraries/XMCLib/inc\xmc_usic.h ****  * XMC_USIC_CH_SetDataOutputMode() \n\n\n
1178:C:/Workspaces/Dave 4/CTPOT_test1/Libraries/XMCLib/inc\xmc_usic.h ****  */
1179:C:/Workspaces/Dave 4/CTPOT_test1/Libraries/XMCLib/inc\xmc_usic.h **** __STATIC_INLINE XMC_USIC_CH_TBUF_STATUS_t XMC_USIC_CH_GetTransmitBufferStatus(XMC_USIC_CH_t *const 
1180:C:/Workspaces/Dave 4/CTPOT_test1/Libraries/XMCLib/inc\xmc_usic.h **** {
1181:C:/Workspaces/Dave 4/CTPOT_test1/Libraries/XMCLib/inc\xmc_usic.h ****   return (XMC_USIC_CH_TBUF_STATUS_t)(channel->TCSR & USIC_CH_TCSR_TDV_Msk);
1182:C:/Workspaces/Dave 4/CTPOT_test1/Libraries/XMCLib/inc\xmc_usic.h **** }
1183:C:/Workspaces/Dave 4/CTPOT_test1/Libraries/XMCLib/inc\xmc_usic.h **** 
1184:C:/Workspaces/Dave 4/CTPOT_test1/Libraries/XMCLib/inc\xmc_usic.h **** /**
1185:C:/Workspaces/Dave 4/CTPOT_test1/Libraries/XMCLib/inc\xmc_usic.h ****  * @brief API to get receive buffer status
1186:C:/Workspaces/Dave 4/CTPOT_test1/Libraries/XMCLib/inc\xmc_usic.h ****  * @param  channel Pointer to USIC channel handler of type @ref XMC_USIC_CH_t \n
1187:C:/Workspaces/Dave 4/CTPOT_test1/Libraries/XMCLib/inc\xmc_usic.h ****  * 				   \b Range: @ref XMC_USIC0_CH0, @ref XMC_USIC0_CH1 to @ref XMC_USIC2_CH1 based on device su
1188:C:/Workspaces/Dave 4/CTPOT_test1/Libraries/XMCLib/inc\xmc_usic.h ****  * @return Status of data validity check for RBUF0 and RBUF1. \n
1189:C:/Workspaces/Dave 4/CTPOT_test1/Libraries/XMCLib/inc\xmc_usic.h ****  * 		   Returned value should be masked with RDV0 and RDV1 bits to know the status. \n
1190:C:/Workspaces/Dave 4/CTPOT_test1/Libraries/XMCLib/inc\xmc_usic.h ****  * 		   \b Range: @ref XMC_USIC_CH_RBUF_STATUS_DATA_VALID0, @ref XMC_USIC_CH_RBUF_STATUS_DATA_VALID
1191:C:/Workspaces/Dave 4/CTPOT_test1/Libraries/XMCLib/inc\xmc_usic.h ****  *
1192:C:/Workspaces/Dave 4/CTPOT_test1/Libraries/XMCLib/inc\xmc_usic.h ****  * \par<b>Description</b><br>
1193:C:/Workspaces/Dave 4/CTPOT_test1/Libraries/XMCLib/inc\xmc_usic.h ****  * Checks if RBUF0 and RBUF1 have valid unread data. \n\n
1194:C:/Workspaces/Dave 4/CTPOT_test1/Libraries/XMCLib/inc\xmc_usic.h ****  * It checks the bits RDV0 and RDV1 of the RBUFSR register.
1195:C:/Workspaces/Dave 4/CTPOT_test1/Libraries/XMCLib/inc\xmc_usic.h ****  * Returns the value of RBUFSR masked with bitmasks of RDV0 and RDV1.
1196:C:/Workspaces/Dave 4/CTPOT_test1/Libraries/XMCLib/inc\xmc_usic.h ****  * It can be used to decide whether 2bytes has to be read from RBUF or 1 byte. 
1197:C:/Workspaces/Dave 4/CTPOT_test1/Libraries/XMCLib/inc\xmc_usic.h ****  * If both bitmasks XMC_USIC_CH_RBUF_STATUS_DATA_VALID0 and XMC_USIC_CH_RBUF_STATUS_DATA_VALID1
1198:C:/Workspaces/Dave 4/CTPOT_test1/Libraries/XMCLib/inc\xmc_usic.h ****  * are set, then 2 bytes can be read from RBUF. If only either of them is set, then only one byte
1199:C:/Workspaces/Dave 4/CTPOT_test1/Libraries/XMCLib/inc\xmc_usic.h ****  * can be read from RBUF.
1200:C:/Workspaces/Dave 4/CTPOT_test1/Libraries/XMCLib/inc\xmc_usic.h ****  * \par<b>Related APIs:</b><BR>
1201:C:/Workspaces/Dave 4/CTPOT_test1/Libraries/XMCLib/inc\xmc_usic.h ****  * XMC_USIC_CH_GetTransmitBufferStatus() \n\n\n
1202:C:/Workspaces/Dave 4/CTPOT_test1/Libraries/XMCLib/inc\xmc_usic.h ****  */
1203:C:/Workspaces/Dave 4/CTPOT_test1/Libraries/XMCLib/inc\xmc_usic.h **** __STATIC_INLINE uint32_t XMC_USIC_CH_GetReceiveBufferStatus(XMC_USIC_CH_t *const channel)
1204:C:/Workspaces/Dave 4/CTPOT_test1/Libraries/XMCLib/inc\xmc_usic.h **** {
1205:C:/Workspaces/Dave 4/CTPOT_test1/Libraries/XMCLib/inc\xmc_usic.h ****   return ((uint32_t) (channel->RBUFSR & (USIC_CH_RBUFSR_RDV0_Msk | USIC_CH_RBUFSR_RDV1_Msk)));
1206:C:/Workspaces/Dave 4/CTPOT_test1/Libraries/XMCLib/inc\xmc_usic.h **** }
1207:C:/Workspaces/Dave 4/CTPOT_test1/Libraries/XMCLib/inc\xmc_usic.h **** 
1208:C:/Workspaces/Dave 4/CTPOT_test1/Libraries/XMCLib/inc\xmc_usic.h **** 
1209:C:/Workspaces/Dave 4/CTPOT_test1/Libraries/XMCLib/inc\xmc_usic.h **** /**
1210:C:/Workspaces/Dave 4/CTPOT_test1/Libraries/XMCLib/inc\xmc_usic.h ****  * @param  channel Pointer to USIC channel handler of type @ref XMC_USIC_CH_t \n
1211:C:/Workspaces/Dave 4/CTPOT_test1/Libraries/XMCLib/inc\xmc_usic.h ****  * 				   \b Range: @ref XMC_USIC0_CH0, @ref XMC_USIC0_CH1 to @ref XMC_USIC2_CH1 based on device su
1212:C:/Workspaces/Dave 4/CTPOT_test1/Libraries/XMCLib/inc\xmc_usic.h ****  * @param  start_transmision_mode Transmission mode to be enabled. \n
1213:C:/Workspaces/Dave 4/CTPOT_test1/Libraries/XMCLib/inc\xmc_usic.h ****  * 								\b Range: @ref XMC_USIC_CH_START_TRANSMISION_DISABLED,
1214:C:/Workspaces/Dave 4/CTPOT_test1/Libraries/XMCLib/inc\xmc_usic.h ****  * 								@ref XMC_USIC_CH_START_TRANSMISION_ON_TDV, @ref XMC_USIC_CH_START_TRANSMISION_ON_TDV_DX2
1215:C:/Workspaces/Dave 4/CTPOT_test1/Libraries/XMCLib/inc\xmc_usic.h ****  * 								@ref XMC_USIC_CH_START_TRANSMISION_ON_TDV_DX2S_1
1216:C:/Workspaces/Dave 4/CTPOT_test1/Libraries/XMCLib/inc\xmc_usic.h ****  *                              
1217:C:/Workspaces/Dave 4/CTPOT_test1/Libraries/XMCLib/inc\xmc_usic.h ****  * @return None
1218:C:/Workspaces/Dave 4/CTPOT_test1/Libraries/XMCLib/inc\xmc_usic.h ****  *
1219:C:/Workspaces/Dave 4/CTPOT_test1/Libraries/XMCLib/inc\xmc_usic.h ****  * \par<b>Description</b><br>
1220:C:/Workspaces/Dave 4/CTPOT_test1/Libraries/XMCLib/inc\xmc_usic.h ****  * Configures data transmission. \n\n
1221:C:/Workspaces/Dave 4/CTPOT_test1/Libraries/XMCLib/inc\xmc_usic.h ****  * The configuration affects the data shifted on the DOUT0 pin.
1222:C:/Workspaces/Dave 4/CTPOT_test1/Libraries/XMCLib/inc\xmc_usic.h ****  * 
1223:C:/Workspaces/Dave 4/CTPOT_test1/Libraries/XMCLib/inc\xmc_usic.h ****  * \par<b>Related APIs:</b><BR>
1224:C:/Workspaces/Dave 4/CTPOT_test1/Libraries/XMCLib/inc\xmc_usic.h ****  * XMC_USIC_CH_GetTransmitBufferStatus(), XMC_USIC_CH_SetDataOutputMode() \n\n\n
1225:C:/Workspaces/Dave 4/CTPOT_test1/Libraries/XMCLib/inc\xmc_usic.h ****  */
1226:C:/Workspaces/Dave 4/CTPOT_test1/Libraries/XMCLib/inc\xmc_usic.h **** __STATIC_INLINE void XMC_USIC_CH_SetStartTransmisionMode(XMC_USIC_CH_t *const channel,
1227:C:/Workspaces/Dave 4/CTPOT_test1/Libraries/XMCLib/inc\xmc_usic.h ****                                                          const XMC_USIC_CH_START_TRANSMISION_MODE_t
1228:C:/Workspaces/Dave 4/CTPOT_test1/Libraries/XMCLib/inc\xmc_usic.h **** {
1229:C:/Workspaces/Dave 4/CTPOT_test1/Libraries/XMCLib/inc\xmc_usic.h ****   channel->TCSR = (uint32_t)(channel->TCSR & (~USIC_CH_TCSR_TDEN_Msk)) | (uint32_t)start_transmisio
1230:C:/Workspaces/Dave 4/CTPOT_test1/Libraries/XMCLib/inc\xmc_usic.h **** }
1231:C:/Workspaces/Dave 4/CTPOT_test1/Libraries/XMCLib/inc\xmc_usic.h **** 
1232:C:/Workspaces/Dave 4/CTPOT_test1/Libraries/XMCLib/inc\xmc_usic.h **** 
1233:C:/Workspaces/Dave 4/CTPOT_test1/Libraries/XMCLib/inc\xmc_usic.h **** /**
1234:C:/Workspaces/Dave 4/CTPOT_test1/Libraries/XMCLib/inc\xmc_usic.h ****  * @param  channel Pointer to USIC channel handler of type @ref XMC_USIC_CH_t \n
1235:C:/Workspaces/Dave 4/CTPOT_test1/Libraries/XMCLib/inc\xmc_usic.h ****  * 				   \b Range: @ref XMC_USIC0_CH0, @ref XMC_USIC0_CH1 to @ref XMC_USIC2_CH1 based on device su
1236:C:/Workspaces/Dave 4/CTPOT_test1/Libraries/XMCLib/inc\xmc_usic.h ****  * @param  data_output_mode  Data output mode. \n
1237:C:/Workspaces/Dave 4/CTPOT_test1/Libraries/XMCLib/inc\xmc_usic.h ****  * 			\b Range: @ref XMC_USIC_CH_DATA_OUTPUT_MODE_NORMAL, @ref XMC_USIC_CH_DATA_OUTPUT_MODE_INVERTE
1238:C:/Workspaces/Dave 4/CTPOT_test1/Libraries/XMCLib/inc\xmc_usic.h ****  * @return None
1239:C:/Workspaces/Dave 4/CTPOT_test1/Libraries/XMCLib/inc\xmc_usic.h ****  *
1240:C:/Workspaces/Dave 4/CTPOT_test1/Libraries/XMCLib/inc\xmc_usic.h ****  * \par<b>Description</b><br>
1241:C:/Workspaces/Dave 4/CTPOT_test1/Libraries/XMCLib/inc\xmc_usic.h ****  * Configures the mode for data output. \n\n
1242:C:/Workspaces/Dave 4/CTPOT_test1/Libraries/XMCLib/inc\xmc_usic.h ****  * USIC channel can be configured to shift inverted data or direct data based on the input to the A
1243:C:/Workspaces/Dave 4/CTPOT_test1/Libraries/XMCLib/inc\xmc_usic.h ****  * 
1244:C:/Workspaces/Dave 4/CTPOT_test1/Libraries/XMCLib/inc\xmc_usic.h ****  * \par<b>Related APIs:</b><BR>
1245:C:/Workspaces/Dave 4/CTPOT_test1/Libraries/XMCLib/inc\xmc_usic.h ****  * XMC_USIC_CH_SetStartTransmisionMode() \n\n\n
1246:C:/Workspaces/Dave 4/CTPOT_test1/Libraries/XMCLib/inc\xmc_usic.h ****  */
1247:C:/Workspaces/Dave 4/CTPOT_test1/Libraries/XMCLib/inc\xmc_usic.h **** __STATIC_INLINE void XMC_USIC_CH_SetDataOutputMode(XMC_USIC_CH_t *const channel,
1248:C:/Workspaces/Dave 4/CTPOT_test1/Libraries/XMCLib/inc\xmc_usic.h ****                                                    const XMC_USIC_CH_DATA_OUTPUT_MODE_t data_output
1249:C:/Workspaces/Dave 4/CTPOT_test1/Libraries/XMCLib/inc\xmc_usic.h **** {
1250:C:/Workspaces/Dave 4/CTPOT_test1/Libraries/XMCLib/inc\xmc_usic.h ****   channel->SCTR = (uint32_t)(channel->SCTR & (~USIC_CH_SCTR_DOCFG_Msk)) | (uint32_t)data_output_mod
1251:C:/Workspaces/Dave 4/CTPOT_test1/Libraries/XMCLib/inc\xmc_usic.h **** }
1252:C:/Workspaces/Dave 4/CTPOT_test1/Libraries/XMCLib/inc\xmc_usic.h **** 
1253:C:/Workspaces/Dave 4/CTPOT_test1/Libraries/XMCLib/inc\xmc_usic.h **** /**
1254:C:/Workspaces/Dave 4/CTPOT_test1/Libraries/XMCLib/inc\xmc_usic.h ****  * @param  channel Pointer to USIC channel handler of type @ref XMC_USIC_CH_t \n
1255:C:/Workspaces/Dave 4/CTPOT_test1/Libraries/XMCLib/inc\xmc_usic.h ****  * 				   \b Range: @ref XMC_USIC0_CH0, @ref XMC_USIC0_CH1 to @ref XMC_USIC2_CH1 based on device su
1256:C:/Workspaces/Dave 4/CTPOT_test1/Libraries/XMCLib/inc\xmc_usic.h ****  * @return None
1257:C:/Workspaces/Dave 4/CTPOT_test1/Libraries/XMCLib/inc\xmc_usic.h ****  *
1258:C:/Workspaces/Dave 4/CTPOT_test1/Libraries/XMCLib/inc\xmc_usic.h ****  * \par<b>Description</b><br>
1259:C:/Workspaces/Dave 4/CTPOT_test1/Libraries/XMCLib/inc\xmc_usic.h ****  * Enables automatic update of frame length. \n\n
1260:C:/Workspaces/Dave 4/CTPOT_test1/Libraries/XMCLib/inc\xmc_usic.h ****  * When the automatic update of frame length is enabled, frame length is configured based on the 
1261:C:/Workspaces/Dave 4/CTPOT_test1/Libraries/XMCLib/inc\xmc_usic.h ****  * index of the TBUF[]/IN[] register array. When the data is written to TBUF[x], frame length is co
1262:C:/Workspaces/Dave 4/CTPOT_test1/Libraries/XMCLib/inc\xmc_usic.h ****  * with the mask value of \a x at the last 5 bit positions. Same logic is applicable if data is wri
1263:C:/Workspaces/Dave 4/CTPOT_test1/Libraries/XMCLib/inc\xmc_usic.h ****  * IN[x] register.
1264:C:/Workspaces/Dave 4/CTPOT_test1/Libraries/XMCLib/inc\xmc_usic.h ****  *
1265:C:/Workspaces/Dave 4/CTPOT_test1/Libraries/XMCLib/inc\xmc_usic.h ****  * \par<b>Related APIs:</b><BR>
1266:C:/Workspaces/Dave 4/CTPOT_test1/Libraries/XMCLib/inc\xmc_usic.h ****  * XMC_USIC_CH_DisableFrameLengthControl(), XMC_USIC_CH_TXFIFO_PutDataFLEMode() \n\n\n
1267:C:/Workspaces/Dave 4/CTPOT_test1/Libraries/XMCLib/inc\xmc_usic.h ****  */
1268:C:/Workspaces/Dave 4/CTPOT_test1/Libraries/XMCLib/inc\xmc_usic.h **** __STATIC_INLINE void XMC_USIC_CH_EnableFrameLengthControl(XMC_USIC_CH_t *const channel)
1269:C:/Workspaces/Dave 4/CTPOT_test1/Libraries/XMCLib/inc\xmc_usic.h **** {
1270:C:/Workspaces/Dave 4/CTPOT_test1/Libraries/XMCLib/inc\xmc_usic.h ****   channel->TCSR = (uint32_t)(channel->TCSR & (~(USIC_CH_TCSR_WLEMD_Msk |
1271:C:/Workspaces/Dave 4/CTPOT_test1/Libraries/XMCLib/inc\xmc_usic.h ****                                          USIC_CH_TCSR_SELMD_Msk |
1272:C:/Workspaces/Dave 4/CTPOT_test1/Libraries/XMCLib/inc\xmc_usic.h ****                                          USIC_CH_TCSR_WAMD_Msk |
1273:C:/Workspaces/Dave 4/CTPOT_test1/Libraries/XMCLib/inc\xmc_usic.h ****                                          USIC_CH_TCSR_HPCMD_Msk))) |
1274:C:/Workspaces/Dave 4/CTPOT_test1/Libraries/XMCLib/inc\xmc_usic.h ****                                          (uint32_t)USIC_CH_TCSR_FLEMD_Msk;
1275:C:/Workspaces/Dave 4/CTPOT_test1/Libraries/XMCLib/inc\xmc_usic.h **** }
1276:C:/Workspaces/Dave 4/CTPOT_test1/Libraries/XMCLib/inc\xmc_usic.h **** 
1277:C:/Workspaces/Dave 4/CTPOT_test1/Libraries/XMCLib/inc\xmc_usic.h **** /**
1278:C:/Workspaces/Dave 4/CTPOT_test1/Libraries/XMCLib/inc\xmc_usic.h ****  * @param  channel Pointer to USIC channel handler of type @ref XMC_USIC_CH_t \n
1279:C:/Workspaces/Dave 4/CTPOT_test1/Libraries/XMCLib/inc\xmc_usic.h ****  * 				   \b Range: @ref XMC_USIC0_CH0, @ref XMC_USIC0_CH1 to @ref XMC_USIC2_CH1 based on device su
1280:C:/Workspaces/Dave 4/CTPOT_test1/Libraries/XMCLib/inc\xmc_usic.h ****  * @return None
1281:C:/Workspaces/Dave 4/CTPOT_test1/Libraries/XMCLib/inc\xmc_usic.h ****  *
1282:C:/Workspaces/Dave 4/CTPOT_test1/Libraries/XMCLib/inc\xmc_usic.h ****  * \par<b>Description</b><br>
1283:C:/Workspaces/Dave 4/CTPOT_test1/Libraries/XMCLib/inc\xmc_usic.h ****  * Disables automatic update of frame length. \n\n
1284:C:/Workspaces/Dave 4/CTPOT_test1/Libraries/XMCLib/inc\xmc_usic.h ****  * When automatic update of frame length is disabled, frame length has to configured explicitly.
1285:C:/Workspaces/Dave 4/CTPOT_test1/Libraries/XMCLib/inc\xmc_usic.h ****  * Frame length remains fixed until it is changed again.
1286:C:/Workspaces/Dave 4/CTPOT_test1/Libraries/XMCLib/inc\xmc_usic.h ****  *
1287:C:/Workspaces/Dave 4/CTPOT_test1/Libraries/XMCLib/inc\xmc_usic.h ****  * \par<b>Related APIs:</b><BR>
1288:C:/Workspaces/Dave 4/CTPOT_test1/Libraries/XMCLib/inc\xmc_usic.h ****  * XMC_USIC_CH_DisableFrameLengthControl(), XMC_USIC_CH_SetFrameLength() \n\n\n
1289:C:/Workspaces/Dave 4/CTPOT_test1/Libraries/XMCLib/inc\xmc_usic.h ****  */
1290:C:/Workspaces/Dave 4/CTPOT_test1/Libraries/XMCLib/inc\xmc_usic.h **** __STATIC_INLINE void XMC_USIC_CH_DisableFrameLengthControl(XMC_USIC_CH_t *const channel)
1291:C:/Workspaces/Dave 4/CTPOT_test1/Libraries/XMCLib/inc\xmc_usic.h **** {
1292:C:/Workspaces/Dave 4/CTPOT_test1/Libraries/XMCLib/inc\xmc_usic.h ****   channel->TCSR &= (uint32_t)~USIC_CH_TCSR_FLEMD_Msk;
1293:C:/Workspaces/Dave 4/CTPOT_test1/Libraries/XMCLib/inc\xmc_usic.h **** }
1294:C:/Workspaces/Dave 4/CTPOT_test1/Libraries/XMCLib/inc\xmc_usic.h **** 
1295:C:/Workspaces/Dave 4/CTPOT_test1/Libraries/XMCLib/inc\xmc_usic.h **** /**
